TI ARM Assembler PC v16.9.0 Sun Feb 19 22:05:31 2017

Tools Copyright (c) 1996-2015 Texas Instruments Incorporated
C:\Users\bob\AppData\Local\Temp\0664410                              PAGE    1

       1                    ;******************************************************************************
       2                    ;* TI ARM C/C++ Codegen                                        PC v16.9.0.LTS *
       3                    ;* Date/Time created: Sun Feb 19 22:05:30 2017                                *
       4                    ;******************************************************************************
       5                            .compiler_opts --abi=eabi --arm_vmrs_si_workaround=off --code_state=32 --diag_wrap=off --embed
       6 00000000                   .state32
       7                    
       8                    $C$DW$CU        .dwtag  DW_TAG_compile_unit
       9                            .dwattr $C$DW$CU, DW_AT_name("../demoapp/source/app_main_NoOS.c")
      10                            .dwattr $C$DW$CU, DW_AT_producer("TI TI ARM C/C++ Codegen PC v16.9.0.LTS Copyright (c) 1996-20
      11                            .dwattr $C$DW$CU, DW_AT_TI_version(0x01)
      12                            .dwattr $C$DW$CU, DW_AT_comp_dir("C:\Users\bob\Documents\Projects\induct_forge\RM57Lx_test\Pro
      13                    
      14                    $C$DW$1 .dwtag  DW_TAG_subprogram
      15                            .dwattr $C$DW$1, DW_AT_name("_enable_IRQ")
      16                            .dwattr $C$DW$1, DW_AT_TI_symbol_name("_enable_IRQ")
      17                            .dwattr $C$DW$1, DW_AT_type(*$C$DW$T$11)
      18                            .dwattr $C$DW$1, DW_AT_declaration
      19                            .dwattr $C$DW$1, DW_AT_external
      20                            .dwendtag $C$DW$1
      21                    
      22                    
      23                    $C$DW$2 .dwtag  DW_TAG_subprogram
      24                            .dwattr $C$DW$2, DW_AT_name("rtiInit")
      25                            .dwattr $C$DW$2, DW_AT_TI_symbol_name("rtiInit")
      26                            .dwattr $C$DW$2, DW_AT_declaration
      27                            .dwattr $C$DW$2, DW_AT_external
      28                            .dwattr $C$DW$2, DW_AT_decl_file("C:/Users/bob/Documents/Projects/induct_forge/RM57Lx_test/Pro
      29                            .dwattr $C$DW$2, DW_AT_decl_line(0x11a)
      30                            .dwattr $C$DW$2, DW_AT_decl_column(0x06)
      31                            .dwendtag $C$DW$2
      32                    
      33                    
      34                    $C$DW$3 .dwtag  DW_TAG_subprogram
      35                            .dwattr $C$DW$3, DW_AT_name("rtiStartCounter")
      36                            .dwattr $C$DW$3, DW_AT_TI_symbol_name("rtiStartCounter")
      37                            .dwattr $C$DW$3, DW_AT_declaration
      38                            .dwattr $C$DW$3, DW_AT_external
      39                            .dwattr $C$DW$3, DW_AT_decl_file("C:/Users/bob/Documents/Projects/induct_forge/RM57Lx_test/Pro
      40                            .dwattr $C$DW$3, DW_AT_decl_line(0x11b)
      41                            .dwattr $C$DW$3, DW_AT_decl_column(0x06)
      42                    $C$DW$4 .dwtag  DW_TAG_formal_parameter
      43                            .dwattr $C$DW$4, DW_AT_type(*$C$DW$T$105)
      44                    
      45                    $C$DW$5 .dwtag  DW_TAG_formal_parameter
      46                            .dwattr $C$DW$5, DW_AT_type(*$C$DW$T$20)
      47                    
      48                            .dwendtag $C$DW$3
      49                    
      50                    
      51                    $C$DW$6 .dwtag  DW_TAG_subprogram
      52                            .dwattr $C$DW$6, DW_AT_name("rtiEnableNotification")
      53                            .dwattr $C$DW$6, DW_AT_TI_symbol_name("rtiEnableNotification")
      54                            .dwattr $C$DW$6, DW_AT_declaration
      55                            .dwattr $C$DW$6, DW_AT_external
TI ARM Assembler PC v16.9.0 Sun Feb 19 22:05:31 2017

Tools Copyright (c) 1996-2015 Texas Instruments Incorporated
C:\Users\bob\AppData\Local\Temp\0664410                              PAGE    2

      56                            .dwattr $C$DW$6, DW_AT_decl_file("C:/Users/bob/Documents/Projects/induct_forge/RM57Lx_test/Pro
      57                            .dwattr $C$DW$6, DW_AT_decl_line(0x121)
      58                            .dwattr $C$DW$6, DW_AT_decl_column(0x06)
      59                    $C$DW$7 .dwtag  DW_TAG_formal_parameter
      60                            .dwattr $C$DW$7, DW_AT_type(*$C$DW$T$105)
      61                    
      62                    $C$DW$8 .dwtag  DW_TAG_formal_parameter
      63                            .dwattr $C$DW$8, DW_AT_type(*$C$DW$T$20)
      64                    
      65                            .dwendtag $C$DW$6
      66                    
      67                    
      68                    $C$DW$9 .dwtag  DW_TAG_subprogram
      69                            .dwattr $C$DW$9, DW_AT_name("ROLMinit")
      70                            .dwattr $C$DW$9, DW_AT_TI_symbol_name("ROLMinit")
      71                            .dwattr $C$DW$9, DW_AT_declaration
      72                            .dwattr $C$DW$9, DW_AT_external
      73                            .dwattr $C$DW$9, DW_AT_decl_file("C:/Users/bob/Documents/Projects/induct_forge/RM57Lx_test/Pro
      74                            .dwattr $C$DW$9, DW_AT_decl_line(0x53)
      75                            .dwattr $C$DW$9, DW_AT_decl_column(0x06)
      76                            .dwendtag $C$DW$9
      77                    
      78                    
      79                    $C$DW$10        .dwtag  DW_TAG_subprogram
      80                            .dwattr $C$DW$10, DW_AT_name("ROLMSDO")
      81                            .dwattr $C$DW$10, DW_AT_TI_symbol_name("ROLMSDO")
      82                            .dwattr $C$DW$10, DW_AT_declaration
      83                            .dwattr $C$DW$10, DW_AT_external
      84                            .dwattr $C$DW$10, DW_AT_decl_file("C:/Users/bob/Documents/Projects/induct_forge/RM57Lx_test/Pr
      85                            .dwattr $C$DW$10, DW_AT_decl_line(0x54)
      86                            .dwattr $C$DW$10, DW_AT_decl_column(0x06)
      87                    $C$DW$11        .dwtag  DW_TAG_formal_parameter
      88                            .dwattr $C$DW$11, DW_AT_type(*$C$DW$T$24)
      89                    
      90                            .dwendtag $C$DW$10
      91                    
      92                    
      93                    $C$DW$12        .dwtag  DW_TAG_subprogram
      94                            .dwattr $C$DW$12, DW_AT_name("ROLMEDO")
      95                            .dwattr $C$DW$12, DW_AT_TI_symbol_name("ROLMEDO")
      96                            .dwattr $C$DW$12, DW_AT_declaration
      97                            .dwattr $C$DW$12, DW_AT_external
      98                            .dwattr $C$DW$12, DW_AT_decl_file("C:/Users/bob/Documents/Projects/induct_forge/RM57Lx_test/Pr
      99                            .dwattr $C$DW$12, DW_AT_decl_line(0x55)
     100                            .dwattr $C$DW$12, DW_AT_decl_column(0x06)
     101                            .dwendtag $C$DW$12
     102                    
     103                    
     104                    $C$DW$13        .dwtag  DW_TAG_subprogram
     105                            .dwattr $C$DW$13, DW_AT_name("ROLMDDO")
     106                            .dwattr $C$DW$13, DW_AT_TI_symbol_name("ROLMDDO")
     107                            .dwattr $C$DW$13, DW_AT_declaration
     108                            .dwattr $C$DW$13, DW_AT_external
     109                            .dwattr $C$DW$13, DW_AT_decl_file("C:/Users/bob/Documents/Projects/induct_forge/RM57Lx_test/Pr
     110                            .dwattr $C$DW$13, DW_AT_decl_line(0x56)
TI ARM Assembler PC v16.9.0 Sun Feb 19 22:05:31 2017

Tools Copyright (c) 1996-2015 Texas Instruments Incorporated
C:\Users\bob\AppData\Local\Temp\0664410                              PAGE    3

     111                            .dwattr $C$DW$13, DW_AT_decl_column(0x06)
     112                            .dwendtag $C$DW$13
     113                    
     114                    ;       C:\ti\ccsv7\tools\compiler\ti-cgt-arm_16.9.0.LTS\bin\armacpia.exe -@C:\\Users\\bob\\AppData\\L
     115 00000000                   .sect   ".text:retain"
     116                            .retain
     117                            .retainrefs
     118                            .armfunc buttonISR
     119 00000000                   .state32
     120                            .global buttonISR
     121                    
     122                    $C$DW$14        .dwtag  DW_TAG_subprogram
     123                            .dwattr $C$DW$14, DW_AT_name("buttonISR")
     124                            .dwattr $C$DW$14, DW_AT_low_pc(buttonISR)
     125                            .dwattr $C$DW$14, DW_AT_high_pc(0x00)
     126                            .dwattr $C$DW$14, DW_AT_TI_symbol_name("buttonISR")
     127                            .dwattr $C$DW$14, DW_AT_external
     128                            .dwattr $C$DW$14, DW_AT_TI_begin_file("../demoapp/source/app_main_NoOS.c")
     129                            .dwattr $C$DW$14, DW_AT_TI_begin_line(0x23)
     130                            .dwattr $C$DW$14, DW_AT_TI_begin_column(0x06)
     131                            .dwattr $C$DW$14, DW_AT_decl_file("../demoapp/source/app_main_NoOS.c")
     132                            .dwattr $C$DW$14, DW_AT_decl_line(0x23)
     133                            .dwattr $C$DW$14, DW_AT_decl_column(0x06)
     134                            .dwattr $C$DW$14, DW_AT_TI_interrupt
     135                            .dwattr $C$DW$14, DW_AT_TI_max_frame_size(0x10)
     136                            .dwpsn  file "../demoapp/source/app_main_NoOS.c",line 36,column 1,is_stmt,address buttonISR,is
     137                    
     138                            .dwfde $C$DW$CIE, buttonISR
     139                    
     140                    ;*****************************************************************************
     141                    ;* FUNCTION NAME: buttonISR                                                  *
     142                    ;*                                                                           *
     143                    ;*   Regs Modified     : A1,V9,SP,LR,SR                                      *
     144                    ;*   Regs Used         : A1,V9,SP,LR,SR                                      *
     145                    ;*   Local Frame Size  : 0 Args + 4 Auto + 12 Save = 16 byte                 *
     146                    ;*****************************************************************************
     147 00000000           buttonISR:
     148                    ;* --------------------------------------------------------------------------*
     149                            .dwcfi  cfa_offset, 0
     150 00000000 E92D5001          STMFD     SP!, {A1, V9, LR}     ; [DPU_4_PIPE0] 
     151                            .dwcfi  cfa_offset, 12
     152                            .dwcfi  save_reg_to_mem, 14, -4
     153                            .dwcfi  save_reg_to_mem, 12, -8
     154                            .dwcfi  save_reg_to_mem, 0, -12
     155 00000004 E24DD004          SUB       SP, SP, #4            ; [DPU_4_PIPE0] 
     156                            .dwcfi  cfa_offset, 16
     157                    $C$DW$15        .dwtag  DW_TAG_variable
     158                            .dwattr $C$DW$15, DW_AT_name("offset")
     159                            .dwattr $C$DW$15, DW_AT_TI_symbol_name("offset")
     160                            .dwattr $C$DW$15, DW_AT_type(*$C$DW$T$20)
     161                            .dwattr $C$DW$15, DW_AT_location[DW_OP_breg13 0]
     162                    
     163                            .dwpsn  file "../demoapp/source/app_main_NoOS.c",line 38,column 19,is_stmt,isa 2
     164 00000008 E59FC064          LDR       V9, $C$CON1           ; [DPU_4_PIPE0] |38| 
     165 0000000c E59CC000          LDR       V9, [V9, #0]          ; [DPU_4_PIPE0] |38| 
TI ARM Assembler PC v16.9.0 Sun Feb 19 22:05:31 2017

Tools Copyright (c) 1996-2015 Texas Instruments Incorporated
C:\Users\bob\AppData\Local\Temp\0664410                              PAGE    4

     166 00000010 E58DC000          STR       V9, [SP, #0]          ; [DPU_4_PIPE0] |38| 
     167                            .dwpsn  file "../demoapp/source/app_main_NoOS.c",line 40,column 5,is_stmt,isa 2
     168 00000014 E59DC000          LDR       V9, [SP, #0]          ; [DPU_4_PIPE0] |40| 
     169 00000018 E35C0000          CMP       V9, #0                ; [DPU_4_PIPE0] |40| 
     170 0000001c 0AFFFFFE!         BEQ       ||$C$L2||             ; [DPU_4_PIPE1] |40| 
     171                            ; BRANCHCC OCCURS {||$C$L2||}    ; [] |40| 
     172                    ;* --------------------------------------------------------------------------*
     173                            .dwpsn  file "../demoapp/source/app_main_NoOS.c",line 43,column 9,is_stmt,isa 2
     174 00000020 E59DC000          LDR       V9, [SP, #0]          ; [DPU_4_PIPE0] |43| 
     175 00000024 E24CC001          SUB       V9, V9, #1            ; [DPU_4_PIPE0] |43| 
     176 00000028 E58DC000          STR       V9, [SP, #0]          ; [DPU_4_PIPE0] |43| 
     177                            .dwpsn  file "../demoapp/source/app_main_NoOS.c",line 45,column 9,is_stmt,isa 2
     178 0000002c E59DC000          LDR       V9, [SP, #0]          ; [DPU_4_PIPE0] |45| 
     179 00000030 E35C000C          CMP       V9, #12               ; [DPU_4_PIPE0] |45| 
     180 00000034 1AFFFFFE!         BNE       ||$C$L1||             ; [DPU_4_PIPE1] |45| 
     181                            ; BRANCHCC OCCURS {||$C$L1||}    ; [] |45| 
     182                    ;* --------------------------------------------------------------------------*
     183                            .dwpsn  file "../demoapp/source/app_main_NoOS.c",line 47,column 13,is_stmt,isa 2
     184 00000038 E59F0038          LDR       A1, $C$CON2           ; [DPU_4_PIPE0] |47| 
     185 0000003c E590C000          LDR       V9, [A1, #0]          ; [DPU_4_PIPE0] |47| 
     186 00000040 E22CC040          EOR       V9, V9, #64           ; [DPU_4_PIPE0] |47| 
     187 00000044 E580C000          STR       V9, [A1, #0]          ; [DPU_4_PIPE0] |47| 
     188                            .dwpsn  file "../demoapp/source/app_main_NoOS.c",line 48,column 9,is_stmt,isa 2
     189 00000048 EAFFFFFE!         B         ||$C$L2||             ; [DPU_4_PIPE1] |48| 
     190                            ; BRANCH OCCURS {||$C$L2||}      ; [] |48| 
     191                    ;* --------------------------------------------------------------------------*
     192 0000004c           ||$C$L1||:    
     193                            .dwpsn  file "../demoapp/source/app_main_NoOS.c",line 50,column 14,is_stmt,isa 2
     194 0000004c E59DC000          LDR       V9, [SP, #0]          ; [DPU_4_PIPE0] |50| 
     195 00000050 E35C000D          CMP       V9, #13               ; [DPU_4_PIPE0] |50| 
     196 00000054 1AFFFFFE!         BNE       ||$C$L2||             ; [DPU_4_PIPE1] |50| 
     197                            ; BRANCHCC OCCURS {||$C$L2||}    ; [] |50| 
     198                    ;* --------------------------------------------------------------------------*
     199                            .dwpsn  file "../demoapp/source/app_main_NoOS.c",line 52,column 13,is_stmt,isa 2
     200 00000058 E59F0018          LDR       A1, $C$CON2           ; [DPU_4_PIPE0] |52| 
     201 0000005c E590C000          LDR       V9, [A1, #0]          ; [DPU_4_PIPE0] |52| 
     202 00000060 E22CC080          EOR       V9, V9, #128          ; [DPU_4_PIPE0] |52| 
     203 00000064 E580C000          STR       V9, [A1, #0]          ; [DPU_4_PIPE0] |52| 
     204                            .dwpsn  file "../demoapp/source/app_main_NoOS.c",line 55,column 5,is_stmt,isa 2
     205                    ;* --------------------------------------------------------------------------*
     206 00000068           ||$C$L2||:    
     207                            .dwpsn  file "../demoapp/source/app_main_NoOS.c",line 56,column 1,is_stmt,isa 2
     208 00000068 E28DD004          ADD       SP, SP, #4            ; [DPU_4_PIPE0] 
     209                            .dwcfi  cfa_offset, 12
     210 0000006c E8BD5001          LDMFD     SP!, {A1, V9, LR}     ; [DPU_4_PIPE0] 
     211                            .dwcfi  cfa_offset, 0
     212                            .dwcfi  restore_reg, 14
     213                            .dwcfi  restore_reg, 12
     214                            .dwcfi  restore_reg, 0
     215                    $C$DW$16        .dwtag  DW_TAG_TI_branch
     216                            .dwattr $C$DW$16, DW_AT_low_pc(0x00)
     217                            .dwattr $C$DW$16, DW_AT_TI_return
     218                    
     219 00000070 E25EF004          SUBS      PC, LR, #4            ; [DPU_4_PIPE1] 
     220                            ; BRANCH OCCURS                  ; [] 
TI ARM Assembler PC v16.9.0 Sun Feb 19 22:05:31 2017

Tools Copyright (c) 1996-2015 Texas Instruments Incorporated
C:\Users\bob\AppData\Local\Temp\0664410                              PAGE    5

     221                            .dwattr $C$DW$14, DW_AT_TI_end_file("../demoapp/source/app_main_NoOS.c")
     222                            .dwattr $C$DW$14, DW_AT_TI_end_line(0x38)
     223                            .dwattr $C$DW$14, DW_AT_TI_end_column(0x01)
     224                            .dwendentry
     225                            .dwendtag $C$DW$14
     226                    
     227 00000000                   .sect   ".text"
     228                            .clink
     229                            .armfunc rtiNotification
     230 00000000                   .state32
     231                            .global rtiNotification
     232                    
     233                    $C$DW$17        .dwtag  DW_TAG_subprogram
     234                            .dwattr $C$DW$17, DW_AT_name("rtiNotification")
     235                            .dwattr $C$DW$17, DW_AT_low_pc(rtiNotification)
     236                            .dwattr $C$DW$17, DW_AT_high_pc(0x00)
     237                            .dwattr $C$DW$17, DW_AT_TI_symbol_name("rtiNotification")
     238                            .dwattr $C$DW$17, DW_AT_external
     239                            .dwattr $C$DW$17, DW_AT_TI_begin_file("../demoapp/source/app_main_NoOS.c")
     240                            .dwattr $C$DW$17, DW_AT_TI_begin_line(0x4d)
     241                            .dwattr $C$DW$17, DW_AT_TI_begin_column(0x06)
     242                            .dwattr $C$DW$17, DW_AT_decl_file("../demoapp/source/app_main_NoOS.c")
     243                            .dwattr $C$DW$17, DW_AT_decl_line(0x4d)
     244                            .dwattr $C$DW$17, DW_AT_decl_column(0x06)
     245                            .dwattr $C$DW$17, DW_AT_TI_max_frame_size(0x08)
     246                            .dwpsn  file "../demoapp/source/app_main_NoOS.c",line 77,column 61,is_stmt,address rtiNotifica
     247                    
     248                            .dwfde $C$DW$CIE, rtiNotification
     249                    $C$DW$18        .dwtag  DW_TAG_formal_parameter
     250                            .dwattr $C$DW$18, DW_AT_name("rtiREG")
     251                            .dwattr $C$DW$18, DW_AT_TI_symbol_name("rtiREG")
     252                            .dwattr $C$DW$18, DW_AT_type(*$C$DW$T$105)
     253                            .dwattr $C$DW$18, DW_AT_location[DW_OP_reg0]
     254                    
     255                    $C$DW$19        .dwtag  DW_TAG_formal_parameter
     256                            .dwattr $C$DW$19, DW_AT_name("notification")
     257                            .dwattr $C$DW$19, DW_AT_TI_symbol_name("notification")
     258                            .dwattr $C$DW$19, DW_AT_type(*$C$DW$T$20)
     259                            .dwattr $C$DW$19, DW_AT_location[DW_OP_reg1]
     260                    
     261                    
     262                    ;*****************************************************************************
     263                    ;* FUNCTION NAME: rtiNotification                                            *
     264                    ;*                                                                           *
     265                    ;*   Regs Modified     : A1,V9,SP,SR                                         *
     266                    ;*   Regs Used         : A1,A2,V9,SP,LR,SR                                   *
     267                    ;*   Local Frame Size  : 0 Args + 8 Auto + 0 Save = 8 byte                   *
     268                    ;*****************************************************************************
     269 00000000           rtiNotification:
     270                    ;* --------------------------------------------------------------------------*
     271                            .dwcfi  cfa_offset, 0
     272 00000000 E24DD008          SUB       SP, SP, #8            ; [DPU_4_PIPE0] 
     273                            .dwcfi  cfa_offset, 8
     274                    $C$DW$20        .dwtag  DW_TAG_variable
     275                            .dwattr $C$DW$20, DW_AT_name("rtiREG")
TI ARM Assembler PC v16.9.0 Sun Feb 19 22:05:31 2017

Tools Copyright (c) 1996-2015 Texas Instruments Incorporated
C:\Users\bob\AppData\Local\Temp\0664410                              PAGE    6

     276                            .dwattr $C$DW$20, DW_AT_TI_symbol_name("rtiREG")
     277                            .dwattr $C$DW$20, DW_AT_type(*$C$DW$T$105)
     278                            .dwattr $C$DW$20, DW_AT_location[DW_OP_breg13 0]
     279                    
     280                    $C$DW$21        .dwtag  DW_TAG_variable
     281                            .dwattr $C$DW$21, DW_AT_name("notification")
     282                            .dwattr $C$DW$21, DW_AT_TI_symbol_name("notification")
     283                            .dwattr $C$DW$21, DW_AT_type(*$C$DW$T$20)
     284                            .dwattr $C$DW$21, DW_AT_location[DW_OP_breg13 4]
     285                    
     286 00000004 E58D1004          STR       A2, [SP, #4]          ; [DPU_4_PIPE0] |77| 
     287 00000008 E58D0000          STR       A1, [SP, #0]          ; [DPU_4_PIPE0] |77| 
     288                            .dwpsn  file "../demoapp/source/app_main_NoOS.c",line 78,column 5,is_stmt,isa 2
     289 0000000c E59DC004          LDR       V9, [SP, #4]          ; [DPU_4_PIPE0] |78| 
     290 00000010 E35C0001          CMP       V9, #1                ; [DPU_4_PIPE0] |78| 
     291 00000014 1AFFFFFE!         BNE       ||$C$L3||             ; [DPU_4_PIPE1] |78| 
     292                            ; BRANCHCC OCCURS {||$C$L3||}    ; [] |78| 
     293                    ;* --------------------------------------------------------------------------*
     294                            .dwpsn  file "../demoapp/source/app_main_NoOS.c",line 79,column 9,is_stmt,isa 2
     295 00000018 E59F01C0          LDR       A1, $C$CON3           ; [DPU_4_PIPE0] |79| 
     296 0000001c E590C000          LDR       V9, [A1, #0]          ; [DPU_4_PIPE0] |79| 
     297 00000020 E3CCC001          BIC       V9, V9, #1            ; [DPU_4_PIPE0] |79| 
     298 00000024 E580C000          STR       V9, [A1, #0]          ; [DPU_4_PIPE0] |79| 
     299                            .dwpsn  file "../demoapp/source/app_main_NoOS.c",line 80,column 9,is_stmt,isa 2
     300 00000028 E59F01B4          LDR       A1, $C$CON4           ; [DPU_4_PIPE0] |80| 
     301 0000002c E590C000          LDR       V9, [A1, #0]          ; [DPU_4_PIPE0] |80| 
     302 00000030 E22CC040          EOR       V9, V9, #64           ; [DPU_4_PIPE0] |80| 
     303 00000034 E580C000          STR       V9, [A1, #0]          ; [DPU_4_PIPE0] |80| 
     304                            .dwpsn  file "../demoapp/source/app_main_NoOS.c",line 81,column 5,is_stmt,isa 2
     305 00000038 EAFFFFFE!         B         ||$C$L4||             ; [DPU_4_PIPE1] |81| 
     306                            ; BRANCH OCCURS {||$C$L4||}      ; [] |81| 
     307                    ;* --------------------------------------------------------------------------*
     308 0000003c           ||$C$L3||:    
     309                            .dwpsn  file "../demoapp/source/app_main_NoOS.c",line 82,column 10,is_stmt,isa 2
     310 0000003c E59DC004          LDR       V9, [SP, #4]          ; [DPU_4_PIPE0] |82| 
     311 00000040 E35C0002          CMP       V9, #2                ; [DPU_4_PIPE0] |82| 
     312 00000044 1AFFFFFE!         BNE       ||$C$L4||             ; [DPU_4_PIPE1] |82| 
     313                            ; BRANCHCC OCCURS {||$C$L4||}    ; [] |82| 
     314                    ;* --------------------------------------------------------------------------*
     315                            .dwpsn  file "../demoapp/source/app_main_NoOS.c",line 83,column 9,is_stmt,isa 2
     316 00000048 E59F0190          LDR       A1, $C$CON3           ; [DPU_4_PIPE0] |83| 
     317 0000004c E590C000          LDR       V9, [A1, #0]          ; [DPU_4_PIPE0] |83| 
     318 00000050 E3CCC002          BIC       V9, V9, #2            ; [DPU_4_PIPE0] |83| 
     319 00000054 E580C000          STR       V9, [A1, #0]          ; [DPU_4_PIPE0] |83| 
     320                            .dwpsn  file "../demoapp/source/app_main_NoOS.c",line 84,column 9,is_stmt,isa 2
     321 00000058 E59F0184          LDR       A1, $C$CON4           ; [DPU_4_PIPE0] |84| 
     322 0000005c E590C000          LDR       V9, [A1, #0]          ; [DPU_4_PIPE0] |84| 
     323 00000060 E22CC002          EOR       V9, V9, #2            ; [DPU_4_PIPE0] |84| 
     324 00000064 E580C000          STR       V9, [A1, #0]          ; [DPU_4_PIPE0] |84| 
     325                            .dwpsn  file "../demoapp/source/app_main_NoOS.c",line 86,column 5,is_stmt,isa 2
     326                    ;* --------------------------------------------------------------------------*
     327 00000068           ||$C$L4||:    
     328                            .dwpsn  file "../demoapp/source/app_main_NoOS.c",line 87,column 1,is_stmt,isa 2
     329 00000068 E28DD008          ADD       SP, SP, #8            ; [DPU_4_PIPE0] 
     330                            .dwcfi  cfa_offset, 0
TI ARM Assembler PC v16.9.0 Sun Feb 19 22:05:31 2017

Tools Copyright (c) 1996-2015 Texas Instruments Incorporated
C:\Users\bob\AppData\Local\Temp\0664410                              PAGE    7

     331                    $C$DW$22        .dwtag  DW_TAG_TI_branch
     332                            .dwattr $C$DW$22, DW_AT_low_pc(0x00)
     333                            .dwattr $C$DW$22, DW_AT_TI_return
     334                    
     335 0000006c E12FFF1E          BX        LR                    ; [DPU_4_PIPE1] 
     336                            ; BRANCH OCCURS                  ; [] 
     337                            .dwattr $C$DW$17, DW_AT_TI_end_file("../demoapp/source/app_main_NoOS.c")
     338                            .dwattr $C$DW$17, DW_AT_TI_end_line(0x57)
     339                            .dwattr $C$DW$17, DW_AT_TI_end_column(0x01)
     340                            .dwendentry
     341                            .dwendtag $C$DW$17
     342                    
     343 00000070                   .sect   ".text"
     344                            .clink
     345                            .armfunc main
     346 00000070                   .state32
     347                            .global main
     348                    
     349                    $C$DW$23        .dwtag  DW_TAG_subprogram
     350                            .dwattr $C$DW$23, DW_AT_name("main")
     351                            .dwattr $C$DW$23, DW_AT_low_pc(main)
     352                            .dwattr $C$DW$23, DW_AT_high_pc(0x00)
     353                            .dwattr $C$DW$23, DW_AT_TI_symbol_name("main")
     354                            .dwattr $C$DW$23, DW_AT_external
     355                            .dwattr $C$DW$23, DW_AT_TI_begin_file("../demoapp/source/app_main_NoOS.c")
     356                            .dwattr $C$DW$23, DW_AT_TI_begin_line(0x59)
     357                            .dwattr $C$DW$23, DW_AT_TI_begin_column(0x06)
     358                            .dwattr $C$DW$23, DW_AT_decl_file("../demoapp/source/app_main_NoOS.c")
     359                            .dwattr $C$DW$23, DW_AT_decl_line(0x59)
     360                            .dwattr $C$DW$23, DW_AT_decl_column(0x06)
     361                            .dwattr $C$DW$23, DW_AT_TI_max_frame_size(0x08)
     362                            .dwpsn  file "../demoapp/source/app_main_NoOS.c",line 90,column 1,is_stmt,address main,isa 2
     363                    
     364                            .dwfde $C$DW$CIE, main
     365                    
     366                    ;*****************************************************************************
     367                    ;* FUNCTION NAME: main                                                       *
     368                    ;*                                                                           *
     369                    ;*   Regs Modified     : A1,A2,A3,A4,V9,SP,LR,SR,D0,D0_hi,D1,D1_hi,D2,D2_hi, *
     370                    ;*                           D3,D3_hi,D4,D4_hi,D5,D5_hi,D6,D6_hi,D7,D7_hi,   *
     371                    ;*                           FPEXC,FPSCR                                     *
     372                    ;*   Regs Used         : A1,A2,A3,A4,V9,SP,LR,SR,D0,D0_hi,D1,D1_hi,D2,D2_hi, *
     373                    ;*                           D3,D3_hi,D4,D4_hi,D5,D5_hi,D6,D6_hi,D7,D7_hi,   *
     374                    ;*                           FPEXC,FPSCR                                     *
     375                    ;*   Local Frame Size  : 0 Args + 0 Auto + 4 Save = 4 byte                   *
     376                    ;*****************************************************************************
     377 00000070           main:
     378                    ;* --------------------------------------------------------------------------*
     379                            .dwcfi  cfa_offset, 0
     380 00000070 E92D4008          STMFD     SP!, {A4, LR}         ; [DPU_4_PIPE0] 
     381                            .dwcfi  cfa_offset, 8
     382                            .dwcfi  save_reg_to_mem, 14, -4
     383                            .dwcfi  save_reg_to_mem, 3, -8
     384                            .dwpsn  file "../demoapp/source/app_main_NoOS.c",line 96,column 5,is_stmt,isa 2
     385 00000074 E59F016C          LDR       A1, $C$CON5           ; [DPU_4_PIPE0] |96| 
TI ARM Assembler PC v16.9.0 Sun Feb 19 22:05:31 2017

Tools Copyright (c) 1996-2015 Texas Instruments Incorporated
C:\Users\bob\AppData\Local\Temp\0664410                              PAGE    8

     386 00000078 E59FC16C          LDR       V9, $C$CON6           ; [DPU_4_PIPE0] |96| 
     387 0000007c E580C000          STR       V9, [A1, #0]          ; [DPU_4_PIPE0] |96| 
     388                            .dwpsn  file "../demoapp/source/app_main_NoOS.c",line 100,column 5,is_stmt,isa 2
     389 00000080 E59F0168          LDR       A1, $C$CON7           ; [DPU_4_PIPE0] |100| 
     390 00000084 E590C000          LDR       V9, [A1, #0]          ; [DPU_4_PIPE0] |100| 
     391 00000088 E38CCC02          ORR       V9, V9, #512          ; [DPU_4_PIPE0] |100| 
     392 0000008c E580C000          STR       V9, [A1, #0]          ; [DPU_4_PIPE0] |100| 
     393                            .dwpsn  file "../demoapp/source/app_main_NoOS.c",line 101,column 5,is_stmt,isa 2
     394 00000090 E59F0158          LDR       A1, $C$CON7           ; [DPU_4_PIPE0] |101| 
     395 00000094 E590C000          LDR       V9, [A1, #0]          ; [DPU_4_PIPE0] |101| 
     396 00000098 E38CC004          ORR       V9, V9, #4            ; [DPU_4_PIPE0] |101| 
     397 0000009c E580C000          STR       V9, [A1, #0]          ; [DPU_4_PIPE0] |101| 
     398                            .dwpsn  file "../demoapp/source/app_main_NoOS.c",line 102,column 5,is_stmt,isa 2
     399 000000a0 E59F0148          LDR       A1, $C$CON7           ; [DPU_4_PIPE0] |102| 
     400 000000a4 E590C000          LDR       V9, [A1, #0]          ; [DPU_4_PIPE0] |102| 
     401 000000a8 E38CC008          ORR       V9, V9, #8            ; [DPU_4_PIPE0] |102| 
     402 000000ac E580C000          STR       V9, [A1, #0]          ; [DPU_4_PIPE0] |102| 
     403                            .dwpsn  file "../demoapp/source/app_main_NoOS.c",line 111,column 5,is_stmt,isa 2
     404 000000b0 E59F013C          LDR       A1, $C$CON8           ; [DPU_4_PIPE0] |111| 
     405 000000b4 E590C000          LDR       V9, [A1, #0]          ; [DPU_4_PIPE0] |111| 
     406 000000b8 E38CC001          ORR       V9, V9, #1            ; [DPU_4_PIPE0] |111| 
     407 000000bc E580C000          STR       V9, [A1, #0]          ; [DPU_4_PIPE0] |111| 
     408                            .dwpsn  file "../demoapp/source/app_main_NoOS.c",line 113,column 5,is_stmt,isa 2
     409 000000c0 E59F0130          LDR       A1, $C$CON9           ; [DPU_4_PIPE0] |113| 
     410 000000c4 E590C000          LDR       V9, [A1, #0]          ; [DPU_4_PIPE0] |113| 
     411 000000c8 E38CC040          ORR       V9, V9, #64           ; [DPU_4_PIPE0] |113| 
     412 000000cc E580C000          STR       V9, [A1, #0]          ; [DPU_4_PIPE0] |113| 
     413                            .dwpsn  file "../demoapp/source/app_main_NoOS.c",line 114,column 5,is_stmt,isa 2
     414 000000d0 E59F0124          LDR       A1, $C$CON10          ; [DPU_4_PIPE0] |114| 
     415 000000d4 E590C000          LDR       V9, [A1, #0]          ; [DPU_4_PIPE0] |114| 
     416 000000d8 E3CCC040          BIC       V9, V9, #64           ; [DPU_4_PIPE0] |114| 
     417 000000dc E580C000          STR       V9, [A1, #0]          ; [DPU_4_PIPE0] |114| 
     418                            .dwpsn  file "../demoapp/source/app_main_NoOS.c",line 115,column 5,is_stmt,isa 2
     419 000000e0 E59F0110          LDR       A1, $C$CON9           ; [DPU_4_PIPE0] |115| 
     420 000000e4 E590C000          LDR       V9, [A1, #0]          ; [DPU_4_PIPE0] |115| 
     421 000000e8 E38CC080          ORR       V9, V9, #128          ; [DPU_4_PIPE0] |115| 
     422 000000ec E580C000          STR       V9, [A1, #0]          ; [DPU_4_PIPE0] |115| 
     423                            .dwpsn  file "../demoapp/source/app_main_NoOS.c",line 116,column 5,is_stmt,isa 2
     424 000000f0 E59F0104          LDR       A1, $C$CON10          ; [DPU_4_PIPE0] |116| 
     425 000000f4 E590C000          LDR       V9, [A1, #0]          ; [DPU_4_PIPE0] |116| 
     426 000000f8 E3CCC080          BIC       V9, V9, #128          ; [DPU_4_PIPE0] |116| 
     427 000000fc E580C000          STR       V9, [A1, #0]          ; [DPU_4_PIPE0] |116| 
     428                            .dwpsn  file "../demoapp/source/app_main_NoOS.c",line 118,column 5,is_stmt,isa 2
     429 00000100 E59F00F0          LDR       A1, $C$CON9           ; [DPU_4_PIPE0] |118| 
     430 00000104 E590C000          LDR       V9, [A1, #0]          ; [DPU_4_PIPE0] |118| 
     431 00000108 E3CCC030          BIC       V9, V9, #48           ; [DPU_4_PIPE0] |118| 
     432 0000010c E580C000          STR       V9, [A1, #0]          ; [DPU_4_PIPE0] |118| 
     433                            .dwpsn  file "../demoapp/source/app_main_NoOS.c",line 120,column 5,is_stmt,isa 2
     434 00000110 E59F00E8          LDR       A1, $C$CON11          ; [DPU_4_PIPE0] |120| 
     435 00000114 E590C000          LDR       V9, [A1, #0]          ; [DPU_4_PIPE0] |120| 
     436 00000118 E3CCCA03          BIC       V9, V9, #12288        ; [DPU_4_PIPE0] |120| 
     437 0000011c E580C000          STR       V9, [A1, #0]          ; [DPU_4_PIPE0] |120| 
     438                            .dwpsn  file "../demoapp/source/app_main_NoOS.c",line 122,column 5,is_stmt,isa 2
     439 00000120 E59F00DC          LDR       A1, $C$CON12          ; [DPU_4_PIPE0] |122| 
     440 00000124 E590C000          LDR       V9, [A1, #0]          ; [DPU_4_PIPE0] |122| 
TI ARM Assembler PC v16.9.0 Sun Feb 19 22:05:31 2017

Tools Copyright (c) 1996-2015 Texas Instruments Incorporated
C:\Users\bob\AppData\Local\Temp\0664410                              PAGE    9

     441 00000128 E38CCA01          ORR       V9, V9, #4096         ; [DPU_4_PIPE0] |122| 
     442 0000012c E580C000          STR       V9, [A1, #0]          ; [DPU_4_PIPE0] |122| 
     443                            .dwpsn  file "../demoapp/source/app_main_NoOS.c",line 123,column 5,is_stmt,isa 2
     444 00000130 E59F00CC          LDR       A1, $C$CON12          ; [DPU_4_PIPE0] |123| 
     445 00000134 E590C000          LDR       V9, [A1, #0]          ; [DPU_4_PIPE0] |123| 
     446 00000138 E3CCCA02          BIC       V9, V9, #8192         ; [DPU_4_PIPE0] |123| 
     447 0000013c E580C000          STR       V9, [A1, #0]          ; [DPU_4_PIPE0] |123| 
     448                            .dwpsn  file "../demoapp/source/app_main_NoOS.c",line 125,column 5,is_stmt,isa 2
     449 00000140 E59F00C0          LDR       A1, $C$CON13          ; [DPU_4_PIPE0] |125| 
     450 00000144 E590C000          LDR       V9, [A1, #0]          ; [DPU_4_PIPE0] |125| 
     451 00000148 E38CCA03          ORR       V9, V9, #12288        ; [DPU_4_PIPE0] |125| 
     452 0000014c E580C000          STR       V9, [A1, #0]          ; [DPU_4_PIPE0] |125| 
     453                            .dwpsn  file "../demoapp/source/app_main_NoOS.c",line 127,column 5,is_stmt,isa 2
     454 00000150 E59F00B4          LDR       A1, $C$CON14          ; [DPU_4_PIPE0] |127| 
     455 00000154 E3A0C0FF          MOV       V9, #255              ; [DPU_4_PIPE0] |127| 
     456 00000158 E580C000          STR       V9, [A1, #0]          ; [DPU_4_PIPE0] |127| 
     457                            .dwpsn  file "../demoapp/source/app_main_NoOS.c",line 129,column 5,is_stmt,isa 2
     458 0000015c E59F00AC          LDR       A1, $C$CON15          ; [DPU_4_PIPE0] |129| 
     459 00000160 E590C000          LDR       V9, [A1, #0]          ; [DPU_4_PIPE0] |129| 
     460 00000164 E38CCA03          ORR       V9, V9, #12288        ; [DPU_4_PIPE0] |129| 
     461 00000168 E580C000          STR       V9, [A1, #0]          ; [DPU_4_PIPE0] |129| 
     462                            .dwpsn  file "../demoapp/source/app_main_NoOS.c",line 195,column 5,is_stmt,isa 2
     463                    $C$DW$24        .dwtag  DW_TAG_TI_branch
     464                            .dwattr $C$DW$24, DW_AT_low_pc(0x00)
     465                            .dwattr $C$DW$24, DW_AT_name("ROLMinit")
     466                            .dwattr $C$DW$24, DW_AT_TI_call
     467                    
     468 0000016c EBFFFFFE!         BL        ROLMinit              ; [DPU_4_PIPE1] |195| 
     469                            ; CALL OCCURS {ROLMinit }        ; [] |195| 
     470                            .dwpsn  file "../demoapp/source/app_main_NoOS.c",line 201,column 5,is_stmt,isa 2
     471 00000170 E59F009C          LDR       A1, $C$CON16          ; [DPU_4_PIPE0] |201| 
     472 00000174 E590C000          LDR       V9, [A1, #0]          ; [DPU_4_PIPE0] |201| 
     473 00000178 E38CC042          ORR       V9, V9, #66           ; [DPU_4_PIPE0] |201| 
     474 0000017c E580C000          STR       V9, [A1, #0]          ; [DPU_4_PIPE0] |201| 
     475                            .dwpsn  file "../demoapp/source/app_main_NoOS.c",line 202,column 5,is_stmt,isa 2
     476 00000180 E59F0090          LDR       A1, $C$CON17          ; [DPU_4_PIPE0] |202| 
     477 00000184 E590C000          LDR       V9, [A1, #0]          ; [DPU_4_PIPE0] |202| 
     478 00000188 E38CC042          ORR       V9, V9, #66           ; [DPU_4_PIPE0] |202| 
     479 0000018c E580C000          STR       V9, [A1, #0]          ; [DPU_4_PIPE0] |202| 
     480                            .dwpsn  file "../demoapp/source/app_main_NoOS.c",line 204,column 5,is_stmt,isa 2
     481                    $C$DW$25        .dwtag  DW_TAG_TI_branch
     482                            .dwattr $C$DW$25, DW_AT_low_pc(0x00)
     483                            .dwattr $C$DW$25, DW_AT_name("rtiInit")
     484                            .dwattr $C$DW$25, DW_AT_TI_call
     485                    
     486 00000190 EBFFFFFE!         BL        rtiInit               ; [DPU_4_PIPE1] |204| 
     487                            ; CALL OCCURS {rtiInit }         ; [] |204| 
     488                            .dwpsn  file "../demoapp/source/app_main_NoOS.c",line 205,column 5,is_stmt,isa 2
     489 00000194 E59F0080          LDR       A1, $C$CON18          ; [DPU_4_PIPE0] |205| 
     490 00000198 E3A01001          MOV       A2, #1                ; [DPU_4_PIPE0] |205| 
     491                    $C$DW$26        .dwtag  DW_TAG_TI_branch
     492                            .dwattr $C$DW$26, DW_AT_low_pc(0x00)
     493                            .dwattr $C$DW$26, DW_AT_name("rtiEnableNotification")
     494                            .dwattr $C$DW$26, DW_AT_TI_call
     495                    
TI ARM Assembler PC v16.9.0 Sun Feb 19 22:05:31 2017

Tools Copyright (c) 1996-2015 Texas Instruments Incorporated
C:\Users\bob\AppData\Local\Temp\0664410                              PAGE   10

     496 0000019c EBFFFFFE!         BL        rtiEnableNotification ; [DPU_4_PIPE1] |205| 
     497                            ; CALL OCCURS {rtiEnableNotification }  ; [] |205| 
     498                            .dwpsn  file "../demoapp/source/app_main_NoOS.c",line 206,column 5,is_stmt,isa 2
     499 000001a0 E59F0074          LDR       A1, $C$CON18          ; [DPU_4_PIPE0] |206| 
     500 000001a4 E3A01002          MOV       A2, #2                ; [DPU_4_PIPE0] |206| 
     501                    $C$DW$27        .dwtag  DW_TAG_TI_branch
     502                            .dwattr $C$DW$27, DW_AT_low_pc(0x00)
     503                            .dwattr $C$DW$27, DW_AT_name("rtiEnableNotification")
     504                            .dwattr $C$DW$27, DW_AT_TI_call
     505                    
     506 000001a8 EBFFFFFE!         BL        rtiEnableNotification ; [DPU_4_PIPE1] |206| 
     507                            ; CALL OCCURS {rtiEnableNotification }  ; [] |206| 
     508                            .dwpsn  file "../demoapp/source/app_main_NoOS.c",line 207,column 5,is_stmt,isa 2
     509 000001ac E59F0068          LDR       A1, $C$CON18          ; [DPU_4_PIPE0] |207| 
     510 000001b0 E3A01000          MOV       A2, #0                ; [DPU_4_PIPE0] |207| 
     511                    $C$DW$28        .dwtag  DW_TAG_TI_branch
     512                            .dwattr $C$DW$28, DW_AT_low_pc(0x00)
     513                            .dwattr $C$DW$28, DW_AT_name("rtiStartCounter")
     514                            .dwattr $C$DW$28, DW_AT_TI_call
     515                    
     516 000001b4 EBFFFFFE!         BL        rtiStartCounter       ; [DPU_4_PIPE1] |207| 
     517                            ; CALL OCCURS {rtiStartCounter }  ; [] |207| 
     518                            .dwpsn  file "../demoapp/source/app_main_NoOS.c",line 209,column 5,is_stmt,isa 2
     519 000001b8 F1080080          CPSIE     i                     ; [DPU_4_PIPE0] |209| 
     520                            .dwpsn  file "../demoapp/source/app_main_NoOS.c",line 211,column 12,is_stmt,isa 2
     521                    ;* --------------------------------------------------------------------------*
     522                    ;*   BEGIN LOOP ||$C$L5||
     523                    ;*
     524                    ;*   Loop source line                : 211
     525                    ;*   Loop closing brace source line  : 220
     526                    ;*   Known Minimum Trip Count        : 1
     527                    ;*   Known Maximum Trip Count        : 4294967295
     528                    ;*   Known Max Trip Count Factor     : 1
     529                    ;* --------------------------------------------------------------------------*
     530 000001bc           ||$C$L5||:    
     531                            .dwpsn  file "../demoapp/source/app_main_NoOS.c",line 213,column 9,is_stmt,isa 2
     532 000001bc E30F0FFF          MOV       A1, #65535            ; [DPU_4_PIPE0] |213| 
     533                    $C$DW$29        .dwtag  DW_TAG_TI_branch
     534                            .dwattr $C$DW$29, DW_AT_low_pc(0x00)
     535                            .dwattr $C$DW$29, DW_AT_name("ROLMSDO")
     536                            .dwattr $C$DW$29, DW_AT_TI_call
     537                    
     538 000001c0 EBFFFFFE!         BL        ROLMSDO               ; [DPU_4_PIPE1] |213| 
     539                            ; CALL OCCURS {ROLMSDO }         ; [] |213| 
     540                            .dwpsn  file "../demoapp/source/app_main_NoOS.c",line 214,column 9,is_stmt,isa 2
     541                    $C$DW$30        .dwtag  DW_TAG_TI_branch
     542                            .dwattr $C$DW$30, DW_AT_low_pc(0x00)
     543                            .dwattr $C$DW$30, DW_AT_name("ROLMEDO")
     544                            .dwattr $C$DW$30, DW_AT_TI_call
     545                    
     546 000001c4 EBFFFFFE!         BL        ROLMEDO               ; [DPU_4_PIPE1] |214| 
     547                            ; CALL OCCURS {ROLMEDO }         ; [] |214| 
     548                            .dwpsn  file "../demoapp/source/app_main_NoOS.c",line 215,column 9,is_stmt,isa 2
     549                    $C$DW$31        .dwtag  DW_TAG_TI_branch
     550                            .dwattr $C$DW$31, DW_AT_low_pc(0x00)
TI ARM Assembler PC v16.9.0 Sun Feb 19 22:05:31 2017

Tools Copyright (c) 1996-2015 Texas Instruments Incorporated
C:\Users\bob\AppData\Local\Temp\0664410                              PAGE   11

     551                            .dwattr $C$DW$31, DW_AT_name("ROLMDDO")
     552                            .dwattr $C$DW$31, DW_AT_TI_call
     553                    
     554 000001c8 EBFFFFFE!         BL        ROLMDDO               ; [DPU_4_PIPE1] |215| 
     555                            ; CALL OCCURS {ROLMDDO }         ; [] |215| 
     556                            .dwpsn  file "../demoapp/source/app_main_NoOS.c",line 216,column 9,is_stmt,isa 2
     557 000001cc E3A00000          MOV       A1, #0                ; [DPU_4_PIPE0] |216| 
     558                    $C$DW$32        .dwtag  DW_TAG_TI_branch
     559                            .dwattr $C$DW$32, DW_AT_low_pc(0x00)
     560                            .dwattr $C$DW$32, DW_AT_name("ROLMSDO")
     561                            .dwattr $C$DW$32, DW_AT_TI_call
     562                    
     563 000001d0 EBFFFFFE!         BL        ROLMSDO               ; [DPU_4_PIPE1] |216| 
     564                            ; CALL OCCURS {ROLMSDO }         ; [] |216| 
     565                            .dwpsn  file "../demoapp/source/app_main_NoOS.c",line 217,column 9,is_stmt,isa 2
     566                    $C$DW$33        .dwtag  DW_TAG_TI_branch
     567                            .dwattr $C$DW$33, DW_AT_low_pc(0x00)
     568                            .dwattr $C$DW$33, DW_AT_name("ROLMEDO")
     569                            .dwattr $C$DW$33, DW_AT_TI_call
     570                    
     571 000001d4 EBFFFFFE!         BL        ROLMEDO               ; [DPU_4_PIPE1] |217| 
     572                            ; CALL OCCURS {ROLMEDO }         ; [] |217| 
     573                            .dwpsn  file "../demoapp/source/app_main_NoOS.c",line 218,column 9,is_stmt,isa 2
     574                    $C$DW$34        .dwtag  DW_TAG_TI_branch
     575                            .dwattr $C$DW$34, DW_AT_low_pc(0x00)
     576                            .dwattr $C$DW$34, DW_AT_name("ROLMDDO")
     577                            .dwattr $C$DW$34, DW_AT_TI_call
     578                    
     579 000001d8 EBFFFFFE!         BL        ROLMDDO               ; [DPU_4_PIPE1] |218| 
     580                            ; CALL OCCURS {ROLMDDO }         ; [] |218| 
     581                            .dwpsn  file "../demoapp/source/app_main_NoOS.c",line 211,column 12,is_stmt,isa 2
     582 000001dc EAFFFFFE!         B         ||$C$L5||             ; [DPU_4_PIPE1] |211| 
     583                            ; BRANCH OCCURS {||$C$L5||}      ; [] |211| 
     584                    ;* --------------------------------------------------------------------------*
     585                            .dwattr $C$DW$23, DW_AT_TI_end_file("../demoapp/source/app_main_NoOS.c")
     586                            .dwattr $C$DW$23, DW_AT_TI_end_line(0xdd)
     587                            .dwattr $C$DW$23, DW_AT_TI_end_column(0x01)
     588                            .dwendentry
     589                            .dwendtag $C$DW$23
     590                    
     591                    ;******************************************************************************
     592                    ;* CONSTANT TABLE                                                             *
     593                    ;******************************************************************************
     594 00000074                   .sect   ".text:retain"
     595                            .align  4
     596 00000074 FFF7BC24  ||$C$CON1||:    .bits   -541660,32
     597                            .align  4
     598 00000078 FFF7BC5C  ||$C$CON2||:    .bits   -541604,32
     599                    ;******************************************************************************
     600                    ;* CONSTANT TABLE                                                             *
     601                    ;******************************************************************************
     602 000001e0                   .sect   ".text"
     603                            .align  4
     604 000001e0 FFFFFC88  ||$C$CON3||:    .bits   -888,32
     605                            .align  4
TI ARM Assembler PC v16.9.0 Sun Feb 19 22:05:31 2017

Tools Copyright (c) 1996-2015 Texas Instruments Incorporated
C:\Users\bob\AppData\Local\Temp\0664410                              PAGE   12

     606 000001e4 FFF7BC3C  ||$C$CON4||:    .bits   -541636,32
     607                            .align  4
     608 000001e8 FFF82028  ||$C$CON5||:    .bits   -516056,32
     609                            .align  4
     610 000001ec 00000000! ||$C$CON6||:    .bits   buttonISR,32
     611                            .align  4
     612 000001f0 FFFFFE30  ||$C$CON7||:    .bits   -464,32
     613                            .align  4
     614 000001f4 FFF7BC00  ||$C$CON8||:    .bits   -541696,32
     615                            .align  4
     616 000001f8 FFF7BC54  ||$C$CON9||:    .bits   -541612,32
     617                            .align  4
     618 000001fc FFF7BC5C  ||$C$CON10||:   .bits   -541604,32
     619                            .align  4
     620 00000200 FFF7BC08  ||$C$CON11||:   .bits   -541688,32
     621                            .align  4
     622 00000204 FFF7BC0C  ||$C$CON12||:   .bits   -541684,32
     623                            .align  4
     624 00000208 FFF7BC18  ||$C$CON13||:   .bits   -541672,32
     625                            .align  4
     626 0000020c FFF7BC20  ||$C$CON14||:   .bits   -541664,32
     627                            .align  4
     628 00000210 FFF7BC10  ||$C$CON15||:   .bits   -541680,32
     629                            .align  4
     630 00000214 FFF7BC34  ||$C$CON16||:   .bits   -541644,32
     631                            .align  4
     632 00000218 FFF7BC44  ||$C$CON17||:   .bits   -541628,32
     633                            .align  4
     634 0000021c FFFFFC00  ||$C$CON18||:   .bits   -1024,32
     635                    ;*****************************************************************************
     636                    ;* UNDEFINED EXTERNAL REFERENCES                                             *
     637                    ;*****************************************************************************
     638                            .global rtiInit
     639                            .global rtiStartCounter
     640                            .global rtiEnableNotification
     641                            .global ROLMinit
     642                            .global ROLMSDO
     643                            .global ROLMEDO
     644                            .global ROLMDDO
     645                    
     646                    ;******************************************************************************
     647                    ;* BUILD ATTRIBUTES                                                           *
     648                    ;******************************************************************************
     649                            .battr "aeabi", Tag_File, 1, Tag_ABI_PCS_wchar_t(2)
     650                            .battr "aeabi", Tag_File, 1, Tag_ABI_FP_rounding(0)
     651                            .battr "aeabi", Tag_File, 1, Tag_ABI_FP_denormal(0)
     652                            .battr "aeabi", Tag_File, 1, Tag_ABI_FP_exceptions(0)
     653                            .battr "aeabi", Tag_File, 1, Tag_ABI_FP_number_model(1)
     654                            .battr "aeabi", Tag_File, 1, Tag_ABI_enum_size(1)
     655                            .battr "aeabi", Tag_File, 1, Tag_ABI_optimization_goals(5)
     656                            .battr "aeabi", Tag_File, 1, Tag_ABI_FP_optimization_goals(0)
     657                            .battr "TI", Tag_File, 1, Tag_Bitfield_layout(2)
     658                            .battr "aeabi", Tag_File, 1, Tag_ABI_VFP_args(3)
     659                            .battr "TI", Tag_File, 1, Tag_FP_interface(1)
     660                    
TI ARM Assembler PC v16.9.0 Sun Feb 19 22:05:31 2017

Tools Copyright (c) 1996-2015 Texas Instruments Incorporated
C:\Users\bob\AppData\Local\Temp\0664410                              PAGE   13

     661                    ;******************************************************************************
     662                    ;* TYPE INFORMATION                                                           *
     663                    ;******************************************************************************
     664                    
     665                    $C$DW$T$22      .dwtag  DW_TAG_structure_type
     666                            .dwattr $C$DW$T$22, DW_AT_byte_size(0x20)
     667                    $C$DW$35        .dwtag  DW_TAG_member
     668                            .dwattr $C$DW$35, DW_AT_type(*$C$DW$T$20)
     669                            .dwattr $C$DW$35, DW_AT_name("FRCx")
     670                            .dwattr $C$DW$35, DW_AT_TI_symbol_name("FRCx")
     671                            .dwattr $C$DW$35, DW_AT_data_member_location[DW_OP_plus_uconst 0x0]
     672                            .dwattr $C$DW$35, DW_AT_accessibility(DW_ACCESS_public)
     673                            .dwattr $C$DW$35, DW_AT_decl_file("C:\Users\bob\Documents\Projects\induct_forge\RM57Lx_test\Pr
     674                            .dwattr $C$DW$35, DW_AT_decl_line(0x4e)
     675                            .dwattr $C$DW$35, DW_AT_decl_column(0x10)
     676                    
     677                    $C$DW$36        .dwtag  DW_TAG_member
     678                            .dwattr $C$DW$36, DW_AT_type(*$C$DW$T$20)
     679                            .dwattr $C$DW$36, DW_AT_name("UCx")
     680                            .dwattr $C$DW$36, DW_AT_TI_symbol_name("UCx")
     681                            .dwattr $C$DW$36, DW_AT_data_member_location[DW_OP_plus_uconst 0x4]
     682                            .dwattr $C$DW$36, DW_AT_accessibility(DW_ACCESS_public)
     683                            .dwattr $C$DW$36, DW_AT_decl_file("C:\Users\bob\Documents\Projects\induct_forge\RM57Lx_test\Pr
     684                            .dwattr $C$DW$36, DW_AT_decl_line(0x4f)
     685                            .dwattr $C$DW$36, DW_AT_decl_column(0x10)
     686                    
     687                    $C$DW$37        .dwtag  DW_TAG_member
     688                            .dwattr $C$DW$37, DW_AT_type(*$C$DW$T$20)
     689                            .dwattr $C$DW$37, DW_AT_name("CPUCx")
     690                            .dwattr $C$DW$37, DW_AT_TI_symbol_name("CPUCx")
     691                            .dwattr $C$DW$37, DW_AT_data_member_location[DW_OP_plus_uconst 0x8]
     692                            .dwattr $C$DW$37, DW_AT_accessibility(DW_ACCESS_public)
     693                            .dwattr $C$DW$37, DW_AT_decl_file("C:\Users\bob\Documents\Projects\induct_forge\RM57Lx_test\Pr
     694                            .dwattr $C$DW$37, DW_AT_decl_line(0x50)
     695                            .dwattr $C$DW$37, DW_AT_decl_column(0x10)
     696                    
     697                    $C$DW$38        .dwtag  DW_TAG_member
     698                            .dwattr $C$DW$38, DW_AT_type(*$C$DW$T$20)
     699                            .dwattr $C$DW$38, DW_AT_name("rsvd1")
     700                            .dwattr $C$DW$38, DW_AT_TI_symbol_name("rsvd1")
     701                            .dwattr $C$DW$38, DW_AT_data_member_location[DW_OP_plus_uconst 0xc]
     702                            .dwattr $C$DW$38, DW_AT_accessibility(DW_ACCESS_public)
     703                            .dwattr $C$DW$38, DW_AT_decl_file("C:\Users\bob\Documents\Projects\induct_forge\RM57Lx_test\Pr
     704                            .dwattr $C$DW$38, DW_AT_decl_line(0x51)
     705                            .dwattr $C$DW$38, DW_AT_decl_column(0x12)
     706                    
     707                    $C$DW$39        .dwtag  DW_TAG_member
     708                            .dwattr $C$DW$39, DW_AT_type(*$C$DW$T$20)
     709                            .dwattr $C$DW$39, DW_AT_name("CAFRCx")
     710                            .dwattr $C$DW$39, DW_AT_TI_symbol_name("CAFRCx")
     711                            .dwattr $C$DW$39, DW_AT_data_member_location[DW_OP_plus_uconst 0x10]
     712                            .dwattr $C$DW$39, DW_AT_accessibility(DW_ACCESS_public)
     713                            .dwattr $C$DW$39, DW_AT_decl_file("C:\Users\bob\Documents\Projects\induct_forge\RM57Lx_test\Pr
     714                            .dwattr $C$DW$39, DW_AT_decl_line(0x52)
     715                            .dwattr $C$DW$39, DW_AT_decl_column(0x10)
TI ARM Assembler PC v16.9.0 Sun Feb 19 22:05:31 2017

Tools Copyright (c) 1996-2015 Texas Instruments Incorporated
C:\Users\bob\AppData\Local\Temp\0664410                              PAGE   14

     716                    
     717                    $C$DW$40        .dwtag  DW_TAG_member
     718                            .dwattr $C$DW$40, DW_AT_type(*$C$DW$T$20)
     719                            .dwattr $C$DW$40, DW_AT_name("CAUCx")
     720                            .dwattr $C$DW$40, DW_AT_TI_symbol_name("CAUCx")
     721                            .dwattr $C$DW$40, DW_AT_data_member_location[DW_OP_plus_uconst 0x14]
     722                            .dwattr $C$DW$40, DW_AT_accessibility(DW_ACCESS_public)
     723                            .dwattr $C$DW$40, DW_AT_decl_file("C:\Users\bob\Documents\Projects\induct_forge\RM57Lx_test\Pr
     724                            .dwattr $C$DW$40, DW_AT_decl_line(0x53)
     725                            .dwattr $C$DW$40, DW_AT_decl_column(0x10)
     726                    
     727                    $C$DW$41        .dwtag  DW_TAG_member
     728                            .dwattr $C$DW$41, DW_AT_type(*$C$DW$T$21)
     729                            .dwattr $C$DW$41, DW_AT_name("rsvd2")
     730                            .dwattr $C$DW$41, DW_AT_TI_symbol_name("rsvd2")
     731                            .dwattr $C$DW$41, DW_AT_data_member_location[DW_OP_plus_uconst 0x18]
     732                            .dwattr $C$DW$41, DW_AT_accessibility(DW_ACCESS_public)
     733                            .dwattr $C$DW$41, DW_AT_decl_file("C:\Users\bob\Documents\Projects\induct_forge\RM57Lx_test\Pr
     734                            .dwattr $C$DW$41, DW_AT_decl_line(0x54)
     735                            .dwattr $C$DW$41, DW_AT_decl_column(0x12)
     736                    
     737                            .dwattr $C$DW$T$22, DW_AT_decl_file("C:\Users\bob\Documents\Projects\induct_forge\RM57Lx_test\
     738                            .dwattr $C$DW$T$22, DW_AT_decl_line(0x4d)
     739                            .dwattr $C$DW$T$22, DW_AT_decl_column(0x05)
     740                            .dwendtag $C$DW$T$22
     741                    
     742                    
     743                    $C$DW$T$79      .dwtag  DW_TAG_array_type
     744                            .dwattr $C$DW$T$79, DW_AT_type(*$C$DW$T$22)
     745                            .dwattr $C$DW$T$79, DW_AT_language(DW_LANG_C)
     746                            .dwattr $C$DW$T$79, DW_AT_byte_size(0x40)
     747                    $C$DW$42        .dwtag  DW_TAG_subrange_type
     748                            .dwattr $C$DW$42, DW_AT_upper_bound(0x01)
     749                    
     750                            .dwendtag $C$DW$T$79
     751                    
     752                    
     753                    $C$DW$T$23      .dwtag  DW_TAG_structure_type
     754                            .dwattr $C$DW$T$23, DW_AT_byte_size(0x08)
     755                    $C$DW$43        .dwtag  DW_TAG_member
     756                            .dwattr $C$DW$43, DW_AT_type(*$C$DW$T$20)
     757                            .dwattr $C$DW$43, DW_AT_name("COMPx")
     758                            .dwattr $C$DW$43, DW_AT_TI_symbol_name("COMPx")
     759                            .dwattr $C$DW$43, DW_AT_data_member_location[DW_OP_plus_uconst 0x0]
     760                            .dwattr $C$DW$43, DW_AT_accessibility(DW_ACCESS_public)
     761                            .dwattr $C$DW$43, DW_AT_decl_file("C:\Users\bob\Documents\Projects\induct_forge\RM57Lx_test\Pr
     762                            .dwattr $C$DW$43, DW_AT_decl_line(0x5a)
     763                            .dwattr $C$DW$43, DW_AT_decl_column(0x10)
     764                    
     765                    $C$DW$44        .dwtag  DW_TAG_member
     766                            .dwattr $C$DW$44, DW_AT_type(*$C$DW$T$20)
     767                            .dwattr $C$DW$44, DW_AT_name("UDCPx")
     768                            .dwattr $C$DW$44, DW_AT_TI_symbol_name("UDCPx")
     769                            .dwattr $C$DW$44, DW_AT_data_member_location[DW_OP_plus_uconst 0x4]
     770                            .dwattr $C$DW$44, DW_AT_accessibility(DW_ACCESS_public)
TI ARM Assembler PC v16.9.0 Sun Feb 19 22:05:31 2017

Tools Copyright (c) 1996-2015 Texas Instruments Incorporated
C:\Users\bob\AppData\Local\Temp\0664410                              PAGE   15

     771                            .dwattr $C$DW$44, DW_AT_decl_file("C:\Users\bob\Documents\Projects\induct_forge\RM57Lx_test\Pr
     772                            .dwattr $C$DW$44, DW_AT_decl_line(0x5b)
     773                            .dwattr $C$DW$44, DW_AT_decl_column(0x10)
     774                    
     775                            .dwattr $C$DW$T$23, DW_AT_decl_file("C:\Users\bob\Documents\Projects\induct_forge\RM57Lx_test\
     776                            .dwattr $C$DW$T$23, DW_AT_decl_line(0x59)
     777                            .dwattr $C$DW$T$23, DW_AT_decl_column(0x05)
     778                            .dwendtag $C$DW$T$23
     779                    
     780                    
     781                    $C$DW$T$80      .dwtag  DW_TAG_array_type
     782                            .dwattr $C$DW$T$80, DW_AT_type(*$C$DW$T$23)
     783                            .dwattr $C$DW$T$80, DW_AT_language(DW_LANG_C)
     784                            .dwattr $C$DW$T$80, DW_AT_byte_size(0x20)
     785                    $C$DW$45        .dwtag  DW_TAG_subrange_type
     786                            .dwattr $C$DW$45, DW_AT_upper_bound(0x03)
     787                    
     788                            .dwendtag $C$DW$T$80
     789                    
     790                    
     791                    $C$DW$T$26      .dwtag  DW_TAG_structure_type
     792                            .dwattr $C$DW$T$26, DW_AT_byte_size(0x04)
     793                    $C$DW$46        .dwtag  DW_TAG_member
     794                            .dwattr $C$DW$46, DW_AT_type(*$C$DW$T$25)
     795                            .dwattr $C$DW$46, DW_AT_name("data")
     796                            .dwattr $C$DW$46, DW_AT_TI_symbol_name("data")
     797                            .dwattr $C$DW$46, DW_AT_data_member_location[DW_OP_plus_uconst 0x0]
     798                            .dwattr $C$DW$46, DW_AT_accessibility(DW_ACCESS_public)
     799                            .dwattr $C$DW$46, DW_AT_decl_file("C:/Users/bob/Documents/Projects/induct_forge/RM57Lx_test/Pr
     800                            .dwattr $C$DW$46, DW_AT_decl_line(0xe6)
     801                            .dwattr $C$DW$46, DW_AT_decl_column(0x0e)
     802                    
     803                    $C$DW$47        .dwtag  DW_TAG_member
     804                            .dwattr $C$DW$47, DW_AT_type(*$C$DW$T$25)
     805                            .dwattr $C$DW$47, DW_AT_name("control")
     806                            .dwattr $C$DW$47, DW_AT_TI_symbol_name("control")
     807                            .dwattr $C$DW$47, DW_AT_data_member_location[DW_OP_plus_uconst 0x2]
     808                            .dwattr $C$DW$47, DW_AT_accessibility(DW_ACCESS_public)
     809                            .dwattr $C$DW$47, DW_AT_decl_file("C:/Users/bob/Documents/Projects/induct_forge/RM57Lx_test/Pr
     810                            .dwattr $C$DW$47, DW_AT_decl_line(0xe7)
     811                            .dwattr $C$DW$47, DW_AT_decl_column(0x0e)
     812                    
     813                            .dwattr $C$DW$T$26, DW_AT_decl_file("C:/Users/bob/Documents/Projects/induct_forge/RM57Lx_test/
     814                            .dwattr $C$DW$T$26, DW_AT_decl_line(0xe4)
     815                            .dwattr $C$DW$T$26, DW_AT_decl_column(0x05)
     816                            .dwendtag $C$DW$T$26
     817                    
     818                    
     819                    $C$DW$T$52      .dwtag  DW_TAG_array_type
     820                            .dwattr $C$DW$T$52, DW_AT_type(*$C$DW$T$26)
     821                            .dwattr $C$DW$T$52, DW_AT_language(DW_LANG_C)
     822                            .dwattr $C$DW$T$52, DW_AT_byte_size(0x200)
     823                    $C$DW$48        .dwtag  DW_TAG_subrange_type
     824                            .dwattr $C$DW$48, DW_AT_upper_bound(0x7f)
     825                    
TI ARM Assembler PC v16.9.0 Sun Feb 19 22:05:31 2017

Tools Copyright (c) 1996-2015 Texas Instruments Incorporated
C:\Users\bob\AppData\Local\Temp\0664410                              PAGE   16

     826                            .dwendtag $C$DW$T$52
     827                    
     828                    
     829                    $C$DW$T$27      .dwtag  DW_TAG_structure_type
     830                            .dwattr $C$DW$T$27, DW_AT_byte_size(0x04)
     831                    $C$DW$49        .dwtag  DW_TAG_member
     832                            .dwattr $C$DW$49, DW_AT_type(*$C$DW$T$25)
     833                            .dwattr $C$DW$49, DW_AT_name("data")
     834                            .dwattr $C$DW$49, DW_AT_TI_symbol_name("data")
     835                            .dwattr $C$DW$49, DW_AT_data_member_location[DW_OP_plus_uconst 0x0]
     836                            .dwattr $C$DW$49, DW_AT_accessibility(DW_ACCESS_public)
     837                            .dwattr $C$DW$49, DW_AT_decl_file("C:/Users/bob/Documents/Projects/induct_forge/RM57Lx_test/Pr
     838                            .dwattr $C$DW$49, DW_AT_decl_line(0xf0)
     839                            .dwattr $C$DW$49, DW_AT_decl_column(0x0d)
     840                    
     841                    $C$DW$50        .dwtag  DW_TAG_member
     842                            .dwattr $C$DW$50, DW_AT_type(*$C$DW$T$25)
     843                            .dwattr $C$DW$50, DW_AT_name("flags")
     844                            .dwattr $C$DW$50, DW_AT_TI_symbol_name("flags")
     845                            .dwattr $C$DW$50, DW_AT_data_member_location[DW_OP_plus_uconst 0x2]
     846                            .dwattr $C$DW$50, DW_AT_accessibility(DW_ACCESS_public)
     847                            .dwattr $C$DW$50, DW_AT_decl_file("C:/Users/bob/Documents/Projects/induct_forge/RM57Lx_test/Pr
     848                            .dwattr $C$DW$50, DW_AT_decl_line(0xf1)
     849                            .dwattr $C$DW$50, DW_AT_decl_column(0x0a)
     850                    
     851                            .dwattr $C$DW$T$27, DW_AT_decl_file("C:/Users/bob/Documents/Projects/induct_forge/RM57Lx_test/
     852                            .dwattr $C$DW$T$27, DW_AT_decl_line(0xee)
     853                            .dwattr $C$DW$T$27, DW_AT_decl_column(0x05)
     854                            .dwendtag $C$DW$T$27
     855                    
     856                    
     857                    $C$DW$T$53      .dwtag  DW_TAG_array_type
     858                            .dwattr $C$DW$T$53, DW_AT_type(*$C$DW$T$27)
     859                            .dwattr $C$DW$T$53, DW_AT_language(DW_LANG_C)
     860                            .dwattr $C$DW$T$53, DW_AT_byte_size(0x200)
     861                    $C$DW$51        .dwtag  DW_TAG_subrange_type
     862                            .dwattr $C$DW$51, DW_AT_upper_bound(0x7f)
     863                    
     864                            .dwendtag $C$DW$T$53
     865                    
     866                    
     867                    $C$DW$T$29      .dwtag  DW_TAG_structure_type
     868                            .dwattr $C$DW$T$29, DW_AT_byte_size(0x18)
     869                    $C$DW$52        .dwtag  DW_TAG_member
     870                            .dwattr $C$DW$52, DW_AT_type(*$C$DW$T$10)
     871                            .dwattr $C$DW$52, DW_AT_name("fd")
     872                            .dwattr $C$DW$52, DW_AT_TI_symbol_name("fd")
     873                            .dwattr $C$DW$52, DW_AT_data_member_location[DW_OP_plus_uconst 0x0]
     874                            .dwattr $C$DW$52, DW_AT_accessibility(DW_ACCESS_public)
     875                            .dwattr $C$DW$52, DW_AT_decl_file("C:/ti/ccsv7/tools/compiler/ti-cgt-arm_16.9.0.LTS/include/st
     876                            .dwattr $C$DW$52, DW_AT_decl_line(0x5c)
     877                            .dwattr $C$DW$52, DW_AT_decl_column(0x0b)
     878                    
     879                    $C$DW$53        .dwtag  DW_TAG_member
     880                            .dwattr $C$DW$53, DW_AT_type(*$C$DW$T$28)
TI ARM Assembler PC v16.9.0 Sun Feb 19 22:05:31 2017

Tools Copyright (c) 1996-2015 Texas Instruments Incorporated
C:\Users\bob\AppData\Local\Temp\0664410                              PAGE   17

     881                            .dwattr $C$DW$53, DW_AT_name("buf")
     882                            .dwattr $C$DW$53, DW_AT_TI_symbol_name("buf")
     883                            .dwattr $C$DW$53, DW_AT_data_member_location[DW_OP_plus_uconst 0x4]
     884                            .dwattr $C$DW$53, DW_AT_accessibility(DW_ACCESS_public)
     885                            .dwattr $C$DW$53, DW_AT_decl_file("C:/ti/ccsv7/tools/compiler/ti-cgt-arm_16.9.0.LTS/include/st
     886                            .dwattr $C$DW$53, DW_AT_decl_line(0x5d)
     887                            .dwattr $C$DW$53, DW_AT_decl_column(0x16)
     888                    
     889                    $C$DW$54        .dwtag  DW_TAG_member
     890                            .dwattr $C$DW$54, DW_AT_type(*$C$DW$T$28)
     891                            .dwattr $C$DW$54, DW_AT_name("pos")
     892                            .dwattr $C$DW$54, DW_AT_TI_symbol_name("pos")
     893                            .dwattr $C$DW$54, DW_AT_data_member_location[DW_OP_plus_uconst 0x8]
     894                            .dwattr $C$DW$54, DW_AT_accessibility(DW_ACCESS_public)
     895                            .dwattr $C$DW$54, DW_AT_decl_file("C:/ti/ccsv7/tools/compiler/ti-cgt-arm_16.9.0.LTS/include/st
     896                            .dwattr $C$DW$54, DW_AT_decl_line(0x5e)
     897                            .dwattr $C$DW$54, DW_AT_decl_column(0x16)
     898                    
     899                    $C$DW$55        .dwtag  DW_TAG_member
     900                            .dwattr $C$DW$55, DW_AT_type(*$C$DW$T$28)
     901                            .dwattr $C$DW$55, DW_AT_name("bufend")
     902                            .dwattr $C$DW$55, DW_AT_TI_symbol_name("bufend")
     903                            .dwattr $C$DW$55, DW_AT_data_member_location[DW_OP_plus_uconst 0xc]
     904                            .dwattr $C$DW$55, DW_AT_accessibility(DW_ACCESS_public)
     905                            .dwattr $C$DW$55, DW_AT_decl_file("C:/ti/ccsv7/tools/compiler/ti-cgt-arm_16.9.0.LTS/include/st
     906                            .dwattr $C$DW$55, DW_AT_decl_line(0x5f)
     907                            .dwattr $C$DW$55, DW_AT_decl_column(0x16)
     908                    
     909                    $C$DW$56        .dwtag  DW_TAG_member
     910                            .dwattr $C$DW$56, DW_AT_type(*$C$DW$T$28)
     911                            .dwattr $C$DW$56, DW_AT_name("buff_stop")
     912                            .dwattr $C$DW$56, DW_AT_TI_symbol_name("buff_stop")
     913                            .dwattr $C$DW$56, DW_AT_data_member_location[DW_OP_plus_uconst 0x10]
     914                            .dwattr $C$DW$56, DW_AT_accessibility(DW_ACCESS_public)
     915                            .dwattr $C$DW$56, DW_AT_decl_file("C:/ti/ccsv7/tools/compiler/ti-cgt-arm_16.9.0.LTS/include/st
     916                            .dwattr $C$DW$56, DW_AT_decl_line(0x60)
     917                            .dwattr $C$DW$56, DW_AT_decl_column(0x16)
     918                    
     919                    $C$DW$57        .dwtag  DW_TAG_member
     920                            .dwattr $C$DW$57, DW_AT_type(*$C$DW$T$11)
     921                            .dwattr $C$DW$57, DW_AT_name("flags")
     922                            .dwattr $C$DW$57, DW_AT_TI_symbol_name("flags")
     923                            .dwattr $C$DW$57, DW_AT_data_member_location[DW_OP_plus_uconst 0x14]
     924                            .dwattr $C$DW$57, DW_AT_accessibility(DW_ACCESS_public)
     925                            .dwattr $C$DW$57, DW_AT_decl_file("C:/ti/ccsv7/tools/compiler/ti-cgt-arm_16.9.0.LTS/include/st
     926                            .dwattr $C$DW$57, DW_AT_decl_line(0x61)
     927                            .dwattr $C$DW$57, DW_AT_decl_column(0x16)
     928                    
     929                            .dwattr $C$DW$T$29, DW_AT_decl_file("C:/ti/ccsv7/tools/compiler/ti-cgt-arm_16.9.0.LTS/include/
     930                            .dwattr $C$DW$T$29, DW_AT_decl_line(0x5b)
     931                            .dwattr $C$DW$T$29, DW_AT_decl_column(0x10)
     932                            .dwendtag $C$DW$T$29
     933                    
     934                    $C$DW$T$97      .dwtag  DW_TAG_typedef
     935                            .dwattr $C$DW$T$97, DW_AT_name("FILE")
TI ARM Assembler PC v16.9.0 Sun Feb 19 22:05:31 2017

Tools Copyright (c) 1996-2015 Texas Instruments Incorporated
C:\Users\bob\AppData\Local\Temp\0664410                              PAGE   18

     936                            .dwattr $C$DW$T$97, DW_AT_type(*$C$DW$T$29)
     937                            .dwattr $C$DW$T$97, DW_AT_language(DW_LANG_C)
     938                            .dwattr $C$DW$T$97, DW_AT_decl_file("C:/ti/ccsv7/tools/compiler/ti-cgt-arm_16.9.0.LTS/include/
     939                            .dwattr $C$DW$T$97, DW_AT_decl_line(0x62)
     940                            .dwattr $C$DW$T$97, DW_AT_decl_column(0x03)
     941                    
     942                    
     943                    $C$DW$T$30      .dwtag  DW_TAG_structure_type
     944                            .dwattr $C$DW$T$30, DW_AT_byte_size(0x08)
     945                    $C$DW$58        .dwtag  DW_TAG_member
     946                            .dwattr $C$DW$58, DW_AT_type(*$C$DW$T$19)
     947                            .dwattr $C$DW$58, DW_AT_name("PSxMSTID_L")
     948                            .dwattr $C$DW$58, DW_AT_TI_symbol_name("PSxMSTID_L")
     949                            .dwattr $C$DW$58, DW_AT_data_member_location[DW_OP_plus_uconst 0x0]
     950                            .dwattr $C$DW$58, DW_AT_accessibility(DW_ACCESS_public)
     951                            .dwattr $C$DW$58, DW_AT_decl_file("C:/Users/bob/Documents/Projects/induct_forge/RM57Lx_test/Pr
     952                            .dwattr $C$DW$58, DW_AT_decl_line(0xe8)
     953                            .dwattr $C$DW$58, DW_AT_decl_column(0x12)
     954                    
     955                    $C$DW$59        .dwtag  DW_TAG_member
     956                            .dwattr $C$DW$59, DW_AT_type(*$C$DW$T$19)
     957                            .dwattr $C$DW$59, DW_AT_name("PSxMSTID_H")
     958                            .dwattr $C$DW$59, DW_AT_TI_symbol_name("PSxMSTID_H")
     959                            .dwattr $C$DW$59, DW_AT_data_member_location[DW_OP_plus_uconst 0x4]
     960                            .dwattr $C$DW$59, DW_AT_accessibility(DW_ACCESS_public)
     961                            .dwattr $C$DW$59, DW_AT_decl_file("C:/Users/bob/Documents/Projects/induct_forge/RM57Lx_test/Pr
     962                            .dwattr $C$DW$59, DW_AT_decl_line(0xe9)
     963                            .dwattr $C$DW$59, DW_AT_decl_column(0x12)
     964                    
     965                            .dwattr $C$DW$T$30, DW_AT_decl_file("C:/Users/bob/Documents/Projects/induct_forge/RM57Lx_test/
     966                            .dwattr $C$DW$T$30, DW_AT_decl_line(0xe7)
     967                            .dwattr $C$DW$T$30, DW_AT_decl_column(0x05)
     968                            .dwendtag $C$DW$T$30
     969                    
     970                    
     971                    $C$DW$T$67      .dwtag  DW_TAG_array_type
     972                            .dwattr $C$DW$T$67, DW_AT_type(*$C$DW$T$30)
     973                            .dwattr $C$DW$T$67, DW_AT_language(DW_LANG_C)
     974                            .dwattr $C$DW$T$67, DW_AT_byte_size(0x100)
     975                    $C$DW$60        .dwtag  DW_TAG_subrange_type
     976                            .dwattr $C$DW$60, DW_AT_upper_bound(0x1f)
     977                    
     978                            .dwendtag $C$DW$T$67
     979                    
     980                    
     981                    $C$DW$T$31      .dwtag  DW_TAG_structure_type
     982                            .dwattr $C$DW$T$31, DW_AT_byte_size(0x08)
     983                    $C$DW$61        .dwtag  DW_TAG_member
     984                            .dwattr $C$DW$61, DW_AT_type(*$C$DW$T$19)
     985                            .dwattr $C$DW$61, DW_AT_name("PPSxMSTID_L")
     986                            .dwattr $C$DW$61, DW_AT_TI_symbol_name("PPSxMSTID_L")
     987                            .dwattr $C$DW$61, DW_AT_data_member_location[DW_OP_plus_uconst 0x0]
     988                            .dwattr $C$DW$61, DW_AT_accessibility(DW_ACCESS_public)
     989                            .dwattr $C$DW$61, DW_AT_decl_file("C:/Users/bob/Documents/Projects/induct_forge/RM57Lx_test/Pr
     990                            .dwattr $C$DW$61, DW_AT_decl_line(0xed)
TI ARM Assembler PC v16.9.0 Sun Feb 19 22:05:31 2017

Tools Copyright (c) 1996-2015 Texas Instruments Incorporated
C:\Users\bob\AppData\Local\Temp\0664410                              PAGE   19

     991                            .dwattr $C$DW$61, DW_AT_decl_column(0x12)
     992                    
     993                    $C$DW$62        .dwtag  DW_TAG_member
     994                            .dwattr $C$DW$62, DW_AT_type(*$C$DW$T$19)
     995                            .dwattr $C$DW$62, DW_AT_name("PPSxMSTID_H")
     996                            .dwattr $C$DW$62, DW_AT_TI_symbol_name("PPSxMSTID_H")
     997                            .dwattr $C$DW$62, DW_AT_data_member_location[DW_OP_plus_uconst 0x4]
     998                            .dwattr $C$DW$62, DW_AT_accessibility(DW_ACCESS_public)
     999                            .dwattr $C$DW$62, DW_AT_decl_file("C:/Users/bob/Documents/Projects/induct_forge/RM57Lx_test/Pr
    1000                            .dwattr $C$DW$62, DW_AT_decl_line(0xee)
    1001                            .dwattr $C$DW$62, DW_AT_decl_column(0x12)
    1002                    
    1003                            .dwattr $C$DW$T$31, DW_AT_decl_file("C:/Users/bob/Documents/Projects/induct_forge/RM57Lx_test/
    1004                            .dwattr $C$DW$T$31, DW_AT_decl_line(0xec)
    1005                            .dwattr $C$DW$T$31, DW_AT_decl_column(0x05)
    1006                            .dwendtag $C$DW$T$31
    1007                    
    1008                    
    1009                    $C$DW$T$68      .dwtag  DW_TAG_array_type
    1010                            .dwattr $C$DW$T$68, DW_AT_type(*$C$DW$T$31)
    1011                            .dwattr $C$DW$T$68, DW_AT_language(DW_LANG_C)
    1012                            .dwattr $C$DW$T$68, DW_AT_byte_size(0x40)
    1013                    $C$DW$63        .dwtag  DW_TAG_subrange_type
    1014                            .dwattr $C$DW$63, DW_AT_upper_bound(0x07)
    1015                    
    1016                            .dwendtag $C$DW$T$68
    1017                    
    1018                    
    1019                    $C$DW$T$32      .dwtag  DW_TAG_structure_type
    1020                            .dwattr $C$DW$T$32, DW_AT_byte_size(0x08)
    1021                    $C$DW$64        .dwtag  DW_TAG_member
    1022                            .dwattr $C$DW$64, DW_AT_type(*$C$DW$T$19)
    1023                            .dwattr $C$DW$64, DW_AT_name("PPSExMSTID_L")
    1024                            .dwattr $C$DW$64, DW_AT_TI_symbol_name("PPSExMSTID_L")
    1025                            .dwattr $C$DW$64, DW_AT_data_member_location[DW_OP_plus_uconst 0x0]
    1026                            .dwattr $C$DW$64, DW_AT_accessibility(DW_ACCESS_public)
    1027                            .dwattr $C$DW$64, DW_AT_decl_file("C:/Users/bob/Documents/Projects/induct_forge/RM57Lx_test/Pr
    1028                            .dwattr $C$DW$64, DW_AT_decl_line(0xf2)
    1029                            .dwattr $C$DW$64, DW_AT_decl_column(0x12)
    1030                    
    1031                    $C$DW$65        .dwtag  DW_TAG_member
    1032                            .dwattr $C$DW$65, DW_AT_type(*$C$DW$T$19)
    1033                            .dwattr $C$DW$65, DW_AT_name("PPSExMSTID_H")
    1034                            .dwattr $C$DW$65, DW_AT_TI_symbol_name("PPSExMSTID_H")
    1035                            .dwattr $C$DW$65, DW_AT_data_member_location[DW_OP_plus_uconst 0x4]
    1036                            .dwattr $C$DW$65, DW_AT_accessibility(DW_ACCESS_public)
    1037                            .dwattr $C$DW$65, DW_AT_decl_file("C:/Users/bob/Documents/Projects/induct_forge/RM57Lx_test/Pr
    1038                            .dwattr $C$DW$65, DW_AT_decl_line(0xf3)
    1039                            .dwattr $C$DW$65, DW_AT_decl_column(0x12)
    1040                    
    1041                            .dwattr $C$DW$T$32, DW_AT_decl_file("C:/Users/bob/Documents/Projects/induct_forge/RM57Lx_test/
    1042                            .dwattr $C$DW$T$32, DW_AT_decl_line(0xf1)
    1043                            .dwattr $C$DW$T$32, DW_AT_decl_column(0x05)
    1044                            .dwendtag $C$DW$T$32
    1045                    
TI ARM Assembler PC v16.9.0 Sun Feb 19 22:05:31 2017

Tools Copyright (c) 1996-2015 Texas Instruments Incorporated
C:\Users\bob\AppData\Local\Temp\0664410                              PAGE   20

    1046                    
    1047                    $C$DW$T$69      .dwtag  DW_TAG_array_type
    1048                            .dwattr $C$DW$T$69, DW_AT_type(*$C$DW$T$32)
    1049                            .dwattr $C$DW$T$69, DW_AT_language(DW_LANG_C)
    1050                            .dwattr $C$DW$T$69, DW_AT_byte_size(0x100)
    1051                    $C$DW$66        .dwtag  DW_TAG_subrange_type
    1052                            .dwattr $C$DW$66, DW_AT_upper_bound(0x1f)
    1053                    
    1054                            .dwendtag $C$DW$T$69
    1055                    
    1056                    
    1057                    $C$DW$T$34      .dwtag  DW_TAG_structure_type
    1058                            .dwattr $C$DW$T$34, DW_AT_name("ROLMIO_t")
    1059                            .dwattr $C$DW$T$34, DW_AT_byte_size(0x20)
    1060                    $C$DW$67        .dwtag  DW_TAG_member
    1061                            .dwattr $C$DW$67, DW_AT_type(*$C$DW$T$24)
    1062                            .dwattr $C$DW$67, DW_AT_name("DIN")
    1063                            .dwattr $C$DW$67, DW_AT_TI_symbol_name("DIN")
    1064                            .dwattr $C$DW$67, DW_AT_data_member_location[DW_OP_plus_uconst 0x0]
    1065                            .dwattr $C$DW$67, DW_AT_accessibility(DW_ACCESS_public)
    1066                            .dwattr $C$DW$67, DW_AT_decl_file("C:/Users/bob/Documents/Projects/induct_forge/RM57Lx_test/Pr
    1067                            .dwattr $C$DW$67, DW_AT_decl_line(0x35)
    1068                            .dwattr $C$DW$67, DW_AT_decl_column(0x0b)
    1069                    
    1070                    $C$DW$68        .dwtag  DW_TAG_member
    1071                            .dwattr $C$DW$68, DW_AT_type(*$C$DW$T$24)
    1072                            .dwattr $C$DW$68, DW_AT_name("DOUT")
    1073                            .dwattr $C$DW$68, DW_AT_TI_symbol_name("DOUT")
    1074                            .dwattr $C$DW$68, DW_AT_data_member_location[DW_OP_plus_uconst 0x2]
    1075                            .dwattr $C$DW$68, DW_AT_accessibility(DW_ACCESS_public)
    1076                            .dwattr $C$DW$68, DW_AT_decl_file("C:/Users/bob/Documents/Projects/induct_forge/RM57Lx_test/Pr
    1077                            .dwattr $C$DW$68, DW_AT_decl_line(0x36)
    1078                            .dwattr $C$DW$68, DW_AT_decl_column(0x0b)
    1079                    
    1080                    $C$DW$69        .dwtag  DW_TAG_member
    1081                            .dwattr $C$DW$69, DW_AT_type(*$C$DW$T$24)
    1082                            .dwattr $C$DW$69, DW_AT_name("DS")
    1083                            .dwattr $C$DW$69, DW_AT_TI_symbol_name("DS")
    1084                            .dwattr $C$DW$69, DW_AT_data_member_location[DW_OP_plus_uconst 0x4]
    1085                            .dwattr $C$DW$69, DW_AT_accessibility(DW_ACCESS_public)
    1086                            .dwattr $C$DW$69, DW_AT_decl_file("C:/Users/bob/Documents/Projects/induct_forge/RM57Lx_test/Pr
    1087                            .dwattr $C$DW$69, DW_AT_decl_line(0x37)
    1088                            .dwattr $C$DW$69, DW_AT_decl_column(0x0b)
    1089                    
    1090                    $C$DW$70        .dwtag  DW_TAG_member
    1091                            .dwattr $C$DW$70, DW_AT_type(*$C$DW$T$33)
    1092                            .dwattr $C$DW$70, DW_AT_name("DATOA")
    1093                            .dwattr $C$DW$70, DW_AT_TI_symbol_name("DATOA")
    1094                            .dwattr $C$DW$70, DW_AT_data_member_location[DW_OP_plus_uconst 0x6]
    1095                            .dwattr $C$DW$70, DW_AT_accessibility(DW_ACCESS_public)
    1096                            .dwattr $C$DW$70, DW_AT_decl_file("C:/Users/bob/Documents/Projects/induct_forge/RM57Lx_test/Pr
    1097                            .dwattr $C$DW$70, DW_AT_decl_line(0x38)
    1098                            .dwattr $C$DW$70, DW_AT_decl_column(0x0c)
    1099                    
    1100                    $C$DW$71        .dwtag  DW_TAG_member
TI ARM Assembler PC v16.9.0 Sun Feb 19 22:05:31 2017

Tools Copyright (c) 1996-2015 Texas Instruments Incorporated
C:\Users\bob\AppData\Local\Temp\0664410                              PAGE   21

    1101                            .dwattr $C$DW$71, DW_AT_type(*$C$DW$T$33)
    1102                            .dwattr $C$DW$71, DW_AT_name("DATOB")
    1103                            .dwattr $C$DW$71, DW_AT_TI_symbol_name("DATOB")
    1104                            .dwattr $C$DW$71, DW_AT_data_member_location[DW_OP_plus_uconst 0x7]
    1105                            .dwattr $C$DW$71, DW_AT_accessibility(DW_ACCESS_public)
    1106                            .dwattr $C$DW$71, DW_AT_decl_file("C:/Users/bob/Documents/Projects/induct_forge/RM57Lx_test/Pr
    1107                            .dwattr $C$DW$71, DW_AT_decl_line(0x39)
    1108                            .dwattr $C$DW$71, DW_AT_decl_column(0x0c)
    1109                    
    1110                    $C$DW$72        .dwtag  DW_TAG_member
    1111                            .dwattr $C$DW$72, DW_AT_type(*$C$DW$T$33)
    1112                            .dwattr $C$DW$72, DW_AT_name("DATOC")
    1113                            .dwattr $C$DW$72, DW_AT_TI_symbol_name("DATOC")
    1114                            .dwattr $C$DW$72, DW_AT_data_member_location[DW_OP_plus_uconst 0x8]
    1115                            .dwattr $C$DW$72, DW_AT_accessibility(DW_ACCESS_public)
    1116                            .dwattr $C$DW$72, DW_AT_decl_file("C:/Users/bob/Documents/Projects/induct_forge/RM57Lx_test/Pr
    1117                            .dwattr $C$DW$72, DW_AT_decl_line(0x3a)
    1118                            .dwattr $C$DW$72, DW_AT_decl_column(0x0c)
    1119                    
    1120                    $C$DW$73        .dwtag  DW_TAG_member
    1121                            .dwattr $C$DW$73, DW_AT_type(*$C$DW$T$33)
    1122                            .dwattr $C$DW$73, DW_AT_name("DATIA")
    1123                            .dwattr $C$DW$73, DW_AT_TI_symbol_name("DATIA")
    1124                            .dwattr $C$DW$73, DW_AT_data_member_location[DW_OP_plus_uconst 0x9]
    1125                            .dwattr $C$DW$73, DW_AT_accessibility(DW_ACCESS_public)
    1126                            .dwattr $C$DW$73, DW_AT_decl_file("C:/Users/bob/Documents/Projects/induct_forge/RM57Lx_test/Pr
    1127                            .dwattr $C$DW$73, DW_AT_decl_line(0x3b)
    1128                            .dwattr $C$DW$73, DW_AT_decl_column(0x0c)
    1129                    
    1130                    $C$DW$74        .dwtag  DW_TAG_member
    1131                            .dwattr $C$DW$74, DW_AT_type(*$C$DW$T$33)
    1132                            .dwattr $C$DW$74, DW_AT_name("DATIB")
    1133                            .dwattr $C$DW$74, DW_AT_TI_symbol_name("DATIB")
    1134                            .dwattr $C$DW$74, DW_AT_data_member_location[DW_OP_plus_uconst 0xa]
    1135                            .dwattr $C$DW$74, DW_AT_accessibility(DW_ACCESS_public)
    1136                            .dwattr $C$DW$74, DW_AT_decl_file("C:/Users/bob/Documents/Projects/induct_forge/RM57Lx_test/Pr
    1137                            .dwattr $C$DW$74, DW_AT_decl_line(0x3c)
    1138                            .dwattr $C$DW$74, DW_AT_decl_column(0x0c)
    1139                    
    1140                    $C$DW$75        .dwtag  DW_TAG_member
    1141                            .dwattr $C$DW$75, DW_AT_type(*$C$DW$T$33)
    1142                            .dwattr $C$DW$75, DW_AT_name("DATIC")
    1143                            .dwattr $C$DW$75, DW_AT_TI_symbol_name("DATIC")
    1144                            .dwattr $C$DW$75, DW_AT_data_member_location[DW_OP_plus_uconst 0xb]
    1145                            .dwattr $C$DW$75, DW_AT_accessibility(DW_ACCESS_public)
    1146                            .dwattr $C$DW$75, DW_AT_decl_file("C:/Users/bob/Documents/Projects/induct_forge/RM57Lx_test/Pr
    1147                            .dwattr $C$DW$75, DW_AT_decl_line(0x3d)
    1148                            .dwattr $C$DW$75, DW_AT_decl_column(0x0c)
    1149                    
    1150                    $C$DW$76        .dwtag  DW_TAG_member
    1151                            .dwattr $C$DW$76, DW_AT_type(*$C$DW$T$33)
    1152                            .dwattr $C$DW$76, DW_AT_name("STRT")
    1153                            .dwattr $C$DW$76, DW_AT_TI_symbol_name("STRT")
    1154                            .dwattr $C$DW$76, DW_AT_data_member_location[DW_OP_plus_uconst 0xc]
    1155                            .dwattr $C$DW$76, DW_AT_accessibility(DW_ACCESS_public)
TI ARM Assembler PC v16.9.0 Sun Feb 19 22:05:31 2017

Tools Copyright (c) 1996-2015 Texas Instruments Incorporated
C:\Users\bob\AppData\Local\Temp\0664410                              PAGE   22

    1156                            .dwattr $C$DW$76, DW_AT_decl_file("C:/Users/bob/Documents/Projects/induct_forge/RM57Lx_test/Pr
    1157                            .dwattr $C$DW$76, DW_AT_decl_line(0x3e)
    1158                            .dwattr $C$DW$76, DW_AT_decl_column(0x0c)
    1159                    
    1160                    $C$DW$77        .dwtag  DW_TAG_member
    1161                            .dwattr $C$DW$77, DW_AT_type(*$C$DW$T$33)
    1162                            .dwattr $C$DW$77, DW_AT_name("CLR")
    1163                            .dwattr $C$DW$77, DW_AT_TI_symbol_name("CLR")
    1164                            .dwattr $C$DW$77, DW_AT_data_member_location[DW_OP_plus_uconst 0xd]
    1165                            .dwattr $C$DW$77, DW_AT_accessibility(DW_ACCESS_public)
    1166                            .dwattr $C$DW$77, DW_AT_decl_file("C:/Users/bob/Documents/Projects/induct_forge/RM57Lx_test/Pr
    1167                            .dwattr $C$DW$77, DW_AT_decl_line(0x3f)
    1168                            .dwattr $C$DW$77, DW_AT_decl_column(0x0c)
    1169                    
    1170                    $C$DW$78        .dwtag  DW_TAG_member
    1171                            .dwattr $C$DW$78, DW_AT_type(*$C$DW$T$33)
    1172                            .dwattr $C$DW$78, DW_AT_name("IOPLS")
    1173                            .dwattr $C$DW$78, DW_AT_TI_symbol_name("IOPLS")
    1174                            .dwattr $C$DW$78, DW_AT_data_member_location[DW_OP_plus_uconst 0xe]
    1175                            .dwattr $C$DW$78, DW_AT_accessibility(DW_ACCESS_public)
    1176                            .dwattr $C$DW$78, DW_AT_decl_file("C:/Users/bob/Documents/Projects/induct_forge/RM57Lx_test/Pr
    1177                            .dwattr $C$DW$78, DW_AT_decl_line(0x40)
    1178                            .dwattr $C$DW$78, DW_AT_decl_column(0x0c)
    1179                    
    1180                    $C$DW$79        .dwtag  DW_TAG_member
    1181                            .dwattr $C$DW$79, DW_AT_type(*$C$DW$T$33)
    1182                            .dwattr $C$DW$79, DW_AT_name("SELB")
    1183                            .dwattr $C$DW$79, DW_AT_TI_symbol_name("SELB")
    1184                            .dwattr $C$DW$79, DW_AT_data_member_location[DW_OP_plus_uconst 0xf]
    1185                            .dwattr $C$DW$79, DW_AT_accessibility(DW_ACCESS_public)
    1186                            .dwattr $C$DW$79, DW_AT_decl_file("C:/Users/bob/Documents/Projects/induct_forge/RM57Lx_test/Pr
    1187                            .dwattr $C$DW$79, DW_AT_decl_line(0x41)
    1188                            .dwattr $C$DW$79, DW_AT_decl_column(0x0c)
    1189                    
    1190                    $C$DW$80        .dwtag  DW_TAG_member
    1191                            .dwattr $C$DW$80, DW_AT_type(*$C$DW$T$33)
    1192                            .dwattr $C$DW$80, DW_AT_name("SELD")
    1193                            .dwattr $C$DW$80, DW_AT_TI_symbol_name("SELD")
    1194                            .dwattr $C$DW$80, DW_AT_data_member_location[DW_OP_plus_uconst 0x10]
    1195                            .dwattr $C$DW$80, DW_AT_accessibility(DW_ACCESS_public)
    1196                            .dwattr $C$DW$80, DW_AT_decl_file("C:/Users/bob/Documents/Projects/induct_forge/RM57Lx_test/Pr
    1197                            .dwattr $C$DW$80, DW_AT_decl_line(0x42)
    1198                            .dwattr $C$DW$80, DW_AT_decl_column(0x0c)
    1199                    
    1200                    $C$DW$81        .dwtag  DW_TAG_member
    1201                            .dwattr $C$DW$81, DW_AT_type(*$C$DW$T$33)
    1202                            .dwattr $C$DW$81, DW_AT_name("IORST")
    1203                            .dwattr $C$DW$81, DW_AT_TI_symbol_name("IORST")
    1204                            .dwattr $C$DW$81, DW_AT_data_member_location[DW_OP_plus_uconst 0x11]
    1205                            .dwattr $C$DW$81, DW_AT_accessibility(DW_ACCESS_public)
    1206                            .dwattr $C$DW$81, DW_AT_decl_file("C:/Users/bob/Documents/Projects/induct_forge/RM57Lx_test/Pr
    1207                            .dwattr $C$DW$81, DW_AT_decl_line(0x43)
    1208                            .dwattr $C$DW$81, DW_AT_decl_column(0x0c)
    1209                    
    1210                    $C$DW$82        .dwtag  DW_TAG_member
TI ARM Assembler PC v16.9.0 Sun Feb 19 22:05:31 2017

Tools Copyright (c) 1996-2015 Texas Instruments Incorporated
C:\Users\bob\AppData\Local\Temp\0664410                              PAGE   23

    1211                            .dwattr $C$DW$82, DW_AT_type(*$C$DW$T$33)
    1212                            .dwattr $C$DW$82, DW_AT_name("INTR")
    1213                            .dwattr $C$DW$82, DW_AT_TI_symbol_name("INTR")
    1214                            .dwattr $C$DW$82, DW_AT_data_member_location[DW_OP_plus_uconst 0x12]
    1215                            .dwattr $C$DW$82, DW_AT_accessibility(DW_ACCESS_public)
    1216                            .dwattr $C$DW$82, DW_AT_decl_file("C:/Users/bob/Documents/Projects/induct_forge/RM57Lx_test/Pr
    1217                            .dwattr $C$DW$82, DW_AT_decl_line(0x44)
    1218                            .dwattr $C$DW$82, DW_AT_decl_column(0x0c)
    1219                    
    1220                    $C$DW$83        .dwtag  DW_TAG_member
    1221                            .dwattr $C$DW$83, DW_AT_type(*$C$DW$T$33)
    1222                            .dwattr $C$DW$83, DW_AT_name("INTA")
    1223                            .dwattr $C$DW$83, DW_AT_TI_symbol_name("INTA")
    1224                            .dwattr $C$DW$83, DW_AT_data_member_location[DW_OP_plus_uconst 0x13]
    1225                            .dwattr $C$DW$83, DW_AT_accessibility(DW_ACCESS_public)
    1226                            .dwattr $C$DW$83, DW_AT_decl_file("C:/Users/bob/Documents/Projects/induct_forge/RM57Lx_test/Pr
    1227                            .dwattr $C$DW$83, DW_AT_decl_line(0x45)
    1228                            .dwattr $C$DW$83, DW_AT_decl_column(0x0c)
    1229                    
    1230                    $C$DW$84        .dwtag  DW_TAG_member
    1231                            .dwattr $C$DW$84, DW_AT_type(*$C$DW$T$33)
    1232                            .dwattr $C$DW$84, DW_AT_name("INTP")
    1233                            .dwattr $C$DW$84, DW_AT_TI_symbol_name("INTP")
    1234                            .dwattr $C$DW$84, DW_AT_data_member_location[DW_OP_plus_uconst 0x14]
    1235                            .dwattr $C$DW$84, DW_AT_accessibility(DW_ACCESS_public)
    1236                            .dwattr $C$DW$84, DW_AT_decl_file("C:/Users/bob/Documents/Projects/induct_forge/RM57Lx_test/Pr
    1237                            .dwattr $C$DW$84, DW_AT_decl_line(0x46)
    1238                            .dwattr $C$DW$84, DW_AT_decl_column(0x0c)
    1239                    
    1240                    $C$DW$85        .dwtag  DW_TAG_member
    1241                            .dwattr $C$DW$85, DW_AT_type(*$C$DW$T$33)
    1242                            .dwattr $C$DW$85, DW_AT_name("MSKO")
    1243                            .dwattr $C$DW$85, DW_AT_TI_symbol_name("MSKO")
    1244                            .dwattr $C$DW$85, DW_AT_data_member_location[DW_OP_plus_uconst 0x15]
    1245                            .dwattr $C$DW$85, DW_AT_accessibility(DW_ACCESS_public)
    1246                            .dwattr $C$DW$85, DW_AT_decl_file("C:/Users/bob/Documents/Projects/induct_forge/RM57Lx_test/Pr
    1247                            .dwattr $C$DW$85, DW_AT_decl_line(0x47)
    1248                            .dwattr $C$DW$85, DW_AT_decl_column(0x0c)
    1249                    
    1250                    $C$DW$86        .dwtag  DW_TAG_member
    1251                            .dwattr $C$DW$86, DW_AT_type(*$C$DW$T$33)
    1252                            .dwattr $C$DW$86, DW_AT_name("RQENB")
    1253                            .dwattr $C$DW$86, DW_AT_TI_symbol_name("RQENB")
    1254                            .dwattr $C$DW$86, DW_AT_data_member_location[DW_OP_plus_uconst 0x16]
    1255                            .dwattr $C$DW$86, DW_AT_accessibility(DW_ACCESS_public)
    1256                            .dwattr $C$DW$86, DW_AT_decl_file("C:/Users/bob/Documents/Projects/induct_forge/RM57Lx_test/Pr
    1257                            .dwattr $C$DW$86, DW_AT_decl_line(0x48)
    1258                            .dwattr $C$DW$86, DW_AT_decl_column(0x0c)
    1259                    
    1260                    $C$DW$87        .dwtag  DW_TAG_member
    1261                            .dwattr $C$DW$87, DW_AT_type(*$C$DW$T$33)
    1262                            .dwattr $C$DW$87, DW_AT_name("DCHR")
    1263                            .dwattr $C$DW$87, DW_AT_TI_symbol_name("DCHR")
    1264                            .dwattr $C$DW$87, DW_AT_data_member_location[DW_OP_plus_uconst 0x17]
    1265                            .dwattr $C$DW$87, DW_AT_accessibility(DW_ACCESS_public)
TI ARM Assembler PC v16.9.0 Sun Feb 19 22:05:31 2017

Tools Copyright (c) 1996-2015 Texas Instruments Incorporated
C:\Users\bob\AppData\Local\Temp\0664410                              PAGE   24

    1266                            .dwattr $C$DW$87, DW_AT_decl_file("C:/Users/bob/Documents/Projects/induct_forge/RM57Lx_test/Pr
    1267                            .dwattr $C$DW$87, DW_AT_decl_line(0x49)
    1268                            .dwattr $C$DW$87, DW_AT_decl_column(0x0c)
    1269                    
    1270                    $C$DW$88        .dwtag  DW_TAG_member
    1271                            .dwattr $C$DW$88, DW_AT_type(*$C$DW$T$33)
    1272                            .dwattr $C$DW$88, DW_AT_name("DCHA")
    1273                            .dwattr $C$DW$88, DW_AT_TI_symbol_name("DCHA")
    1274                            .dwattr $C$DW$88, DW_AT_data_member_location[DW_OP_plus_uconst 0x18]
    1275                            .dwattr $C$DW$88, DW_AT_accessibility(DW_ACCESS_public)
    1276                            .dwattr $C$DW$88, DW_AT_decl_file("C:/Users/bob/Documents/Projects/induct_forge/RM57Lx_test/Pr
    1277                            .dwattr $C$DW$88, DW_AT_decl_line(0x4a)
    1278                            .dwattr $C$DW$88, DW_AT_decl_column(0x0c)
    1279                    
    1280                    $C$DW$89        .dwtag  DW_TAG_member
    1281                            .dwattr $C$DW$89, DW_AT_type(*$C$DW$T$33)
    1282                            .dwattr $C$DW$89, DW_AT_name("DCHP")
    1283                            .dwattr $C$DW$89, DW_AT_TI_symbol_name("DCHP")
    1284                            .dwattr $C$DW$89, DW_AT_data_member_location[DW_OP_plus_uconst 0x19]
    1285                            .dwattr $C$DW$89, DW_AT_accessibility(DW_ACCESS_public)
    1286                            .dwattr $C$DW$89, DW_AT_decl_file("C:/Users/bob/Documents/Projects/induct_forge/RM57Lx_test/Pr
    1287                            .dwattr $C$DW$89, DW_AT_decl_line(0x4b)
    1288                            .dwattr $C$DW$89, DW_AT_decl_column(0x0c)
    1289                    
    1290                    $C$DW$90        .dwtag  DW_TAG_member
    1291                            .dwattr $C$DW$90, DW_AT_type(*$C$DW$T$33)
    1292                            .dwattr $C$DW$90, DW_AT_name("DCHM0")
    1293                            .dwattr $C$DW$90, DW_AT_TI_symbol_name("DCHM0")
    1294                            .dwattr $C$DW$90, DW_AT_data_member_location[DW_OP_plus_uconst 0x1a]
    1295                            .dwattr $C$DW$90, DW_AT_accessibility(DW_ACCESS_public)
    1296                            .dwattr $C$DW$90, DW_AT_decl_file("C:/Users/bob/Documents/Projects/induct_forge/RM57Lx_test/Pr
    1297                            .dwattr $C$DW$90, DW_AT_decl_line(0x4c)
    1298                            .dwattr $C$DW$90, DW_AT_decl_column(0x0c)
    1299                    
    1300                    $C$DW$91        .dwtag  DW_TAG_member
    1301                            .dwattr $C$DW$91, DW_AT_type(*$C$DW$T$33)
    1302                            .dwattr $C$DW$91, DW_AT_name("DCHM1")
    1303                            .dwattr $C$DW$91, DW_AT_TI_symbol_name("DCHM1")
    1304                            .dwattr $C$DW$91, DW_AT_data_member_location[DW_OP_plus_uconst 0x1b]
    1305                            .dwattr $C$DW$91, DW_AT_accessibility(DW_ACCESS_public)
    1306                            .dwattr $C$DW$91, DW_AT_decl_file("C:/Users/bob/Documents/Projects/induct_forge/RM57Lx_test/Pr
    1307                            .dwattr $C$DW$91, DW_AT_decl_line(0x4d)
    1308                            .dwattr $C$DW$91, DW_AT_decl_column(0x0c)
    1309                    
    1310                    $C$DW$92        .dwtag  DW_TAG_member
    1311                            .dwattr $C$DW$92, DW_AT_type(*$C$DW$T$33)
    1312                            .dwattr $C$DW$92, DW_AT_name("DCHS")
    1313                            .dwattr $C$DW$92, DW_AT_TI_symbol_name("DCHS")
    1314                            .dwattr $C$DW$92, DW_AT_data_member_location[DW_OP_plus_uconst 0x1c]
    1315                            .dwattr $C$DW$92, DW_AT_accessibility(DW_ACCESS_public)
    1316                            .dwattr $C$DW$92, DW_AT_decl_file("C:/Users/bob/Documents/Projects/induct_forge/RM57Lx_test/Pr
    1317                            .dwattr $C$DW$92, DW_AT_decl_line(0x4e)
    1318                            .dwattr $C$DW$92, DW_AT_decl_column(0x0c)
    1319                    
    1320                    $C$DW$93        .dwtag  DW_TAG_member
TI ARM Assembler PC v16.9.0 Sun Feb 19 22:05:31 2017

Tools Copyright (c) 1996-2015 Texas Instruments Incorporated
C:\Users\bob\AppData\Local\Temp\0664410                              PAGE   25

    1321                            .dwattr $C$DW$93, DW_AT_type(*$C$DW$T$33)
    1322                            .dwattr $C$DW$93, DW_AT_name("DCHO")
    1323                            .dwattr $C$DW$93, DW_AT_TI_symbol_name("DCHO")
    1324                            .dwattr $C$DW$93, DW_AT_data_member_location[DW_OP_plus_uconst 0x1d]
    1325                            .dwattr $C$DW$93, DW_AT_accessibility(DW_ACCESS_public)
    1326                            .dwattr $C$DW$93, DW_AT_decl_file("C:/Users/bob/Documents/Projects/induct_forge/RM57Lx_test/Pr
    1327                            .dwattr $C$DW$93, DW_AT_decl_line(0x4f)
    1328                            .dwattr $C$DW$93, DW_AT_decl_column(0x0c)
    1329                    
    1330                    $C$DW$94        .dwtag  DW_TAG_member
    1331                            .dwattr $C$DW$94, DW_AT_type(*$C$DW$T$33)
    1332                            .dwattr $C$DW$94, DW_AT_name("OVFLO")
    1333                            .dwattr $C$DW$94, DW_AT_TI_symbol_name("OVFLO")
    1334                            .dwattr $C$DW$94, DW_AT_data_member_location[DW_OP_plus_uconst 0x1e]
    1335                            .dwattr $C$DW$94, DW_AT_accessibility(DW_ACCESS_public)
    1336                            .dwattr $C$DW$94, DW_AT_decl_file("C:/Users/bob/Documents/Projects/induct_forge/RM57Lx_test/Pr
    1337                            .dwattr $C$DW$94, DW_AT_decl_line(0x50)
    1338                            .dwattr $C$DW$94, DW_AT_decl_column(0x0c)
    1339                    
    1340                            .dwattr $C$DW$T$34, DW_AT_decl_file("C:/Users/bob/Documents/Projects/induct_forge/RM57Lx_test/
    1341                            .dwattr $C$DW$T$34, DW_AT_decl_line(0x34)
    1342                            .dwattr $C$DW$T$34, DW_AT_decl_column(0x19)
    1343                            .dwendtag $C$DW$T$34
    1344                    
    1345                    $C$DW$T$98      .dwtag  DW_TAG_volatile_type
    1346                            .dwattr $C$DW$T$98, DW_AT_type(*$C$DW$T$34)
    1347                    
    1348                    $C$DW$T$99      .dwtag  DW_TAG_typedef
    1349                            .dwattr $C$DW$T$99, DW_AT_name("ROLMIO_t")
    1350                            .dwattr $C$DW$T$99, DW_AT_type(*$C$DW$T$98)
    1351                            .dwattr $C$DW$T$99, DW_AT_language(DW_LANG_C)
    1352                            .dwattr $C$DW$T$99, DW_AT_decl_file("C:/Users/bob/Documents/Projects/induct_forge/RM57Lx_test/
    1353                            .dwattr $C$DW$T$99, DW_AT_decl_line(0x51)
    1354                            .dwattr $C$DW$T$99, DW_AT_decl_column(0x03)
    1355                    
    1356                    $C$DW$T$2       .dwtag  DW_TAG_unspecified_type
    1357                            .dwattr $C$DW$T$2, DW_AT_name("void")
    1358                    
    1359                    $C$DW$T$3       .dwtag  DW_TAG_pointer_type
    1360                            .dwattr $C$DW$T$3, DW_AT_type(*$C$DW$T$2)
    1361                            .dwattr $C$DW$T$3, DW_AT_address_class(0x20)
    1362                    
    1363                    
    1364                    $C$DW$T$92      .dwtag  DW_TAG_subroutine_type
    1365                            .dwattr $C$DW$T$92, DW_AT_language(DW_LANG_C)
    1366                            .dwendtag $C$DW$T$92
    1367                    
    1368                    $C$DW$T$93      .dwtag  DW_TAG_pointer_type
    1369                            .dwattr $C$DW$T$93, DW_AT_type(*$C$DW$T$92)
    1370                            .dwattr $C$DW$T$93, DW_AT_address_class(0x20)
    1371                    
    1372                    $C$DW$T$94      .dwtag  DW_TAG_typedef
    1373                            .dwattr $C$DW$T$94, DW_AT_name("callback")
    1374                            .dwattr $C$DW$T$94, DW_AT_type(*$C$DW$T$93)
    1375                            .dwattr $C$DW$T$94, DW_AT_language(DW_LANG_C)
TI ARM Assembler PC v16.9.0 Sun Feb 19 22:05:31 2017

Tools Copyright (c) 1996-2015 Texas Instruments Incorporated
C:\Users\bob\AppData\Local\Temp\0664410                              PAGE   26

    1376                            .dwattr $C$DW$T$94, DW_AT_decl_file("C:/Users/bob/Documents/Projects/induct_forge/RM57Lx_test/
    1377                            .dwattr $C$DW$T$94, DW_AT_decl_line(0x06)
    1378                            .dwattr $C$DW$T$94, DW_AT_decl_column(0x10)
    1379                    
    1380                    
    1381                    $C$DW$T$95      .dwtag  DW_TAG_array_type
    1382                            .dwattr $C$DW$T$95, DW_AT_type(*$C$DW$T$94)
    1383                            .dwattr $C$DW$T$95, DW_AT_language(DW_LANG_C)
    1384                            .dwattr $C$DW$T$95, DW_AT_byte_size(0x200)
    1385                    $C$DW$95        .dwtag  DW_TAG_subrange_type
    1386                            .dwattr $C$DW$95, DW_AT_upper_bound(0x7f)
    1387                    
    1388                            .dwendtag $C$DW$T$95
    1389                    
    1390                    $C$DW$T$4       .dwtag  DW_TAG_base_type
    1391                            .dwattr $C$DW$T$4, DW_AT_encoding(DW_ATE_boolean)
    1392                            .dwattr $C$DW$T$4, DW_AT_name("bool")
    1393                            .dwattr $C$DW$T$4, DW_AT_byte_size(0x01)
    1394                    
    1395                    $C$DW$T$5       .dwtag  DW_TAG_base_type
    1396                            .dwattr $C$DW$T$5, DW_AT_encoding(DW_ATE_signed_char)
    1397                            .dwattr $C$DW$T$5, DW_AT_name("signed char")
    1398                            .dwattr $C$DW$T$5, DW_AT_byte_size(0x01)
    1399                    
    1400                    $C$DW$T$111     .dwtag  DW_TAG_typedef
    1401                            .dwattr $C$DW$T$111, DW_AT_name("int8_t")
    1402                            .dwattr $C$DW$T$111, DW_AT_type(*$C$DW$T$5)
    1403                            .dwattr $C$DW$T$111, DW_AT_language(DW_LANG_C)
    1404                            .dwattr $C$DW$T$111, DW_AT_decl_file("C:/ti/ccsv7/tools/compiler/ti-cgt-arm_16.9.0.LTS/include
    1405                            .dwattr $C$DW$T$111, DW_AT_decl_line(0x2a)
    1406                            .dwattr $C$DW$T$111, DW_AT_decl_column(0x1d)
    1407                    
    1408                    $C$DW$T$112     .dwtag  DW_TAG_typedef
    1409                            .dwattr $C$DW$T$112, DW_AT_name("int_least8_t")
    1410                            .dwattr $C$DW$T$112, DW_AT_type(*$C$DW$T$111)
    1411                            .dwattr $C$DW$T$112, DW_AT_language(DW_LANG_C)
    1412                            .dwattr $C$DW$T$112, DW_AT_decl_file("C:/ti/ccsv7/tools/compiler/ti-cgt-arm_16.9.0.LTS/include
    1413                            .dwattr $C$DW$T$112, DW_AT_decl_line(0x37)
    1414                            .dwattr $C$DW$T$112, DW_AT_decl_column(0x17)
    1415                    
    1416                    $C$DW$T$113     .dwtag  DW_TAG_typedef
    1417                            .dwattr $C$DW$T$113, DW_AT_name("sint8")
    1418                            .dwattr $C$DW$T$113, DW_AT_type(*$C$DW$T$111)
    1419                            .dwattr $C$DW$T$113, DW_AT_language(DW_LANG_C)
    1420                            .dwattr $C$DW$T$113, DW_AT_decl_file("C:\Users\bob\Documents\Projects\induct_forge\RM57Lx_test
    1421                            .dwattr $C$DW$T$113, DW_AT_decl_line(0x68)
    1422                            .dwattr $C$DW$T$113, DW_AT_decl_column(0x10)
    1423                    
    1424                    $C$DW$T$6       .dwtag  DW_TAG_base_type
    1425                            .dwattr $C$DW$T$6, DW_AT_encoding(DW_ATE_unsigned_char)
    1426                            .dwattr $C$DW$T$6, DW_AT_name("unsigned char")
    1427                            .dwattr $C$DW$T$6, DW_AT_byte_size(0x01)
    1428                    
    1429                    $C$DW$T$28      .dwtag  DW_TAG_pointer_type
    1430                            .dwattr $C$DW$T$28, DW_AT_type(*$C$DW$T$6)
TI ARM Assembler PC v16.9.0 Sun Feb 19 22:05:31 2017

Tools Copyright (c) 1996-2015 Texas Instruments Incorporated
C:\Users\bob\AppData\Local\Temp\0664410                              PAGE   27

    1431                            .dwattr $C$DW$T$28, DW_AT_address_class(0x20)
    1432                    
    1433                    $C$DW$T$33      .dwtag  DW_TAG_typedef
    1434                            .dwattr $C$DW$T$33, DW_AT_name("uint8_t")
    1435                            .dwattr $C$DW$T$33, DW_AT_type(*$C$DW$T$6)
    1436                            .dwattr $C$DW$T$33, DW_AT_language(DW_LANG_C)
    1437                            .dwattr $C$DW$T$33, DW_AT_decl_file("C:/ti/ccsv7/tools/compiler/ti-cgt-arm_16.9.0.LTS/include/
    1438                            .dwattr $C$DW$T$33, DW_AT_decl_line(0x2b)
    1439                            .dwattr $C$DW$T$33, DW_AT_decl_column(0x1c)
    1440                    
    1441                    $C$DW$T$49      .dwtag  DW_TAG_typedef
    1442                            .dwattr $C$DW$T$49, DW_AT_name("uint8")
    1443                            .dwattr $C$DW$T$49, DW_AT_type(*$C$DW$T$33)
    1444                            .dwattr $C$DW$T$49, DW_AT_language(DW_LANG_C)
    1445                            .dwattr $C$DW$T$49, DW_AT_decl_file("C:\Users\bob\Documents\Projects\induct_forge\RM57Lx_test\
    1446                            .dwattr $C$DW$T$49, DW_AT_decl_line(0x4b)
    1447                            .dwattr $C$DW$T$49, DW_AT_decl_column(0x11)
    1448                    
    1449                    
    1450                    $C$DW$T$50      .dwtag  DW_TAG_array_type
    1451                            .dwattr $C$DW$T$50, DW_AT_type(*$C$DW$T$49)
    1452                            .dwattr $C$DW$T$50, DW_AT_language(DW_LANG_C)
    1453                            .dwattr $C$DW$T$50, DW_AT_byte_size(0x06)
    1454                    $C$DW$96        .dwtag  DW_TAG_subrange_type
    1455                            .dwattr $C$DW$96, DW_AT_upper_bound(0x05)
    1456                    
    1457                            .dwendtag $C$DW$T$50
    1458                    
    1459                    $C$DW$T$114     .dwtag  DW_TAG_typedef
    1460                            .dwattr $C$DW$T$114, DW_AT_name("uint_least8_t")
    1461                            .dwattr $C$DW$T$114, DW_AT_type(*$C$DW$T$33)
    1462                            .dwattr $C$DW$T$114, DW_AT_language(DW_LANG_C)
    1463                            .dwattr $C$DW$T$114, DW_AT_decl_file("C:/ti/ccsv7/tools/compiler/ti-cgt-arm_16.9.0.LTS/include
    1464                            .dwattr $C$DW$T$114, DW_AT_decl_line(0x38)
    1465                            .dwattr $C$DW$T$114, DW_AT_decl_column(0x16)
    1466                    
    1467                    $C$DW$T$7       .dwtag  DW_TAG_base_type
    1468                            .dwattr $C$DW$T$7, DW_AT_encoding(DW_ATE_signed_char)
    1469                            .dwattr $C$DW$T$7, DW_AT_name("wchar_t")
    1470                            .dwattr $C$DW$T$7, DW_AT_byte_size(0x02)
    1471                    
    1472                    $C$DW$T$8       .dwtag  DW_TAG_base_type
    1473                            .dwattr $C$DW$T$8, DW_AT_encoding(DW_ATE_signed)
    1474                            .dwattr $C$DW$T$8, DW_AT_name("short")
    1475                            .dwattr $C$DW$T$8, DW_AT_byte_size(0x02)
    1476                    
    1477                    $C$DW$T$115     .dwtag  DW_TAG_typedef
    1478                            .dwattr $C$DW$T$115, DW_AT_name("int16_t")
    1479                            .dwattr $C$DW$T$115, DW_AT_type(*$C$DW$T$8)
    1480                            .dwattr $C$DW$T$115, DW_AT_language(DW_LANG_C)
    1481                            .dwattr $C$DW$T$115, DW_AT_decl_file("C:/ti/ccsv7/tools/compiler/ti-cgt-arm_16.9.0.LTS/include
    1482                            .dwattr $C$DW$T$115, DW_AT_decl_line(0x2c)
    1483                            .dwattr $C$DW$T$115, DW_AT_decl_column(0x1d)
    1484                    
    1485                    $C$DW$T$116     .dwtag  DW_TAG_typedef
TI ARM Assembler PC v16.9.0 Sun Feb 19 22:05:31 2017

Tools Copyright (c) 1996-2015 Texas Instruments Incorporated
C:\Users\bob\AppData\Local\Temp\0664410                              PAGE   28

    1486                            .dwattr $C$DW$T$116, DW_AT_name("int_least16_t")
    1487                            .dwattr $C$DW$T$116, DW_AT_type(*$C$DW$T$115)
    1488                            .dwattr $C$DW$T$116, DW_AT_language(DW_LANG_C)
    1489                            .dwattr $C$DW$T$116, DW_AT_decl_file("C:/ti/ccsv7/tools/compiler/ti-cgt-arm_16.9.0.LTS/include
    1490                            .dwattr $C$DW$T$116, DW_AT_decl_line(0x3a)
    1491                            .dwattr $C$DW$T$116, DW_AT_decl_column(0x17)
    1492                    
    1493                    $C$DW$T$117     .dwtag  DW_TAG_typedef
    1494                            .dwattr $C$DW$T$117, DW_AT_name("sint16")
    1495                            .dwattr $C$DW$T$117, DW_AT_type(*$C$DW$T$115)
    1496                            .dwattr $C$DW$T$117, DW_AT_language(DW_LANG_C)
    1497                            .dwattr $C$DW$T$117, DW_AT_decl_file("C:\Users\bob\Documents\Projects\induct_forge\RM57Lx_test
    1498                            .dwattr $C$DW$T$117, DW_AT_decl_line(0x63)
    1499                            .dwattr $C$DW$T$117, DW_AT_decl_column(0x11)
    1500                    
    1501                    $C$DW$T$9       .dwtag  DW_TAG_base_type
    1502                            .dwattr $C$DW$T$9, DW_AT_encoding(DW_ATE_unsigned)
    1503                            .dwattr $C$DW$T$9, DW_AT_name("unsigned short")
    1504                            .dwattr $C$DW$T$9, DW_AT_byte_size(0x02)
    1505                    
    1506                    $C$DW$T$24      .dwtag  DW_TAG_typedef
    1507                            .dwattr $C$DW$T$24, DW_AT_name("uint16_t")
    1508                            .dwattr $C$DW$T$24, DW_AT_type(*$C$DW$T$9)
    1509                            .dwattr $C$DW$T$24, DW_AT_language(DW_LANG_C)
    1510                            .dwattr $C$DW$T$24, DW_AT_decl_file("C:/ti/ccsv7/tools/compiler/ti-cgt-arm_16.9.0.LTS/include/
    1511                            .dwattr $C$DW$T$24, DW_AT_decl_line(0x2d)
    1512                            .dwattr $C$DW$T$24, DW_AT_decl_column(0x1c)
    1513                    
    1514                    $C$DW$T$25      .dwtag  DW_TAG_typedef
    1515                            .dwattr $C$DW$T$25, DW_AT_name("uint16")
    1516                            .dwattr $C$DW$T$25, DW_AT_type(*$C$DW$T$24)
    1517                            .dwattr $C$DW$T$25, DW_AT_language(DW_LANG_C)
    1518                            .dwattr $C$DW$T$25, DW_AT_decl_file("C:\Users\bob\Documents\Projects\induct_forge\RM57Lx_test\
    1519                            .dwattr $C$DW$T$25, DW_AT_decl_line(0x46)
    1520                            .dwattr $C$DW$T$25, DW_AT_decl_column(0x12)
    1521                    
    1522                    $C$DW$T$118     .dwtag  DW_TAG_typedef
    1523                            .dwattr $C$DW$T$118, DW_AT_name("uint_least16_t")
    1524                            .dwattr $C$DW$T$118, DW_AT_type(*$C$DW$T$24)
    1525                            .dwattr $C$DW$T$118, DW_AT_language(DW_LANG_C)
    1526                            .dwattr $C$DW$T$118, DW_AT_decl_file("C:/ti/ccsv7/tools/compiler/ti-cgt-arm_16.9.0.LTS/include
    1527                            .dwattr $C$DW$T$118, DW_AT_decl_line(0x3b)
    1528                            .dwattr $C$DW$T$118, DW_AT_decl_column(0x16)
    1529                    
    1530                    $C$DW$T$10      .dwtag  DW_TAG_base_type
    1531                            .dwattr $C$DW$T$10, DW_AT_encoding(DW_ATE_signed)
    1532                            .dwattr $C$DW$T$10, DW_AT_name("int")
    1533                            .dwattr $C$DW$T$10, DW_AT_byte_size(0x04)
    1534                    
    1535                    $C$DW$T$119     .dwtag  DW_TAG_typedef
    1536                            .dwattr $C$DW$T$119, DW_AT_name("int32_t")
    1537                            .dwattr $C$DW$T$119, DW_AT_type(*$C$DW$T$10)
    1538                            .dwattr $C$DW$T$119, DW_AT_language(DW_LANG_C)
    1539                            .dwattr $C$DW$T$119, DW_AT_decl_file("C:/ti/ccsv7/tools/compiler/ti-cgt-arm_16.9.0.LTS/include
    1540                            .dwattr $C$DW$T$119, DW_AT_decl_line(0x2e)
TI ARM Assembler PC v16.9.0 Sun Feb 19 22:05:31 2017

Tools Copyright (c) 1996-2015 Texas Instruments Incorporated
C:\Users\bob\AppData\Local\Temp\0664410                              PAGE   29

    1541                            .dwattr $C$DW$T$119, DW_AT_decl_column(0x1d)
    1542                    
    1543                    $C$DW$T$120     .dwtag  DW_TAG_typedef
    1544                            .dwattr $C$DW$T$120, DW_AT_name("int_fast16_t")
    1545                            .dwattr $C$DW$T$120, DW_AT_type(*$C$DW$T$119)
    1546                            .dwattr $C$DW$T$120, DW_AT_language(DW_LANG_C)
    1547                            .dwattr $C$DW$T$120, DW_AT_decl_file("C:/ti/ccsv7/tools/compiler/ti-cgt-arm_16.9.0.LTS/include
    1548                            .dwattr $C$DW$T$120, DW_AT_decl_line(0x47)
    1549                            .dwattr $C$DW$T$120, DW_AT_decl_column(0x17)
    1550                    
    1551                    $C$DW$T$121     .dwtag  DW_TAG_typedef
    1552                            .dwattr $C$DW$T$121, DW_AT_name("int_fast32_t")
    1553                            .dwattr $C$DW$T$121, DW_AT_type(*$C$DW$T$119)
    1554                            .dwattr $C$DW$T$121, DW_AT_language(DW_LANG_C)
    1555                            .dwattr $C$DW$T$121, DW_AT_decl_file("C:/ti/ccsv7/tools/compiler/ti-cgt-arm_16.9.0.LTS/include
    1556                            .dwattr $C$DW$T$121, DW_AT_decl_line(0x4a)
    1557                            .dwattr $C$DW$T$121, DW_AT_decl_column(0x17)
    1558                    
    1559                    $C$DW$T$122     .dwtag  DW_TAG_typedef
    1560                            .dwattr $C$DW$T$122, DW_AT_name("int_fast8_t")
    1561                            .dwattr $C$DW$T$122, DW_AT_type(*$C$DW$T$119)
    1562                            .dwattr $C$DW$T$122, DW_AT_language(DW_LANG_C)
    1563                            .dwattr $C$DW$T$122, DW_AT_decl_file("C:/ti/ccsv7/tools/compiler/ti-cgt-arm_16.9.0.LTS/include
    1564                            .dwattr $C$DW$T$122, DW_AT_decl_line(0x45)
    1565                            .dwattr $C$DW$T$122, DW_AT_decl_column(0x17)
    1566                    
    1567                    $C$DW$T$123     .dwtag  DW_TAG_typedef
    1568                            .dwattr $C$DW$T$123, DW_AT_name("int_least32_t")
    1569                            .dwattr $C$DW$T$123, DW_AT_type(*$C$DW$T$119)
    1570                            .dwattr $C$DW$T$123, DW_AT_language(DW_LANG_C)
    1571                            .dwattr $C$DW$T$123, DW_AT_decl_file("C:/ti/ccsv7/tools/compiler/ti-cgt-arm_16.9.0.LTS/include
    1572                            .dwattr $C$DW$T$123, DW_AT_decl_line(0x3c)
    1573                            .dwattr $C$DW$T$123, DW_AT_decl_column(0x17)
    1574                    
    1575                    $C$DW$T$124     .dwtag  DW_TAG_typedef
    1576                            .dwattr $C$DW$T$124, DW_AT_name("sint32")
    1577                            .dwattr $C$DW$T$124, DW_AT_type(*$C$DW$T$119)
    1578                            .dwattr $C$DW$T$124, DW_AT_language(DW_LANG_C)
    1579                            .dwattr $C$DW$T$124, DW_AT_decl_file("C:\Users\bob\Documents\Projects\induct_forge\RM57Lx_test
    1580                            .dwattr $C$DW$T$124, DW_AT_decl_line(0x5e)
    1581                            .dwattr $C$DW$T$124, DW_AT_decl_column(0x11)
    1582                    
    1583                    $C$DW$T$125     .dwtag  DW_TAG_typedef
    1584                            .dwattr $C$DW$T$125, DW_AT_name("intptr_t")
    1585                            .dwattr $C$DW$T$125, DW_AT_type(*$C$DW$T$10)
    1586                            .dwattr $C$DW$T$125, DW_AT_language(DW_LANG_C)
    1587                            .dwattr $C$DW$T$125, DW_AT_decl_file("C:/ti/ccsv7/tools/compiler/ti-cgt-arm_16.9.0.LTS/include
    1588                            .dwattr $C$DW$T$125, DW_AT_decl_line(0x52)
    1589                            .dwattr $C$DW$T$125, DW_AT_decl_column(0x1a)
    1590                    
    1591                    $C$DW$T$11      .dwtag  DW_TAG_base_type
    1592                            .dwattr $C$DW$T$11, DW_AT_encoding(DW_ATE_unsigned)
    1593                            .dwattr $C$DW$T$11, DW_AT_name("unsigned int")
    1594                            .dwattr $C$DW$T$11, DW_AT_byte_size(0x04)
    1595                    
TI ARM Assembler PC v16.9.0 Sun Feb 19 22:05:31 2017

Tools Copyright (c) 1996-2015 Texas Instruments Incorporated
C:\Users\bob\AppData\Local\Temp\0664410                              PAGE   30

    1596                    $C$DW$T$127     .dwtag  DW_TAG_typedef
    1597                            .dwattr $C$DW$T$127, DW_AT_name("size_t")
    1598                            .dwattr $C$DW$T$127, DW_AT_type(*$C$DW$T$11)
    1599                            .dwattr $C$DW$T$127, DW_AT_language(DW_LANG_C)
    1600                            .dwattr $C$DW$T$127, DW_AT_decl_file("C:/ti/ccsv7/tools/compiler/ti-cgt-arm_16.9.0.LTS/include
    1601                            .dwattr $C$DW$T$127, DW_AT_decl_line(0x58)
    1602                            .dwattr $C$DW$T$127, DW_AT_decl_column(0x19)
    1603                    
    1604                    $C$DW$T$19      .dwtag  DW_TAG_typedef
    1605                            .dwattr $C$DW$T$19, DW_AT_name("uint32_t")
    1606                            .dwattr $C$DW$T$19, DW_AT_type(*$C$DW$T$11)
    1607                            .dwattr $C$DW$T$19, DW_AT_language(DW_LANG_C)
    1608                            .dwattr $C$DW$T$19, DW_AT_decl_file("C:/ti/ccsv7/tools/compiler/ti-cgt-arm_16.9.0.LTS/include/
    1609                            .dwattr $C$DW$T$19, DW_AT_decl_line(0x2f)
    1610                            .dwattr $C$DW$T$19, DW_AT_decl_column(0x1c)
    1611                    
    1612                    
    1613                    $C$DW$T$55      .dwtag  DW_TAG_array_type
    1614                            .dwattr $C$DW$T$55, DW_AT_type(*$C$DW$T$19)
    1615                            .dwattr $C$DW$T$55, DW_AT_language(DW_LANG_C)
    1616                            .dwattr $C$DW$T$55, DW_AT_byte_size(0x1c)
    1617                    $C$DW$97        .dwtag  DW_TAG_subrange_type
    1618                            .dwattr $C$DW$97, DW_AT_upper_bound(0x06)
    1619                    
    1620                            .dwendtag $C$DW$T$55
    1621                    
    1622                    
    1623                    $C$DW$T$56      .dwtag  DW_TAG_array_type
    1624                            .dwattr $C$DW$T$56, DW_AT_type(*$C$DW$T$19)
    1625                            .dwattr $C$DW$T$56, DW_AT_language(DW_LANG_C)
    1626                            .dwattr $C$DW$T$56, DW_AT_byte_size(0x14)
    1627                    $C$DW$98        .dwtag  DW_TAG_subrange_type
    1628                            .dwattr $C$DW$98, DW_AT_upper_bound(0x04)
    1629                    
    1630                            .dwendtag $C$DW$T$56
    1631                    
    1632                    
    1633                    $C$DW$T$57      .dwtag  DW_TAG_array_type
    1634                            .dwattr $C$DW$T$57, DW_AT_type(*$C$DW$T$19)
    1635                            .dwattr $C$DW$T$57, DW_AT_language(DW_LANG_C)
    1636                            .dwattr $C$DW$T$57, DW_AT_byte_size(0xa0)
    1637                    $C$DW$99        .dwtag  DW_TAG_subrange_type
    1638                            .dwattr $C$DW$99, DW_AT_upper_bound(0x27)
    1639                    
    1640                            .dwendtag $C$DW$T$57
    1641                    
    1642                    
    1643                    $C$DW$T$58      .dwtag  DW_TAG_array_type
    1644                            .dwattr $C$DW$T$58, DW_AT_type(*$C$DW$T$19)
    1645                            .dwattr $C$DW$T$58, DW_AT_language(DW_LANG_C)
    1646                            .dwattr $C$DW$T$58, DW_AT_byte_size(0x10)
    1647                    $C$DW$100       .dwtag  DW_TAG_subrange_type
    1648                            .dwattr $C$DW$100, DW_AT_upper_bound(0x03)
    1649                    
    1650                            .dwendtag $C$DW$T$58
TI ARM Assembler PC v16.9.0 Sun Feb 19 22:05:31 2017

Tools Copyright (c) 1996-2015 Texas Instruments Incorporated
C:\Users\bob\AppData\Local\Temp\0664410                              PAGE   31

    1651                    
    1652                    
    1653                    $C$DW$T$59      .dwtag  DW_TAG_array_type
    1654                            .dwattr $C$DW$T$59, DW_AT_type(*$C$DW$T$19)
    1655                            .dwattr $C$DW$T$59, DW_AT_language(DW_LANG_C)
    1656                            .dwattr $C$DW$T$59, DW_AT_byte_size(0x98)
    1657                    $C$DW$101       .dwtag  DW_TAG_subrange_type
    1658                            .dwattr $C$DW$101, DW_AT_upper_bound(0x25)
    1659                    
    1660                            .dwendtag $C$DW$T$59
    1661                    
    1662                    
    1663                    $C$DW$T$60      .dwtag  DW_TAG_array_type
    1664                            .dwattr $C$DW$T$60, DW_AT_type(*$C$DW$T$19)
    1665                            .dwattr $C$DW$T$60, DW_AT_language(DW_LANG_C)
    1666                            .dwattr $C$DW$T$60, DW_AT_byte_size(0xa8)
    1667                    $C$DW$102       .dwtag  DW_TAG_subrange_type
    1668                            .dwattr $C$DW$102, DW_AT_upper_bound(0x29)
    1669                    
    1670                            .dwendtag $C$DW$T$60
    1671                    
    1672                    
    1673                    $C$DW$T$61      .dwtag  DW_TAG_array_type
    1674                            .dwattr $C$DW$T$61, DW_AT_type(*$C$DW$T$19)
    1675                            .dwattr $C$DW$T$61, DW_AT_language(DW_LANG_C)
    1676                            .dwattr $C$DW$T$61, DW_AT_byte_size(0x50)
    1677                    $C$DW$103       .dwtag  DW_TAG_subrange_type
    1678                            .dwattr $C$DW$103, DW_AT_upper_bound(0x13)
    1679                    
    1680                            .dwendtag $C$DW$T$61
    1681                    
    1682                    
    1683                    $C$DW$T$62      .dwtag  DW_TAG_array_type
    1684                            .dwattr $C$DW$T$62, DW_AT_type(*$C$DW$T$19)
    1685                            .dwattr $C$DW$T$62, DW_AT_language(DW_LANG_C)
    1686                            .dwattr $C$DW$T$62, DW_AT_byte_size(0xf0)
    1687                    $C$DW$104       .dwtag  DW_TAG_subrange_type
    1688                            .dwattr $C$DW$104, DW_AT_upper_bound(0x3b)
    1689                    
    1690                            .dwendtag $C$DW$T$62
    1691                    
    1692                    
    1693                    $C$DW$T$64      .dwtag  DW_TAG_array_type
    1694                            .dwattr $C$DW$T$64, DW_AT_type(*$C$DW$T$19)
    1695                            .dwattr $C$DW$T$64, DW_AT_language(DW_LANG_C)
    1696                            .dwattr $C$DW$T$64, DW_AT_byte_size(0x08)
    1697                    $C$DW$105       .dwtag  DW_TAG_subrange_type
    1698                            .dwattr $C$DW$105, DW_AT_upper_bound(0x01)
    1699                    
    1700                            .dwendtag $C$DW$T$64
    1701                    
    1702                    
    1703                    $C$DW$T$65      .dwtag  DW_TAG_array_type
    1704                            .dwattr $C$DW$T$65, DW_AT_type(*$C$DW$T$19)
    1705                            .dwattr $C$DW$T$65, DW_AT_language(DW_LANG_C)
TI ARM Assembler PC v16.9.0 Sun Feb 19 22:05:31 2017

Tools Copyright (c) 1996-2015 Texas Instruments Incorporated
C:\Users\bob\AppData\Local\Temp\0664410                              PAGE   32

    1706                            .dwattr $C$DW$T$65, DW_AT_byte_size(0x138)
    1707                    $C$DW$106       .dwtag  DW_TAG_subrange_type
    1708                            .dwattr $C$DW$106, DW_AT_upper_bound(0x4d)
    1709                    
    1710                            .dwendtag $C$DW$T$65
    1711                    
    1712                    
    1713                    $C$DW$T$66      .dwtag  DW_TAG_array_type
    1714                            .dwattr $C$DW$T$66, DW_AT_type(*$C$DW$T$19)
    1715                            .dwattr $C$DW$T$66, DW_AT_language(DW_LANG_C)
    1716                            .dwattr $C$DW$T$66, DW_AT_byte_size(0xf4)
    1717                    $C$DW$107       .dwtag  DW_TAG_subrange_type
    1718                            .dwattr $C$DW$107, DW_AT_upper_bound(0x3c)
    1719                    
    1720                            .dwendtag $C$DW$T$66
    1721                    
    1722                    
    1723                    $C$DW$T$70      .dwtag  DW_TAG_array_type
    1724                            .dwattr $C$DW$T$70, DW_AT_type(*$C$DW$T$19)
    1725                            .dwattr $C$DW$T$70, DW_AT_language(DW_LANG_C)
    1726                            .dwattr $C$DW$T$70, DW_AT_byte_size(0x80)
    1727                    $C$DW$108       .dwtag  DW_TAG_subrange_type
    1728                            .dwattr $C$DW$108, DW_AT_upper_bound(0x1f)
    1729                    
    1730                            .dwendtag $C$DW$T$70
    1731                    
    1732                    
    1733                    $C$DW$T$71      .dwtag  DW_TAG_array_type
    1734                            .dwattr $C$DW$T$71, DW_AT_type(*$C$DW$T$19)
    1735                            .dwattr $C$DW$T$71, DW_AT_language(DW_LANG_C)
    1736                            .dwattr $C$DW$T$71, DW_AT_byte_size(0x20)
    1737                    $C$DW$109       .dwtag  DW_TAG_subrange_type
    1738                            .dwattr $C$DW$109, DW_AT_upper_bound(0x07)
    1739                    
    1740                            .dwendtag $C$DW$T$71
    1741                    
    1742                    $C$DW$T$20      .dwtag  DW_TAG_typedef
    1743                            .dwattr $C$DW$T$20, DW_AT_name("uint32")
    1744                            .dwattr $C$DW$T$20, DW_AT_type(*$C$DW$T$19)
    1745                            .dwattr $C$DW$T$20, DW_AT_language(DW_LANG_C)
    1746                            .dwattr $C$DW$T$20, DW_AT_decl_file("C:\Users\bob\Documents\Projects\induct_forge\RM57Lx_test\
    1747                            .dwattr $C$DW$T$20, DW_AT_decl_line(0x41)
    1748                            .dwattr $C$DW$T$20, DW_AT_decl_column(0x12)
    1749                    
    1750                    
    1751                    $C$DW$T$21      .dwtag  DW_TAG_array_type
    1752                            .dwattr $C$DW$T$21, DW_AT_type(*$C$DW$T$20)
    1753                            .dwattr $C$DW$T$21, DW_AT_language(DW_LANG_C)
    1754                            .dwattr $C$DW$T$21, DW_AT_byte_size(0x08)
    1755                    $C$DW$110       .dwtag  DW_TAG_subrange_type
    1756                            .dwattr $C$DW$110, DW_AT_upper_bound(0x01)
    1757                    
    1758                            .dwendtag $C$DW$T$21
    1759                    
    1760                    
TI ARM Assembler PC v16.9.0 Sun Feb 19 22:05:31 2017

Tools Copyright (c) 1996-2015 Texas Instruments Incorporated
C:\Users\bob\AppData\Local\Temp\0664410                              PAGE   33

    1761                    $C$DW$T$47      .dwtag  DW_TAG_array_type
    1762                            .dwattr $C$DW$T$47, DW_AT_type(*$C$DW$T$20)
    1763                            .dwattr $C$DW$T$47, DW_AT_language(DW_LANG_C)
    1764                            .dwattr $C$DW$T$47, DW_AT_byte_size(0x40)
    1765                    $C$DW$111       .dwtag  DW_TAG_subrange_type
    1766                            .dwattr $C$DW$111, DW_AT_upper_bound(0x0f)
    1767                    
    1768                            .dwendtag $C$DW$T$47
    1769                    
    1770                    
    1771                    $C$DW$T$48      .dwtag  DW_TAG_array_type
    1772                            .dwattr $C$DW$T$48, DW_AT_type(*$C$DW$T$20)
    1773                            .dwattr $C$DW$T$48, DW_AT_language(DW_LANG_C)
    1774                            .dwattr $C$DW$T$48, DW_AT_byte_size(0x20)
    1775                    $C$DW$112       .dwtag  DW_TAG_subrange_type
    1776                            .dwattr $C$DW$112, DW_AT_upper_bound(0x07)
    1777                    
    1778                            .dwendtag $C$DW$T$48
    1779                    
    1780                    
    1781                    $C$DW$T$73      .dwtag  DW_TAG_array_type
    1782                            .dwattr $C$DW$T$73, DW_AT_type(*$C$DW$T$20)
    1783                            .dwattr $C$DW$T$73, DW_AT_language(DW_LANG_C)
    1784                            .dwattr $C$DW$T$73, DW_AT_byte_size(0x1c)
    1785                    $C$DW$113       .dwtag  DW_TAG_subrange_type
    1786                            .dwattr $C$DW$113, DW_AT_upper_bound(0x06)
    1787                    
    1788                            .dwendtag $C$DW$T$73
    1789                    
    1790                    
    1791                    $C$DW$T$74      .dwtag  DW_TAG_array_type
    1792                            .dwattr $C$DW$T$74, DW_AT_type(*$C$DW$T$20)
    1793                            .dwattr $C$DW$T$74, DW_AT_language(DW_LANG_C)
    1794                            .dwattr $C$DW$T$74, DW_AT_byte_size(0x14)
    1795                    $C$DW$114       .dwtag  DW_TAG_subrange_type
    1796                            .dwattr $C$DW$114, DW_AT_upper_bound(0x04)
    1797                    
    1798                            .dwendtag $C$DW$T$74
    1799                    
    1800                    
    1801                    $C$DW$T$75      .dwtag  DW_TAG_array_type
    1802                            .dwattr $C$DW$T$75, DW_AT_type(*$C$DW$T$20)
    1803                            .dwattr $C$DW$T$75, DW_AT_language(DW_LANG_C)
    1804                            .dwattr $C$DW$T$75, DW_AT_byte_size(0xa0)
    1805                    $C$DW$115       .dwtag  DW_TAG_subrange_type
    1806                            .dwattr $C$DW$115, DW_AT_upper_bound(0x27)
    1807                    
    1808                            .dwendtag $C$DW$T$75
    1809                    
    1810                    
    1811                    $C$DW$T$76      .dwtag  DW_TAG_array_type
    1812                            .dwattr $C$DW$T$76, DW_AT_type(*$C$DW$T$20)
    1813                            .dwattr $C$DW$T$76, DW_AT_language(DW_LANG_C)
    1814                            .dwattr $C$DW$T$76, DW_AT_byte_size(0x10)
    1815                    $C$DW$116       .dwtag  DW_TAG_subrange_type
TI ARM Assembler PC v16.9.0 Sun Feb 19 22:05:31 2017

Tools Copyright (c) 1996-2015 Texas Instruments Incorporated
C:\Users\bob\AppData\Local\Temp\0664410                              PAGE   34

    1816                            .dwattr $C$DW$116, DW_AT_upper_bound(0x03)
    1817                    
    1818                            .dwendtag $C$DW$T$76
    1819                    
    1820                    
    1821                    $C$DW$T$77      .dwtag  DW_TAG_array_type
    1822                            .dwattr $C$DW$T$77, DW_AT_type(*$C$DW$T$20)
    1823                            .dwattr $C$DW$T$77, DW_AT_language(DW_LANG_C)
    1824                            .dwattr $C$DW$T$77, DW_AT_byte_size(0x2d0)
    1825                    $C$DW$117       .dwtag  DW_TAG_subrange_type
    1826                            .dwattr $C$DW$117, DW_AT_upper_bound(0xb3)
    1827                    
    1828                            .dwendtag $C$DW$T$77
    1829                    
    1830                    
    1831                    $C$DW$T$86      .dwtag  DW_TAG_array_type
    1832                            .dwattr $C$DW$T$86, DW_AT_type(*$C$DW$T$20)
    1833                            .dwattr $C$DW$T$86, DW_AT_language(DW_LANG_C)
    1834                            .dwattr $C$DW$T$86, DW_AT_byte_size(0x18)
    1835                    $C$DW$118       .dwtag  DW_TAG_subrange_type
    1836                            .dwattr $C$DW$118, DW_AT_upper_bound(0x05)
    1837                    
    1838                            .dwendtag $C$DW$T$86
    1839                    
    1840                    
    1841                    $C$DW$T$87      .dwtag  DW_TAG_array_type
    1842                            .dwattr $C$DW$T$87, DW_AT_type(*$C$DW$T$20)
    1843                            .dwattr $C$DW$T$87, DW_AT_language(DW_LANG_C)
    1844                            .dwattr $C$DW$T$87, DW_AT_byte_size(0x70)
    1845                    $C$DW$119       .dwtag  DW_TAG_subrange_type
    1846                            .dwattr $C$DW$119, DW_AT_upper_bound(0x1b)
    1847                    
    1848                            .dwendtag $C$DW$T$87
    1849                    
    1850                    
    1851                    $C$DW$T$89      .dwtag  DW_TAG_array_type
    1852                            .dwattr $C$DW$T$89, DW_AT_type(*$C$DW$T$20)
    1853                            .dwattr $C$DW$T$89, DW_AT_language(DW_LANG_C)
    1854                            .dwattr $C$DW$T$89, DW_AT_byte_size(0xec)
    1855                    $C$DW$120       .dwtag  DW_TAG_subrange_type
    1856                            .dwattr $C$DW$120, DW_AT_upper_bound(0x3a)
    1857                    
    1858                            .dwendtag $C$DW$T$89
    1859                    
    1860                    
    1861                    $C$DW$T$90      .dwtag  DW_TAG_array_type
    1862                            .dwattr $C$DW$T$90, DW_AT_type(*$C$DW$T$20)
    1863                            .dwattr $C$DW$T$90, DW_AT_language(DW_LANG_C)
    1864                            .dwattr $C$DW$T$90, DW_AT_byte_size(0x60)
    1865                    $C$DW$121       .dwtag  DW_TAG_subrange_type
    1866                            .dwattr $C$DW$121, DW_AT_upper_bound(0x17)
    1867                    
    1868                            .dwendtag $C$DW$T$90
    1869                    
    1870                    $C$DW$T$130     .dwtag  DW_TAG_typedef
TI ARM Assembler PC v16.9.0 Sun Feb 19 22:05:31 2017

Tools Copyright (c) 1996-2015 Texas Instruments Incorporated
C:\Users\bob\AppData\Local\Temp\0664410                              PAGE   35

    1871                            .dwattr $C$DW$T$130, DW_AT_name("uint_fast16_t")
    1872                            .dwattr $C$DW$T$130, DW_AT_type(*$C$DW$T$19)
    1873                            .dwattr $C$DW$T$130, DW_AT_language(DW_LANG_C)
    1874                            .dwattr $C$DW$T$130, DW_AT_decl_file("C:/ti/ccsv7/tools/compiler/ti-cgt-arm_16.9.0.LTS/include
    1875                            .dwattr $C$DW$T$130, DW_AT_decl_line(0x48)
    1876                            .dwattr $C$DW$T$130, DW_AT_decl_column(0x16)
    1877                    
    1878                    $C$DW$T$131     .dwtag  DW_TAG_typedef
    1879                            .dwattr $C$DW$T$131, DW_AT_name("uint_fast32_t")
    1880                            .dwattr $C$DW$T$131, DW_AT_type(*$C$DW$T$19)
    1881                            .dwattr $C$DW$T$131, DW_AT_language(DW_LANG_C)
    1882                            .dwattr $C$DW$T$131, DW_AT_decl_file("C:/ti/ccsv7/tools/compiler/ti-cgt-arm_16.9.0.LTS/include
    1883                            .dwattr $C$DW$T$131, DW_AT_decl_line(0x4b)
    1884                            .dwattr $C$DW$T$131, DW_AT_decl_column(0x16)
    1885                    
    1886                    $C$DW$T$132     .dwtag  DW_TAG_typedef
    1887                            .dwattr $C$DW$T$132, DW_AT_name("uint_fast8_t")
    1888                            .dwattr $C$DW$T$132, DW_AT_type(*$C$DW$T$19)
    1889                            .dwattr $C$DW$T$132, DW_AT_language(DW_LANG_C)
    1890                            .dwattr $C$DW$T$132, DW_AT_decl_file("C:/ti/ccsv7/tools/compiler/ti-cgt-arm_16.9.0.LTS/include
    1891                            .dwattr $C$DW$T$132, DW_AT_decl_line(0x46)
    1892                            .dwattr $C$DW$T$132, DW_AT_decl_column(0x16)
    1893                    
    1894                    $C$DW$T$133     .dwtag  DW_TAG_typedef
    1895                            .dwattr $C$DW$T$133, DW_AT_name("uint_least32_t")
    1896                            .dwattr $C$DW$T$133, DW_AT_type(*$C$DW$T$19)
    1897                            .dwattr $C$DW$T$133, DW_AT_language(DW_LANG_C)
    1898                            .dwattr $C$DW$T$133, DW_AT_decl_file("C:/ti/ccsv7/tools/compiler/ti-cgt-arm_16.9.0.LTS/include
    1899                            .dwattr $C$DW$T$133, DW_AT_decl_line(0x3d)
    1900                            .dwattr $C$DW$T$133, DW_AT_decl_column(0x16)
    1901                    
    1902                    $C$DW$T$134     .dwtag  DW_TAG_typedef
    1903                            .dwattr $C$DW$T$134, DW_AT_name("uintptr_t")
    1904                            .dwattr $C$DW$T$134, DW_AT_type(*$C$DW$T$11)
    1905                            .dwattr $C$DW$T$134, DW_AT_language(DW_LANG_C)
    1906                            .dwattr $C$DW$T$134, DW_AT_decl_file("C:/ti/ccsv7/tools/compiler/ti-cgt-arm_16.9.0.LTS/include
    1907                            .dwattr $C$DW$T$134, DW_AT_decl_line(0x53)
    1908                            .dwattr $C$DW$T$134, DW_AT_decl_column(0x1a)
    1909                    
    1910                    $C$DW$T$12      .dwtag  DW_TAG_base_type
    1911                            .dwattr $C$DW$T$12, DW_AT_encoding(DW_ATE_signed)
    1912                            .dwattr $C$DW$T$12, DW_AT_name("long")
    1913                            .dwattr $C$DW$T$12, DW_AT_byte_size(0x04)
    1914                    
    1915                    $C$DW$T$135     .dwtag  DW_TAG_typedef
    1916                            .dwattr $C$DW$T$135, DW_AT_name("fpos_t")
    1917                            .dwattr $C$DW$T$135, DW_AT_type(*$C$DW$T$12)
    1918                            .dwattr $C$DW$T$135, DW_AT_language(DW_LANG_C)
    1919                            .dwattr $C$DW$T$135, DW_AT_decl_file("C:/ti/ccsv7/tools/compiler/ti-cgt-arm_16.9.0.LTS/include
    1920                            .dwattr $C$DW$T$135, DW_AT_decl_line(0x6e)
    1921                            .dwattr $C$DW$T$135, DW_AT_decl_column(0x0e)
    1922                    
    1923                    $C$DW$T$13      .dwtag  DW_TAG_base_type
    1924                            .dwattr $C$DW$T$13, DW_AT_encoding(DW_ATE_unsigned)
    1925                            .dwattr $C$DW$T$13, DW_AT_name("unsigned long")
TI ARM Assembler PC v16.9.0 Sun Feb 19 22:05:31 2017

Tools Copyright (c) 1996-2015 Texas Instruments Incorporated
C:\Users\bob\AppData\Local\Temp\0664410                              PAGE   36

    1926                            .dwattr $C$DW$T$13, DW_AT_byte_size(0x04)
    1927                    
    1928                    $C$DW$T$14      .dwtag  DW_TAG_base_type
    1929                            .dwattr $C$DW$T$14, DW_AT_encoding(DW_ATE_signed)
    1930                            .dwattr $C$DW$T$14, DW_AT_name("long long")
    1931                            .dwattr $C$DW$T$14, DW_AT_byte_size(0x08)
    1932                    
    1933                    $C$DW$T$136     .dwtag  DW_TAG_typedef
    1934                            .dwattr $C$DW$T$136, DW_AT_name("int64_t")
    1935                            .dwattr $C$DW$T$136, DW_AT_type(*$C$DW$T$14)
    1936                            .dwattr $C$DW$T$136, DW_AT_language(DW_LANG_C)
    1937                            .dwattr $C$DW$T$136, DW_AT_decl_file("C:/ti/ccsv7/tools/compiler/ti-cgt-arm_16.9.0.LTS/include
    1938                            .dwattr $C$DW$T$136, DW_AT_decl_line(0x32)
    1939                            .dwattr $C$DW$T$136, DW_AT_decl_column(0x21)
    1940                    
    1941                    $C$DW$T$137     .dwtag  DW_TAG_typedef
    1942                            .dwattr $C$DW$T$137, DW_AT_name("int_fast64_t")
    1943                            .dwattr $C$DW$T$137, DW_AT_type(*$C$DW$T$136)
    1944                            .dwattr $C$DW$T$137, DW_AT_language(DW_LANG_C)
    1945                            .dwattr $C$DW$T$137, DW_AT_decl_file("C:/ti/ccsv7/tools/compiler/ti-cgt-arm_16.9.0.LTS/include
    1946                            .dwattr $C$DW$T$137, DW_AT_decl_line(0x4e)
    1947                            .dwattr $C$DW$T$137, DW_AT_decl_column(0x17)
    1948                    
    1949                    $C$DW$T$138     .dwtag  DW_TAG_typedef
    1950                            .dwattr $C$DW$T$138, DW_AT_name("int_least64_t")
    1951                            .dwattr $C$DW$T$138, DW_AT_type(*$C$DW$T$136)
    1952                            .dwattr $C$DW$T$138, DW_AT_language(DW_LANG_C)
    1953                            .dwattr $C$DW$T$138, DW_AT_decl_file("C:/ti/ccsv7/tools/compiler/ti-cgt-arm_16.9.0.LTS/include
    1954                            .dwattr $C$DW$T$138, DW_AT_decl_line(0x40)
    1955                            .dwattr $C$DW$T$138, DW_AT_decl_column(0x17)
    1956                    
    1957                    $C$DW$T$139     .dwtag  DW_TAG_typedef
    1958                            .dwattr $C$DW$T$139, DW_AT_name("sint64")
    1959                            .dwattr $C$DW$T$139, DW_AT_type(*$C$DW$T$136)
    1960                            .dwattr $C$DW$T$139, DW_AT_language(DW_LANG_C)
    1961                            .dwattr $C$DW$T$139, DW_AT_decl_file("C:\Users\bob\Documents\Projects\induct_forge\RM57Lx_test
    1962                            .dwattr $C$DW$T$139, DW_AT_decl_line(0x59)
    1963                            .dwattr $C$DW$T$139, DW_AT_decl_column(0x11)
    1964                    
    1965                    $C$DW$T$140     .dwtag  DW_TAG_typedef
    1966                            .dwattr $C$DW$T$140, DW_AT_name("intmax_t")
    1967                            .dwattr $C$DW$T$140, DW_AT_type(*$C$DW$T$14)
    1968                            .dwattr $C$DW$T$140, DW_AT_language(DW_LANG_C)
    1969                            .dwattr $C$DW$T$140, DW_AT_decl_file("C:/ti/ccsv7/tools/compiler/ti-cgt-arm_16.9.0.LTS/include
    1970                            .dwattr $C$DW$T$140, DW_AT_decl_line(0x56)
    1971                            .dwattr $C$DW$T$140, DW_AT_decl_column(0x20)
    1972                    
    1973                    $C$DW$T$15      .dwtag  DW_TAG_base_type
    1974                            .dwattr $C$DW$T$15, DW_AT_encoding(DW_ATE_unsigned)
    1975                            .dwattr $C$DW$T$15, DW_AT_name("unsigned long long")
    1976                            .dwattr $C$DW$T$15, DW_AT_byte_size(0x08)
    1977                    
    1978                    $C$DW$T$141     .dwtag  DW_TAG_typedef
    1979                            .dwattr $C$DW$T$141, DW_AT_name("uint64_t")
    1980                            .dwattr $C$DW$T$141, DW_AT_type(*$C$DW$T$15)
TI ARM Assembler PC v16.9.0 Sun Feb 19 22:05:31 2017

Tools Copyright (c) 1996-2015 Texas Instruments Incorporated
C:\Users\bob\AppData\Local\Temp\0664410                              PAGE   37

    1981                            .dwattr $C$DW$T$141, DW_AT_language(DW_LANG_C)
    1982                            .dwattr $C$DW$T$141, DW_AT_decl_file("C:/ti/ccsv7/tools/compiler/ti-cgt-arm_16.9.0.LTS/include
    1983                            .dwattr $C$DW$T$141, DW_AT_decl_line(0x33)
    1984                            .dwattr $C$DW$T$141, DW_AT_decl_column(0x20)
    1985                    
    1986                    $C$DW$T$142     .dwtag  DW_TAG_typedef
    1987                            .dwattr $C$DW$T$142, DW_AT_name("uint64")
    1988                            .dwattr $C$DW$T$142, DW_AT_type(*$C$DW$T$141)
    1989                            .dwattr $C$DW$T$142, DW_AT_language(DW_LANG_C)
    1990                            .dwattr $C$DW$T$142, DW_AT_decl_file("C:\Users\bob\Documents\Projects\induct_forge\RM57Lx_test
    1991                            .dwattr $C$DW$T$142, DW_AT_decl_line(0x3c)
    1992                            .dwattr $C$DW$T$142, DW_AT_decl_column(0x12)
    1993                    
    1994                    $C$DW$T$143     .dwtag  DW_TAG_typedef
    1995                            .dwattr $C$DW$T$143, DW_AT_name("uint_fast64_t")
    1996                            .dwattr $C$DW$T$143, DW_AT_type(*$C$DW$T$141)
    1997                            .dwattr $C$DW$T$143, DW_AT_language(DW_LANG_C)
    1998                            .dwattr $C$DW$T$143, DW_AT_decl_file("C:/ti/ccsv7/tools/compiler/ti-cgt-arm_16.9.0.LTS/include
    1999                            .dwattr $C$DW$T$143, DW_AT_decl_line(0x4f)
    2000                            .dwattr $C$DW$T$143, DW_AT_decl_column(0x16)
    2001                    
    2002                    $C$DW$T$144     .dwtag  DW_TAG_typedef
    2003                            .dwattr $C$DW$T$144, DW_AT_name("uint_least64_t")
    2004                            .dwattr $C$DW$T$144, DW_AT_type(*$C$DW$T$141)
    2005                            .dwattr $C$DW$T$144, DW_AT_language(DW_LANG_C)
    2006                            .dwattr $C$DW$T$144, DW_AT_decl_file("C:/ti/ccsv7/tools/compiler/ti-cgt-arm_16.9.0.LTS/include
    2007                            .dwattr $C$DW$T$144, DW_AT_decl_line(0x41)
    2008                            .dwattr $C$DW$T$144, DW_AT_decl_column(0x16)
    2009                    
    2010                    $C$DW$T$145     .dwtag  DW_TAG_typedef
    2011                            .dwattr $C$DW$T$145, DW_AT_name("uintmax_t")
    2012                            .dwattr $C$DW$T$145, DW_AT_type(*$C$DW$T$15)
    2013                            .dwattr $C$DW$T$145, DW_AT_language(DW_LANG_C)
    2014                            .dwattr $C$DW$T$145, DW_AT_decl_file("C:/ti/ccsv7/tools/compiler/ti-cgt-arm_16.9.0.LTS/include
    2015                            .dwattr $C$DW$T$145, DW_AT_decl_line(0x57)
    2016                            .dwattr $C$DW$T$145, DW_AT_decl_column(0x20)
    2017                    
    2018                    $C$DW$T$16      .dwtag  DW_TAG_base_type
    2019                            .dwattr $C$DW$T$16, DW_AT_encoding(DW_ATE_float)
    2020                            .dwattr $C$DW$T$16, DW_AT_name("float")
    2021                            .dwattr $C$DW$T$16, DW_AT_byte_size(0x04)
    2022                    
    2023                    $C$DW$T$146     .dwtag  DW_TAG_typedef
    2024                            .dwattr $C$DW$T$146, DW_AT_name("float32")
    2025                            .dwattr $C$DW$T$146, DW_AT_type(*$C$DW$T$16)
    2026                            .dwattr $C$DW$T$146, DW_AT_language(DW_LANG_C)
    2027                            .dwattr $C$DW$T$146, DW_AT_decl_file("C:\Users\bob\Documents\Projects\induct_forge\RM57Lx_test
    2028                            .dwattr $C$DW$T$146, DW_AT_decl_line(0x6d)
    2029                            .dwattr $C$DW$T$146, DW_AT_decl_column(0x0f)
    2030                    
    2031                    $C$DW$T$17      .dwtag  DW_TAG_base_type
    2032                            .dwattr $C$DW$T$17, DW_AT_encoding(DW_ATE_float)
    2033                            .dwattr $C$DW$T$17, DW_AT_name("double")
    2034                            .dwattr $C$DW$T$17, DW_AT_byte_size(0x08)
    2035                    
TI ARM Assembler PC v16.9.0 Sun Feb 19 22:05:31 2017

Tools Copyright (c) 1996-2015 Texas Instruments Incorporated
C:\Users\bob\AppData\Local\Temp\0664410                              PAGE   38

    2036                    $C$DW$T$147     .dwtag  DW_TAG_typedef
    2037                            .dwattr $C$DW$T$147, DW_AT_name("float64")
    2038                            .dwattr $C$DW$T$147, DW_AT_type(*$C$DW$T$17)
    2039                            .dwattr $C$DW$T$147, DW_AT_language(DW_LANG_C)
    2040                            .dwattr $C$DW$T$147, DW_AT_decl_file("C:\Users\bob\Documents\Projects\induct_forge\RM57Lx_test
    2041                            .dwattr $C$DW$T$147, DW_AT_decl_line(0x72)
    2042                            .dwattr $C$DW$T$147, DW_AT_decl_column(0x10)
    2043                    
    2044                    $C$DW$T$18      .dwtag  DW_TAG_base_type
    2045                            .dwattr $C$DW$T$18, DW_AT_encoding(DW_ATE_float)
    2046                            .dwattr $C$DW$T$18, DW_AT_name("long double")
    2047                            .dwattr $C$DW$T$18, DW_AT_byte_size(0x08)
    2048                    
    2049                    $C$DW$T$148     .dwtag  DW_TAG_base_type
    2050                            .dwattr $C$DW$T$148, DW_AT_encoding(DW_ATE_unsigned_char)
    2051                            .dwattr $C$DW$T$148, DW_AT_name("unsigned char")
    2052                            .dwattr $C$DW$T$148, DW_AT_byte_size(0x01)
    2053                    
    2054                    $C$DW$T$149     .dwtag  DW_TAG_typedef
    2055                            .dwattr $C$DW$T$149, DW_AT_name("boolean")
    2056                            .dwattr $C$DW$T$149, DW_AT_type(*$C$DW$T$148)
    2057                            .dwattr $C$DW$T$149, DW_AT_language(DW_LANG_C)
    2058                            .dwattr $C$DW$T$149, DW_AT_decl_file("C:\Users\bob\Documents\Projects\induct_forge\RM57Lx_test
    2059                            .dwattr $C$DW$T$149, DW_AT_decl_line(0x53)
    2060                            .dwattr $C$DW$T$149, DW_AT_decl_column(0x0f)
    2061                    
    2062                    $C$DW$T$150     .dwtag  DW_TAG_typedef
    2063                            .dwattr $C$DW$T$150, DW_AT_name("tBoolean")
    2064                            .dwattr $C$DW$T$150, DW_AT_type(*$C$DW$T$149)
    2065                            .dwattr $C$DW$T$150, DW_AT_language(DW_LANG_C)
    2066                            .dwattr $C$DW$T$150, DW_AT_decl_file("C:/Users/bob/Documents/Projects/induct_forge/RM57Lx_test
    2067                            .dwattr $C$DW$T$150, DW_AT_decl_line(0x40)
    2068                            .dwattr $C$DW$T$150, DW_AT_decl_column(0x11)
    2069                    
    2070                    
    2071                    $C$DW$T$35      .dwtag  DW_TAG_structure_type
    2072                            .dwattr $C$DW$T$35, DW_AT_name("__va_list")
    2073                            .dwattr $C$DW$T$35, DW_AT_byte_size(0x04)
    2074                    $C$DW$122       .dwtag  DW_TAG_member
    2075                            .dwattr $C$DW$122, DW_AT_type(*$C$DW$T$3)
    2076                            .dwattr $C$DW$122, DW_AT_name("__ap")
    2077                            .dwattr $C$DW$122, DW_AT_TI_symbol_name("__ap")
    2078                            .dwattr $C$DW$122, DW_AT_data_member_location[DW_OP_plus_uconst 0x0]
    2079                            .dwattr $C$DW$122, DW_AT_accessibility(DW_ACCESS_public)
    2080                            .dwattr $C$DW$122, DW_AT_decl_file("C:/ti/ccsv7/tools/compiler/ti-cgt-arm_16.9.0.LTS/include/s
    2081                            .dwattr $C$DW$122, DW_AT_decl_line(0x38)
    2082                            .dwattr $C$DW$122, DW_AT_decl_column(0x0c)
    2083                    
    2084                            .dwattr $C$DW$T$35, DW_AT_decl_file("C:/ti/ccsv7/tools/compiler/ti-cgt-arm_16.9.0.LTS/include/
    2085                            .dwattr $C$DW$T$35, DW_AT_decl_line(0x37)
    2086                            .dwattr $C$DW$T$35, DW_AT_decl_column(0x10)
    2087                            .dwendtag $C$DW$T$35
    2088                    
    2089                    $C$DW$T$151     .dwtag  DW_TAG_typedef
    2090                            .dwattr $C$DW$T$151, DW_AT_name("va_list")
TI ARM Assembler PC v16.9.0 Sun Feb 19 22:05:31 2017

Tools Copyright (c) 1996-2015 Texas Instruments Incorporated
C:\Users\bob\AppData\Local\Temp\0664410                              PAGE   39

    2091                            .dwattr $C$DW$T$151, DW_AT_type(*$C$DW$T$35)
    2092                            .dwattr $C$DW$T$151, DW_AT_language(DW_LANG_C)
    2093                            .dwattr $C$DW$T$151, DW_AT_decl_file("C:/ti/ccsv7/tools/compiler/ti-cgt-arm_16.9.0.LTS/include
    2094                            .dwattr $C$DW$T$151, DW_AT_decl_line(0x39)
    2095                            .dwattr $C$DW$T$151, DW_AT_decl_column(0x03)
    2096                    
    2097                    
    2098                    $C$DW$T$152     .dwtag  DW_TAG_enumeration_type
    2099                            .dwattr $C$DW$T$152, DW_AT_name("config_value_type")
    2100                            .dwattr $C$DW$T$152, DW_AT_byte_size(0x01)
    2101                    $C$DW$123       .dwtag  DW_TAG_enumerator
    2102                            .dwattr $C$DW$123, DW_AT_name("InitialValue")
    2103                            .dwattr $C$DW$123, DW_AT_const_value(0x00)
    2104                            .dwattr $C$DW$123, DW_AT_decl_file("C:/Users/bob/Documents/Projects/induct_forge/RM57Lx_test/P
    2105                            .dwattr $C$DW$123, DW_AT_decl_line(0x5c)
    2106                            .dwattr $C$DW$123, DW_AT_decl_column(0x02)
    2107                    
    2108                    $C$DW$124       .dwtag  DW_TAG_enumerator
    2109                            .dwattr $C$DW$124, DW_AT_name("CurrentValue")
    2110                            .dwattr $C$DW$124, DW_AT_const_value(0x01)
    2111                            .dwattr $C$DW$124, DW_AT_decl_file("C:/Users/bob/Documents/Projects/induct_forge/RM57Lx_test/P
    2112                            .dwattr $C$DW$124, DW_AT_decl_line(0x5d)
    2113                            .dwattr $C$DW$124, DW_AT_decl_column(0x02)
    2114                    
    2115                            .dwattr $C$DW$T$152, DW_AT_decl_file("C:/Users/bob/Documents/Projects/induct_forge/RM57Lx_test
    2116                            .dwattr $C$DW$T$152, DW_AT_decl_line(0x5a)
    2117                            .dwattr $C$DW$T$152, DW_AT_decl_column(0x0e)
    2118                            .dwendtag $C$DW$T$152
    2119                    
    2120                    $C$DW$T$153     .dwtag  DW_TAG_typedef
    2121                            .dwattr $C$DW$T$153, DW_AT_name("config_value_type_t")
    2122                            .dwattr $C$DW$T$153, DW_AT_type(*$C$DW$T$152)
    2123                            .dwattr $C$DW$T$153, DW_AT_language(DW_LANG_C)
    2124                            .dwattr $C$DW$T$153, DW_AT_decl_file("C:/Users/bob/Documents/Projects/induct_forge/RM57Lx_test
    2125                            .dwattr $C$DW$T$153, DW_AT_decl_line(0x5e)
    2126                            .dwattr $C$DW$T$153, DW_AT_decl_column(0x02)
    2127                    
    2128                    
    2129                    $C$DW$T$154     .dwtag  DW_TAG_enumeration_type
    2130                            .dwattr $C$DW$T$154, DW_AT_name("dwdResetStatusTag")
    2131                            .dwattr $C$DW$T$154, DW_AT_byte_size(0x01)
    2132                    $C$DW$125       .dwtag  DW_TAG_enumerator
    2133                            .dwattr $C$DW$125, DW_AT_name("No_Reset_Generated")
    2134                            .dwattr $C$DW$125, DW_AT_const_value(0x00)
    2135                            .dwattr $C$DW$125, DW_AT_decl_file("C:/Users/bob/Documents/Projects/induct_forge/RM57Lx_test/P
    2136                            .dwattr $C$DW$125, DW_AT_decl_line(0xcc)
    2137                            .dwattr $C$DW$125, DW_AT_decl_column(0x02)
    2138                    
    2139                    $C$DW$126       .dwtag  DW_TAG_enumerator
    2140                            .dwattr $C$DW$126, DW_AT_name("Reset_Generated")
    2141                            .dwattr $C$DW$126, DW_AT_const_value(0x01)
    2142                            .dwattr $C$DW$126, DW_AT_decl_file("C:/Users/bob/Documents/Projects/induct_forge/RM57Lx_test/P
    2143                            .dwattr $C$DW$126, DW_AT_decl_line(0xcd)
    2144                            .dwattr $C$DW$126, DW_AT_decl_column(0x02)
    2145                    
TI ARM Assembler PC v16.9.0 Sun Feb 19 22:05:31 2017

Tools Copyright (c) 1996-2015 Texas Instruments Incorporated
C:\Users\bob\AppData\Local\Temp\0664410                              PAGE   40

    2146                            .dwattr $C$DW$T$154, DW_AT_decl_file("C:/Users/bob/Documents/Projects/induct_forge/RM57Lx_test
    2147                            .dwattr $C$DW$T$154, DW_AT_decl_line(0xca)
    2148                            .dwattr $C$DW$T$154, DW_AT_decl_column(0x0e)
    2149                            .dwendtag $C$DW$T$154
    2150                    
    2151                    $C$DW$T$155     .dwtag  DW_TAG_typedef
    2152                            .dwattr $C$DW$T$155, DW_AT_name("dwdResetStatus_t")
    2153                            .dwattr $C$DW$T$155, DW_AT_type(*$C$DW$T$154)
    2154                            .dwattr $C$DW$T$155, DW_AT_language(DW_LANG_C)
    2155                            .dwattr $C$DW$T$155, DW_AT_decl_file("C:/Users/bob/Documents/Projects/induct_forge/RM57Lx_test
    2156                            .dwattr $C$DW$T$155, DW_AT_decl_line(0xce)
    2157                            .dwattr $C$DW$T$155, DW_AT_decl_column(0x02)
    2158                    
    2159                    
    2160                    $C$DW$T$156     .dwtag  DW_TAG_enumeration_type
    2161                            .dwattr $C$DW$T$156, DW_AT_name("dwdViolationTag")
    2162                            .dwattr $C$DW$T$156, DW_AT_byte_size(0x01)
    2163                    $C$DW$127       .dwtag  DW_TAG_enumerator
    2164                            .dwattr $C$DW$127, DW_AT_name("NoTime_Violation")
    2165                            .dwattr $C$DW$127, DW_AT_const_value(0x00)
    2166                            .dwattr $C$DW$127, DW_AT_decl_file("C:/Users/bob/Documents/Projects/induct_forge/RM57Lx_test/P
    2167                            .dwattr $C$DW$127, DW_AT_decl_line(0xbd)
    2168                            .dwattr $C$DW$127, DW_AT_decl_column(0x02)
    2169                    
    2170                    $C$DW$128       .dwtag  DW_TAG_enumerator
    2171                            .dwattr $C$DW$128, DW_AT_name("Time_Window_Violation")
    2172                            .dwattr $C$DW$128, DW_AT_const_value(0x01)
    2173                            .dwattr $C$DW$128, DW_AT_decl_file("C:/Users/bob/Documents/Projects/induct_forge/RM57Lx_test/P
    2174                            .dwattr $C$DW$128, DW_AT_decl_line(0xbe)
    2175                            .dwattr $C$DW$128, DW_AT_decl_column(0x02)
    2176                    
    2177                    $C$DW$129       .dwtag  DW_TAG_enumerator
    2178                            .dwattr $C$DW$129, DW_AT_name("EndTime_Window_Violation")
    2179                            .dwattr $C$DW$129, DW_AT_const_value(0x02)
    2180                            .dwattr $C$DW$129, DW_AT_decl_file("C:/Users/bob/Documents/Projects/induct_forge/RM57Lx_test/P
    2181                            .dwattr $C$DW$129, DW_AT_decl_line(0xbf)
    2182                            .dwattr $C$DW$129, DW_AT_decl_column(0x02)
    2183                    
    2184                    $C$DW$130       .dwtag  DW_TAG_enumerator
    2185                            .dwattr $C$DW$130, DW_AT_name("StartTime_Window_Violation")
    2186                            .dwattr $C$DW$130, DW_AT_const_value(0x03)
    2187                            .dwattr $C$DW$130, DW_AT_decl_file("C:/Users/bob/Documents/Projects/induct_forge/RM57Lx_test/P
    2188                            .dwattr $C$DW$130, DW_AT_decl_line(0xc0)
    2189                            .dwattr $C$DW$130, DW_AT_decl_column(0x02)
    2190                    
    2191                    $C$DW$131       .dwtag  DW_TAG_enumerator
    2192                            .dwattr $C$DW$131, DW_AT_name("Key_Seq_Violation")
    2193                            .dwattr $C$DW$131, DW_AT_const_value(0x04)
    2194                            .dwattr $C$DW$131, DW_AT_decl_file("C:/Users/bob/Documents/Projects/induct_forge/RM57Lx_test/P
    2195                            .dwattr $C$DW$131, DW_AT_decl_line(0xc1)
    2196                            .dwattr $C$DW$131, DW_AT_decl_column(0x02)
    2197                    
    2198                            .dwattr $C$DW$T$156, DW_AT_decl_file("C:/Users/bob/Documents/Projects/induct_forge/RM57Lx_test
    2199                            .dwattr $C$DW$T$156, DW_AT_decl_line(0xbb)
    2200                            .dwattr $C$DW$T$156, DW_AT_decl_column(0x0e)
TI ARM Assembler PC v16.9.0 Sun Feb 19 22:05:31 2017

Tools Copyright (c) 1996-2015 Texas Instruments Incorporated
C:\Users\bob\AppData\Local\Temp\0664410                              PAGE   41

    2201                            .dwendtag $C$DW$T$156
    2202                    
    2203                    $C$DW$T$157     .dwtag  DW_TAG_typedef
    2204                            .dwattr $C$DW$T$157, DW_AT_name("dwdViolation_t")
    2205                            .dwattr $C$DW$T$157, DW_AT_type(*$C$DW$T$156)
    2206                            .dwattr $C$DW$T$157, DW_AT_language(DW_LANG_C)
    2207                            .dwattr $C$DW$T$157, DW_AT_decl_file("C:/Users/bob/Documents/Projects/induct_forge/RM57Lx_test
    2208                            .dwattr $C$DW$T$157, DW_AT_decl_line(0xc2)
    2209                            .dwattr $C$DW$T$157, DW_AT_decl_column(0x02)
    2210                    
    2211                    
    2212                    $C$DW$T$158     .dwtag  DW_TAG_enumeration_type
    2213                            .dwattr $C$DW$T$158, DW_AT_name("dwwdReactionTag")
    2214                            .dwattr $C$DW$T$158, DW_AT_byte_size(0x01)
    2215                    $C$DW$132       .dwtag  DW_TAG_enumerator
    2216                            .dwattr $C$DW$132, DW_AT_name("Generate_Reset")
    2217                            .dwattr $C$DW$132, DW_AT_const_value(0x05)
    2218                            .dwattr $C$DW$132, DW_AT_decl_file("C:/Users/bob/Documents/Projects/induct_forge/RM57Lx_test/P
    2219                            .dwattr $C$DW$132, DW_AT_decl_line(0xd8)
    2220                            .dwattr $C$DW$132, DW_AT_decl_column(0x02)
    2221                    
    2222                    $C$DW$133       .dwtag  DW_TAG_enumerator
    2223                            .dwattr $C$DW$133, DW_AT_name("Generate_NMI")
    2224                            .dwattr $C$DW$133, DW_AT_const_value(0x0a)
    2225                            .dwattr $C$DW$133, DW_AT_decl_file("C:/Users/bob/Documents/Projects/induct_forge/RM57Lx_test/P
    2226                            .dwattr $C$DW$133, DW_AT_decl_line(0xd9)
    2227                            .dwattr $C$DW$133, DW_AT_decl_column(0x02)
    2228                    
    2229                            .dwattr $C$DW$T$158, DW_AT_decl_file("C:/Users/bob/Documents/Projects/induct_forge/RM57Lx_test
    2230                            .dwattr $C$DW$T$158, DW_AT_decl_line(0xd6)
    2231                            .dwattr $C$DW$T$158, DW_AT_decl_column(0x0e)
    2232                            .dwendtag $C$DW$T$158
    2233                    
    2234                    $C$DW$T$159     .dwtag  DW_TAG_typedef
    2235                            .dwattr $C$DW$T$159, DW_AT_name("dwwdReaction_t")
    2236                            .dwattr $C$DW$T$159, DW_AT_type(*$C$DW$T$158)
    2237                            .dwattr $C$DW$T$159, DW_AT_language(DW_LANG_C)
    2238                            .dwattr $C$DW$T$159, DW_AT_decl_file("C:/Users/bob/Documents/Projects/induct_forge/RM57Lx_test
    2239                            .dwattr $C$DW$T$159, DW_AT_decl_line(0xda)
    2240                            .dwattr $C$DW$T$159, DW_AT_decl_column(0x02)
    2241                    
    2242                    
    2243                    $C$DW$T$160     .dwtag  DW_TAG_enumeration_type
    2244                            .dwattr $C$DW$T$160, DW_AT_name("dwwdWindowSizeTag")
    2245                            .dwattr $C$DW$T$160, DW_AT_byte_size(0x04)
    2246                    $C$DW$134       .dwtag  DW_TAG_enumerator
    2247                            .dwattr $C$DW$134, DW_AT_name("Size_100_Percent")
    2248                            .dwattr $C$DW$134, DW_AT_const_value(0x05)
    2249                            .dwattr $C$DW$134, DW_AT_decl_file("C:/Users/bob/Documents/Projects/induct_forge/RM57Lx_test/P
    2250                            .dwattr $C$DW$134, DW_AT_decl_line(0xe4)
    2251                            .dwattr $C$DW$134, DW_AT_decl_column(0x02)
    2252                    
    2253                    $C$DW$135       .dwtag  DW_TAG_enumerator
    2254                            .dwattr $C$DW$135, DW_AT_name("Size_50_Percent")
    2255                            .dwattr $C$DW$135, DW_AT_const_value(0x50)
TI ARM Assembler PC v16.9.0 Sun Feb 19 22:05:31 2017

Tools Copyright (c) 1996-2015 Texas Instruments Incorporated
C:\Users\bob\AppData\Local\Temp\0664410                              PAGE   42

    2256                            .dwattr $C$DW$135, DW_AT_decl_file("C:/Users/bob/Documents/Projects/induct_forge/RM57Lx_test/P
    2257                            .dwattr $C$DW$135, DW_AT_decl_line(0xe5)
    2258                            .dwattr $C$DW$135, DW_AT_decl_column(0x02)
    2259                    
    2260                    $C$DW$136       .dwtag  DW_TAG_enumerator
    2261                            .dwattr $C$DW$136, DW_AT_name("Size_25_Percent")
    2262                            .dwattr $C$DW$136, DW_AT_const_value(0x500)
    2263                            .dwattr $C$DW$136, DW_AT_decl_file("C:/Users/bob/Documents/Projects/induct_forge/RM57Lx_test/P
    2264                            .dwattr $C$DW$136, DW_AT_decl_line(0xe6)
    2265                            .dwattr $C$DW$136, DW_AT_decl_column(0x02)
    2266                    
    2267                    $C$DW$137       .dwtag  DW_TAG_enumerator
    2268                            .dwattr $C$DW$137, DW_AT_name("Size_12_5_Percent")
    2269                            .dwattr $C$DW$137, DW_AT_const_value(0x5000)
    2270                            .dwattr $C$DW$137, DW_AT_decl_file("C:/Users/bob/Documents/Projects/induct_forge/RM57Lx_test/P
    2271                            .dwattr $C$DW$137, DW_AT_decl_line(0xe7)
    2272                            .dwattr $C$DW$137, DW_AT_decl_column(0x02)
    2273                    
    2274                    $C$DW$138       .dwtag  DW_TAG_enumerator
    2275                            .dwattr $C$DW$138, DW_AT_name("Size_6_25_Percent")
    2276                            .dwattr $C$DW$138, DW_AT_const_value(0x50000)
    2277                            .dwattr $C$DW$138, DW_AT_decl_file("C:/Users/bob/Documents/Projects/induct_forge/RM57Lx_test/P
    2278                            .dwattr $C$DW$138, DW_AT_decl_line(0xe8)
    2279                            .dwattr $C$DW$138, DW_AT_decl_column(0x02)
    2280                    
    2281                    $C$DW$139       .dwtag  DW_TAG_enumerator
    2282                            .dwattr $C$DW$139, DW_AT_name("Size_3_125_Percent")
    2283                            .dwattr $C$DW$139, DW_AT_const_value(0x500000)
    2284                            .dwattr $C$DW$139, DW_AT_decl_file("C:/Users/bob/Documents/Projects/induct_forge/RM57Lx_test/P
    2285                            .dwattr $C$DW$139, DW_AT_decl_line(0xe9)
    2286                            .dwattr $C$DW$139, DW_AT_decl_column(0x02)
    2287                    
    2288                            .dwattr $C$DW$T$160, DW_AT_decl_file("C:/Users/bob/Documents/Projects/induct_forge/RM57Lx_test
    2289                            .dwattr $C$DW$T$160, DW_AT_decl_line(0xe2)
    2290                            .dwattr $C$DW$T$160, DW_AT_decl_column(0x0e)
    2291                            .dwendtag $C$DW$T$160
    2292                    
    2293                    $C$DW$T$161     .dwtag  DW_TAG_typedef
    2294                            .dwattr $C$DW$T$161, DW_AT_name("dwwdWindowSize_t")
    2295                            .dwattr $C$DW$T$161, DW_AT_type(*$C$DW$T$160)
    2296                            .dwattr $C$DW$T$161, DW_AT_language(DW_LANG_C)
    2297                            .dwattr $C$DW$T$161, DW_AT_decl_file("C:/Users/bob/Documents/Projects/induct_forge/RM57Lx_test
    2298                            .dwattr $C$DW$T$161, DW_AT_decl_line(0xea)
    2299                            .dwattr $C$DW$T$161, DW_AT_decl_column(0x02)
    2300                    
    2301                    
    2302                    $C$DW$T$36      .dwtag  DW_TAG_structure_type
    2303                            .dwattr $C$DW$T$36, DW_AT_name("gioBase")
    2304                            .dwattr $C$DW$T$36, DW_AT_byte_size(0x34)
    2305                    $C$DW$140       .dwtag  DW_TAG_member
    2306                            .dwattr $C$DW$140, DW_AT_type(*$C$DW$T$20)
    2307                            .dwattr $C$DW$140, DW_AT_name("GCR0")
    2308                            .dwattr $C$DW$140, DW_AT_TI_symbol_name("GCR0")
    2309                            .dwattr $C$DW$140, DW_AT_data_member_location[DW_OP_plus_uconst 0x0]
    2310                            .dwattr $C$DW$140, DW_AT_accessibility(DW_ACCESS_public)
TI ARM Assembler PC v16.9.0 Sun Feb 19 22:05:31 2017

Tools Copyright (c) 1996-2015 Texas Instruments Incorporated
C:\Users\bob\AppData\Local\Temp\0664410                              PAGE   43

    2311                            .dwattr $C$DW$140, DW_AT_decl_file("C:\Users\bob\Documents\Projects\induct_forge\RM57Lx_test\P
    2312                            .dwattr $C$DW$140, DW_AT_decl_line(0x48)
    2313                            .dwattr $C$DW$140, DW_AT_decl_column(0x0c)
    2314                    
    2315                    $C$DW$141       .dwtag  DW_TAG_member
    2316                            .dwattr $C$DW$141, DW_AT_type(*$C$DW$T$20)
    2317                            .dwattr $C$DW$141, DW_AT_name("rsvd")
    2318                            .dwattr $C$DW$141, DW_AT_TI_symbol_name("rsvd")
    2319                            .dwattr $C$DW$141, DW_AT_data_member_location[DW_OP_plus_uconst 0x4]
    2320                            .dwattr $C$DW$141, DW_AT_accessibility(DW_ACCESS_public)
    2321                            .dwattr $C$DW$141, DW_AT_decl_file("C:\Users\bob\Documents\Projects\induct_forge\RM57Lx_test\P
    2322                            .dwattr $C$DW$141, DW_AT_decl_line(0x49)
    2323                            .dwattr $C$DW$141, DW_AT_decl_column(0x0e)
    2324                    
    2325                    $C$DW$142       .dwtag  DW_TAG_member
    2326                            .dwattr $C$DW$142, DW_AT_type(*$C$DW$T$20)
    2327                            .dwattr $C$DW$142, DW_AT_name("INTDET")
    2328                            .dwattr $C$DW$142, DW_AT_TI_symbol_name("INTDET")
    2329                            .dwattr $C$DW$142, DW_AT_data_member_location[DW_OP_plus_uconst 0x8]
    2330                            .dwattr $C$DW$142, DW_AT_accessibility(DW_ACCESS_public)
    2331                            .dwattr $C$DW$142, DW_AT_decl_file("C:\Users\bob\Documents\Projects\induct_forge\RM57Lx_test\P
    2332                            .dwattr $C$DW$142, DW_AT_decl_line(0x4a)
    2333                            .dwattr $C$DW$142, DW_AT_decl_column(0x0c)
    2334                    
    2335                    $C$DW$143       .dwtag  DW_TAG_member
    2336                            .dwattr $C$DW$143, DW_AT_type(*$C$DW$T$20)
    2337                            .dwattr $C$DW$143, DW_AT_name("POL")
    2338                            .dwattr $C$DW$143, DW_AT_TI_symbol_name("POL")
    2339                            .dwattr $C$DW$143, DW_AT_data_member_location[DW_OP_plus_uconst 0xc]
    2340                            .dwattr $C$DW$143, DW_AT_accessibility(DW_ACCESS_public)
    2341                            .dwattr $C$DW$143, DW_AT_decl_file("C:\Users\bob\Documents\Projects\induct_forge\RM57Lx_test\P
    2342                            .dwattr $C$DW$143, DW_AT_decl_line(0x4b)
    2343                            .dwattr $C$DW$143, DW_AT_decl_column(0x0c)
    2344                    
    2345                    $C$DW$144       .dwtag  DW_TAG_member
    2346                            .dwattr $C$DW$144, DW_AT_type(*$C$DW$T$20)
    2347                            .dwattr $C$DW$144, DW_AT_name("ENASET")
    2348                            .dwattr $C$DW$144, DW_AT_TI_symbol_name("ENASET")
    2349                            .dwattr $C$DW$144, DW_AT_data_member_location[DW_OP_plus_uconst 0x10]
    2350                            .dwattr $C$DW$144, DW_AT_accessibility(DW_ACCESS_public)
    2351                            .dwattr $C$DW$144, DW_AT_decl_file("C:\Users\bob\Documents\Projects\induct_forge\RM57Lx_test\P
    2352                            .dwattr $C$DW$144, DW_AT_decl_line(0x4c)
    2353                            .dwattr $C$DW$144, DW_AT_decl_column(0x0c)
    2354                    
    2355                    $C$DW$145       .dwtag  DW_TAG_member
    2356                            .dwattr $C$DW$145, DW_AT_type(*$C$DW$T$20)
    2357                            .dwattr $C$DW$145, DW_AT_name("ENACLR")
    2358                            .dwattr $C$DW$145, DW_AT_TI_symbol_name("ENACLR")
    2359                            .dwattr $C$DW$145, DW_AT_data_member_location[DW_OP_plus_uconst 0x14]
    2360                            .dwattr $C$DW$145, DW_AT_accessibility(DW_ACCESS_public)
    2361                            .dwattr $C$DW$145, DW_AT_decl_file("C:\Users\bob\Documents\Projects\induct_forge\RM57Lx_test\P
    2362                            .dwattr $C$DW$145, DW_AT_decl_line(0x4d)
    2363                            .dwattr $C$DW$145, DW_AT_decl_column(0x0c)
    2364                    
    2365                    $C$DW$146       .dwtag  DW_TAG_member
TI ARM Assembler PC v16.9.0 Sun Feb 19 22:05:31 2017

Tools Copyright (c) 1996-2015 Texas Instruments Incorporated
C:\Users\bob\AppData\Local\Temp\0664410                              PAGE   44

    2366                            .dwattr $C$DW$146, DW_AT_type(*$C$DW$T$20)
    2367                            .dwattr $C$DW$146, DW_AT_name("LVLSET")
    2368                            .dwattr $C$DW$146, DW_AT_TI_symbol_name("LVLSET")
    2369                            .dwattr $C$DW$146, DW_AT_data_member_location[DW_OP_plus_uconst 0x18]
    2370                            .dwattr $C$DW$146, DW_AT_accessibility(DW_ACCESS_public)
    2371                            .dwattr $C$DW$146, DW_AT_decl_file("C:\Users\bob\Documents\Projects\induct_forge\RM57Lx_test\P
    2372                            .dwattr $C$DW$146, DW_AT_decl_line(0x4e)
    2373                            .dwattr $C$DW$146, DW_AT_decl_column(0x0c)
    2374                    
    2375                    $C$DW$147       .dwtag  DW_TAG_member
    2376                            .dwattr $C$DW$147, DW_AT_type(*$C$DW$T$20)
    2377                            .dwattr $C$DW$147, DW_AT_name("LVLCLR")
    2378                            .dwattr $C$DW$147, DW_AT_TI_symbol_name("LVLCLR")
    2379                            .dwattr $C$DW$147, DW_AT_data_member_location[DW_OP_plus_uconst 0x1c]
    2380                            .dwattr $C$DW$147, DW_AT_accessibility(DW_ACCESS_public)
    2381                            .dwattr $C$DW$147, DW_AT_decl_file("C:\Users\bob\Documents\Projects\induct_forge\RM57Lx_test\P
    2382                            .dwattr $C$DW$147, DW_AT_decl_line(0x4f)
    2383                            .dwattr $C$DW$147, DW_AT_decl_column(0x0c)
    2384                    
    2385                    $C$DW$148       .dwtag  DW_TAG_member
    2386                            .dwattr $C$DW$148, DW_AT_type(*$C$DW$T$20)
    2387                            .dwattr $C$DW$148, DW_AT_name("FLG")
    2388                            .dwattr $C$DW$148, DW_AT_TI_symbol_name("FLG")
    2389                            .dwattr $C$DW$148, DW_AT_data_member_location[DW_OP_plus_uconst 0x20]
    2390                            .dwattr $C$DW$148, DW_AT_accessibility(DW_ACCESS_public)
    2391                            .dwattr $C$DW$148, DW_AT_decl_file("C:\Users\bob\Documents\Projects\induct_forge\RM57Lx_test\P
    2392                            .dwattr $C$DW$148, DW_AT_decl_line(0x50)
    2393                            .dwattr $C$DW$148, DW_AT_decl_column(0x0c)
    2394                    
    2395                    $C$DW$149       .dwtag  DW_TAG_member
    2396                            .dwattr $C$DW$149, DW_AT_type(*$C$DW$T$20)
    2397                            .dwattr $C$DW$149, DW_AT_name("OFF1")
    2398                            .dwattr $C$DW$149, DW_AT_TI_symbol_name("OFF1")
    2399                            .dwattr $C$DW$149, DW_AT_data_member_location[DW_OP_plus_uconst 0x24]
    2400                            .dwattr $C$DW$149, DW_AT_accessibility(DW_ACCESS_public)
    2401                            .dwattr $C$DW$149, DW_AT_decl_file("C:\Users\bob\Documents\Projects\induct_forge\RM57Lx_test\P
    2402                            .dwattr $C$DW$149, DW_AT_decl_line(0x51)
    2403                            .dwattr $C$DW$149, DW_AT_decl_column(0x0c)
    2404                    
    2405                    $C$DW$150       .dwtag  DW_TAG_member
    2406                            .dwattr $C$DW$150, DW_AT_type(*$C$DW$T$20)
    2407                            .dwattr $C$DW$150, DW_AT_name("OFF2")
    2408                            .dwattr $C$DW$150, DW_AT_TI_symbol_name("OFF2")
    2409                            .dwattr $C$DW$150, DW_AT_data_member_location[DW_OP_plus_uconst 0x28]
    2410                            .dwattr $C$DW$150, DW_AT_accessibility(DW_ACCESS_public)
    2411                            .dwattr $C$DW$150, DW_AT_decl_file("C:\Users\bob\Documents\Projects\induct_forge\RM57Lx_test\P
    2412                            .dwattr $C$DW$150, DW_AT_decl_line(0x52)
    2413                            .dwattr $C$DW$150, DW_AT_decl_column(0x0c)
    2414                    
    2415                    $C$DW$151       .dwtag  DW_TAG_member
    2416                            .dwattr $C$DW$151, DW_AT_type(*$C$DW$T$20)
    2417                            .dwattr $C$DW$151, DW_AT_name("EMU1")
    2418                            .dwattr $C$DW$151, DW_AT_TI_symbol_name("EMU1")
    2419                            .dwattr $C$DW$151, DW_AT_data_member_location[DW_OP_plus_uconst 0x2c]
    2420                            .dwattr $C$DW$151, DW_AT_accessibility(DW_ACCESS_public)
TI ARM Assembler PC v16.9.0 Sun Feb 19 22:05:31 2017

Tools Copyright (c) 1996-2015 Texas Instruments Incorporated
C:\Users\bob\AppData\Local\Temp\0664410                              PAGE   45

    2421                            .dwattr $C$DW$151, DW_AT_decl_file("C:\Users\bob\Documents\Projects\induct_forge\RM57Lx_test\P
    2422                            .dwattr $C$DW$151, DW_AT_decl_line(0x53)
    2423                            .dwattr $C$DW$151, DW_AT_decl_column(0x0c)
    2424                    
    2425                    $C$DW$152       .dwtag  DW_TAG_member
    2426                            .dwattr $C$DW$152, DW_AT_type(*$C$DW$T$20)
    2427                            .dwattr $C$DW$152, DW_AT_name("EMU2")
    2428                            .dwattr $C$DW$152, DW_AT_TI_symbol_name("EMU2")
    2429                            .dwattr $C$DW$152, DW_AT_data_member_location[DW_OP_plus_uconst 0x30]
    2430                            .dwattr $C$DW$152, DW_AT_accessibility(DW_ACCESS_public)
    2431                            .dwattr $C$DW$152, DW_AT_decl_file("C:\Users\bob\Documents\Projects\induct_forge\RM57Lx_test\P
    2432                            .dwattr $C$DW$152, DW_AT_decl_line(0x54)
    2433                            .dwattr $C$DW$152, DW_AT_decl_column(0x09)
    2434                    
    2435                            .dwattr $C$DW$T$36, DW_AT_decl_file("C:\Users\bob\Documents\Projects\induct_forge\RM57Lx_test\
    2436                            .dwattr $C$DW$T$36, DW_AT_decl_line(0x46)
    2437                            .dwattr $C$DW$T$36, DW_AT_decl_column(0x19)
    2438                            .dwendtag $C$DW$T$36
    2439                    
    2440                    $C$DW$T$162     .dwtag  DW_TAG_volatile_type
    2441                            .dwattr $C$DW$T$162, DW_AT_type(*$C$DW$T$36)
    2442                    
    2443                    $C$DW$T$163     .dwtag  DW_TAG_typedef
    2444                            .dwattr $C$DW$T$163, DW_AT_name("gioBASE_t")
    2445                            .dwattr $C$DW$T$163, DW_AT_type(*$C$DW$T$162)
    2446                            .dwattr $C$DW$T$163, DW_AT_language(DW_LANG_C)
    2447                            .dwattr $C$DW$T$163, DW_AT_decl_file("C:\Users\bob\Documents\Projects\induct_forge\RM57Lx_test
    2448                            .dwattr $C$DW$T$163, DW_AT_decl_line(0x55)
    2449                            .dwattr $C$DW$T$163, DW_AT_decl_column(0x03)
    2450                    
    2451                    
    2452                    $C$DW$T$37      .dwtag  DW_TAG_structure_type
    2453                            .dwattr $C$DW$T$37, DW_AT_name("gioCntlRegDefs")
    2454                            .dwattr $C$DW$T$37, DW_AT_byte_size(0x34)
    2455                    $C$DW$153       .dwtag  DW_TAG_member
    2456                            .dwattr $C$DW$153, DW_AT_type(*$C$DW$T$19)
    2457                            .dwattr $C$DW$153, DW_AT_name("GCR0")
    2458                            .dwattr $C$DW$153, DW_AT_TI_symbol_name("GCR0")
    2459                            .dwattr $C$DW$153, DW_AT_data_member_location[DW_OP_plus_uconst 0x0]
    2460                            .dwattr $C$DW$153, DW_AT_accessibility(DW_ACCESS_public)
    2461                            .dwattr $C$DW$153, DW_AT_decl_file("C:/Users/bob/Documents/Projects/induct_forge/RM57Lx_test/P
    2462                            .dwattr $C$DW$153, DW_AT_decl_line(0x8c)
    2463                            .dwattr $C$DW$153, DW_AT_decl_column(0x0b)
    2464                    
    2465                    $C$DW$154       .dwtag  DW_TAG_member
    2466                            .dwattr $C$DW$154, DW_AT_type(*$C$DW$T$19)
    2467                            .dwattr $C$DW$154, DW_AT_name("rsvd1")
    2468                            .dwattr $C$DW$154, DW_AT_TI_symbol_name("rsvd1")
    2469                            .dwattr $C$DW$154, DW_AT_data_member_location[DW_OP_plus_uconst 0x4]
    2470                            .dwattr $C$DW$154, DW_AT_accessibility(DW_ACCESS_public)
    2471                            .dwattr $C$DW$154, DW_AT_decl_file("C:/Users/bob/Documents/Projects/induct_forge/RM57Lx_test/P
    2472                            .dwattr $C$DW$154, DW_AT_decl_line(0x8d)
    2473                            .dwattr $C$DW$154, DW_AT_decl_column(0x0b)
    2474                    
    2475                    $C$DW$155       .dwtag  DW_TAG_member
TI ARM Assembler PC v16.9.0 Sun Feb 19 22:05:31 2017

Tools Copyright (c) 1996-2015 Texas Instruments Incorporated
C:\Users\bob\AppData\Local\Temp\0664410                              PAGE   46

    2476                            .dwattr $C$DW$155, DW_AT_type(*$C$DW$T$19)
    2477                            .dwattr $C$DW$155, DW_AT_name("INTDET")
    2478                            .dwattr $C$DW$155, DW_AT_TI_symbol_name("INTDET")
    2479                            .dwattr $C$DW$155, DW_AT_data_member_location[DW_OP_plus_uconst 0x8]
    2480                            .dwattr $C$DW$155, DW_AT_accessibility(DW_ACCESS_public)
    2481                            .dwattr $C$DW$155, DW_AT_decl_file("C:/Users/bob/Documents/Projects/induct_forge/RM57Lx_test/P
    2482                            .dwattr $C$DW$155, DW_AT_decl_line(0x8e)
    2483                            .dwattr $C$DW$155, DW_AT_decl_column(0x0b)
    2484                    
    2485                    $C$DW$156       .dwtag  DW_TAG_member
    2486                            .dwattr $C$DW$156, DW_AT_type(*$C$DW$T$19)
    2487                            .dwattr $C$DW$156, DW_AT_name("POL")
    2488                            .dwattr $C$DW$156, DW_AT_TI_symbol_name("POL")
    2489                            .dwattr $C$DW$156, DW_AT_data_member_location[DW_OP_plus_uconst 0xc]
    2490                            .dwattr $C$DW$156, DW_AT_accessibility(DW_ACCESS_public)
    2491                            .dwattr $C$DW$156, DW_AT_decl_file("C:/Users/bob/Documents/Projects/induct_forge/RM57Lx_test/P
    2492                            .dwattr $C$DW$156, DW_AT_decl_line(0x8f)
    2493                            .dwattr $C$DW$156, DW_AT_decl_column(0x0b)
    2494                    
    2495                    $C$DW$157       .dwtag  DW_TAG_member
    2496                            .dwattr $C$DW$157, DW_AT_type(*$C$DW$T$19)
    2497                            .dwattr $C$DW$157, DW_AT_name("ENASET")
    2498                            .dwattr $C$DW$157, DW_AT_TI_symbol_name("ENASET")
    2499                            .dwattr $C$DW$157, DW_AT_data_member_location[DW_OP_plus_uconst 0x10]
    2500                            .dwattr $C$DW$157, DW_AT_accessibility(DW_ACCESS_public)
    2501                            .dwattr $C$DW$157, DW_AT_decl_file("C:/Users/bob/Documents/Projects/induct_forge/RM57Lx_test/P
    2502                            .dwattr $C$DW$157, DW_AT_decl_line(0x90)
    2503                            .dwattr $C$DW$157, DW_AT_decl_column(0x0b)
    2504                    
    2505                    $C$DW$158       .dwtag  DW_TAG_member
    2506                            .dwattr $C$DW$158, DW_AT_type(*$C$DW$T$19)
    2507                            .dwattr $C$DW$158, DW_AT_name("ENACLR")
    2508                            .dwattr $C$DW$158, DW_AT_TI_symbol_name("ENACLR")
    2509                            .dwattr $C$DW$158, DW_AT_data_member_location[DW_OP_plus_uconst 0x14]
    2510                            .dwattr $C$DW$158, DW_AT_accessibility(DW_ACCESS_public)
    2511                            .dwattr $C$DW$158, DW_AT_decl_file("C:/Users/bob/Documents/Projects/induct_forge/RM57Lx_test/P
    2512                            .dwattr $C$DW$158, DW_AT_decl_line(0x91)
    2513                            .dwattr $C$DW$158, DW_AT_decl_column(0x0b)
    2514                    
    2515                    $C$DW$159       .dwtag  DW_TAG_member
    2516                            .dwattr $C$DW$159, DW_AT_type(*$C$DW$T$19)
    2517                            .dwattr $C$DW$159, DW_AT_name("LVLSET")
    2518                            .dwattr $C$DW$159, DW_AT_TI_symbol_name("LVLSET")
    2519                            .dwattr $C$DW$159, DW_AT_data_member_location[DW_OP_plus_uconst 0x18]
    2520                            .dwattr $C$DW$159, DW_AT_accessibility(DW_ACCESS_public)
    2521                            .dwattr $C$DW$159, DW_AT_decl_file("C:/Users/bob/Documents/Projects/induct_forge/RM57Lx_test/P
    2522                            .dwattr $C$DW$159, DW_AT_decl_line(0x92)
    2523                            .dwattr $C$DW$159, DW_AT_decl_column(0x0b)
    2524                    
    2525                    $C$DW$160       .dwtag  DW_TAG_member
    2526                            .dwattr $C$DW$160, DW_AT_type(*$C$DW$T$19)
    2527                            .dwattr $C$DW$160, DW_AT_name("LVLCLR")
    2528                            .dwattr $C$DW$160, DW_AT_TI_symbol_name("LVLCLR")
    2529                            .dwattr $C$DW$160, DW_AT_data_member_location[DW_OP_plus_uconst 0x1c]
    2530                            .dwattr $C$DW$160, DW_AT_accessibility(DW_ACCESS_public)
TI ARM Assembler PC v16.9.0 Sun Feb 19 22:05:31 2017

Tools Copyright (c) 1996-2015 Texas Instruments Incorporated
C:\Users\bob\AppData\Local\Temp\0664410                              PAGE   47

    2531                            .dwattr $C$DW$160, DW_AT_decl_file("C:/Users/bob/Documents/Projects/induct_forge/RM57Lx_test/P
    2532                            .dwattr $C$DW$160, DW_AT_decl_line(0x93)
    2533                            .dwattr $C$DW$160, DW_AT_decl_column(0x0b)
    2534                    
    2535                    $C$DW$161       .dwtag  DW_TAG_member
    2536                            .dwattr $C$DW$161, DW_AT_type(*$C$DW$T$19)
    2537                            .dwattr $C$DW$161, DW_AT_name("FLG")
    2538                            .dwattr $C$DW$161, DW_AT_TI_symbol_name("FLG")
    2539                            .dwattr $C$DW$161, DW_AT_data_member_location[DW_OP_plus_uconst 0x20]
    2540                            .dwattr $C$DW$161, DW_AT_accessibility(DW_ACCESS_public)
    2541                            .dwattr $C$DW$161, DW_AT_decl_file("C:/Users/bob/Documents/Projects/induct_forge/RM57Lx_test/P
    2542                            .dwattr $C$DW$161, DW_AT_decl_line(0x94)
    2543                            .dwattr $C$DW$161, DW_AT_decl_column(0x0b)
    2544                    
    2545                    $C$DW$162       .dwtag  DW_TAG_member
    2546                            .dwattr $C$DW$162, DW_AT_type(*$C$DW$T$19)
    2547                            .dwattr $C$DW$162, DW_AT_name("OFF1")
    2548                            .dwattr $C$DW$162, DW_AT_TI_symbol_name("OFF1")
    2549                            .dwattr $C$DW$162, DW_AT_data_member_location[DW_OP_plus_uconst 0x24]
    2550                            .dwattr $C$DW$162, DW_AT_accessibility(DW_ACCESS_public)
    2551                            .dwattr $C$DW$162, DW_AT_decl_file("C:/Users/bob/Documents/Projects/induct_forge/RM57Lx_test/P
    2552                            .dwattr $C$DW$162, DW_AT_decl_line(0x95)
    2553                            .dwattr $C$DW$162, DW_AT_decl_column(0x0b)
    2554                    
    2555                    $C$DW$163       .dwtag  DW_TAG_member
    2556                            .dwattr $C$DW$163, DW_AT_type(*$C$DW$T$19)
    2557                            .dwattr $C$DW$163, DW_AT_name("OFF2")
    2558                            .dwattr $C$DW$163, DW_AT_TI_symbol_name("OFF2")
    2559                            .dwattr $C$DW$163, DW_AT_data_member_location[DW_OP_plus_uconst 0x28]
    2560                            .dwattr $C$DW$163, DW_AT_accessibility(DW_ACCESS_public)
    2561                            .dwattr $C$DW$163, DW_AT_decl_file("C:/Users/bob/Documents/Projects/induct_forge/RM57Lx_test/P
    2562                            .dwattr $C$DW$163, DW_AT_decl_line(0x96)
    2563                            .dwattr $C$DW$163, DW_AT_decl_column(0x0b)
    2564                    
    2565                    $C$DW$164       .dwtag  DW_TAG_member
    2566                            .dwattr $C$DW$164, DW_AT_type(*$C$DW$T$19)
    2567                            .dwattr $C$DW$164, DW_AT_name("EMU1")
    2568                            .dwattr $C$DW$164, DW_AT_TI_symbol_name("EMU1")
    2569                            .dwattr $C$DW$164, DW_AT_data_member_location[DW_OP_plus_uconst 0x2c]
    2570                            .dwattr $C$DW$164, DW_AT_accessibility(DW_ACCESS_public)
    2571                            .dwattr $C$DW$164, DW_AT_decl_file("C:/Users/bob/Documents/Projects/induct_forge/RM57Lx_test/P
    2572                            .dwattr $C$DW$164, DW_AT_decl_line(0x97)
    2573                            .dwattr $C$DW$164, DW_AT_decl_column(0x0b)
    2574                    
    2575                    $C$DW$165       .dwtag  DW_TAG_member
    2576                            .dwattr $C$DW$165, DW_AT_type(*$C$DW$T$19)
    2577                            .dwattr $C$DW$165, DW_AT_name("EMU2")
    2578                            .dwattr $C$DW$165, DW_AT_TI_symbol_name("EMU2")
    2579                            .dwattr $C$DW$165, DW_AT_data_member_location[DW_OP_plus_uconst 0x30]
    2580                            .dwattr $C$DW$165, DW_AT_accessibility(DW_ACCESS_public)
    2581                            .dwattr $C$DW$165, DW_AT_decl_file("C:/Users/bob/Documents/Projects/induct_forge/RM57Lx_test/P
    2582                            .dwattr $C$DW$165, DW_AT_decl_line(0x98)
    2583                            .dwattr $C$DW$165, DW_AT_decl_column(0x0b)
    2584                    
    2585                            .dwattr $C$DW$T$37, DW_AT_decl_file("C:/Users/bob/Documents/Projects/induct_forge/RM57Lx_test/
TI ARM Assembler PC v16.9.0 Sun Feb 19 22:05:31 2017

Tools Copyright (c) 1996-2015 Texas Instruments Incorporated
C:\Users\bob\AppData\Local\Temp\0664410                              PAGE   48

    2586                            .dwattr $C$DW$T$37, DW_AT_decl_line(0x8b)
    2587                            .dwattr $C$DW$T$37, DW_AT_decl_column(0x1a)
    2588                            .dwendtag $C$DW$T$37
    2589                    
    2590                    $C$DW$T$165     .dwtag  DW_TAG_volatile_type
    2591                            .dwattr $C$DW$T$165, DW_AT_type(*$C$DW$T$37)
    2592                    
    2593                    $C$DW$T$166     .dwtag  DW_TAG_typedef
    2594                            .dwattr $C$DW$T$166, DW_AT_name("gioCntlRegDefs_t")
    2595                            .dwattr $C$DW$T$166, DW_AT_type(*$C$DW$T$165)
    2596                            .dwattr $C$DW$T$166, DW_AT_language(DW_LANG_C)
    2597                            .dwattr $C$DW$T$166, DW_AT_decl_file("C:/Users/bob/Documents/Projects/induct_forge/RM57Lx_test
    2598                            .dwattr $C$DW$T$166, DW_AT_decl_line(0x99)
    2599                            .dwattr $C$DW$T$166, DW_AT_decl_column(0x03)
    2600                    
    2601                    
    2602                    $C$DW$T$38      .dwtag  DW_TAG_structure_type
    2603                            .dwattr $C$DW$T$38, DW_AT_name("gioPort")
    2604                            .dwattr $C$DW$T$38, DW_AT_byte_size(0x20)
    2605                    $C$DW$166       .dwtag  DW_TAG_member
    2606                            .dwattr $C$DW$166, DW_AT_type(*$C$DW$T$20)
    2607                            .dwattr $C$DW$166, DW_AT_name("DIR")
    2608                            .dwattr $C$DW$166, DW_AT_TI_symbol_name("DIR")
    2609                            .dwattr $C$DW$166, DW_AT_data_member_location[DW_OP_plus_uconst 0x0]
    2610                            .dwattr $C$DW$166, DW_AT_accessibility(DW_ACCESS_public)
    2611                            .dwattr $C$DW$166, DW_AT_decl_file("C:\Users\bob\Documents\Projects\induct_forge\RM57Lx_test\P
    2612                            .dwattr $C$DW$166, DW_AT_decl_line(0x62)
    2613                            .dwattr $C$DW$166, DW_AT_decl_column(0x0c)
    2614                    
    2615                    $C$DW$167       .dwtag  DW_TAG_member
    2616                            .dwattr $C$DW$167, DW_AT_type(*$C$DW$T$20)
    2617                            .dwattr $C$DW$167, DW_AT_name("DIN")
    2618                            .dwattr $C$DW$167, DW_AT_TI_symbol_name("DIN")
    2619                            .dwattr $C$DW$167, DW_AT_data_member_location[DW_OP_plus_uconst 0x4]
    2620                            .dwattr $C$DW$167, DW_AT_accessibility(DW_ACCESS_public)
    2621                            .dwattr $C$DW$167, DW_AT_decl_file("C:\Users\bob\Documents\Projects\induct_forge\RM57Lx_test\P
    2622                            .dwattr $C$DW$167, DW_AT_decl_line(0x63)
    2623                            .dwattr $C$DW$167, DW_AT_decl_column(0x0c)
    2624                    
    2625                    $C$DW$168       .dwtag  DW_TAG_member
    2626                            .dwattr $C$DW$168, DW_AT_type(*$C$DW$T$20)
    2627                            .dwattr $C$DW$168, DW_AT_name("DOUT")
    2628                            .dwattr $C$DW$168, DW_AT_TI_symbol_name("DOUT")
    2629                            .dwattr $C$DW$168, DW_AT_data_member_location[DW_OP_plus_uconst 0x8]
    2630                            .dwattr $C$DW$168, DW_AT_accessibility(DW_ACCESS_public)
    2631                            .dwattr $C$DW$168, DW_AT_decl_file("C:\Users\bob\Documents\Projects\induct_forge\RM57Lx_test\P
    2632                            .dwattr $C$DW$168, DW_AT_decl_line(0x64)
    2633                            .dwattr $C$DW$168, DW_AT_decl_column(0x0c)
    2634                    
    2635                    $C$DW$169       .dwtag  DW_TAG_member
    2636                            .dwattr $C$DW$169, DW_AT_type(*$C$DW$T$20)
    2637                            .dwattr $C$DW$169, DW_AT_name("DSET")
    2638                            .dwattr $C$DW$169, DW_AT_TI_symbol_name("DSET")
    2639                            .dwattr $C$DW$169, DW_AT_data_member_location[DW_OP_plus_uconst 0xc]
    2640                            .dwattr $C$DW$169, DW_AT_accessibility(DW_ACCESS_public)
TI ARM Assembler PC v16.9.0 Sun Feb 19 22:05:31 2017

Tools Copyright (c) 1996-2015 Texas Instruments Incorporated
C:\Users\bob\AppData\Local\Temp\0664410                              PAGE   49

    2641                            .dwattr $C$DW$169, DW_AT_decl_file("C:\Users\bob\Documents\Projects\induct_forge\RM57Lx_test\P
    2642                            .dwattr $C$DW$169, DW_AT_decl_line(0x65)
    2643                            .dwattr $C$DW$169, DW_AT_decl_column(0x0c)
    2644                    
    2645                    $C$DW$170       .dwtag  DW_TAG_member
    2646                            .dwattr $C$DW$170, DW_AT_type(*$C$DW$T$20)
    2647                            .dwattr $C$DW$170, DW_AT_name("DCLR")
    2648                            .dwattr $C$DW$170, DW_AT_TI_symbol_name("DCLR")
    2649                            .dwattr $C$DW$170, DW_AT_data_member_location[DW_OP_plus_uconst 0x10]
    2650                            .dwattr $C$DW$170, DW_AT_accessibility(DW_ACCESS_public)
    2651                            .dwattr $C$DW$170, DW_AT_decl_file("C:\Users\bob\Documents\Projects\induct_forge\RM57Lx_test\P
    2652                            .dwattr $C$DW$170, DW_AT_decl_line(0x66)
    2653                            .dwattr $C$DW$170, DW_AT_decl_column(0x0c)
    2654                    
    2655                    $C$DW$171       .dwtag  DW_TAG_member
    2656                            .dwattr $C$DW$171, DW_AT_type(*$C$DW$T$20)
    2657                            .dwattr $C$DW$171, DW_AT_name("PDR")
    2658                            .dwattr $C$DW$171, DW_AT_TI_symbol_name("PDR")
    2659                            .dwattr $C$DW$171, DW_AT_data_member_location[DW_OP_plus_uconst 0x14]
    2660                            .dwattr $C$DW$171, DW_AT_accessibility(DW_ACCESS_public)
    2661                            .dwattr $C$DW$171, DW_AT_decl_file("C:\Users\bob\Documents\Projects\induct_forge\RM57Lx_test\P
    2662                            .dwattr $C$DW$171, DW_AT_decl_line(0x67)
    2663                            .dwattr $C$DW$171, DW_AT_decl_column(0x0c)
    2664                    
    2665                    $C$DW$172       .dwtag  DW_TAG_member
    2666                            .dwattr $C$DW$172, DW_AT_type(*$C$DW$T$20)
    2667                            .dwattr $C$DW$172, DW_AT_name("PULDIS")
    2668                            .dwattr $C$DW$172, DW_AT_TI_symbol_name("PULDIS")
    2669                            .dwattr $C$DW$172, DW_AT_data_member_location[DW_OP_plus_uconst 0x18]
    2670                            .dwattr $C$DW$172, DW_AT_accessibility(DW_ACCESS_public)
    2671                            .dwattr $C$DW$172, DW_AT_decl_file("C:\Users\bob\Documents\Projects\induct_forge\RM57Lx_test\P
    2672                            .dwattr $C$DW$172, DW_AT_decl_line(0x68)
    2673                            .dwattr $C$DW$172, DW_AT_decl_column(0x0c)
    2674                    
    2675                    $C$DW$173       .dwtag  DW_TAG_member
    2676                            .dwattr $C$DW$173, DW_AT_type(*$C$DW$T$20)
    2677                            .dwattr $C$DW$173, DW_AT_name("PSL")
    2678                            .dwattr $C$DW$173, DW_AT_TI_symbol_name("PSL")
    2679                            .dwattr $C$DW$173, DW_AT_data_member_location[DW_OP_plus_uconst 0x1c]
    2680                            .dwattr $C$DW$173, DW_AT_accessibility(DW_ACCESS_public)
    2681                            .dwattr $C$DW$173, DW_AT_decl_file("C:\Users\bob\Documents\Projects\induct_forge\RM57Lx_test\P
    2682                            .dwattr $C$DW$173, DW_AT_decl_line(0x69)
    2683                            .dwattr $C$DW$173, DW_AT_decl_column(0x0c)
    2684                    
    2685                            .dwattr $C$DW$T$38, DW_AT_decl_file("C:\Users\bob\Documents\Projects\induct_forge\RM57Lx_test\
    2686                            .dwattr $C$DW$T$38, DW_AT_decl_line(0x60)
    2687                            .dwattr $C$DW$T$38, DW_AT_decl_column(0x19)
    2688                            .dwendtag $C$DW$T$38
    2689                    
    2690                    $C$DW$T$167     .dwtag  DW_TAG_volatile_type
    2691                            .dwattr $C$DW$T$167, DW_AT_type(*$C$DW$T$38)
    2692                    
    2693                    $C$DW$T$168     .dwtag  DW_TAG_typedef
    2694                            .dwattr $C$DW$T$168, DW_AT_name("gioPORT_t")
    2695                            .dwattr $C$DW$T$168, DW_AT_type(*$C$DW$T$167)
TI ARM Assembler PC v16.9.0 Sun Feb 19 22:05:31 2017

Tools Copyright (c) 1996-2015 Texas Instruments Incorporated
C:\Users\bob\AppData\Local\Temp\0664410                              PAGE   50

    2696                            .dwattr $C$DW$T$168, DW_AT_language(DW_LANG_C)
    2697                            .dwattr $C$DW$T$168, DW_AT_decl_file("C:\Users\bob\Documents\Projects\induct_forge\RM57Lx_test
    2698                            .dwattr $C$DW$T$168, DW_AT_decl_line(0x6a)
    2699                            .dwattr $C$DW$T$168, DW_AT_decl_column(0x03)
    2700                    
    2701                    
    2702                    $C$DW$T$39      .dwtag  DW_TAG_structure_type
    2703                            .dwattr $C$DW$T$39, DW_AT_name("gioPortRegDefs")
    2704                            .dwattr $C$DW$T$39, DW_AT_byte_size(0x20)
    2705                    $C$DW$174       .dwtag  DW_TAG_member
    2706                            .dwattr $C$DW$174, DW_AT_type(*$C$DW$T$19)
    2707                            .dwattr $C$DW$174, DW_AT_name("DIR")
    2708                            .dwattr $C$DW$174, DW_AT_TI_symbol_name("DIR")
    2709                            .dwattr $C$DW$174, DW_AT_data_member_location[DW_OP_plus_uconst 0x0]
    2710                            .dwattr $C$DW$174, DW_AT_accessibility(DW_ACCESS_public)
    2711                            .dwattr $C$DW$174, DW_AT_decl_file("C:/Users/bob/Documents/Projects/induct_forge/RM57Lx_test/P
    2712                            .dwattr $C$DW$174, DW_AT_decl_line(0xa3)
    2713                            .dwattr $C$DW$174, DW_AT_decl_column(0x0b)
    2714                    
    2715                    $C$DW$175       .dwtag  DW_TAG_member
    2716                            .dwattr $C$DW$175, DW_AT_type(*$C$DW$T$19)
    2717                            .dwattr $C$DW$175, DW_AT_name("DIN")
    2718                            .dwattr $C$DW$175, DW_AT_TI_symbol_name("DIN")
    2719                            .dwattr $C$DW$175, DW_AT_data_member_location[DW_OP_plus_uconst 0x4]
    2720                            .dwattr $C$DW$175, DW_AT_accessibility(DW_ACCESS_public)
    2721                            .dwattr $C$DW$175, DW_AT_decl_file("C:/Users/bob/Documents/Projects/induct_forge/RM57Lx_test/P
    2722                            .dwattr $C$DW$175, DW_AT_decl_line(0xa4)
    2723                            .dwattr $C$DW$175, DW_AT_decl_column(0x0b)
    2724                    
    2725                    $C$DW$176       .dwtag  DW_TAG_member
    2726                            .dwattr $C$DW$176, DW_AT_type(*$C$DW$T$19)
    2727                            .dwattr $C$DW$176, DW_AT_name("DOUT")
    2728                            .dwattr $C$DW$176, DW_AT_TI_symbol_name("DOUT")
    2729                            .dwattr $C$DW$176, DW_AT_data_member_location[DW_OP_plus_uconst 0x8]
    2730                            .dwattr $C$DW$176, DW_AT_accessibility(DW_ACCESS_public)
    2731                            .dwattr $C$DW$176, DW_AT_decl_file("C:/Users/bob/Documents/Projects/induct_forge/RM57Lx_test/P
    2732                            .dwattr $C$DW$176, DW_AT_decl_line(0xa5)
    2733                            .dwattr $C$DW$176, DW_AT_decl_column(0x0b)
    2734                    
    2735                    $C$DW$177       .dwtag  DW_TAG_member
    2736                            .dwattr $C$DW$177, DW_AT_type(*$C$DW$T$19)
    2737                            .dwattr $C$DW$177, DW_AT_name("DSET")
    2738                            .dwattr $C$DW$177, DW_AT_TI_symbol_name("DSET")
    2739                            .dwattr $C$DW$177, DW_AT_data_member_location[DW_OP_plus_uconst 0xc]
    2740                            .dwattr $C$DW$177, DW_AT_accessibility(DW_ACCESS_public)
    2741                            .dwattr $C$DW$177, DW_AT_decl_file("C:/Users/bob/Documents/Projects/induct_forge/RM57Lx_test/P
    2742                            .dwattr $C$DW$177, DW_AT_decl_line(0xa6)
    2743                            .dwattr $C$DW$177, DW_AT_decl_column(0x0b)
    2744                    
    2745                    $C$DW$178       .dwtag  DW_TAG_member
    2746                            .dwattr $C$DW$178, DW_AT_type(*$C$DW$T$19)
    2747                            .dwattr $C$DW$178, DW_AT_name("DCLR")
    2748                            .dwattr $C$DW$178, DW_AT_TI_symbol_name("DCLR")
    2749                            .dwattr $C$DW$178, DW_AT_data_member_location[DW_OP_plus_uconst 0x10]
    2750                            .dwattr $C$DW$178, DW_AT_accessibility(DW_ACCESS_public)
TI ARM Assembler PC v16.9.0 Sun Feb 19 22:05:31 2017

Tools Copyright (c) 1996-2015 Texas Instruments Incorporated
C:\Users\bob\AppData\Local\Temp\0664410                              PAGE   51

    2751                            .dwattr $C$DW$178, DW_AT_decl_file("C:/Users/bob/Documents/Projects/induct_forge/RM57Lx_test/P
    2752                            .dwattr $C$DW$178, DW_AT_decl_line(0xa7)
    2753                            .dwattr $C$DW$178, DW_AT_decl_column(0x0b)
    2754                    
    2755                    $C$DW$179       .dwtag  DW_TAG_member
    2756                            .dwattr $C$DW$179, DW_AT_type(*$C$DW$T$19)
    2757                            .dwattr $C$DW$179, DW_AT_name("PDR")
    2758                            .dwattr $C$DW$179, DW_AT_TI_symbol_name("PDR")
    2759                            .dwattr $C$DW$179, DW_AT_data_member_location[DW_OP_plus_uconst 0x14]
    2760                            .dwattr $C$DW$179, DW_AT_accessibility(DW_ACCESS_public)
    2761                            .dwattr $C$DW$179, DW_AT_decl_file("C:/Users/bob/Documents/Projects/induct_forge/RM57Lx_test/P
    2762                            .dwattr $C$DW$179, DW_AT_decl_line(0xa8)
    2763                            .dwattr $C$DW$179, DW_AT_decl_column(0x0b)
    2764                    
    2765                    $C$DW$180       .dwtag  DW_TAG_member
    2766                            .dwattr $C$DW$180, DW_AT_type(*$C$DW$T$19)
    2767                            .dwattr $C$DW$180, DW_AT_name("PULDIS")
    2768                            .dwattr $C$DW$180, DW_AT_TI_symbol_name("PULDIS")
    2769                            .dwattr $C$DW$180, DW_AT_data_member_location[DW_OP_plus_uconst 0x18]
    2770                            .dwattr $C$DW$180, DW_AT_accessibility(DW_ACCESS_public)
    2771                            .dwattr $C$DW$180, DW_AT_decl_file("C:/Users/bob/Documents/Projects/induct_forge/RM57Lx_test/P
    2772                            .dwattr $C$DW$180, DW_AT_decl_line(0xa9)
    2773                            .dwattr $C$DW$180, DW_AT_decl_column(0x0b)
    2774                    
    2775                    $C$DW$181       .dwtag  DW_TAG_member
    2776                            .dwattr $C$DW$181, DW_AT_type(*$C$DW$T$19)
    2777                            .dwattr $C$DW$181, DW_AT_name("PSL")
    2778                            .dwattr $C$DW$181, DW_AT_TI_symbol_name("PSL")
    2779                            .dwattr $C$DW$181, DW_AT_data_member_location[DW_OP_plus_uconst 0x1c]
    2780                            .dwattr $C$DW$181, DW_AT_accessibility(DW_ACCESS_public)
    2781                            .dwattr $C$DW$181, DW_AT_decl_file("C:/Users/bob/Documents/Projects/induct_forge/RM57Lx_test/P
    2782                            .dwattr $C$DW$181, DW_AT_decl_line(0xaa)
    2783                            .dwattr $C$DW$181, DW_AT_decl_column(0x0b)
    2784                    
    2785                            .dwattr $C$DW$T$39, DW_AT_decl_file("C:/Users/bob/Documents/Projects/induct_forge/RM57Lx_test/
    2786                            .dwattr $C$DW$T$39, DW_AT_decl_line(0xa2)
    2787                            .dwattr $C$DW$T$39, DW_AT_decl_column(0x1a)
    2788                            .dwendtag $C$DW$T$39
    2789                    
    2790                    $C$DW$T$170     .dwtag  DW_TAG_volatile_type
    2791                            .dwattr $C$DW$T$170, DW_AT_type(*$C$DW$T$39)
    2792                    
    2793                    $C$DW$T$171     .dwtag  DW_TAG_typedef
    2794                            .dwattr $C$DW$T$171, DW_AT_name("gioPortRegDefs_t")
    2795                            .dwattr $C$DW$T$171, DW_AT_type(*$C$DW$T$170)
    2796                            .dwattr $C$DW$T$171, DW_AT_language(DW_LANG_C)
    2797                            .dwattr $C$DW$T$171, DW_AT_decl_file("C:/Users/bob/Documents/Projects/induct_forge/RM57Lx_test
    2798                            .dwattr $C$DW$T$171, DW_AT_decl_line(0xab)
    2799                            .dwattr $C$DW$T$171, DW_AT_decl_column(0x03)
    2800                    
    2801                    
    2802                    $C$DW$T$43      .dwtag  DW_TAG_structure_type
    2803                            .dwattr $C$DW$T$43, DW_AT_name("het1RamBase")
    2804                            .dwattr $C$DW$T$43, DW_AT_byte_size(0xa00)
    2805                    $C$DW$182       .dwtag  DW_TAG_member
TI ARM Assembler PC v16.9.0 Sun Feb 19 22:05:31 2017

Tools Copyright (c) 1996-2015 Texas Instruments Incorporated
C:\Users\bob\AppData\Local\Temp\0664410                              PAGE   52

    2806                            .dwattr $C$DW$182, DW_AT_type(*$C$DW$T$42)
    2807                            .dwattr $C$DW$182, DW_AT_name("Instruction")
    2808                            .dwattr $C$DW$182, DW_AT_TI_symbol_name("Instruction")
    2809                            .dwattr $C$DW$182, DW_AT_data_member_location[DW_OP_plus_uconst 0x0]
    2810                            .dwattr $C$DW$182, DW_AT_accessibility(DW_ACCESS_public)
    2811                            .dwattr $C$DW$182, DW_AT_decl_file("C:/Users/bob/Documents/Projects/induct_forge/RM57Lx_test/P
    2812                            .dwattr $C$DW$182, DW_AT_decl_line(0x92)
    2813                            .dwattr $C$DW$182, DW_AT_decl_column(0x16)
    2814                    
    2815                            .dwattr $C$DW$T$43, DW_AT_decl_file("C:/Users/bob/Documents/Projects/induct_forge/RM57Lx_test/
    2816                            .dwattr $C$DW$T$43, DW_AT_decl_line(0x90)
    2817                            .dwattr $C$DW$T$43, DW_AT_decl_column(0x19)
    2818                            .dwendtag $C$DW$T$43
    2819                    
    2820                    $C$DW$T$173     .dwtag  DW_TAG_volatile_type
    2821                            .dwattr $C$DW$T$173, DW_AT_type(*$C$DW$T$43)
    2822                    
    2823                    $C$DW$T$174     .dwtag  DW_TAG_typedef
    2824                            .dwattr $C$DW$T$174, DW_AT_name("hetRAMBASE_t")
    2825                            .dwattr $C$DW$T$174, DW_AT_type(*$C$DW$T$173)
    2826                            .dwattr $C$DW$T$174, DW_AT_language(DW_LANG_C)
    2827                            .dwattr $C$DW$T$174, DW_AT_decl_file("C:/Users/bob/Documents/Projects/induct_forge/RM57Lx_test
    2828                            .dwattr $C$DW$T$174, DW_AT_decl_line(0x93)
    2829                            .dwattr $C$DW$T$174, DW_AT_decl_column(0x03)
    2830                    
    2831                    
    2832                    $C$DW$T$44      .dwtag  DW_TAG_structure_type
    2833                            .dwattr $C$DW$T$44, DW_AT_name("hetBase")
    2834                            .dwattr $C$DW$T$44, DW_AT_byte_size(0x98)
    2835                    $C$DW$183       .dwtag  DW_TAG_member
    2836                            .dwattr $C$DW$183, DW_AT_type(*$C$DW$T$20)
    2837                            .dwattr $C$DW$183, DW_AT_name("GCR")
    2838                            .dwattr $C$DW$183, DW_AT_TI_symbol_name("GCR")
    2839                            .dwattr $C$DW$183, DW_AT_data_member_location[DW_OP_plus_uconst 0x0]
    2840                            .dwattr $C$DW$183, DW_AT_accessibility(DW_ACCESS_public)
    2841                            .dwattr $C$DW$183, DW_AT_decl_file("C:/Users/bob/Documents/Projects/induct_forge/RM57Lx_test/P
    2842                            .dwattr $C$DW$183, DW_AT_decl_line(0x4a)
    2843                            .dwattr $C$DW$183, DW_AT_decl_column(0x0c)
    2844                    
    2845                    $C$DW$184       .dwtag  DW_TAG_member
    2846                            .dwattr $C$DW$184, DW_AT_type(*$C$DW$T$20)
    2847                            .dwattr $C$DW$184, DW_AT_name("PFR")
    2848                            .dwattr $C$DW$184, DW_AT_TI_symbol_name("PFR")
    2849                            .dwattr $C$DW$184, DW_AT_data_member_location[DW_OP_plus_uconst 0x4]
    2850                            .dwattr $C$DW$184, DW_AT_accessibility(DW_ACCESS_public)
    2851                            .dwattr $C$DW$184, DW_AT_decl_file("C:/Users/bob/Documents/Projects/induct_forge/RM57Lx_test/P
    2852                            .dwattr $C$DW$184, DW_AT_decl_line(0x4b)
    2853                            .dwattr $C$DW$184, DW_AT_decl_column(0x0c)
    2854                    
    2855                    $C$DW$185       .dwtag  DW_TAG_member
    2856                            .dwattr $C$DW$185, DW_AT_type(*$C$DW$T$20)
    2857                            .dwattr $C$DW$185, DW_AT_name("ADDR")
    2858                            .dwattr $C$DW$185, DW_AT_TI_symbol_name("ADDR")
    2859                            .dwattr $C$DW$185, DW_AT_data_member_location[DW_OP_plus_uconst 0x8]
    2860                            .dwattr $C$DW$185, DW_AT_accessibility(DW_ACCESS_public)
TI ARM Assembler PC v16.9.0 Sun Feb 19 22:05:31 2017

Tools Copyright (c) 1996-2015 Texas Instruments Incorporated
C:\Users\bob\AppData\Local\Temp\0664410                              PAGE   53

    2861                            .dwattr $C$DW$185, DW_AT_decl_file("C:/Users/bob/Documents/Projects/induct_forge/RM57Lx_test/P
    2862                            .dwattr $C$DW$185, DW_AT_decl_line(0x4c)
    2863                            .dwattr $C$DW$185, DW_AT_decl_column(0x0c)
    2864                    
    2865                    $C$DW$186       .dwtag  DW_TAG_member
    2866                            .dwattr $C$DW$186, DW_AT_type(*$C$DW$T$20)
    2867                            .dwattr $C$DW$186, DW_AT_name("OFF1")
    2868                            .dwattr $C$DW$186, DW_AT_TI_symbol_name("OFF1")
    2869                            .dwattr $C$DW$186, DW_AT_data_member_location[DW_OP_plus_uconst 0xc]
    2870                            .dwattr $C$DW$186, DW_AT_accessibility(DW_ACCESS_public)
    2871                            .dwattr $C$DW$186, DW_AT_decl_file("C:/Users/bob/Documents/Projects/induct_forge/RM57Lx_test/P
    2872                            .dwattr $C$DW$186, DW_AT_decl_line(0x4d)
    2873                            .dwattr $C$DW$186, DW_AT_decl_column(0x0c)
    2874                    
    2875                    $C$DW$187       .dwtag  DW_TAG_member
    2876                            .dwattr $C$DW$187, DW_AT_type(*$C$DW$T$20)
    2877                            .dwattr $C$DW$187, DW_AT_name("OFF2")
    2878                            .dwattr $C$DW$187, DW_AT_TI_symbol_name("OFF2")
    2879                            .dwattr $C$DW$187, DW_AT_data_member_location[DW_OP_plus_uconst 0x10]
    2880                            .dwattr $C$DW$187, DW_AT_accessibility(DW_ACCESS_public)
    2881                            .dwattr $C$DW$187, DW_AT_decl_file("C:/Users/bob/Documents/Projects/induct_forge/RM57Lx_test/P
    2882                            .dwattr $C$DW$187, DW_AT_decl_line(0x4e)
    2883                            .dwattr $C$DW$187, DW_AT_decl_column(0x0c)
    2884                    
    2885                    $C$DW$188       .dwtag  DW_TAG_member
    2886                            .dwattr $C$DW$188, DW_AT_type(*$C$DW$T$20)
    2887                            .dwattr $C$DW$188, DW_AT_name("INTENAS")
    2888                            .dwattr $C$DW$188, DW_AT_TI_symbol_name("INTENAS")
    2889                            .dwattr $C$DW$188, DW_AT_data_member_location[DW_OP_plus_uconst 0x14]
    2890                            .dwattr $C$DW$188, DW_AT_accessibility(DW_ACCESS_public)
    2891                            .dwattr $C$DW$188, DW_AT_decl_file("C:/Users/bob/Documents/Projects/induct_forge/RM57Lx_test/P
    2892                            .dwattr $C$DW$188, DW_AT_decl_line(0x4f)
    2893                            .dwattr $C$DW$188, DW_AT_decl_column(0x0c)
    2894                    
    2895                    $C$DW$189       .dwtag  DW_TAG_member
    2896                            .dwattr $C$DW$189, DW_AT_type(*$C$DW$T$20)
    2897                            .dwattr $C$DW$189, DW_AT_name("INTENAC")
    2898                            .dwattr $C$DW$189, DW_AT_TI_symbol_name("INTENAC")
    2899                            .dwattr $C$DW$189, DW_AT_data_member_location[DW_OP_plus_uconst 0x18]
    2900                            .dwattr $C$DW$189, DW_AT_accessibility(DW_ACCESS_public)
    2901                            .dwattr $C$DW$189, DW_AT_decl_file("C:/Users/bob/Documents/Projects/induct_forge/RM57Lx_test/P
    2902                            .dwattr $C$DW$189, DW_AT_decl_line(0x50)
    2903                            .dwattr $C$DW$189, DW_AT_decl_column(0x0c)
    2904                    
    2905                    $C$DW$190       .dwtag  DW_TAG_member
    2906                            .dwattr $C$DW$190, DW_AT_type(*$C$DW$T$20)
    2907                            .dwattr $C$DW$190, DW_AT_name("EXC1")
    2908                            .dwattr $C$DW$190, DW_AT_TI_symbol_name("EXC1")
    2909                            .dwattr $C$DW$190, DW_AT_data_member_location[DW_OP_plus_uconst 0x1c]
    2910                            .dwattr $C$DW$190, DW_AT_accessibility(DW_ACCESS_public)
    2911                            .dwattr $C$DW$190, DW_AT_decl_file("C:/Users/bob/Documents/Projects/induct_forge/RM57Lx_test/P
    2912                            .dwattr $C$DW$190, DW_AT_decl_line(0x51)
    2913                            .dwattr $C$DW$190, DW_AT_decl_column(0x0c)
    2914                    
    2915                    $C$DW$191       .dwtag  DW_TAG_member
TI ARM Assembler PC v16.9.0 Sun Feb 19 22:05:31 2017

Tools Copyright (c) 1996-2015 Texas Instruments Incorporated
C:\Users\bob\AppData\Local\Temp\0664410                              PAGE   54

    2916                            .dwattr $C$DW$191, DW_AT_type(*$C$DW$T$20)
    2917                            .dwattr $C$DW$191, DW_AT_name("EXC2")
    2918                            .dwattr $C$DW$191, DW_AT_TI_symbol_name("EXC2")
    2919                            .dwattr $C$DW$191, DW_AT_data_member_location[DW_OP_plus_uconst 0x20]
    2920                            .dwattr $C$DW$191, DW_AT_accessibility(DW_ACCESS_public)
    2921                            .dwattr $C$DW$191, DW_AT_decl_file("C:/Users/bob/Documents/Projects/induct_forge/RM57Lx_test/P
    2922                            .dwattr $C$DW$191, DW_AT_decl_line(0x52)
    2923                            .dwattr $C$DW$191, DW_AT_decl_column(0x0c)
    2924                    
    2925                    $C$DW$192       .dwtag  DW_TAG_member
    2926                            .dwattr $C$DW$192, DW_AT_type(*$C$DW$T$20)
    2927                            .dwattr $C$DW$192, DW_AT_name("PRY")
    2928                            .dwattr $C$DW$192, DW_AT_TI_symbol_name("PRY")
    2929                            .dwattr $C$DW$192, DW_AT_data_member_location[DW_OP_plus_uconst 0x24]
    2930                            .dwattr $C$DW$192, DW_AT_accessibility(DW_ACCESS_public)
    2931                            .dwattr $C$DW$192, DW_AT_decl_file("C:/Users/bob/Documents/Projects/induct_forge/RM57Lx_test/P
    2932                            .dwattr $C$DW$192, DW_AT_decl_line(0x53)
    2933                            .dwattr $C$DW$192, DW_AT_decl_column(0x0c)
    2934                    
    2935                    $C$DW$193       .dwtag  DW_TAG_member
    2936                            .dwattr $C$DW$193, DW_AT_type(*$C$DW$T$20)
    2937                            .dwattr $C$DW$193, DW_AT_name("FLG")
    2938                            .dwattr $C$DW$193, DW_AT_TI_symbol_name("FLG")
    2939                            .dwattr $C$DW$193, DW_AT_data_member_location[DW_OP_plus_uconst 0x28]
    2940                            .dwattr $C$DW$193, DW_AT_accessibility(DW_ACCESS_public)
    2941                            .dwattr $C$DW$193, DW_AT_decl_file("C:/Users/bob/Documents/Projects/induct_forge/RM57Lx_test/P
    2942                            .dwattr $C$DW$193, DW_AT_decl_line(0x54)
    2943                            .dwattr $C$DW$193, DW_AT_decl_column(0x0c)
    2944                    
    2945                    $C$DW$194       .dwtag  DW_TAG_member
    2946                            .dwattr $C$DW$194, DW_AT_type(*$C$DW$T$20)
    2947                            .dwattr $C$DW$194, DW_AT_name("AND")
    2948                            .dwattr $C$DW$194, DW_AT_TI_symbol_name("AND")
    2949                            .dwattr $C$DW$194, DW_AT_data_member_location[DW_OP_plus_uconst 0x2c]
    2950                            .dwattr $C$DW$194, DW_AT_accessibility(DW_ACCESS_public)
    2951                            .dwattr $C$DW$194, DW_AT_decl_file("C:/Users/bob/Documents/Projects/induct_forge/RM57Lx_test/P
    2952                            .dwattr $C$DW$194, DW_AT_decl_line(0x55)
    2953                            .dwattr $C$DW$194, DW_AT_decl_column(0x0c)
    2954                    
    2955                    $C$DW$195       .dwtag  DW_TAG_member
    2956                            .dwattr $C$DW$195, DW_AT_type(*$C$DW$T$20)
    2957                            .dwattr $C$DW$195, DW_AT_name("rsvd1")
    2958                            .dwattr $C$DW$195, DW_AT_TI_symbol_name("rsvd1")
    2959                            .dwattr $C$DW$195, DW_AT_data_member_location[DW_OP_plus_uconst 0x30]
    2960                            .dwattr $C$DW$195, DW_AT_accessibility(DW_ACCESS_public)
    2961                            .dwattr $C$DW$195, DW_AT_decl_file("C:/Users/bob/Documents/Projects/induct_forge/RM57Lx_test/P
    2962                            .dwattr $C$DW$195, DW_AT_decl_line(0x56)
    2963                            .dwattr $C$DW$195, DW_AT_decl_column(0x0e)
    2964                    
    2965                    $C$DW$196       .dwtag  DW_TAG_member
    2966                            .dwattr $C$DW$196, DW_AT_type(*$C$DW$T$20)
    2967                            .dwattr $C$DW$196, DW_AT_name("HRSH")
    2968                            .dwattr $C$DW$196, DW_AT_TI_symbol_name("HRSH")
    2969                            .dwattr $C$DW$196, DW_AT_data_member_location[DW_OP_plus_uconst 0x34]
    2970                            .dwattr $C$DW$196, DW_AT_accessibility(DW_ACCESS_public)
TI ARM Assembler PC v16.9.0 Sun Feb 19 22:05:31 2017

Tools Copyright (c) 1996-2015 Texas Instruments Incorporated
C:\Users\bob\AppData\Local\Temp\0664410                              PAGE   55

    2971                            .dwattr $C$DW$196, DW_AT_decl_file("C:/Users/bob/Documents/Projects/induct_forge/RM57Lx_test/P
    2972                            .dwattr $C$DW$196, DW_AT_decl_line(0x57)
    2973                            .dwattr $C$DW$196, DW_AT_decl_column(0x0c)
    2974                    
    2975                    $C$DW$197       .dwtag  DW_TAG_member
    2976                            .dwattr $C$DW$197, DW_AT_type(*$C$DW$T$20)
    2977                            .dwattr $C$DW$197, DW_AT_name("XOR")
    2978                            .dwattr $C$DW$197, DW_AT_TI_symbol_name("XOR")
    2979                            .dwattr $C$DW$197, DW_AT_data_member_location[DW_OP_plus_uconst 0x38]
    2980                            .dwattr $C$DW$197, DW_AT_accessibility(DW_ACCESS_public)
    2981                            .dwattr $C$DW$197, DW_AT_decl_file("C:/Users/bob/Documents/Projects/induct_forge/RM57Lx_test/P
    2982                            .dwattr $C$DW$197, DW_AT_decl_line(0x58)
    2983                            .dwattr $C$DW$197, DW_AT_decl_column(0x0c)
    2984                    
    2985                    $C$DW$198       .dwtag  DW_TAG_member
    2986                            .dwattr $C$DW$198, DW_AT_type(*$C$DW$T$20)
    2987                            .dwattr $C$DW$198, DW_AT_name("REQENS")
    2988                            .dwattr $C$DW$198, DW_AT_TI_symbol_name("REQENS")
    2989                            .dwattr $C$DW$198, DW_AT_data_member_location[DW_OP_plus_uconst 0x3c]
    2990                            .dwattr $C$DW$198, DW_AT_accessibility(DW_ACCESS_public)
    2991                            .dwattr $C$DW$198, DW_AT_decl_file("C:/Users/bob/Documents/Projects/induct_forge/RM57Lx_test/P
    2992                            .dwattr $C$DW$198, DW_AT_decl_line(0x59)
    2993                            .dwattr $C$DW$198, DW_AT_decl_column(0x0c)
    2994                    
    2995                    $C$DW$199       .dwtag  DW_TAG_member
    2996                            .dwattr $C$DW$199, DW_AT_type(*$C$DW$T$20)
    2997                            .dwattr $C$DW$199, DW_AT_name("REQENC")
    2998                            .dwattr $C$DW$199, DW_AT_TI_symbol_name("REQENC")
    2999                            .dwattr $C$DW$199, DW_AT_data_member_location[DW_OP_plus_uconst 0x40]
    3000                            .dwattr $C$DW$199, DW_AT_accessibility(DW_ACCESS_public)
    3001                            .dwattr $C$DW$199, DW_AT_decl_file("C:/Users/bob/Documents/Projects/induct_forge/RM57Lx_test/P
    3002                            .dwattr $C$DW$199, DW_AT_decl_line(0x5a)
    3003                            .dwattr $C$DW$199, DW_AT_decl_column(0x0c)
    3004                    
    3005                    $C$DW$200       .dwtag  DW_TAG_member
    3006                            .dwattr $C$DW$200, DW_AT_type(*$C$DW$T$20)
    3007                            .dwattr $C$DW$200, DW_AT_name("REQDS")
    3008                            .dwattr $C$DW$200, DW_AT_TI_symbol_name("REQDS")
    3009                            .dwattr $C$DW$200, DW_AT_data_member_location[DW_OP_plus_uconst 0x44]
    3010                            .dwattr $C$DW$200, DW_AT_accessibility(DW_ACCESS_public)
    3011                            .dwattr $C$DW$200, DW_AT_decl_file("C:/Users/bob/Documents/Projects/induct_forge/RM57Lx_test/P
    3012                            .dwattr $C$DW$200, DW_AT_decl_line(0x5b)
    3013                            .dwattr $C$DW$200, DW_AT_decl_column(0x0c)
    3014                    
    3015                    $C$DW$201       .dwtag  DW_TAG_member
    3016                            .dwattr $C$DW$201, DW_AT_type(*$C$DW$T$20)
    3017                            .dwattr $C$DW$201, DW_AT_name("rsvd2")
    3018                            .dwattr $C$DW$201, DW_AT_TI_symbol_name("rsvd2")
    3019                            .dwattr $C$DW$201, DW_AT_data_member_location[DW_OP_plus_uconst 0x48]
    3020                            .dwattr $C$DW$201, DW_AT_accessibility(DW_ACCESS_public)
    3021                            .dwattr $C$DW$201, DW_AT_decl_file("C:/Users/bob/Documents/Projects/induct_forge/RM57Lx_test/P
    3022                            .dwattr $C$DW$201, DW_AT_decl_line(0x5c)
    3023                            .dwattr $C$DW$201, DW_AT_decl_column(0x0e)
    3024                    
    3025                    $C$DW$202       .dwtag  DW_TAG_member
TI ARM Assembler PC v16.9.0 Sun Feb 19 22:05:31 2017

Tools Copyright (c) 1996-2015 Texas Instruments Incorporated
C:\Users\bob\AppData\Local\Temp\0664410                              PAGE   56

    3026                            .dwattr $C$DW$202, DW_AT_type(*$C$DW$T$20)
    3027                            .dwattr $C$DW$202, DW_AT_name("DIR")
    3028                            .dwattr $C$DW$202, DW_AT_TI_symbol_name("DIR")
    3029                            .dwattr $C$DW$202, DW_AT_data_member_location[DW_OP_plus_uconst 0x4c]
    3030                            .dwattr $C$DW$202, DW_AT_accessibility(DW_ACCESS_public)
    3031                            .dwattr $C$DW$202, DW_AT_decl_file("C:/Users/bob/Documents/Projects/induct_forge/RM57Lx_test/P
    3032                            .dwattr $C$DW$202, DW_AT_decl_line(0x5d)
    3033                            .dwattr $C$DW$202, DW_AT_decl_column(0x0c)
    3034                    
    3035                    $C$DW$203       .dwtag  DW_TAG_member
    3036                            .dwattr $C$DW$203, DW_AT_type(*$C$DW$T$20)
    3037                            .dwattr $C$DW$203, DW_AT_name("DIN")
    3038                            .dwattr $C$DW$203, DW_AT_TI_symbol_name("DIN")
    3039                            .dwattr $C$DW$203, DW_AT_data_member_location[DW_OP_plus_uconst 0x50]
    3040                            .dwattr $C$DW$203, DW_AT_accessibility(DW_ACCESS_public)
    3041                            .dwattr $C$DW$203, DW_AT_decl_file("C:/Users/bob/Documents/Projects/induct_forge/RM57Lx_test/P
    3042                            .dwattr $C$DW$203, DW_AT_decl_line(0x5e)
    3043                            .dwattr $C$DW$203, DW_AT_decl_column(0x0c)
    3044                    
    3045                    $C$DW$204       .dwtag  DW_TAG_member
    3046                            .dwattr $C$DW$204, DW_AT_type(*$C$DW$T$20)
    3047                            .dwattr $C$DW$204, DW_AT_name("DOUT")
    3048                            .dwattr $C$DW$204, DW_AT_TI_symbol_name("DOUT")
    3049                            .dwattr $C$DW$204, DW_AT_data_member_location[DW_OP_plus_uconst 0x54]
    3050                            .dwattr $C$DW$204, DW_AT_accessibility(DW_ACCESS_public)
    3051                            .dwattr $C$DW$204, DW_AT_decl_file("C:/Users/bob/Documents/Projects/induct_forge/RM57Lx_test/P
    3052                            .dwattr $C$DW$204, DW_AT_decl_line(0x5f)
    3053                            .dwattr $C$DW$204, DW_AT_decl_column(0x0c)
    3054                    
    3055                    $C$DW$205       .dwtag  DW_TAG_member
    3056                            .dwattr $C$DW$205, DW_AT_type(*$C$DW$T$20)
    3057                            .dwattr $C$DW$205, DW_AT_name("DSET")
    3058                            .dwattr $C$DW$205, DW_AT_TI_symbol_name("DSET")
    3059                            .dwattr $C$DW$205, DW_AT_data_member_location[DW_OP_plus_uconst 0x58]
    3060                            .dwattr $C$DW$205, DW_AT_accessibility(DW_ACCESS_public)
    3061                            .dwattr $C$DW$205, DW_AT_decl_file("C:/Users/bob/Documents/Projects/induct_forge/RM57Lx_test/P
    3062                            .dwattr $C$DW$205, DW_AT_decl_line(0x60)
    3063                            .dwattr $C$DW$205, DW_AT_decl_column(0x0c)
    3064                    
    3065                    $C$DW$206       .dwtag  DW_TAG_member
    3066                            .dwattr $C$DW$206, DW_AT_type(*$C$DW$T$20)
    3067                            .dwattr $C$DW$206, DW_AT_name("DCLR")
    3068                            .dwattr $C$DW$206, DW_AT_TI_symbol_name("DCLR")
    3069                            .dwattr $C$DW$206, DW_AT_data_member_location[DW_OP_plus_uconst 0x5c]
    3070                            .dwattr $C$DW$206, DW_AT_accessibility(DW_ACCESS_public)
    3071                            .dwattr $C$DW$206, DW_AT_decl_file("C:/Users/bob/Documents/Projects/induct_forge/RM57Lx_test/P
    3072                            .dwattr $C$DW$206, DW_AT_decl_line(0x61)
    3073                            .dwattr $C$DW$206, DW_AT_decl_column(0x0c)
    3074                    
    3075                    $C$DW$207       .dwtag  DW_TAG_member
    3076                            .dwattr $C$DW$207, DW_AT_type(*$C$DW$T$20)
    3077                            .dwattr $C$DW$207, DW_AT_name("PDR")
    3078                            .dwattr $C$DW$207, DW_AT_TI_symbol_name("PDR")
    3079                            .dwattr $C$DW$207, DW_AT_data_member_location[DW_OP_plus_uconst 0x60]
    3080                            .dwattr $C$DW$207, DW_AT_accessibility(DW_ACCESS_public)
TI ARM Assembler PC v16.9.0 Sun Feb 19 22:05:31 2017

Tools Copyright (c) 1996-2015 Texas Instruments Incorporated
C:\Users\bob\AppData\Local\Temp\0664410                              PAGE   57

    3081                            .dwattr $C$DW$207, DW_AT_decl_file("C:/Users/bob/Documents/Projects/induct_forge/RM57Lx_test/P
    3082                            .dwattr $C$DW$207, DW_AT_decl_line(0x62)
    3083                            .dwattr $C$DW$207, DW_AT_decl_column(0x0c)
    3084                    
    3085                    $C$DW$208       .dwtag  DW_TAG_member
    3086                            .dwattr $C$DW$208, DW_AT_type(*$C$DW$T$20)
    3087                            .dwattr $C$DW$208, DW_AT_name("PULDIS")
    3088                            .dwattr $C$DW$208, DW_AT_TI_symbol_name("PULDIS")
    3089                            .dwattr $C$DW$208, DW_AT_data_member_location[DW_OP_plus_uconst 0x64]
    3090                            .dwattr $C$DW$208, DW_AT_accessibility(DW_ACCESS_public)
    3091                            .dwattr $C$DW$208, DW_AT_decl_file("C:/Users/bob/Documents/Projects/induct_forge/RM57Lx_test/P
    3092                            .dwattr $C$DW$208, DW_AT_decl_line(0x63)
    3093                            .dwattr $C$DW$208, DW_AT_decl_column(0x0c)
    3094                    
    3095                    $C$DW$209       .dwtag  DW_TAG_member
