TI ARM Assembler PC v16.9.0 Thu Feb 16 13:27:09 2017

Tools Copyright (c) 1996-2015 Texas Instruments Incorporated
C:\Users\bob\AppData\Local\Temp\0838410                              PAGE    1

       1                    ;******************************************************************************
       2                    ;* TI ARM C/C++ Codegen                                        PC v16.9.0.LTS *
       3                    ;* Date/Time created: Thu Feb 16 13:27:07 2017                                *
       4                    ;******************************************************************************
       5                            .compiler_opts --abi=eabi --arm_vmrs_si_workaround=off --code_state=32 --diag_wrap=off --embed
       6 00000000                   .state32
       7                    
       8                    $C$DW$CU        .dwtag  DW_TAG_compile_unit
       9                            .dwattr $C$DW$CU, DW_AT_name("../hcg/source/HL_adc.c")
      10                            .dwattr $C$DW$CU, DW_AT_producer("TI TI ARM C/C++ Codegen PC v16.9.0.LTS Copyright (c) 1996-20
      11                            .dwattr $C$DW$CU, DW_AT_TI_version(0x01)
      12                            .dwattr $C$DW$CU, DW_AT_comp_dir("C:\Users\bob\Documents\Projects\induct_forge\RM57Lx_test\Pro
      13 00000000                   .sect   ".const:s_adcSelect"
      14                            .clink
      15                            .align  4
      16                            .elfsym s_adcSelect,SYM_SIZE(24)
      17 00000000           s_adcSelect:
      18 00000000 00000000          .bits   0,32                    ; s_adcSelect[0][0] @ 0
      19 00000004 00000000          .bits   0,32                    ; s_adcSelect[0][1] @ 32
      20 00000008 00000000          .bits   0,32                    ; s_adcSelect[0][2] @ 64
      21 0000000c 00000000          .bits   0,32                    ; s_adcSelect[1][0] @ 96
      22 00000010 00000000          .bits   0,32                    ; s_adcSelect[1][1] @ 128
      23 00000014 00000000          .bits   0,32                    ; s_adcSelect[1][2] @ 160
      24                    
      25                    $C$DW$1 .dwtag  DW_TAG_variable
      26                            .dwattr $C$DW$1, DW_AT_name("s_adcSelect")
      27                            .dwattr $C$DW$1, DW_AT_TI_symbol_name("s_adcSelect")
      28                            .dwattr $C$DW$1, DW_AT_type(*$C$DW$T$83)
      29                            .dwattr $C$DW$1, DW_AT_location[DW_OP_addr s_adcSelect]
      30                            .dwattr $C$DW$1, DW_AT_decl_file("../hcg/source/HL_adc.c")
      31                            .dwattr $C$DW$1, DW_AT_decl_line(0xcd)
      32                            .dwattr $C$DW$1, DW_AT_decl_column(0x15)
      33                    
      34 00000000                   .sect   ".const:s_adcFiFoSize"
      35                            .clink
      36                            .align  4
      37                            .elfsym s_adcFiFoSize,SYM_SIZE(24)
      38 00000000           s_adcFiFoSize:
      39 00000000 00000010          .bits   16,32                   ; s_adcFiFoSize[0][0] @ 0
      40 00000004 00000010          .bits   16,32                   ; s_adcFiFoSize[0][1] @ 32
      41 00000008 00000010          .bits   16,32                   ; s_adcFiFoSize[0][2] @ 64
      42 0000000c 00000010          .bits   16,32                   ; s_adcFiFoSize[1][0] @ 96
      43 00000010 00000010          .bits   16,32                   ; s_adcFiFoSize[1][1] @ 128
      44 00000014 00000010          .bits   16,32                   ; s_adcFiFoSize[1][2] @ 160
      45                    
      46                    $C$DW$2 .dwtag  DW_TAG_variable
      47                            .dwattr $C$DW$2, DW_AT_name("s_adcFiFoSize")
      48                            .dwattr $C$DW$2, DW_AT_TI_symbol_name("s_adcFiFoSize")
      49                            .dwattr $C$DW$2, DW_AT_type(*$C$DW$T$83)
      50                            .dwattr $C$DW$2, DW_AT_location[DW_OP_addr s_adcFiFoSize]
      51                            .dwattr $C$DW$2, DW_AT_decl_file("../hcg/source/HL_adc.c")
      52                            .dwattr $C$DW$2, DW_AT_decl_line(0x17d)
      53                            .dwattr $C$DW$2, DW_AT_decl_column(0x15)
      54                    
      55                    
TI ARM Assembler PC v16.9.0 Thu Feb 16 13:27:09 2017

Tools Copyright (c) 1996-2015 Texas Instruments Incorporated
C:\Users\bob\AppData\Local\Temp\0838410                              PAGE    2

      56                    $C$DW$3 .dwtag  DW_TAG_subprogram
      57                            .dwattr $C$DW$3, DW_AT_name("memset")
      58                            .dwattr $C$DW$3, DW_AT_TI_symbol_name("memset")
      59                            .dwattr $C$DW$3, DW_AT_type(*$C$DW$T$3)
      60                            .dwattr $C$DW$3, DW_AT_declaration
      61                            .dwattr $C$DW$3, DW_AT_external
      62                            .dwendtag $C$DW$3
      63                    
      64                    ;       C:\ti\ccsv7\tools\compiler\ti-cgt-arm_16.9.0.LTS\bin\armacpia.exe -@C:\\Users\\bob\\AppData\\L
      65 00000000                   .sect   ".text"
      66                            .clink
      67                            .armfunc adcInit
      68 00000000                   .state32
      69                            .global adcInit
      70                    
      71                    $C$DW$4 .dwtag  DW_TAG_subprogram
      72                            .dwattr $C$DW$4, DW_AT_name("adcInit")
      73                            .dwattr $C$DW$4, DW_AT_low_pc(adcInit)
      74                            .dwattr $C$DW$4, DW_AT_high_pc(0x00)
      75                            .dwattr $C$DW$4, DW_AT_TI_symbol_name("adcInit")
      76                            .dwattr $C$DW$4, DW_AT_external
      77                            .dwattr $C$DW$4, DW_AT_TI_begin_file("../hcg/source/HL_adc.c")
      78                            .dwattr $C$DW$4, DW_AT_TI_begin_line(0x43)
      79                            .dwattr $C$DW$4, DW_AT_TI_begin_column(0x06)
      80                            .dwattr $C$DW$4, DW_AT_decl_file("../hcg/source/HL_adc.c")
      81                            .dwattr $C$DW$4, DW_AT_decl_line(0x43)
      82                            .dwattr $C$DW$4, DW_AT_decl_column(0x06)
      83                            .dwattr $C$DW$4, DW_AT_TI_max_frame_size(0x00)
      84                            .dwpsn  file "../hcg/source/HL_adc.c",line 68,column 1,is_stmt,address adcInit,isa 2
      85                    
      86                            .dwfde $C$DW$CIE, adcInit
      87                    
      88                    ;*****************************************************************************
      89                    ;* FUNCTION NAME: adcInit                                                    *
      90                    ;*                                                                           *
      91                    ;*   Regs Modified     : A1,A2,V9,SR                                         *
      92                    ;*   Regs Used         : A1,A2,V9,LR,SR                                      *
      93                    ;*   Local Frame Size  : 0 Args + 0 Auto + 0 Save = 0 byte                   *
      94                    ;*****************************************************************************
      95 00000000           adcInit:
      96                    ;* --------------------------------------------------------------------------*
      97                            .dwcfi  cfa_offset, 0
      98                            .dwpsn  file "../hcg/source/HL_adc.c",line 75,column 5,is_stmt,isa 2
      99 00000000 E59F0A7C          LDR       A1, $C$CON1           ; [DPU_4_PIPE0] |75| 
     100 00000004 E3A0C001          MOV       V9, #1                ; [DPU_4_PIPE0] |75| 
     101 00000008 E580C000          STR       V9, [A1, #0]          ; [DPU_4_PIPE0] |75| 
     102                            .dwpsn  file "../hcg/source/HL_adc.c",line 76,column 5,is_stmt,isa 2
     103 0000000c E59F0A70          LDR       A1, $C$CON1           ; [DPU_4_PIPE0] |76| 
     104 00000010 E3A0C000          MOV       V9, #0                ; [DPU_4_PIPE0] |76| 
     105 00000014 E580C000          STR       V9, [A1, #0]          ; [DPU_4_PIPE0] |76| 
     106                            .dwpsn  file "../hcg/source/HL_adc.c",line 79,column 5,is_stmt,isa 2
     107 00000018 E59F0A68          LDR       A1, $C$CON2           ; [DPU_4_PIPE0] |79| 
     108 0000001c E590C000          LDR       V9, [A1, #0]          ; [DPU_4_PIPE0] |79| 
     109 00000020 E38CC102          ORR       V9, V9, #-2147483648  ; [DPU_4_PIPE0] |79| 
     110 00000024 E580C000          STR       V9, [A1, #0]          ; [DPU_4_PIPE0] |79| 
TI ARM Assembler PC v16.9.0 Thu Feb 16 13:27:09 2017

Tools Copyright (c) 1996-2015 Texas Instruments Incorporated
C:\Users\bob\AppData\Local\Temp\0838410                              PAGE    3

     111                            .dwpsn  file "../hcg/source/HL_adc.c",line 82,column 5,is_stmt,isa 2
     112 00000028 E59F0A5C          LDR       A1, $C$CON3           ; [DPU_4_PIPE0] |82| 
     113 0000002c E3A0C007          MOV       V9, #7                ; [DPU_4_PIPE0] |82| 
     114 00000030 E580C000          STR       V9, [A1, #0]          ; [DPU_4_PIPE0] |82| 
     115                            .dwpsn  file "../hcg/source/HL_adc.c",line 85,column 5,is_stmt,isa 2
     116 00000034 E59F0A54          LDR       A1, $C$CON4           ; [DPU_4_PIPE0] |85| 
     117 00000038 E59FCA54          LDR       V9, $C$CON5           ; [DPU_4_PIPE0] |85| 
     118 0000003c E580C000          STR       V9, [A1, #0]          ; [DPU_4_PIPE0] |85| 
     119                            .dwpsn  file "../hcg/source/HL_adc.c",line 86,column 5,is_stmt,isa 2
     120 00000040 E59FCA50          LDR       V9, $C$CON6           ; [DPU_4_PIPE0] |86| 
     121 00000044 E59CC000          LDR       V9, [V9, #0]          ; [DPU_4_PIPE0] |86| 
     122 00000048 E59F0A48          LDR       A1, $C$CON6           ; [DPU_4_PIPE0] |86| 
     123 0000004c E7CFC01F          BFC       V9, #0, #16           ; [DPU_4_PIPE0] |86| 
     124 00000050 E38CC002          ORR       V9, V9, #2            ; [DPU_4_PIPE0] |86| 
     125 00000054 E580C000          STR       V9, [A1, #0]          ; [DPU_4_PIPE0] |86| 
     126                            .dwpsn  file "../hcg/source/HL_adc.c",line 93,column 5,is_stmt,isa 2
     127 00000058 E59F0A3C          LDR       A1, $C$CON7           ; [DPU_4_PIPE0] |93| 
     128 0000005c E3A0C000          MOV       V9, #0                ; [DPU_4_PIPE0] |93| 
     129 00000060 E580C000          STR       V9, [A1, #0]          ; [DPU_4_PIPE0] |93| 
     130                            .dwpsn  file "../hcg/source/HL_adc.c",line 101,column 5,is_stmt,isa 2
     131 00000064 E59F0A34          LDR       A1, $C$CON8           ; [DPU_4_PIPE0] |101| 
     132 00000068 E3A0C000          MOV       V9, #0                ; [DPU_4_PIPE0] |101| 
     133 0000006c E580C000          STR       V9, [A1, #0]          ; [DPU_4_PIPE0] |101| 
     134                            .dwpsn  file "../hcg/source/HL_adc.c",line 105,column 5,is_stmt,isa 2
     135 00000070 E59F0A2C          LDR       A1, $C$CON9           ; [DPU_4_PIPE0] |105| 
     136 00000074 E3A0C000          MOV       V9, #0                ; [DPU_4_PIPE0] |105| 
     137 00000078 E580C000          STR       V9, [A1, #0]          ; [DPU_4_PIPE0] |105| 
     138                            .dwpsn  file "../hcg/source/HL_adc.c",line 111,column 5,is_stmt,isa 2
     139 0000007c E59F0A24          LDR       A1, $C$CON10          ; [DPU_4_PIPE0] |111| 
     140 00000080 E3A0C000          MOV       V9, #0                ; [DPU_4_PIPE0] |111| 
     141 00000084 E580C000          STR       V9, [A1, #0]          ; [DPU_4_PIPE0] |111| 
     142                            .dwpsn  file "../hcg/source/HL_adc.c",line 119,column 5,is_stmt,isa 2
     143 00000088 E59F0A1C          LDR       A1, $C$CON11          ; [DPU_4_PIPE0] |119| 
     144 0000008c E3A0C000          MOV       V9, #0                ; [DPU_4_PIPE0] |119| 
     145 00000090 E580C000          STR       V9, [A1, #0]          ; [DPU_4_PIPE0] |119| 
     146                            .dwpsn  file "../hcg/source/HL_adc.c",line 128,column 5,is_stmt,isa 2
     147 00000094 E59F0A14          LDR       A1, $C$CON12          ; [DPU_4_PIPE0] |128| 
     148 00000098 E3A0C000          MOV       V9, #0                ; [DPU_4_PIPE0] |128| 
     149 0000009c E580C000          STR       V9, [A1, #0]          ; [DPU_4_PIPE0] |128| 
     150                            .dwpsn  file "../hcg/source/HL_adc.c",line 132,column 5,is_stmt,isa 2
     151 000000a0 E59F0A0C          LDR       A1, $C$CON13          ; [DPU_4_PIPE0] |132| 
     152 000000a4 E3A0C000          MOV       V9, #0                ; [DPU_4_PIPE0] |132| 
     153 000000a8 E580C000          STR       V9, [A1, #0]          ; [DPU_4_PIPE0] |132| 
     154                            .dwpsn  file "../hcg/source/HL_adc.c",line 138,column 5,is_stmt,isa 2
     155 000000ac E59F0A04          LDR       A1, $C$CON14          ; [DPU_4_PIPE0] |138| 
     156 000000b0 E3A0C000          MOV       V9, #0                ; [DPU_4_PIPE0] |138| 
     157 000000b4 E580C000          STR       V9, [A1, #0]          ; [DPU_4_PIPE0] |138| 
     158                            .dwpsn  file "../hcg/source/HL_adc.c",line 146,column 5,is_stmt,isa 2
     159 000000b8 E59F09FC          LDR       A1, $C$CON15          ; [DPU_4_PIPE0] |146| 
     160 000000bc E3A0C000          MOV       V9, #0                ; [DPU_4_PIPE0] |146| 
     161 000000c0 E580C000          STR       V9, [A1, #0]          ; [DPU_4_PIPE0] |146| 
     162                            .dwpsn  file "../hcg/source/HL_adc.c",line 155,column 5,is_stmt,isa 2
     163 000000c4 E59F09F4          LDR       A1, $C$CON16          ; [DPU_4_PIPE0] |155| 
     164 000000c8 E3A0C000          MOV       V9, #0                ; [DPU_4_PIPE0] |155| 
     165 000000cc E580C000          STR       V9, [A1, #0]          ; [DPU_4_PIPE0] |155| 
TI ARM Assembler PC v16.9.0 Thu Feb 16 13:27:09 2017

Tools Copyright (c) 1996-2015 Texas Instruments Incorporated
C:\Users\bob\AppData\Local\Temp\0838410                              PAGE    4

     166                            .dwpsn  file "../hcg/source/HL_adc.c",line 159,column 5,is_stmt,isa 2
     167 000000d0 E59F09EC          LDR       A1, $C$CON17          ; [DPU_4_PIPE0] |159| 
     168 000000d4 E3A0C000          MOV       V9, #0                ; [DPU_4_PIPE0] |159| 
     169 000000d8 E580C000          STR       V9, [A1, #0]          ; [DPU_4_PIPE0] |159| 
     170                            .dwpsn  file "../hcg/source/HL_adc.c",line 165,column 5,is_stmt,isa 2
     171 000000dc E59F09E4          LDR       A1, $C$CON18          ; [DPU_4_PIPE0] |165| 
     172 000000e0 E3A0C000          MOV       V9, #0                ; [DPU_4_PIPE0] |165| 
     173 000000e4 E580C000          STR       V9, [A1, #0]          ; [DPU_4_PIPE0] |165| 
     174                            .dwpsn  file "../hcg/source/HL_adc.c",line 169,column 5,is_stmt,isa 2
     175 000000e8 E59F09DC          LDR       A1, $C$CON19          ; [DPU_4_PIPE0] |169| 
     176 000000ec E3A0C000          MOV       V9, #0                ; [DPU_4_PIPE0] |169| 
     177 000000f0 E580C000          STR       V9, [A1, #0]          ; [DPU_4_PIPE0] |169| 
     178                            .dwpsn  file "../hcg/source/HL_adc.c",line 172,column 5,is_stmt,isa 2
     179 000000f4 E59F09D4          LDR       A1, $C$CON20          ; [DPU_4_PIPE0] |172| 
     180 000000f8 E3A0C000          MOV       V9, #0                ; [DPU_4_PIPE0] |172| 
     181 000000fc E580C000          STR       V9, [A1, #0]          ; [DPU_4_PIPE0] |172| 
     182                            .dwpsn  file "../hcg/source/HL_adc.c",line 175,column 2,is_stmt,isa 2
     183 00000100 E59F09CC          LDR       A1, $C$CON21          ; [DPU_4_PIPE0] |175| 
     184 00000104 E3A0C000          MOV       V9, #0                ; [DPU_4_PIPE0] |175| 
     185 00000108 E580C000          STR       V9, [A1, #0]          ; [DPU_4_PIPE0] |175| 
     186                            .dwpsn  file "../hcg/source/HL_adc.c",line 178,column 2,is_stmt,isa 2
     187 0000010c E59F09C4          LDR       A1, $C$CON22          ; [DPU_4_PIPE0] |178| 
     188 00000110 E3A0C001          MOV       V9, #1                ; [DPU_4_PIPE0] |178| 
     189 00000114 E580C000          STR       V9, [A1, #0]          ; [DPU_4_PIPE0] |178| 
     190                            .dwpsn  file "../hcg/source/HL_adc.c",line 181,column 2,is_stmt,isa 2
     191 00000118 E59F09BC          LDR       A1, $C$CON23          ; [DPU_4_PIPE0] |181| 
     192 0000011c E3A0C000          MOV       V9, #0                ; [DPU_4_PIPE0] |181| 
     193 00000120 E580C000          STR       V9, [A1, #0]          ; [DPU_4_PIPE0] |181| 
     194                            .dwpsn  file "../hcg/source/HL_adc.c",line 184,column 5,is_stmt,isa 2
     195 00000124 E59F095C          LDR       A1, $C$CON2           ; [DPU_4_PIPE0] |184| 
     196 00000128 E59F19B0          LDR       A2, $C$CON24          ; [DPU_4_PIPE0] |184| 
     197 0000012c E590C000          LDR       V9, [A1, #0]          ; [DPU_4_PIPE0] |184| 
     198 00000130 E181C00C          ORR       V9, A2, V9            ; [DPU_4_PIPE0] |184| 
     199 00000134 E580C000          STR       V9, [A1, #0]          ; [DPU_4_PIPE0] |184| 
     200                            .dwpsn  file "../hcg/source/HL_adc.c",line 188,column 5,is_stmt,isa 2
     201                    ;* --------------------------------------------------------------------------*
     202                    ;*   BEGIN LOOP ||$C$L1||
     203                    ;*
     204                    ;*   Loop source line                : 188
     205                    ;*   Loop closing brace source line  : 190
     206                    ;*   Known Minimum Trip Count        : 1
     207                    ;*   Known Maximum Trip Count        : 4294967295
     208                    ;*   Known Max Trip Count Factor     : 1
     209                    ;* --------------------------------------------------------------------------*
     210 00000138           ||$C$L1||:    
     211                            .dwpsn  file "../hcg/source/HL_adc.c",line 188,column 12,is_stmt,isa 2
     212 00000138 E59FC958          LDR       V9, $C$CON6           ; [DPU_4_PIPE0] |188| 
     213 0000013c E59CC000          LDR       V9, [V9, #0]          ; [DPU_4_PIPE0] |188| 
     214 00000140 E7CFC01F          BFC       V9, #0, #16           ; [DPU_4_PIPE0] |188| 
     215 00000144 E1B0C82C          MOVS      V9, V9, LSR #16       ; [DPU_4_PIPE0] |188| 
     216 00000148 1AFFFFFE!         BNE       ||$C$L1||             ; [DPU_4_PIPE1] |188| 
     217                            ; BRANCHCC OCCURS {||$C$L1||}    ; [] |188| 
     218                    ;* --------------------------------------------------------------------------*
     219                            .dwpsn  file "../hcg/source/HL_adc.c",line 193,column 5,is_stmt,isa 2
     220 0000014c E59F0990          LDR       A1, $C$CON25          ; [DPU_4_PIPE0] |193| 
TI ARM Assembler PC v16.9.0 Thu Feb 16 13:27:09 2017

Tools Copyright (c) 1996-2015 Texas Instruments Incorporated
C:\Users\bob\AppData\Local\Temp\0838410                              PAGE    5

     221 00000150 E3A0C005          MOV       V9, #5                ; [DPU_4_PIPE0] |193| 
     222 00000154 E580C000          STR       V9, [A1, #0]          ; [DPU_4_PIPE0] |193| 
     223                            .dwpsn  file "../hcg/source/HL_adc.c",line 198,column 1,is_stmt,isa 2
     224                    $C$DW$5 .dwtag  DW_TAG_TI_branch
     225                            .dwattr $C$DW$5, DW_AT_low_pc(0x00)
     226                            .dwattr $C$DW$5, DW_AT_TI_return
     227                    
     228 00000158 E12FFF1E          BX        LR                    ; [DPU_4_PIPE1] 
     229                            ; BRANCH OCCURS                  ; [] 
     230                            .dwattr $C$DW$4, DW_AT_TI_end_file("../hcg/source/HL_adc.c")
     231                            .dwattr $C$DW$4, DW_AT_TI_end_line(0xc6)
     232                            .dwattr $C$DW$4, DW_AT_TI_end_column(0x01)
     233                            .dwendentry
     234                            .dwendtag $C$DW$4
     235                    
     236 0000015c                   .sect   ".text"
     237                            .clink
     238                            .armfunc adcStartConversion
     239 0000015c                   .state32
     240                            .global adcStartConversion
     241                    
     242                    $C$DW$6 .dwtag  DW_TAG_subprogram
     243                            .dwattr $C$DW$6, DW_AT_name("adcStartConversion")
     244                            .dwattr $C$DW$6, DW_AT_low_pc(adcStartConversion)
     245                            .dwattr $C$DW$6, DW_AT_high_pc(0x00)
     246                            .dwattr $C$DW$6, DW_AT_TI_symbol_name("adcStartConversion")
     247                            .dwattr $C$DW$6, DW_AT_external
     248                            .dwattr $C$DW$6, DW_AT_TI_begin_file("../hcg/source/HL_adc.c")
     249                            .dwattr $C$DW$6, DW_AT_TI_begin_line(0x197)
     250                            .dwattr $C$DW$6, DW_AT_TI_begin_column(0x06)
     251                            .dwattr $C$DW$6, DW_AT_decl_file("../hcg/source/HL_adc.c")
     252                            .dwattr $C$DW$6, DW_AT_decl_line(0x197)
     253                            .dwattr $C$DW$6, DW_AT_decl_column(0x06)
     254                            .dwattr $C$DW$6, DW_AT_TI_max_frame_size(0x10)
     255                            .dwpsn  file "../hcg/source/HL_adc.c",line 408,column 1,is_stmt,address adcStartConversion,isa
     256                    
     257                            .dwfde $C$DW$CIE, adcStartConversion
     258                    $C$DW$7 .dwtag  DW_TAG_formal_parameter
     259                            .dwattr $C$DW$7, DW_AT_name("adc")
     260                            .dwattr $C$DW$7, DW_AT_TI_symbol_name("adc")
     261                            .dwattr $C$DW$7, DW_AT_type(*$C$DW$T$49)
     262                            .dwattr $C$DW$7, DW_AT_location[DW_OP_reg0]
     263                    
     264                    $C$DW$8 .dwtag  DW_TAG_formal_parameter
     265                            .dwattr $C$DW$8, DW_AT_name("group")
     266                            .dwattr $C$DW$8, DW_AT_TI_symbol_name("group")
     267                            .dwattr $C$DW$8, DW_AT_type(*$C$DW$T$20)
     268                            .dwattr $C$DW$8, DW_AT_location[DW_OP_reg1]
     269                    
     270                    
     271                    ;*****************************************************************************
     272                    ;* FUNCTION NAME: adcStartConversion                                         *
     273                    ;*                                                                           *
     274                    ;*   Regs Modified     : A1,A2,A3,A4,V9,SP,LR,SR                             *
     275                    ;*   Regs Used         : A1,A2,A3,A4,V9,SP,LR,SR                             *
TI ARM Assembler PC v16.9.0 Thu Feb 16 13:27:09 2017

Tools Copyright (c) 1996-2015 Texas Instruments Incorporated
C:\Users\bob\AppData\Local\Temp\0838410                              PAGE    6

     276                    ;*   Local Frame Size  : 0 Args + 12 Auto + 4 Save = 16 byte                 *
     277                    ;*****************************************************************************
     278 0000015c           adcStartConversion:
     279                    ;* --------------------------------------------------------------------------*
     280                            .dwcfi  cfa_offset, 0
     281 0000015c E92D400E          STMFD     SP!, {A2, A3, A4, LR} ; [DPU_4_PIPE0] 
     282                            .dwcfi  cfa_offset, 16
     283                            .dwcfi  save_reg_to_mem, 14, -4
     284                            .dwcfi  save_reg_to_mem, 3, -8
     285                            .dwcfi  save_reg_to_mem, 2, -12
     286                            .dwcfi  save_reg_to_mem, 1, -16
     287                    $C$DW$9 .dwtag  DW_TAG_variable
     288                            .dwattr $C$DW$9, DW_AT_name("adc")
     289                            .dwattr $C$DW$9, DW_AT_TI_symbol_name("adc")
     290                            .dwattr $C$DW$9, DW_AT_type(*$C$DW$T$49)
     291                            .dwattr $C$DW$9, DW_AT_location[DW_OP_breg13 0]
     292                    
     293                    $C$DW$10        .dwtag  DW_TAG_variable
     294                            .dwattr $C$DW$10, DW_AT_name("group")
     295                            .dwattr $C$DW$10, DW_AT_TI_symbol_name("group")
     296                            .dwattr $C$DW$10, DW_AT_type(*$C$DW$T$20)
     297                            .dwattr $C$DW$10, DW_AT_location[DW_OP_breg13 4]
     298                    
     299                    $C$DW$11        .dwtag  DW_TAG_variable
     300                            .dwattr $C$DW$11, DW_AT_name("index")
     301                            .dwattr $C$DW$11, DW_AT_TI_symbol_name("index")
     302                            .dwattr $C$DW$11, DW_AT_type(*$C$DW$T$20)
     303                            .dwattr $C$DW$11, DW_AT_location[DW_OP_breg13 8]
     304                    
     305 00000160 E58D1004          STR       A2, [SP, #4]          ; [DPU_4_PIPE0] |408| 
     306 00000164 E58D0000          STR       A1, [SP, #0]          ; [DPU_4_PIPE0] |408| 
     307                            .dwpsn  file "../hcg/source/HL_adc.c",line 409,column 18,is_stmt,isa 2
     308 00000168 E59DC000          LDR       V9, [SP, #0]          ; [DPU_4_PIPE0] |409| 
     309 0000016c E37C0921          CMN       V9, #540672           ; [DPU_4_PIPE0] |409| 
     310 00000170 1AFFFFFE!         BNE       ||$C$L2||             ; [DPU_4_PIPE1] |409| 
     311                            ; BRANCHCC OCCURS {||$C$L2||}    ; [] |409| 
     312                    ;* --------------------------------------------------------------------------*
     313 00000174 E3A0C000          MOV       V9, #0                ; [DPU_4_PIPE0] |409| 
     314 00000178 EAFFFFFE!         B         ||$C$L3||             ; [DPU_4_PIPE1] |409| 
     315                            ; BRANCH OCCURS {||$C$L3||}      ; [] |409| 
     316                    ;* --------------------------------------------------------------------------*
     317 0000017c           ||$C$L2||:    
     318 0000017c E3A0C001          MOV       V9, #1                ; [DPU_4_PIPE0] |409| 
     319                    ;* --------------------------------------------------------------------------*
     320 00000180           ||$C$L3||:    
     321 00000180 E58DC008          STR       V9, [SP, #8]          ; [DPU_4_PIPE0] |409| 
     322                            .dwpsn  file "../hcg/source/HL_adc.c",line 415,column 5,is_stmt,isa 2
     323 00000184 E59FE95C          LDR       LR, $C$CON26          ; [DPU_4_PIPE0] |415| 
     324 00000188 E59DC008          LDR       V9, [SP, #8]          ; [DPU_4_PIPE0] |415| 
     325 0000018c E59D2004          LDR       A3, [SP, #4]          ; [DPU_4_PIPE0] |415| 
     326 00000190 E59D0004          LDR       A1, [SP, #4]          ; [DPU_4_PIPE0] |415| 
     327 00000194 E1A0118C          MOV       A2, V9, LSL #3        ; [DPU_4_PIPE1] |415| 
     328 00000198 E59D3000          LDR       A4, [SP, #0]          ; [DPU_4_PIPE0] |415| 
     329 0000019c E081C10C          ADD       V9, A2, V9, LSL #2    ; [DPU_4_PIPE1] |415| 
     330 000001a0 E08EC00C          ADD       V9, LR, V9            ; [DPU_4_PIPE0] |415| 
TI ARM Assembler PC v16.9.0 Thu Feb 16 13:27:09 2017

Tools Copyright (c) 1996-2015 Texas Instruments Incorporated
C:\Users\bob\AppData\Local\Temp\0838410                              PAGE    7

     331 000001a4 E0831102          ADD       A2, A4, A3, LSL #2    ; [DPU_4_PIPE0] |415| 
     332 000001a8 E79CC100          LDR       V9, [V9, +A1, LSL #2] ; [DPU_4_PIPE0] |415| 
     333 000001ac E581C040          STR       V9, [A2, #64]         ; [DPU_4_PIPE0] |415| 
     334                            .dwpsn  file "../hcg/source/HL_adc.c",line 418,column 5,is_stmt,isa 2
     335 000001b0 E59FE934          LDR       LR, $C$CON27          ; [DPU_4_PIPE0] |418| 
     336 000001b4 E59DC008          LDR       V9, [SP, #8]          ; [DPU_4_PIPE0] |418| 
     337 000001b8 E59D2004          LDR       A3, [SP, #4]          ; [DPU_4_PIPE0] |418| 
     338 000001bc E59D0004          LDR       A1, [SP, #4]          ; [DPU_4_PIPE0] |418| 
     339 000001c0 E1A0118C          MOV       A2, V9, LSL #3        ; [DPU_4_PIPE1] |418| 
     340 000001c4 E59D3000          LDR       A4, [SP, #0]          ; [DPU_4_PIPE0] |418| 
     341 000001c8 E081C10C          ADD       V9, A2, V9, LSL #2    ; [DPU_4_PIPE1] |418| 
     342 000001cc E08EC00C          ADD       V9, LR, V9            ; [DPU_4_PIPE0] |418| 
     343 000001d0 E0831102          ADD       A2, A4, A3, LSL #2    ; [DPU_4_PIPE0] |418| 
     344 000001d4 E79CC100          LDR       V9, [V9, +A1, LSL #2] ; [DPU_4_PIPE0] |418| 
     345 000001d8 E581C078          STR       V9, [A2, #120]        ; [DPU_4_PIPE0] |418| 
     346                            .dwpsn  file "../hcg/source/HL_adc.c",line 424,column 1,is_stmt,isa 2
     347                    $C$DW$12        .dwtag  DW_TAG_TI_branch
     348                            .dwattr $C$DW$12, DW_AT_low_pc(0x00)
     349                            .dwattr $C$DW$12, DW_AT_TI_return
     350                    
     351 000001dc E8BD800E          LDMFD     SP!, {A2, A3, A4, PC} ; [DPU_4_PIPE1] 
     352                            .dwcfi  cfa_offset, 0
     353                            ; BRANCH OCCURS                  ; [] 
     354                            .dwattr $C$DW$6, DW_AT_TI_end_file("../hcg/source/HL_adc.c")
     355                            .dwattr $C$DW$6, DW_AT_TI_end_line(0x1a8)
     356                            .dwattr $C$DW$6, DW_AT_TI_end_column(0x01)
     357                            .dwendentry
     358                            .dwendtag $C$DW$6
     359                    
     360 000001e0                   .sect   ".text"
     361                            .clink
     362                            .armfunc adcStopConversion
     363 000001e0                   .state32
     364                            .global adcStopConversion
     365                    
     366                    $C$DW$13        .dwtag  DW_TAG_subprogram
     367                            .dwattr $C$DW$13, DW_AT_name("adcStopConversion")
     368                            .dwattr $C$DW$13, DW_AT_low_pc(adcStopConversion)
     369                            .dwattr $C$DW$13, DW_AT_high_pc(0x00)
     370                            .dwattr $C$DW$13, DW_AT_TI_symbol_name("adcStopConversion")
     371                            .dwattr $C$DW$13, DW_AT_external
     372                            .dwattr $C$DW$13, DW_AT_TI_begin_file("../hcg/source/HL_adc.c")
     373                            .dwattr $C$DW$13, DW_AT_TI_begin_line(0x1bb)
     374                            .dwattr $C$DW$13, DW_AT_TI_begin_column(0x06)
     375                            .dwattr $C$DW$13, DW_AT_decl_file("../hcg/source/HL_adc.c")
     376                            .dwattr $C$DW$13, DW_AT_decl_line(0x1bb)
     377                            .dwattr $C$DW$13, DW_AT_decl_column(0x06)
     378                            .dwattr $C$DW$13, DW_AT_TI_max_frame_size(0x08)
     379                            .dwpsn  file "../hcg/source/HL_adc.c",line 444,column 1,is_stmt,address adcStopConversion,isa 
     380                    
     381                            .dwfde $C$DW$CIE, adcStopConversion
     382                    $C$DW$14        .dwtag  DW_TAG_formal_parameter
     383                            .dwattr $C$DW$14, DW_AT_name("adc")
     384                            .dwattr $C$DW$14, DW_AT_TI_symbol_name("adc")
     385                            .dwattr $C$DW$14, DW_AT_type(*$C$DW$T$49)
TI ARM Assembler PC v16.9.0 Thu Feb 16 13:27:09 2017

Tools Copyright (c) 1996-2015 Texas Instruments Incorporated
C:\Users\bob\AppData\Local\Temp\0838410                              PAGE    8

     386                            .dwattr $C$DW$14, DW_AT_location[DW_OP_reg0]
     387                    
     388                    $C$DW$15        .dwtag  DW_TAG_formal_parameter
     389                            .dwattr $C$DW$15, DW_AT_name("group")
     390                            .dwattr $C$DW$15, DW_AT_TI_symbol_name("group")
     391                            .dwattr $C$DW$15, DW_AT_type(*$C$DW$T$20)
     392                            .dwattr $C$DW$15, DW_AT_location[DW_OP_reg1]
     393                    
     394                    
     395                    ;*****************************************************************************
     396                    ;* FUNCTION NAME: adcStopConversion                                          *
     397                    ;*                                                                           *
     398                    ;*   Regs Modified     : A1,V9,SP                                            *
     399                    ;*   Regs Used         : A1,A2,V9,SP,LR                                      *
     400                    ;*   Local Frame Size  : 0 Args + 8 Auto + 0 Save = 8 byte                   *
     401                    ;*****************************************************************************
     402 000001e0           adcStopConversion:
     403                    ;* --------------------------------------------------------------------------*
     404                            .dwcfi  cfa_offset, 0
     405 000001e0 E24DD008          SUB       SP, SP, #8            ; [DPU_4_PIPE0] 
     406                            .dwcfi  cfa_offset, 8
     407                    $C$DW$16        .dwtag  DW_TAG_variable
     408                            .dwattr $C$DW$16, DW_AT_name("adc")
     409                            .dwattr $C$DW$16, DW_AT_TI_symbol_name("adc")
     410                            .dwattr $C$DW$16, DW_AT_type(*$C$DW$T$49)
     411                            .dwattr $C$DW$16, DW_AT_location[DW_OP_breg13 0]
     412                    
     413                    $C$DW$17        .dwtag  DW_TAG_variable
     414                            .dwattr $C$DW$17, DW_AT_name("group")
     415                            .dwattr $C$DW$17, DW_AT_TI_symbol_name("group")
     416                            .dwattr $C$DW$17, DW_AT_type(*$C$DW$T$20)
     417                            .dwattr $C$DW$17, DW_AT_location[DW_OP_breg13 4]
     418                    
     419 000001e4 E58D1004          STR       A2, [SP, #4]          ; [DPU_4_PIPE0] |444| 
     420 000001e8 E58D0000          STR       A1, [SP, #0]          ; [DPU_4_PIPE0] |444| 
     421                            .dwpsn  file "../hcg/source/HL_adc.c",line 449,column 5,is_stmt,isa 2
     422 000001ec E59DC004          LDR       V9, [SP, #4]          ; [DPU_4_PIPE0] |449| 
     423 000001f0 E59D0000          LDR       A1, [SP, #0]          ; [DPU_4_PIPE0] |449| 
     424 000001f4 E080C10C          ADD       V9, A1, V9, LSL #2    ; [DPU_4_PIPE0] |449| 
     425 000001f8 E3A00000          MOV       A1, #0                ; [DPU_4_PIPE0] |449| 
     426 000001fc E58C0078          STR       A1, [V9, #120]        ; [DPU_4_PIPE0] |449| 
     427                            .dwpsn  file "../hcg/source/HL_adc.c",line 455,column 1,is_stmt,isa 2
     428 00000200 E28DD008          ADD       SP, SP, #8            ; [DPU_4_PIPE0] 
     429                            .dwcfi  cfa_offset, 0
     430                    $C$DW$18        .dwtag  DW_TAG_TI_branch
     431                            .dwattr $C$DW$18, DW_AT_low_pc(0x00)
     432                            .dwattr $C$DW$18, DW_AT_TI_return
     433                    
     434 00000204 E12FFF1E          BX        LR                    ; [DPU_4_PIPE1] 
     435                            ; BRANCH OCCURS                  ; [] 
     436                            .dwattr $C$DW$13, DW_AT_TI_end_file("../hcg/source/HL_adc.c")
     437                            .dwattr $C$DW$13, DW_AT_TI_end_line(0x1c7)
     438                            .dwattr $C$DW$13, DW_AT_TI_end_column(0x01)
     439                            .dwendentry
     440                            .dwendtag $C$DW$13
TI ARM Assembler PC v16.9.0 Thu Feb 16 13:27:09 2017

Tools Copyright (c) 1996-2015 Texas Instruments Incorporated
C:\Users\bob\AppData\Local\Temp\0838410                              PAGE    9

     441                    
     442 00000208                   .sect   ".text"
     443                            .clink
     444                            .armfunc adcResetFiFo
     445 00000208                   .state32
     446                            .global adcResetFiFo
     447                    
     448                    $C$DW$19        .dwtag  DW_TAG_subprogram
     449                            .dwattr $C$DW$19, DW_AT_name("adcResetFiFo")
     450                            .dwattr $C$DW$19, DW_AT_low_pc(adcResetFiFo)
     451                            .dwattr $C$DW$19, DW_AT_high_pc(0x00)
     452                            .dwattr $C$DW$19, DW_AT_TI_symbol_name("adcResetFiFo")
     453                            .dwattr $C$DW$19, DW_AT_external
     454                            .dwattr $C$DW$19, DW_AT_TI_begin_file("../hcg/source/HL_adc.c")
     455                            .dwattr $C$DW$19, DW_AT_TI_begin_line(0x1da)
     456                            .dwattr $C$DW$19, DW_AT_TI_begin_column(0x06)
     457                            .dwattr $C$DW$19, DW_AT_decl_file("../hcg/source/HL_adc.c")
     458                            .dwattr $C$DW$19, DW_AT_decl_line(0x1da)
     459                            .dwattr $C$DW$19, DW_AT_decl_column(0x06)
     460                            .dwattr $C$DW$19, DW_AT_TI_max_frame_size(0x08)
     461                            .dwpsn  file "../hcg/source/HL_adc.c",line 475,column 1,is_stmt,address adcResetFiFo,isa 2
     462                    
     463                            .dwfde $C$DW$CIE, adcResetFiFo
     464                    $C$DW$20        .dwtag  DW_TAG_formal_parameter
     465                            .dwattr $C$DW$20, DW_AT_name("adc")
     466                            .dwattr $C$DW$20, DW_AT_TI_symbol_name("adc")
     467                            .dwattr $C$DW$20, DW_AT_type(*$C$DW$T$49)
     468                            .dwattr $C$DW$20, DW_AT_location[DW_OP_reg0]
     469                    
     470                    $C$DW$21        .dwtag  DW_TAG_formal_parameter
     471                            .dwattr $C$DW$21, DW_AT_name("group")
     472                            .dwattr $C$DW$21, DW_AT_TI_symbol_name("group")
     473                            .dwattr $C$DW$21, DW_AT_type(*$C$DW$T$20)
     474                            .dwattr $C$DW$21, DW_AT_location[DW_OP_reg1]
     475                    
     476                    
     477                    ;*****************************************************************************
     478                    ;* FUNCTION NAME: adcResetFiFo                                               *
     479                    ;*                                                                           *
     480                    ;*   Regs Modified     : A1,V9,SP                                            *
     481                    ;*   Regs Used         : A1,A2,V9,SP,LR                                      *
     482                    ;*   Local Frame Size  : 0 Args + 8 Auto + 0 Save = 8 byte                   *
     483                    ;*****************************************************************************
     484 00000208           adcResetFiFo:
     485                    ;* --------------------------------------------------------------------------*
     486                            .dwcfi  cfa_offset, 0
     487 00000208 E24DD008          SUB       SP, SP, #8            ; [DPU_4_PIPE0] 
     488                            .dwcfi  cfa_offset, 8
     489                    $C$DW$22        .dwtag  DW_TAG_variable
     490                            .dwattr $C$DW$22, DW_AT_name("adc")
     491                            .dwattr $C$DW$22, DW_AT_TI_symbol_name("adc")
     492                            .dwattr $C$DW$22, DW_AT_type(*$C$DW$T$49)
     493                            .dwattr $C$DW$22, DW_AT_location[DW_OP_breg13 0]
     494                    
     495                    $C$DW$23        .dwtag  DW_TAG_variable
TI ARM Assembler PC v16.9.0 Thu Feb 16 13:27:09 2017

Tools Copyright (c) 1996-2015 Texas Instruments Incorporated
C:\Users\bob\AppData\Local\Temp\0838410                              PAGE   10

     496                            .dwattr $C$DW$23, DW_AT_name("group")
     497                            .dwattr $C$DW$23, DW_AT_TI_symbol_name("group")
     498                            .dwattr $C$DW$23, DW_AT_type(*$C$DW$T$20)
     499                            .dwattr $C$DW$23, DW_AT_location[DW_OP_breg13 4]
     500                    
     501 0000020c E58D1004          STR       A2, [SP, #4]          ; [DPU_4_PIPE0] |475| 
     502 00000210 E58D0000          STR       A1, [SP, #0]          ; [DPU_4_PIPE0] |475| 
     503                            .dwpsn  file "../hcg/source/HL_adc.c",line 480,column 5,is_stmt,isa 2
     504 00000214 E59DC004          LDR       V9, [SP, #4]          ; [DPU_4_PIPE0] |480| 
     505 00000218 E59D0000          LDR       A1, [SP, #0]          ; [DPU_4_PIPE0] |480| 
     506 0000021c E080C10C          ADD       V9, A1, V9, LSL #2    ; [DPU_4_PIPE0] |480| 
     507 00000220 E3A00001          MOV       A1, #1                ; [DPU_4_PIPE0] |480| 
     508 00000224 E58C0168          STR       A1, [V9, #360]        ; [DPU_4_PIPE0] |480| 
     509                            .dwpsn  file "../hcg/source/HL_adc.c",line 488,column 1,is_stmt,isa 2
     510 00000228 E28DD008          ADD       SP, SP, #8            ; [DPU_4_PIPE0] 
     511                            .dwcfi  cfa_offset, 0
     512                    $C$DW$24        .dwtag  DW_TAG_TI_branch
     513                            .dwattr $C$DW$24, DW_AT_low_pc(0x00)
     514                            .dwattr $C$DW$24, DW_AT_TI_return
     515                    
     516 0000022c E12FFF1E          BX        LR                    ; [DPU_4_PIPE1] 
     517                            ; BRANCH OCCURS                  ; [] 
     518                            .dwattr $C$DW$19, DW_AT_TI_end_file("../hcg/source/HL_adc.c")
     519                            .dwattr $C$DW$19, DW_AT_TI_end_line(0x1e8)
     520                            .dwattr $C$DW$19, DW_AT_TI_end_column(0x01)
     521                            .dwendentry
     522                            .dwendtag $C$DW$19
     523                    
     524 00000230                   .sect   ".text"
     525                            .clink
     526                            .armfunc adcGetData
     527 00000230                   .state32
     528                            .global adcGetData
     529                    
     530                    $C$DW$25        .dwtag  DW_TAG_subprogram
     531                            .dwattr $C$DW$25, DW_AT_name("adcGetData")
     532                            .dwattr $C$DW$25, DW_AT_low_pc(adcGetData)
     533                            .dwattr $C$DW$25, DW_AT_high_pc(0x00)
     534                            .dwattr $C$DW$25, DW_AT_TI_symbol_name("adcGetData")
     535                            .dwattr $C$DW$25, DW_AT_external
     536                            .dwattr $C$DW$25, DW_AT_type(*$C$DW$T$20)
     537                            .dwattr $C$DW$25, DW_AT_TI_begin_file("../hcg/source/HL_adc.c")
     538                            .dwattr $C$DW$25, DW_AT_TI_begin_line(0x1fd)
     539                            .dwattr $C$DW$25, DW_AT_TI_begin_column(0x08)
     540                            .dwattr $C$DW$25, DW_AT_decl_file("../hcg/source/HL_adc.c")
     541                            .dwattr $C$DW$25, DW_AT_decl_line(0x1fd)
     542                            .dwattr $C$DW$25, DW_AT_decl_column(0x08)
     543                            .dwattr $C$DW$25, DW_AT_TI_max_frame_size(0x28)
     544                            .dwpsn  file "../hcg/source/HL_adc.c",line 510,column 1,is_stmt,address adcGetData,isa 2
     545                    
     546                            .dwfde $C$DW$CIE, adcGetData
     547                    $C$DW$26        .dwtag  DW_TAG_formal_parameter
     548                            .dwattr $C$DW$26, DW_AT_name("adc")
     549                            .dwattr $C$DW$26, DW_AT_TI_symbol_name("adc")
     550                            .dwattr $C$DW$26, DW_AT_type(*$C$DW$T$49)
TI ARM Assembler PC v16.9.0 Thu Feb 16 13:27:09 2017

Tools Copyright (c) 1996-2015 Texas Instruments Incorporated
C:\Users\bob\AppData\Local\Temp\0838410                              PAGE   11

     551                            .dwattr $C$DW$26, DW_AT_location[DW_OP_reg0]
     552                    
     553                    $C$DW$27        .dwtag  DW_TAG_formal_parameter
     554                            .dwattr $C$DW$27, DW_AT_name("group")
     555                            .dwattr $C$DW$27, DW_AT_TI_symbol_name("group")
     556                            .dwattr $C$DW$27, DW_AT_type(*$C$DW$T$20)
     557                            .dwattr $C$DW$27, DW_AT_location[DW_OP_reg1]
     558                    
     559                    $C$DW$28        .dwtag  DW_TAG_formal_parameter
     560                            .dwattr $C$DW$28, DW_AT_name("data")
     561                            .dwattr $C$DW$28, DW_AT_TI_symbol_name("data")
     562                            .dwattr $C$DW$28, DW_AT_type(*$C$DW$T$74)
     563                            .dwattr $C$DW$28, DW_AT_location[DW_OP_reg2]
     564                    
     565                    
     566                    ;*****************************************************************************
     567                    ;* FUNCTION NAME: adcGetData                                                 *
     568                    ;*                                                                           *
     569                    ;*   Regs Modified     : A1,A2,A3,A4,V9,SP,LR,SR                             *
     570                    ;*   Regs Used         : A1,A2,A3,A4,V9,SP,LR,SR                             *
     571                    ;*   Local Frame Size  : 0 Args + 36 Auto + 4 Save = 40 byte                 *
     572                    ;*****************************************************************************
     573 00000230           adcGetData:
     574                    ;* --------------------------------------------------------------------------*
     575                            .dwcfi  cfa_offset, 0
     576 00000230 E92D4000          STMFD     SP!, {LR}             ; [DPU_4_PIPE0] 
     577                            .dwcfi  cfa_offset, 4
     578                            .dwcfi  save_reg_to_mem, 14, -4
     579 00000234 E24DD024          SUB       SP, SP, #36           ; [DPU_4_PIPE0] 
     580                            .dwcfi  cfa_offset, 40
     581                    $C$DW$29        .dwtag  DW_TAG_variable
     582                            .dwattr $C$DW$29, DW_AT_name("adc")
     583                            .dwattr $C$DW$29, DW_AT_TI_symbol_name("adc")
     584                            .dwattr $C$DW$29, DW_AT_type(*$C$DW$T$49)
     585                            .dwattr $C$DW$29, DW_AT_location[DW_OP_breg13 0]
     586                    
     587                    $C$DW$30        .dwtag  DW_TAG_variable
     588                            .dwattr $C$DW$30, DW_AT_name("group")
     589                            .dwattr $C$DW$30, DW_AT_TI_symbol_name("group")
     590                            .dwattr $C$DW$30, DW_AT_type(*$C$DW$T$20)
     591                            .dwattr $C$DW$30, DW_AT_location[DW_OP_breg13 4]
     592                    
     593                    $C$DW$31        .dwtag  DW_TAG_variable
     594                            .dwattr $C$DW$31, DW_AT_name("data")
     595                            .dwattr $C$DW$31, DW_AT_TI_symbol_name("data")
     596                            .dwattr $C$DW$31, DW_AT_type(*$C$DW$T$74)
     597                            .dwattr $C$DW$31, DW_AT_location[DW_OP_breg13 8]
     598                    
     599                    $C$DW$32        .dwtag  DW_TAG_variable
     600                            .dwattr $C$DW$32, DW_AT_name("i")
     601                            .dwattr $C$DW$32, DW_AT_TI_symbol_name("i")
     602                            .dwattr $C$DW$32, DW_AT_type(*$C$DW$T$20)
     603                            .dwattr $C$DW$32, DW_AT_location[DW_OP_breg13 12]
     604                    
     605                    $C$DW$33        .dwtag  DW_TAG_variable
TI ARM Assembler PC v16.9.0 Thu Feb 16 13:27:09 2017

Tools Copyright (c) 1996-2015 Texas Instruments Incorporated
C:\Users\bob\AppData\Local\Temp\0838410                              PAGE   12

     606                            .dwattr $C$DW$33, DW_AT_name("buf")
     607                            .dwattr $C$DW$33, DW_AT_TI_symbol_name("buf")
     608                            .dwattr $C$DW$33, DW_AT_type(*$C$DW$T$20)
     609                            .dwattr $C$DW$33, DW_AT_location[DW_OP_breg13 16]
     610                    
     611                    $C$DW$34        .dwtag  DW_TAG_variable
     612                            .dwattr $C$DW$34, DW_AT_name("mode")
     613                            .dwattr $C$DW$34, DW_AT_TI_symbol_name("mode")
     614                            .dwattr $C$DW$34, DW_AT_type(*$C$DW$T$20)
     615                            .dwattr $C$DW$34, DW_AT_location[DW_OP_breg13 20]
     616                    
     617                    $C$DW$35        .dwtag  DW_TAG_variable
     618                            .dwattr $C$DW$35, DW_AT_name("index")
     619                            .dwattr $C$DW$35, DW_AT_TI_symbol_name("index")
     620                            .dwattr $C$DW$35, DW_AT_type(*$C$DW$T$20)
     621                            .dwattr $C$DW$35, DW_AT_location[DW_OP_breg13 24]
     622                    
     623                    $C$DW$36        .dwtag  DW_TAG_variable
     624                            .dwattr $C$DW$36, DW_AT_name("count")
     625                            .dwattr $C$DW$36, DW_AT_TI_symbol_name("count")
     626                            .dwattr $C$DW$36, DW_AT_type(*$C$DW$T$20)
     627                            .dwattr $C$DW$36, DW_AT_location[DW_OP_breg13 28]
     628                    
     629                    $C$DW$37        .dwtag  DW_TAG_variable
     630                            .dwattr $C$DW$37, DW_AT_name("ptr")
     631                            .dwattr $C$DW$37, DW_AT_TI_symbol_name("ptr")
     632                            .dwattr $C$DW$37, DW_AT_type(*$C$DW$T$74)
     633                            .dwattr $C$DW$37, DW_AT_location[DW_OP_breg13 32]
     634                    
     635 00000238 E58D2008          STR       A3, [SP, #8]          ; [DPU_4_PIPE0] |510| 
     636 0000023c E58D1004          STR       A2, [SP, #4]          ; [DPU_4_PIPE0] |510| 
     637 00000240 E58D0000          STR       A1, [SP, #0]          ; [DPU_4_PIPE0] |510| 
     638                            .dwpsn  file "../hcg/source/HL_adc.c",line 514,column 19,is_stmt,isa 2
     639 00000244 E59DC000          LDR       V9, [SP, #0]          ; [DPU_4_PIPE0] |514| 
     640 00000248 E37C0921          CMN       V9, #540672           ; [DPU_4_PIPE0] |514| 
     641 0000024c 1AFFFFFE!         BNE       ||$C$L4||             ; [DPU_4_PIPE1] |514| 
     642                            ; BRANCHCC OCCURS {||$C$L4||}    ; [] |514| 
     643                    ;* --------------------------------------------------------------------------*
     644 00000250 E3A0C000          MOV       V9, #0                ; [DPU_4_PIPE0] |514| 
     645 00000254 EAFFFFFE!         B         ||$C$L5||             ; [DPU_4_PIPE1] |514| 
     646                            ; BRANCH OCCURS {||$C$L5||}      ; [] |514| 
     647                    ;* --------------------------------------------------------------------------*
     648 00000258           ||$C$L4||:    
     649 00000258 E3A0C001          MOV       V9, #1                ; [DPU_4_PIPE0] |514| 
     650                    ;* --------------------------------------------------------------------------*
     651 0000025c           ||$C$L5||:    
     652 0000025c E58DC018          STR       V9, [SP, #24]         ; [DPU_4_PIPE0] |514| 
     653                            .dwpsn  file "../hcg/source/HL_adc.c",line 515,column 24,is_stmt,isa 2
     654 00000260 E59DC004          LDR       V9, [SP, #4]          ; [DPU_4_PIPE0] |515| 
     655 00000264 E59D0000          LDR       A1, [SP, #0]          ; [DPU_4_PIPE0] |515| 
     656 00000268 E080C10C          ADD       V9, A1, V9, LSL #2    ; [DPU_4_PIPE0] |515| 
     657 0000026c E59CC040          LDR       V9, [V9, #64]         ; [DPU_4_PIPE0] |515| 
     658 00000270 E35C0C01          CMP       V9, #256              ; [DPU_4_PIPE0] |515| 
     659 00000274 3AFFFFFE!         BCC       ||$C$L6||             ; [DPU_4_PIPE1] |515| 
     660                            ; BRANCHCC OCCURS {||$C$L6||}    ; [] |515| 
TI ARM Assembler PC v16.9.0 Thu Feb 16 13:27:09 2017

Tools Copyright (c) 1996-2015 Texas Instruments Incorporated
C:\Users\bob\AppData\Local\Temp\0838410                              PAGE   13

     661                    ;* --------------------------------------------------------------------------*
     662 00000278 E59DC018          LDR       V9, [SP, #24]         ; [DPU_4_PIPE0] |515| 
     663 0000027c E59D0004          LDR       A1, [SP, #4]          ; [DPU_4_PIPE0] |515| 
     664 00000280 E59F2860          LDR       A3, $C$CON26          ; [DPU_4_PIPE0] |515| 
     665 00000284 E1A0118C          MOV       A2, V9, LSL #3        ; [DPU_4_PIPE1] |515| 
     666 00000288 E081C10C          ADD       V9, A2, V9, LSL #2    ; [DPU_4_PIPE0] |515| 
     667 0000028c E082C00C          ADD       V9, A3, V9            ; [DPU_4_PIPE0] |515| 
     668 00000290 E79CC100          LDR       V9, [V9, +A1, LSL #2] ; [DPU_4_PIPE0] |515| 
     669 00000294 EAFFFFFE!         B         ||$C$L7||             ; [DPU_4_PIPE1] |515| 
     670                            ; BRANCH OCCURS {||$C$L7||}      ; [] |515| 
     671                    ;* --------------------------------------------------------------------------*
     672 00000298           ||$C$L6||:    
     673 00000298 E59DC018          LDR       V9, [SP, #24]         ; [DPU_4_PIPE0] |515| 
     674 0000029c E59D0004          LDR       A1, [SP, #4]          ; [DPU_4_PIPE0] |515| 
     675 000002a0 E59D1000          LDR       A2, [SP, #0]          ; [DPU_4_PIPE0] |515| 
     676 000002a4 E59FE83C          LDR       LR, $C$CON26          ; [DPU_4_PIPE0] |515| 
     677 000002a8 E1A0318C          MOV       A4, V9, LSL #3        ; [DPU_4_PIPE1] |515| 
     678 000002ac E59D2004          LDR       A3, [SP, #4]          ; [DPU_4_PIPE0] |515| 
     679 000002b0 E0810100          ADD       A1, A2, A1, LSL #2    ; [DPU_4_PIPE1] |515| 
     680 000002b4 E083C10C          ADD       V9, A4, V9, LSL #2    ; [DPU_4_PIPE0] |515| 
     681 000002b8 E08EC00C          ADD       V9, LR, V9            ; [DPU_4_PIPE0] |515| 
     682 000002bc E5900040          LDR       A1, [A1, #64]         ; [DPU_4_PIPE0] |515| 
     683 000002c0 E79CC102          LDR       V9, [V9, +A3, LSL #2] ; [DPU_4_PIPE0] |515| 
     684 000002c4 E20000FF          AND       A1, A1, #255          ; [DPU_4_PIPE0] |515| 
     685 000002c8 E04CC000          SUB       V9, V9, A1            ; [DPU_4_PIPE0] |515| 
     686                    ;* --------------------------------------------------------------------------*
     687 000002cc           ||$C$L7||:    
     688 000002cc E58DC01C          STR       V9, [SP, #28]         ; [DPU_4_PIPE0] |515| 
     689                            .dwpsn  file "../hcg/source/HL_adc.c",line 516,column 20,is_stmt,isa 2
     690 000002d0 E59DC008          LDR       V9, [SP, #8]          ; [DPU_4_PIPE0] |516| 
     691 000002d4 E58DC020          STR       V9, [SP, #32]         ; [DPU_4_PIPE0] |516| 
     692                            .dwpsn  file "../hcg/source/HL_adc.c",line 521,column 5,is_stmt,isa 2
     693 000002d8 E59DC000          LDR       V9, [SP, #0]          ; [DPU_4_PIPE0] |521| 
     694 000002dc E59CC004          LDR       V9, [V9, #4]          ; [DPU_4_PIPE0] |521| 
     695 000002e0 E20CC102          AND       V9, V9, #-2147483648  ; [DPU_4_PIPE0] |521| 
     696 000002e4 E58DC014          STR       V9, [SP, #20]         ; [DPU_4_PIPE0] |521| 
     697                            .dwpsn  file "../hcg/source/HL_adc.c",line 523,column 5,is_stmt,isa 2
     698 000002e8 E59DC014          LDR       V9, [SP, #20]         ; [DPU_4_PIPE0] |523| 
     699 000002ec E37C0102          CMN       V9, #-2147483648      ; [DPU_4_PIPE0] |523| 
     700 000002f0 1AFFFFFE!         BNE       ||$C$L9||             ; [DPU_4_PIPE1] |523| 
     701                            ; BRANCHCC OCCURS {||$C$L9||}    ; [] |523| 
     702                    ;* --------------------------------------------------------------------------*
     703                            .dwpsn  file "../hcg/source/HL_adc.c",line 526,column 14,is_stmt,isa 2
     704 000002f4 E3A0C000          MOV       V9, #0                ; [DPU_4_PIPE0] |526| 
     705 000002f8 E58DC00C          STR       V9, [SP, #12]         ; [DPU_4_PIPE0] |526| 
     706                            .dwpsn  file "../hcg/source/HL_adc.c",line 526,column 22,is_stmt,isa 2
     707 000002fc E59DC01C          LDR       V9, [SP, #28]         ; [DPU_4_PIPE0] |526| 
     708 00000300 E59D000C          LDR       A1, [SP, #12]         ; [DPU_4_PIPE0] |526| 
     709 00000304 E15C0000          CMP       V9, A1                ; [DPU_4_PIPE0] |526| 
     710 00000308 9AFFFFFE!         BLS       ||$C$L11||            ; [DPU_4_PIPE1] |526| 
     711                            ; BRANCHCC OCCURS {||$C$L11||}   ; [] |526| 
     712                    ;* --------------------------------------------------------------------------*
     713                    ;*   BEGIN LOOP ||$C$L8||
     714                    ;*
     715                    ;*   Loop source line                : 526
TI ARM Assembler PC v16.9.0 Thu Feb 16 13:27:09 2017

Tools Copyright (c) 1996-2015 Texas Instruments Incorporated
C:\Users\bob\AppData\Local\Temp\0838410                              PAGE   14

     716                    ;*   Loop closing brace source line  : 534
     717                    ;*   Known Minimum Trip Count        : 1
     718                    ;*   Known Maximum Trip Count        : 4294967295
     719                    ;*   Known Max Trip Count Factor     : 1
     720                    ;* --------------------------------------------------------------------------*
     721 0000030c           ||$C$L8||:    
     722                            .dwpsn  file "../hcg/source/HL_adc.c",line 528,column 11,is_stmt,isa 2
     723 0000030c E59DC004          LDR       V9, [SP, #4]          ; [DPU_4_PIPE0] |528| 
     724 00000310 E59D0000          LDR       A1, [SP, #0]          ; [DPU_4_PIPE0] |528| 
     725 00000314 E080C28C          ADD       V9, A1, V9, LSL #5    ; [DPU_4_PIPE0] |528| 
     726 00000318 E59CC090          LDR       V9, [V9, #144]        ; [DPU_4_PIPE0] |528| 
     727 0000031c E58DC010          STR       V9, [SP, #16]         ; [DPU_4_PIPE0] |528| 
     728                            .dwpsn  file "../hcg/source/HL_adc.c",line 530,column 11,is_stmt,isa 2
     729 00000320 E59D0020          LDR       A1, [SP, #32]         ; [DPU_4_PIPE0] |530| 
     730 00000324 E59DC010          LDR       V9, [SP, #16]         ; [DPU_4_PIPE0] |530| 
     731 00000328 E7DFC61F          BFC       V9, #12, #20          ; [DPU_4_PIPE0] |530| 
     732 0000032c E1C0C0B4          STRH      V9, [A1, #4]          ; [DPU_4_PIPE0] |530| 
     733                            .dwpsn  file "../hcg/source/HL_adc.c",line 531,column 11,is_stmt,isa 2
     734 00000330 E59D0020          LDR       A1, [SP, #32]         ; [DPU_4_PIPE0] |531| 
     735 00000334 E59DC010          LDR       V9, [SP, #16]         ; [DPU_4_PIPE0] |531| 
     736 00000338 E7E4C85C          UBFX      V9, V9, #16, #5       ; [DPU_4_PIPE0] |531| 
     737 0000033c E580C000          STR       V9, [A1, #0]          ; [DPU_4_PIPE0] |531| 
     738                            .dwpsn  file "../hcg/source/HL_adc.c",line 533,column 5,is_stmt,isa 2
     739 00000340 E59DC020          LDR       V9, [SP, #32]         ; [DPU_4_PIPE0] |533| 
     740 00000344 E28CC008          ADD       V9, V9, #8            ; [DPU_4_PIPE0] |533| 
     741 00000348 E58DC020          STR       V9, [SP, #32]         ; [DPU_4_PIPE0] |533| 
     742                            .dwpsn  file "../hcg/source/HL_adc.c",line 526,column 33,is_stmt,isa 2
     743 0000034c E59DC00C          LDR       V9, [SP, #12]         ; [DPU_4_PIPE0] |526| 
     744 00000350 E28CC001          ADD       V9, V9, #1            ; [DPU_4_PIPE0] |526| 
     745 00000354 E58DC00C          STR       V9, [SP, #12]         ; [DPU_4_PIPE0] |526| 
     746                            .dwpsn  file "../hcg/source/HL_adc.c",line 526,column 22,is_stmt,isa 2
     747 00000358 E59DC01C          LDR       V9, [SP, #28]         ; [DPU_4_PIPE0] |526| 
     748 0000035c E59D000C          LDR       A1, [SP, #12]         ; [DPU_4_PIPE0] |526| 
     749 00000360 E15C0000          CMP       V9, A1                ; [DPU_4_PIPE0] |526| 
     750 00000364 8AFFFFFE!         BHI       ||$C$L8||             ; [DPU_4_PIPE1] |526| 
     751                            ; BRANCHCC OCCURS {||$C$L8||}    ; [] |526| 
     752                    ;* --------------------------------------------------------------------------*
     753                            .dwpsn  file "../hcg/source/HL_adc.c",line 535,column 7,is_stmt,isa 2
     754 00000368 EAFFFFFE!         B         ||$C$L11||            ; [DPU_4_PIPE1] |535| 
     755                            ; BRANCH OCCURS {||$C$L11||}     ; [] |535| 
     756                    ;* --------------------------------------------------------------------------*
     757 0000036c           ||$C$L9||:    
     758                            .dwpsn  file "../hcg/source/HL_adc.c",line 539,column 14,is_stmt,isa 2
     759 0000036c E3A0C000          MOV       V9, #0                ; [DPU_4_PIPE0] |539| 
     760 00000370 E58DC00C          STR       V9, [SP, #12]         ; [DPU_4_PIPE0] |539| 
     761                            .dwpsn  file "../hcg/source/HL_adc.c",line 539,column 22,is_stmt,isa 2
     762 00000374 E59DC01C          LDR       V9, [SP, #28]         ; [DPU_4_PIPE0] |539| 
     763 00000378 E59D000C          LDR       A1, [SP, #12]         ; [DPU_4_PIPE0] |539| 
     764 0000037c E15C0000          CMP       V9, A1                ; [DPU_4_PIPE0] |539| 
     765 00000380 9AFFFFFE!         BLS       ||$C$L11||            ; [DPU_4_PIPE1] |539| 
     766                            ; BRANCHCC OCCURS {||$C$L11||}   ; [] |539| 
     767                    ;* --------------------------------------------------------------------------*
     768                    ;*   BEGIN LOOP ||$C$L10||
     769                    ;*
     770                    ;*   Loop source line                : 539
TI ARM Assembler PC v16.9.0 Thu Feb 16 13:27:09 2017

Tools Copyright (c) 1996-2015 Texas Instruments Incorporated
C:\Users\bob\AppData\Local\Temp\0838410                              PAGE   15

     771                    ;*   Loop closing brace source line  : 547
     772                    ;*   Known Minimum Trip Count        : 1
     773                    ;*   Known Maximum Trip Count        : 4294967295
     774                    ;*   Known Max Trip Count Factor     : 1
     775                    ;* --------------------------------------------------------------------------*
     776 00000384           ||$C$L10||:    
     777                            .dwpsn  file "../hcg/source/HL_adc.c",line 541,column 11,is_stmt,isa 2
     778 00000384 E59DC004          LDR       V9, [SP, #4]          ; [DPU_4_PIPE0] |541| 
     779 00000388 E59D0000          LDR       A1, [SP, #0]          ; [DPU_4_PIPE0] |541| 
     780 0000038c E080C28C          ADD       V9, A1, V9, LSL #5    ; [DPU_4_PIPE0] |541| 
     781 00000390 E59CC090          LDR       V9, [V9, #144]        ; [DPU_4_PIPE0] |541| 
     782 00000394 E58DC010          STR       V9, [SP, #16]         ; [DPU_4_PIPE0] |541| 
     783                            .dwpsn  file "../hcg/source/HL_adc.c",line 543,column 11,is_stmt,isa 2
     784 00000398 E59D0020          LDR       A1, [SP, #32]         ; [DPU_4_PIPE0] |543| 
     785 0000039c E59DC010          LDR       V9, [SP, #16]         ; [DPU_4_PIPE0] |543| 
     786 000003a0 E7DFC51F          BFC       V9, #10, #22          ; [DPU_4_PIPE0] |543| 
     787 000003a4 E1C0C0B4          STRH      V9, [A1, #4]          ; [DPU_4_PIPE0] |543| 
     788                            .dwpsn  file "../hcg/source/HL_adc.c",line 544,column 11,is_stmt,isa 2
     789 000003a8 E59D0020          LDR       A1, [SP, #32]         ; [DPU_4_PIPE0] |544| 
     790 000003ac E59DC010          LDR       V9, [SP, #16]         ; [DPU_4_PIPE0] |544| 
     791 000003b0 E7E4C55C          UBFX      V9, V9, #10, #5       ; [DPU_4_PIPE0] |544| 
     792 000003b4 E580C000          STR       V9, [A1, #0]          ; [DPU_4_PIPE0] |544| 
     793                            .dwpsn  file "../hcg/source/HL_adc.c",line 546,column 5,is_stmt,isa 2
     794 000003b8 E59DC020          LDR       V9, [SP, #32]         ; [DPU_4_PIPE0] |546| 
     795 000003bc E28CC008          ADD       V9, V9, #8            ; [DPU_4_PIPE0] |546| 
     796 000003c0 E58DC020          STR       V9, [SP, #32]         ; [DPU_4_PIPE0] |546| 
     797                            .dwpsn  file "../hcg/source/HL_adc.c",line 539,column 33,is_stmt,isa 2
     798 000003c4 E59DC00C          LDR       V9, [SP, #12]         ; [DPU_4_PIPE0] |539| 
     799 000003c8 E28CC001          ADD       V9, V9, #1            ; [DPU_4_PIPE0] |539| 
     800 000003cc E58DC00C          STR       V9, [SP, #12]         ; [DPU_4_PIPE0] |539| 
     801                            .dwpsn  file "../hcg/source/HL_adc.c",line 539,column 22,is_stmt,isa 2
     802 000003d0 E59DC01C          LDR       V9, [SP, #28]         ; [DPU_4_PIPE0] |539| 
     803 000003d4 E59D000C          LDR       A1, [SP, #12]         ; [DPU_4_PIPE0] |539| 
     804 000003d8 E15C0000          CMP       V9, A1                ; [DPU_4_PIPE0] |539| 
     805 000003dc 8AFFFFFE!         BHI       ||$C$L10||            ; [DPU_4_PIPE1] |539| 
     806                            ; BRANCHCC OCCURS {||$C$L10||}   ; [] |539| 
     807                    ;* --------------------------------------------------------------------------*
     808 000003e0           ||$C$L11||:    
     809                            .dwpsn  file "../hcg/source/HL_adc.c",line 551,column 5,is_stmt,isa 2
     810 000003e0 E59DC004          LDR       V9, [SP, #4]          ; [DPU_4_PIPE0] |551| 
     811 000003e4 E59D0000          LDR       A1, [SP, #0]          ; [DPU_4_PIPE0] |551| 
     812 000003e8 E080C10C          ADD       V9, A1, V9, LSL #2    ; [DPU_4_PIPE0] |551| 
     813 000003ec E3A00009          MOV       A1, #9                ; [DPU_4_PIPE0] |551| 
     814 000003f0 E58C0034          STR       A1, [V9, #52]         ; [DPU_4_PIPE0] |551| 
     815                            .dwpsn  file "../hcg/source/HL_adc.c",line 560,column 5,is_stmt,isa 2
     816 000003f4 E59D001C          LDR       A1, [SP, #28]         ; [DPU_4_PIPE0] |560| 
     817                            .dwpsn  file "../hcg/source/HL_adc.c",line 561,column 1,is_stmt,isa 2
     818 000003f8 E28DD024          ADD       SP, SP, #36           ; [DPU_4_PIPE0] 
     819                            .dwcfi  cfa_offset, 4
     820                    $C$DW$38        .dwtag  DW_TAG_TI_branch
     821                            .dwattr $C$DW$38, DW_AT_low_pc(0x00)
     822                            .dwattr $C$DW$38, DW_AT_TI_return
     823                    
     824 000003fc E8BD8000          LDMFD     SP!, {PC}             ; [DPU_4_PIPE1] 
     825                            .dwcfi  cfa_offset, 0
TI ARM Assembler PC v16.9.0 Thu Feb 16 13:27:09 2017

Tools Copyright (c) 1996-2015 Texas Instruments Incorporated
C:\Users\bob\AppData\Local\Temp\0838410                              PAGE   16

     826                            ; BRANCH OCCURS                  ; [] 
     827                            .dwattr $C$DW$25, DW_AT_TI_end_file("../hcg/source/HL_adc.c")
     828                            .dwattr $C$DW$25, DW_AT_TI_end_line(0x231)
     829                            .dwattr $C$DW$25, DW_AT_TI_end_column(0x01)
     830                            .dwendentry
     831                            .dwendtag $C$DW$25
     832                    
     833 00000400                   .sect   ".text"
     834                            .clink
     835                            .armfunc adcIsFifoFull
     836 00000400                   .state32
     837                            .global adcIsFifoFull
     838                    
     839                    $C$DW$39        .dwtag  DW_TAG_subprogram
     840                            .dwattr $C$DW$39, DW_AT_name("adcIsFifoFull")
     841                            .dwattr $C$DW$39, DW_AT_low_pc(adcIsFifoFull)
     842                            .dwattr $C$DW$39, DW_AT_high_pc(0x00)
     843                            .dwattr $C$DW$39, DW_AT_TI_symbol_name("adcIsFifoFull")
     844                            .dwattr $C$DW$39, DW_AT_external
     845                            .dwattr $C$DW$39, DW_AT_type(*$C$DW$T$20)
     846                            .dwattr $C$DW$39, DW_AT_TI_begin_file("../hcg/source/HL_adc.c")
     847                            .dwattr $C$DW$39, DW_AT_TI_begin_line(0x248)
     848                            .dwattr $C$DW$39, DW_AT_TI_begin_column(0x08)
     849                            .dwattr $C$DW$39, DW_AT_decl_file("../hcg/source/HL_adc.c")
     850                            .dwattr $C$DW$39, DW_AT_decl_line(0x248)
     851                            .dwattr $C$DW$39, DW_AT_decl_column(0x08)
     852                            .dwattr $C$DW$39, DW_AT_TI_max_frame_size(0x10)
     853                            .dwpsn  file "../hcg/source/HL_adc.c",line 585,column 1,is_stmt,address adcIsFifoFull,isa 2
     854                    
     855                            .dwfde $C$DW$CIE, adcIsFifoFull
     856                    $C$DW$40        .dwtag  DW_TAG_formal_parameter
     857                            .dwattr $C$DW$40, DW_AT_name("adc")
     858                            .dwattr $C$DW$40, DW_AT_TI_symbol_name("adc")
     859                            .dwattr $C$DW$40, DW_AT_type(*$C$DW$T$49)
     860                            .dwattr $C$DW$40, DW_AT_location[DW_OP_reg0]
     861                    
     862                    $C$DW$41        .dwtag  DW_TAG_formal_parameter
     863                            .dwattr $C$DW$41, DW_AT_name("group")
     864                            .dwattr $C$DW$41, DW_AT_TI_symbol_name("group")
     865                            .dwattr $C$DW$41, DW_AT_type(*$C$DW$T$20)
     866                            .dwattr $C$DW$41, DW_AT_location[DW_OP_reg1]
     867                    
     868                    
     869                    ;*****************************************************************************
     870                    ;* FUNCTION NAME: adcIsFifoFull                                              *
     871                    ;*                                                                           *
     872                    ;*   Regs Modified     : A1,V9,SP                                            *
     873                    ;*   Regs Used         : A1,A2,V9,SP,LR                                      *
     874                    ;*   Local Frame Size  : 0 Args + 12 Auto + 0 Save = 12 byte                 *
     875                    ;*****************************************************************************
     876 00000400           adcIsFifoFull:
     877                    ;* --------------------------------------------------------------------------*
     878                            .dwcfi  cfa_offset, 0
     879 00000400 E24DD010          SUB       SP, SP, #16           ; [DPU_4_PIPE0] 
     880                            .dwcfi  cfa_offset, 16
TI ARM Assembler PC v16.9.0 Thu Feb 16 13:27:09 2017

Tools Copyright (c) 1996-2015 Texas Instruments Incorporated
C:\Users\bob\AppData\Local\Temp\0838410                              PAGE   17

     881                    $C$DW$42        .dwtag  DW_TAG_variable
     882                            .dwattr $C$DW$42, DW_AT_name("adc")
     883                            .dwattr $C$DW$42, DW_AT_TI_symbol_name("adc")
     884                            .dwattr $C$DW$42, DW_AT_type(*$C$DW$T$49)
     885                            .dwattr $C$DW$42, DW_AT_location[DW_OP_breg13 0]
     886                    
     887                    $C$DW$43        .dwtag  DW_TAG_variable
     888                            .dwattr $C$DW$43, DW_AT_name("group")
     889                            .dwattr $C$DW$43, DW_AT_TI_symbol_name("group")
     890                            .dwattr $C$DW$43, DW_AT_type(*$C$DW$T$20)
     891                            .dwattr $C$DW$43, DW_AT_location[DW_OP_breg13 4]
     892                    
     893                    $C$DW$44        .dwtag  DW_TAG_variable
     894                            .dwattr $C$DW$44, DW_AT_name("flags")
     895                            .dwattr $C$DW$44, DW_AT_TI_symbol_name("flags")
     896                            .dwattr $C$DW$44, DW_AT_type(*$C$DW$T$20)
     897                            .dwattr $C$DW$44, DW_AT_location[DW_OP_breg13 8]
     898                    
     899 00000404 E58D1004          STR       A2, [SP, #4]          ; [DPU_4_PIPE0] |585| 
     900 00000408 E58D0000          STR       A1, [SP, #0]          ; [DPU_4_PIPE0] |585| 
     901                            .dwpsn  file "../hcg/source/HL_adc.c",line 592,column 5,is_stmt,isa 2
     902 0000040c E59DC004          LDR       V9, [SP, #4]          ; [DPU_4_PIPE0] |592| 
     903 00000410 E59D0000          LDR       A1, [SP, #0]          ; [DPU_4_PIPE0] |592| 
     904 00000414 E080C10C          ADD       V9, A1, V9, LSL #2    ; [DPU_4_PIPE0] |592| 
     905 00000418 E59CC034          LDR       V9, [V9, #52]         ; [DPU_4_PIPE0] |592| 
     906 0000041c E20CC003          AND       V9, V9, #3            ; [DPU_4_PIPE0] |592| 
     907 00000420 E58DC008          STR       V9, [SP, #8]          ; [DPU_4_PIPE0] |592| 
     908                            .dwpsn  file "../hcg/source/HL_adc.c",line 599,column 5,is_stmt,isa 2
     909 00000424 E59D0008          LDR       A1, [SP, #8]          ; [DPU_4_PIPE0] |599| 
     910                            .dwpsn  file "../hcg/source/HL_adc.c",line 600,column 1,is_stmt,isa 2
     911 00000428 E28DD010          ADD       SP, SP, #16           ; [DPU_4_PIPE0] 
     912                            .dwcfi  cfa_offset, 0
     913                    $C$DW$45        .dwtag  DW_TAG_TI_branch
     914                            .dwattr $C$DW$45, DW_AT_low_pc(0x00)
     915                            .dwattr $C$DW$45, DW_AT_TI_return
     916                    
     917 0000042c E12FFF1E          BX        LR                    ; [DPU_4_PIPE1] 
     918                            ; BRANCH OCCURS                  ; [] 
     919                            .dwattr $C$DW$39, DW_AT_TI_end_file("../hcg/source/HL_adc.c")
     920                            .dwattr $C$DW$39, DW_AT_TI_end_line(0x258)
     921                            .dwattr $C$DW$39, DW_AT_TI_end_column(0x01)
     922                            .dwendentry
     923                            .dwendtag $C$DW$39
     924                    
     925 00000430                   .sect   ".text"
     926                            .clink
     927                            .armfunc adcIsConversionComplete
     928 00000430                   .state32
     929                            .global adcIsConversionComplete
     930                    
     931                    $C$DW$46        .dwtag  DW_TAG_subprogram
     932                            .dwattr $C$DW$46, DW_AT_name("adcIsConversionComplete")
     933                            .dwattr $C$DW$46, DW_AT_low_pc(adcIsConversionComplete)
     934                            .dwattr $C$DW$46, DW_AT_high_pc(0x00)
     935                            .dwattr $C$DW$46, DW_AT_TI_symbol_name("adcIsConversionComplete")
TI ARM Assembler PC v16.9.0 Thu Feb 16 13:27:09 2017

Tools Copyright (c) 1996-2015 Texas Instruments Incorporated
C:\Users\bob\AppData\Local\Temp\0838410                              PAGE   18

     936                            .dwattr $C$DW$46, DW_AT_external
     937                            .dwattr $C$DW$46, DW_AT_type(*$C$DW$T$20)
     938                            .dwattr $C$DW$46, DW_AT_TI_begin_file("../hcg/source/HL_adc.c")
     939                            .dwattr $C$DW$46, DW_AT_TI_begin_line(0x26e)
     940                            .dwattr $C$DW$46, DW_AT_TI_begin_column(0x08)
     941                            .dwattr $C$DW$46, DW_AT_decl_file("../hcg/source/HL_adc.c")
     942                            .dwattr $C$DW$46, DW_AT_decl_line(0x26e)
     943                            .dwattr $C$DW$46, DW_AT_decl_column(0x08)
     944                            .dwattr $C$DW$46, DW_AT_TI_max_frame_size(0x10)
     945                            .dwpsn  file "../hcg/source/HL_adc.c",line 623,column 1,is_stmt,address adcIsConversionComplet
     946                    
     947                            .dwfde $C$DW$CIE, adcIsConversionComplete
     948                    $C$DW$47        .dwtag  DW_TAG_formal_parameter
     949                            .dwattr $C$DW$47, DW_AT_name("adc")
     950                            .dwattr $C$DW$47, DW_AT_TI_symbol_name("adc")
     951                            .dwattr $C$DW$47, DW_AT_type(*$C$DW$T$49)
     952                            .dwattr $C$DW$47, DW_AT_location[DW_OP_reg0]
     953                    
     954                    $C$DW$48        .dwtag  DW_TAG_formal_parameter
     955                            .dwattr $C$DW$48, DW_AT_name("group")
     956                            .dwattr $C$DW$48, DW_AT_TI_symbol_name("group")
     957                            .dwattr $C$DW$48, DW_AT_type(*$C$DW$T$20)
     958                            .dwattr $C$DW$48, DW_AT_location[DW_OP_reg1]
     959                    
     960                    
     961                    ;*****************************************************************************
     962                    ;* FUNCTION NAME: adcIsConversionComplete                                    *
     963                    ;*                                                                           *
     964                    ;*   Regs Modified     : A1,V9,SP                                            *
     965                    ;*   Regs Used         : A1,A2,V9,SP,LR                                      *
     966                    ;*   Local Frame Size  : 0 Args + 12 Auto + 0 Save = 12 byte                 *
     967                    ;*****************************************************************************
     968 00000430           adcIsConversionComplete:
     969                    ;* --------------------------------------------------------------------------*
     970                            .dwcfi  cfa_offset, 0
     971 00000430 E24DD010          SUB       SP, SP, #16           ; [DPU_4_PIPE0] 
     972                            .dwcfi  cfa_offset, 16
     973                    $C$DW$49        .dwtag  DW_TAG_variable
     974                            .dwattr $C$DW$49, DW_AT_name("adc")
     975                            .dwattr $C$DW$49, DW_AT_TI_symbol_name("adc")
     976                            .dwattr $C$DW$49, DW_AT_type(*$C$DW$T$49)
     977                            .dwattr $C$DW$49, DW_AT_location[DW_OP_breg13 0]
     978                    
     979                    $C$DW$50        .dwtag  DW_TAG_variable
     980                            .dwattr $C$DW$50, DW_AT_name("group")
     981                            .dwattr $C$DW$50, DW_AT_TI_symbol_name("group")
     982                            .dwattr $C$DW$50, DW_AT_type(*$C$DW$T$20)
     983                            .dwattr $C$DW$50, DW_AT_location[DW_OP_breg13 4]
     984                    
     985                    $C$DW$51        .dwtag  DW_TAG_variable
     986                            .dwattr $C$DW$51, DW_AT_name("flags")
     987                            .dwattr $C$DW$51, DW_AT_TI_symbol_name("flags")
     988                            .dwattr $C$DW$51, DW_AT_type(*$C$DW$T$20)
     989                            .dwattr $C$DW$51, DW_AT_location[DW_OP_breg13 8]
     990                    
TI ARM Assembler PC v16.9.0 Thu Feb 16 13:27:09 2017

Tools Copyright (c) 1996-2015 Texas Instruments Incorporated
C:\Users\bob\AppData\Local\Temp\0838410                              PAGE   19

     991 00000434 E58D1004          STR       A2, [SP, #4]          ; [DPU_4_PIPE0] |623| 
     992 00000438 E58D0000          STR       A1, [SP, #0]          ; [DPU_4_PIPE0] |623| 
     993                            .dwpsn  file "../hcg/source/HL_adc.c",line 630,column 5,is_stmt,isa 2
     994 0000043c E59DC004          LDR       V9, [SP, #4]          ; [DPU_4_PIPE0] |630| 
     995 00000440 E59D0000          LDR       A1, [SP, #0]          ; [DPU_4_PIPE0] |630| 
     996 00000444 E080C10C          ADD       V9, A1, V9, LSL #2    ; [DPU_4_PIPE0] |630| 
     997 00000448 E59CC034          LDR       V9, [V9, #52]         ; [DPU_4_PIPE0] |630| 
     998 0000044c E20CC008          AND       V9, V9, #8            ; [DPU_4_PIPE0] |630| 
     999 00000450 E58DC008          STR       V9, [SP, #8]          ; [DPU_4_PIPE0] |630| 
    1000                            .dwpsn  file "../hcg/source/HL_adc.c",line 637,column 5,is_stmt,isa 2
    1001 00000454 E59D0008          LDR       A1, [SP, #8]          ; [DPU_4_PIPE0] |637| 
    1002                            .dwpsn  file "../hcg/source/HL_adc.c",line 638,column 1,is_stmt,isa 2
    1003 00000458 E28DD010          ADD       SP, SP, #16           ; [DPU_4_PIPE0] 
    1004                            .dwcfi  cfa_offset, 0
    1005                    $C$DW$52        .dwtag  DW_TAG_TI_branch
    1006                            .dwattr $C$DW$52, DW_AT_low_pc(0x00)
    1007                            .dwattr $C$DW$52, DW_AT_TI_return
    1008                    
    1009 0000045c E12FFF1E          BX        LR                    ; [DPU_4_PIPE1] 
    1010                            ; BRANCH OCCURS                  ; [] 
    1011                            .dwattr $C$DW$46, DW_AT_TI_end_file("../hcg/source/HL_adc.c")
    1012                            .dwattr $C$DW$46, DW_AT_TI_end_line(0x27e)
    1013                            .dwattr $C$DW$46, DW_AT_TI_end_column(0x01)
    1014                            .dwendentry
    1015                            .dwendtag $C$DW$46
    1016                    
    1017 00000460                   .sect   ".text"
    1018                            .clink
    1019                            .armfunc adcCalibration
    1020 00000460                   .state32
    1021                            .global adcCalibration
    1022                    
    1023                    $C$DW$53        .dwtag  DW_TAG_subprogram
    1024                            .dwattr $C$DW$53, DW_AT_name("adcCalibration")
    1025                            .dwattr $C$DW$53, DW_AT_low_pc(adcCalibration)
    1026                            .dwattr $C$DW$53, DW_AT_high_pc(0x00)
    1027                            .dwattr $C$DW$53, DW_AT_TI_symbol_name("adcCalibration")
    1028                            .dwattr $C$DW$53, DW_AT_external
    1029                            .dwattr $C$DW$53, DW_AT_TI_begin_file("../hcg/source/HL_adc.c")
    1030                            .dwattr $C$DW$53, DW_AT_TI_begin_line(0x28b)
    1031                            .dwattr $C$DW$53, DW_AT_TI_begin_column(0x06)
    1032                            .dwattr $C$DW$53, DW_AT_decl_file("../hcg/source/HL_adc.c")
    1033                            .dwattr $C$DW$53, DW_AT_decl_line(0x28b)
    1034                            .dwattr $C$DW$53, DW_AT_decl_column(0x06)
    1035                            .dwattr $C$DW$53, DW_AT_TI_max_frame_size(0x28)
    1036                            .dwpsn  file "../hcg/source/HL_adc.c",line 652,column 1,is_stmt,address adcCalibration,isa 2
    1037                    
    1038                            .dwfde $C$DW$CIE, adcCalibration
    1039                    $C$DW$54        .dwtag  DW_TAG_formal_parameter
    1040                            .dwattr $C$DW$54, DW_AT_name("adc")
    1041                            .dwattr $C$DW$54, DW_AT_TI_symbol_name("adc")
    1042                            .dwattr $C$DW$54, DW_AT_type(*$C$DW$T$49)
    1043                            .dwattr $C$DW$54, DW_AT_location[DW_OP_reg0]
    1044                    
    1045                    
TI ARM Assembler PC v16.9.0 Thu Feb 16 13:27:09 2017

Tools Copyright (c) 1996-2015 Texas Instruments Incorporated
C:\Users\bob\AppData\Local\Temp\0838410                              PAGE   20

    1046                    ;*****************************************************************************
    1047                    ;* FUNCTION NAME: adcCalibration                                             *
    1048                    ;*                                                                           *
    1049                    ;*   Regs Modified     : A1,A2,A3,A4,V9,SP,LR,SR,D0,D0_hi,D1,D1_hi,D2,D2_hi, *
    1050                    ;*                           D3,D3_hi,D4,D4_hi,D5,D5_hi,D6,D6_hi,D7,D7_hi,   *
    1051                    ;*                           FPEXC,FPSCR                                     *
    1052                    ;*   Regs Used         : A1,A2,A3,A4,V9,SP,LR,SR,D0,D0_hi,D1,D1_hi,D2,D2_hi, *
    1053                    ;*                           D3,D3_hi,D4,D4_hi,D5,D5_hi,D6,D6_hi,D7,D7_hi,   *
    1054                    ;*                           FPEXC,FPSCR                                     *
    1055                    ;*   Local Frame Size  : 0 Args + 36 Auto + 4 Save = 40 byte                 *
    1056                    ;*****************************************************************************
    1057 00000460           adcCalibration:
    1058                    ;* --------------------------------------------------------------------------*
    1059                            .dwcfi  cfa_offset, 0
    1060 00000460 E92D4000          STMFD     SP!, {LR}             ; [DPU_4_PIPE0] 
    1061                            .dwcfi  cfa_offset, 4
    1062                            .dwcfi  save_reg_to_mem, 14, -4
    1063 00000464 E24DD024          SUB       SP, SP, #36           ; [DPU_4_PIPE0] 
    1064                            .dwcfi  cfa_offset, 40
    1065                    $C$DW$55        .dwtag  DW_TAG_variable
    1066                            .dwattr $C$DW$55, DW_AT_name("conv_val")
    1067                            .dwattr $C$DW$55, DW_AT_TI_symbol_name("conv_val")
    1068                            .dwattr $C$DW$55, DW_AT_type(*$C$DW$T$78)
    1069                            .dwattr $C$DW$55, DW_AT_location[DW_OP_breg13 0]
    1070                    
    1071                    $C$DW$56        .dwtag  DW_TAG_variable
    1072                            .dwattr $C$DW$56, DW_AT_name("adc")
    1073                            .dwattr $C$DW$56, DW_AT_TI_symbol_name("adc")
    1074                            .dwattr $C$DW$56, DW_AT_type(*$C$DW$T$49)
    1075                            .dwattr $C$DW$56, DW_AT_location[DW_OP_breg13 20]
    1076                    
    1077                    $C$DW$57        .dwtag  DW_TAG_variable
    1078                            .dwattr $C$DW$57, DW_AT_name("loop_index")
    1079                            .dwattr $C$DW$57, DW_AT_TI_symbol_name("loop_index")
    1080                            .dwattr $C$DW$57, DW_AT_type(*$C$DW$T$20)
    1081                            .dwattr $C$DW$57, DW_AT_location[DW_OP_breg13 24]
    1082                    
    1083                    $C$DW$58        .dwtag  DW_TAG_variable
    1084                            .dwattr $C$DW$58, DW_AT_name("offset_error")
    1085                            .dwattr $C$DW$58, DW_AT_TI_symbol_name("offset_error")
    1086                            .dwattr $C$DW$58, DW_AT_type(*$C$DW$T$20)
    1087                            .dwattr $C$DW$58, DW_AT_location[DW_OP_breg13 28]
    1088                    
    1089                    $C$DW$59        .dwtag  DW_TAG_variable
    1090                            .dwattr $C$DW$59, DW_AT_name("backup_mode")
    1091                            .dwattr $C$DW$59, DW_AT_TI_symbol_name("backup_mode")
    1092                            .dwattr $C$DW$59, DW_AT_type(*$C$DW$T$20)
    1093                            .dwattr $C$DW$59, DW_AT_location[DW_OP_breg13 32]
    1094                    
    1095 00000468 E58D0014          STR       A1, [SP, #20]         ; [DPU_4_PIPE0] |652| 
    1096                            .dwpsn  file "../hcg/source/HL_adc.c",line 656,column 21,is_stmt,isa 2
    1097 0000046c E3A02014          MOV       A3, #20               ; [DPU_4_PIPE0] |656| 
    1098 00000470 E3A01000          MOV       A2, #0                ; [DPU_4_PIPE1] |656| 
    1099 00000474 E1A0000D          MOV       A1, SP                ; [DPU_4_PIPE0] |656| 
    1100                    $C$DW$60        .dwtag  DW_TAG_TI_branch
TI ARM Assembler PC v16.9.0 Thu Feb 16 13:27:09 2017

Tools Copyright (c) 1996-2015 Texas Instruments Incorporated
C:\Users\bob\AppData\Local\Temp\0838410                              PAGE   21

    1101                            .dwattr $C$DW$60, DW_AT_low_pc(0x00)
    1102                            .dwattr $C$DW$60, DW_AT_name("memset")
    1103                            .dwattr $C$DW$60, DW_AT_TI_call
    1104                    
    1105 00000478 EBFFFFFE!         BL        memset                ; [DPU_4_PIPE1] |656| 
    1106                            ; CALL OCCURS {memset }          ; [] |656| 
    1107                            .dwpsn  file "../hcg/source/HL_adc.c",line 657,column 19,is_stmt,isa 2
    1108 0000047c E3A0C000          MOV       V9, #0                ; [DPU_4_PIPE0] |657| 
    1109 00000480 E58DC018          STR       V9, [SP, #24]         ; [DPU_4_PIPE0] |657| 
    1110                            .dwpsn  file "../hcg/source/HL_adc.c",line 658,column 21,is_stmt,isa 2
    1111 00000484 E3A0C000          MOV       V9, #0                ; [DPU_4_PIPE0] |658| 
    1112 00000488 E58DC01C          STR       V9, [SP, #28]         ; [DPU_4_PIPE0] |658| 
    1113                            .dwpsn  file "../hcg/source/HL_adc.c",line 662,column 2,is_stmt,isa 2
    1114 0000048c E59DC014          LDR       V9, [SP, #20]         ; [DPU_4_PIPE0] |662| 
    1115 00000490 E59CC004          LDR       V9, [V9, #4]          ; [DPU_4_PIPE0] |662| 
    1116 00000494 E58DC020          STR       V9, [SP, #32]         ; [DPU_4_PIPE0] |662| 
    1117                            .dwpsn  file "../hcg/source/HL_adc.c",line 665,column 2,is_stmt,isa 2
    1118 00000498 E59F05E8          LDR       A1, $C$CON2           ; [DPU_4_PIPE0] |665| 
    1119 0000049c E590C000          LDR       V9, [A1, #0]          ; [DPU_4_PIPE0] |665| 
    1120 000004a0 E38CC102          ORR       V9, V9, #-2147483648  ; [DPU_4_PIPE0] |665| 
    1121 000004a4 E580C000          STR       V9, [A1, #0]          ; [DPU_4_PIPE0] |665| 
    1122                            .dwpsn  file "../hcg/source/HL_adc.c",line 668,column 2,is_stmt,isa 2
    1123 000004a8 E59DC014          LDR       V9, [SP, #20]         ; [DPU_4_PIPE0] |668| 
    1124 000004ac E3A00000          MOV       A1, #0                ; [DPU_4_PIPE0] |668| 
    1125 000004b0 E58C0078          STR       A1, [V9, #120]        ; [DPU_4_PIPE0] |668| 
    1126                            .dwpsn  file "../hcg/source/HL_adc.c",line 669,column 2,is_stmt,isa 2
    1127 000004b4 E59DC014          LDR       V9, [SP, #20]         ; [DPU_4_PIPE0] |669| 
    1128 000004b8 E3A00000          MOV       A1, #0                ; [DPU_4_PIPE0] |669| 
    1129 000004bc E58C007C          STR       A1, [V9, #124]        ; [DPU_4_PIPE0] |669| 
    1130                            .dwpsn  file "../hcg/source/HL_adc.c",line 670,column 2,is_stmt,isa 2
    1131 000004c0 E59DC014          LDR       V9, [SP, #20]         ; [DPU_4_PIPE0] |670| 
    1132 000004c4 E3A00000          MOV       A1, #0                ; [DPU_4_PIPE0] |670| 
    1133 000004c8 E58C0080          STR       A1, [V9, #128]        ; [DPU_4_PIPE0] |670| 
    1134                            .dwpsn  file "../hcg/source/HL_adc.c",line 672,column 6,is_stmt,isa 2
    1135 000004cc E3A0C000          MOV       V9, #0                ; [DPU_4_PIPE0] |672| 
    1136 000004d0 E58DC018          STR       V9, [SP, #24]         ; [DPU_4_PIPE0] |672| 
    1137                            .dwpsn  file "../hcg/source/HL_adc.c",line 672,column 20,is_stmt,isa 2
    1138 000004d4 E59DC018          LDR       V9, [SP, #24]         ; [DPU_4_PIPE0] |672| 
    1139 000004d8 E35C0004          CMP       V9, #4                ; [DPU_4_PIPE0] |672| 
    1140 000004dc 2AFFFFFE!         BCS       ||$C$L20||            ; [DPU_4_PIPE1] |672| 
    1141                            ; BRANCHCC OCCURS {||$C$L20||}   ; [] |672| 
    1142                    ;* --------------------------------------------------------------------------*
    1143                    ;*   BEGIN LOOP ||$C$L12||
    1144                    ;*
    1145                    ;*   Loop source line                : 672
    1146                    ;*   Loop closing brace source line  : 712
    1147                    ;*   Known Minimum Trip Count        : 1
    1148                    ;*   Known Maximum Trip Count        : 4294967295
    1149                    ;*   Known Max Trip Count Factor     : 1
    1150                    ;* --------------------------------------------------------------------------*
    1151 000004e0           ||$C$L12||:    
    1152                            .dwpsn  file "../hcg/source/HL_adc.c",line 675,column 3,is_stmt,isa 2
    1153 000004e0 E59DC014          LDR       V9, [SP, #20]         ; [DPU_4_PIPE0] |675| 
    1154 000004e4 E3A00000          MOV       A1, #0                ; [DPU_4_PIPE0] |675| 
    1155 000004e8 E58C000C          STR       A1, [V9, #12]         ; [DPU_4_PIPE0] |675| 
TI ARM Assembler PC v16.9.0 Thu Feb 16 13:27:09 2017

Tools Copyright (c) 1996-2015 Texas Instruments Incorporated
C:\Users\bob\AppData\Local\Temp\0838410                              PAGE   22

    1156                            .dwpsn  file "../hcg/source/HL_adc.c",line 677,column 3,is_stmt,isa 2
    1157 000004ec EAFFFFFE!         B         ||$C$L17||            ; [DPU_4_PIPE1] |677| 
    1158                            ; BRANCH OCCURS {||$C$L17||}     ; [] |677| 
    1159                    ;* --------------------------------------------------------------------------*
    1160 000004f0           ||$C$L13||:    
    1161                            .dwpsn  file "../hcg/source/HL_adc.c",line 680,column 7,is_stmt,isa 2
    1162 000004f0 E59DC014          LDR       V9, [SP, #20]         ; [DPU_4_PIPE0] |680| 
    1163 000004f4 E3A00000          MOV       A1, #0                ; [DPU_4_PIPE0] |680| 
    1164 000004f8 E58C000C          STR       A1, [V9, #12]         ; [DPU_4_PIPE0] |680| 
    1165                            .dwpsn  file "../hcg/source/HL_adc.c",line 681,column 7,is_stmt,isa 2
    1166 000004fc EAFFFFFE!         B         ||$C$L18||            ; [DPU_4_PIPE1] |681| 
    1167                            ; BRANCH OCCURS {||$C$L18||}     ; [] |681| 
    1168                    ;* --------------------------------------------------------------------------*
    1169 00000500           ||$C$L14||:    
    1170                            .dwpsn  file "../hcg/source/HL_adc.c",line 684,column 7,is_stmt,isa 2
    1171 00000500 E59DC014          LDR       V9, [SP, #20]         ; [DPU_4_PIPE0] |684| 
    1172 00000504 E3A00C01          MOV       A1, #256              ; [DPU_4_PIPE0] |684| 
    1173 00000508 E58C000C          STR       A1, [V9, #12]         ; [DPU_4_PIPE0] |684| 
    1174                            .dwpsn  file "../hcg/source/HL_adc.c",line 685,column 7,is_stmt,isa 2
    1175 0000050c EAFFFFFE!         B         ||$C$L18||            ; [DPU_4_PIPE1] |685| 
    1176                            ; BRANCH OCCURS {||$C$L18||}     ; [] |685| 
    1177                    ;* --------------------------------------------------------------------------*
    1178 00000510           ||$C$L15||:    
    1179                            .dwpsn  file "../hcg/source/HL_adc.c",line 688,column 7,is_stmt,isa 2
    1180 00000510 E59DC014          LDR       V9, [SP, #20]         ; [DPU_4_PIPE0] |688| 
    1181 00000514 E3A00C02          MOV       A1, #512              ; [DPU_4_PIPE0] |688| 
    1182 00000518 E58C000C          STR       A1, [V9, #12]         ; [DPU_4_PIPE0] |688| 
    1183                            .dwpsn  file "../hcg/source/HL_adc.c",line 689,column 7,is_stmt,isa 2
    1184 0000051c EAFFFFFE!         B         ||$C$L18||            ; [DPU_4_PIPE1] |689| 
    1185                            ; BRANCH OCCURS {||$C$L18||}     ; [] |689| 
    1186                    ;* --------------------------------------------------------------------------*
    1187 00000520           ||$C$L16||:    
    1188                            .dwpsn  file "../hcg/source/HL_adc.c",line 692,column 7,is_stmt,isa 2
    1189 00000520 E59DC014          LDR       V9, [SP, #20]         ; [DPU_4_PIPE0] |692| 
    1190 00000524 E3A00C03          MOV       A1, #768              ; [DPU_4_PIPE0] |692| 
    1191 00000528 E58C000C          STR       A1, [V9, #12]         ; [DPU_4_PIPE0] |692| 
    1192                            .dwpsn  file "../hcg/source/HL_adc.c",line 693,column 7,is_stmt,isa 2
    1193 0000052c EAFFFFFE!         B         ||$C$L18||            ; [DPU_4_PIPE1] |693| 
    1194                            ; BRANCH OCCURS {||$C$L18||}     ; [] |693| 
    1195                    ;* --------------------------------------------------------------------------*
    1196                    ;* --------------------------------------------------------------------------*
    1197 00000530           ||$C$L17||:    
    1198                            .dwpsn  file "../hcg/source/HL_adc.c",line 677,column 3,is_stmt,isa 2
    1199 00000530 E59DC018          LDR       V9, [SP, #24]         ; [DPU_4_PIPE0] |677| 
    1200 00000534 E35C0000          CMP       V9, #0                ; [DPU_4_PIPE0] |677| 
    1201 00000538 0AFFFFFE!         BEQ       ||$C$L13||            ; [DPU_4_PIPE1] |677| 
    1202                            ; BRANCHCC OCCURS {||$C$L13||}   ; [] |677| 
    1203                    ;* --------------------------------------------------------------------------*
    1204 0000053c E25CC001          SUBS      V9, V9, #1            ; [DPU_4_PIPE0] |677| 
    1205 00000540 0AFFFFFE!         BEQ       ||$C$L14||            ; [DPU_4_PIPE1] |677| 
    1206                            ; BRANCHCC OCCURS {||$C$L14||}   ; [] |677| 
    1207                    ;* --------------------------------------------------------------------------*
    1208 00000544 E25CC001          SUBS      V9, V9, #1            ; [DPU_4_PIPE0] |677| 
    1209 00000548 0AFFFFFE!         BEQ       ||$C$L15||            ; [DPU_4_PIPE1] |677| 
    1210                            ; BRANCHCC OCCURS {||$C$L15||}   ; [] |677| 
TI ARM Assembler PC v16.9.0 Thu Feb 16 13:27:09 2017

Tools Copyright (c) 1996-2015 Texas Instruments Incorporated
C:\Users\bob\AppData\Local\Temp\0838410                              PAGE   23

    1211                    ;* --------------------------------------------------------------------------*
    1212 0000054c E25CC001          SUBS      V9, V9, #1            ; [DPU_4_PIPE0] |677| 
    1213 00000550 0AFFFFFE!         BEQ       ||$C$L16||            ; [DPU_4_PIPE1] |677| 
    1214                            ; BRANCHCC OCCURS {||$C$L16||}   ; [] |677| 
    1215                    ;* --------------------------------------------------------------------------*
    1216 00000554           ||$C$L18||:    
    1217                            .dwpsn  file "../hcg/source/HL_adc.c",line 699,column 3,is_stmt,isa 2
    1218 00000554 E59DC014          LDR       V9, [SP, #20]         ; [DPU_4_PIPE0] |699| 
    1219 00000558 E59C000C          LDR       A1, [V9, #12]         ; [DPU_4_PIPE0] |699| 
    1220 0000055c E3800001          ORR       A1, A1, #1            ; [DPU_4_PIPE0] |699| 
    1221 00000560 E58C000C          STR       A1, [V9, #12]         ; [DPU_4_PIPE0] |699| 
    1222                            .dwpsn  file "../hcg/source/HL_adc.c",line 702,column 3,is_stmt,isa 2
    1223 00000564 E59DC014          LDR       V9, [SP, #20]         ; [DPU_4_PIPE0] |702| 
    1224 00000568 E59C000C          LDR       A1, [V9, #12]         ; [DPU_4_PIPE0] |702| 
    1225 0000056c E3800801          ORR       A1, A1, #65536        ; [DPU_4_PIPE0] |702| 
    1226 00000570 E58C000C          STR       A1, [V9, #12]         ; [DPU_4_PIPE0] |702| 
    1227                            .dwpsn  file "../hcg/source/HL_adc.c",line 706,column 3,is_stmt,isa 2
    1228                    ;* --------------------------------------------------------------------------*
    1229                    ;*   BEGIN LOOP ||$C$L19||
    1230                    ;*
    1231                    ;*   Loop source line                : 706
    1232                    ;*   Loop closing brace source line  : 708
    1233                    ;*   Known Minimum Trip Count        : 1
    1234                    ;*   Known Maximum Trip Count        : 4294967295
    1235                    ;*   Known Max Trip Count Factor     : 1
    1236                    ;* --------------------------------------------------------------------------*
    1237 00000574           ||$C$L19||:    
    1238                            .dwpsn  file "../hcg/source/HL_adc.c",line 706,column 9,is_stmt,isa 2
    1239 00000574 E59DC014          LDR       V9, [SP, #20]         ; [DPU_4_PIPE0] |706| 
    1240 00000578 E59CC00C          LDR       V9, [V9, #12]         ; [DPU_4_PIPE0] |706| 
    1241 0000057c E31C0801          TST       V9, #65536            ; [DPU_4_PIPE0] |706| 
    1242 00000580 1AFFFFFE!         BNE       ||$C$L19||            ; [DPU_4_PIPE1] |706| 
    1243                            ; BRANCHCC OCCURS {||$C$L19||}   ; [] |706| 
    1244                    ;* --------------------------------------------------------------------------*
    1245                            .dwpsn  file "../hcg/source/HL_adc.c",line 711,column 3,is_stmt,isa 2
    1246 00000584 E59DC014          LDR       V9, [SP, #20]         ; [DPU_4_PIPE0] |711| 
    1247 00000588 E59D0018          LDR       A1, [SP, #24]         ; [DPU_4_PIPE0] |711| 
    1248 0000058c E59CC084          LDR       V9, [V9, #132]        ; [DPU_4_PIPE0] |711| 
    1249 00000590 E78DC100          STR       V9, [SP, +A1, LSL #2] ; [DPU_4_PIPE0] |711| 
    1250                            .dwpsn  file "../hcg/source/HL_adc.c",line 672,column 34,is_stmt,isa 2
    1251 00000594 E59DC018          LDR       V9, [SP, #24]         ; [DPU_4_PIPE0] |672| 
    1252 00000598 E28CC001          ADD       V9, V9, #1            ; [DPU_4_PIPE0] |672| 
    1253 0000059c E58DC018          STR       V9, [SP, #24]         ; [DPU_4_PIPE0] |672| 
    1254                            .dwpsn  file "../hcg/source/HL_adc.c",line 672,column 20,is_stmt,isa 2
    1255 000005a0 E59DC018          LDR       V9, [SP, #24]         ; [DPU_4_PIPE0] |672| 
    1256 000005a4 E35C0004          CMP       V9, #4                ; [DPU_4_PIPE0] |672| 
    1257 000005a8 3AFFFFFE!         BCC       ||$C$L12||            ; [DPU_4_PIPE1] |672| 
    1258                            ; BRANCHCC OCCURS {||$C$L12||}   ; [] |672| 
    1259                    ;* --------------------------------------------------------------------------*
    1260 000005ac           ||$C$L20||:    
    1261                            .dwpsn  file "../hcg/source/HL_adc.c",line 715,column 2,is_stmt,isa 2
    1262 000005ac E59DC014          LDR       V9, [SP, #20]         ; [DPU_4_PIPE0] |715| 
    1263 000005b0 E3A00000          MOV       A1, #0                ; [DPU_4_PIPE0] |715| 
    1264 000005b4 E58C000C          STR       A1, [V9, #12]         ; [DPU_4_PIPE0] |715| 
    1265                            .dwpsn  file "../hcg/source/HL_adc.c",line 718,column 2,is_stmt,isa 2
TI ARM Assembler PC v16.9.0 Thu Feb 16 13:27:09 2017

Tools Copyright (c) 1996-2015 Texas Instruments Incorporated
C:\Users\bob\AppData\Local\Temp\0838410                              PAGE   24

    1266 000005b8 E59D0004          LDR       A1, [SP, #4]          ; [DPU_4_PIPE0] |718| 
    1267 000005bc E59DC000          LDR       V9, [SP, #0]          ; [DPU_4_PIPE0] |718| 
    1268 000005c0 E59D1008          LDR       A2, [SP, #8]          ; [DPU_4_PIPE0] |718| 
    1269 000005c4 E59D200C          LDR       A3, [SP, #12]         ; [DPU_4_PIPE0] |718| 
    1270 000005c8 E080C00C          ADD       V9, A1, V9            ; [DPU_4_PIPE1] |718| 
    1271 000005cc E081C00C          ADD       V9, A2, V9            ; [DPU_4_PIPE0] |718| 
    1272 000005d0 E082C00C          ADD       V9, A3, V9            ; [DPU_4_PIPE0] |718| 
    1273 000005d4 E58DC010          STR       V9, [SP, #16]         ; [DPU_4_PIPE0] |718| 
    1274                            .dwpsn  file "../hcg/source/HL_adc.c",line 720,column 2,is_stmt,isa 2
    1275 000005d8 E59DC010          LDR       V9, [SP, #16]         ; [DPU_4_PIPE0] |720| 
    1276 000005dc E1A0C12C          MOV       V9, V9, LSR #2        ; [DPU_4_PIPE0] |720| 
    1277 000005e0 E58DC010          STR       V9, [SP, #16]         ; [DPU_4_PIPE0] |720| 
    1278                            .dwpsn  file "../hcg/source/HL_adc.c",line 722,column 2,is_stmt,isa 2
    1279 000005e4 E59DC010          LDR       V9, [SP, #16]         ; [DPU_4_PIPE0] |722| 
    1280 000005e8 E30007FF          MOV       A1, #2047             ; [DPU_4_PIPE0] |722| 
    1281 000005ec E04CC000          SUB       V9, V9, A1            ; [DPU_4_PIPE0] |722| 
    1282 000005f0 E58DC01C          STR       V9, [SP, #28]         ; [DPU_4_PIPE0] |722| 
    1283                            .dwpsn  file "../hcg/source/HL_adc.c",line 726,column 2,is_stmt,isa 2
    1284 000005f4 E59DC01C          LDR       V9, [SP, #28]         ; [DPU_4_PIPE0] |726| 
    1285 000005f8 E1E0C00C          MVN       V9, V9                ; [DPU_4_PIPE0] |726| 
    1286 000005fc E58DC01C          STR       V9, [SP, #28]         ; [DPU_4_PIPE0] |726| 
    1287                            .dwpsn  file "../hcg/source/HL_adc.c",line 727,column 2,is_stmt,isa 2
    1288 00000600 E59DC01C          LDR       V9, [SP, #28]         ; [DPU_4_PIPE0] |727| 
    1289 00000604 E7DFC61F          BFC       V9, #12, #20          ; [DPU_4_PIPE0] |727| 
    1290 00000608 E58DC01C          STR       V9, [SP, #28]         ; [DPU_4_PIPE0] |727| 
    1291                            .dwpsn  file "../hcg/source/HL_adc.c",line 728,column 2,is_stmt,isa 2
    1292 0000060c E59DC01C          LDR       V9, [SP, #28]         ; [DPU_4_PIPE0] |728| 
    1293 00000610 E28CC001          ADD       V9, V9, #1            ; [DPU_4_PIPE0] |728| 
    1294 00000614 E58DC01C          STR       V9, [SP, #28]         ; [DPU_4_PIPE0] |728| 
    1295                            .dwpsn  file "../hcg/source/HL_adc.c",line 730,column 2,is_stmt,isa 2
    1296 00000618 E59D0014          LDR       A1, [SP, #20]         ; [DPU_4_PIPE0] |730| 
    1297 0000061c E59DC01C          LDR       V9, [SP, #28]         ; [DPU_4_PIPE0] |730| 
    1298 00000620 E580C084          STR       V9, [A1, #132]        ; [DPU_4_PIPE0] |730| 
    1299                            .dwpsn  file "../hcg/source/HL_adc.c",line 733,column 2,is_stmt,isa 2
    1300 00000624 E59D0014          LDR       A1, [SP, #20]         ; [DPU_4_PIPE0] |733| 
    1301 00000628 E59DC020          LDR       V9, [SP, #32]         ; [DPU_4_PIPE0] |733| 
    1302 0000062c E580C004          STR       V9, [A1, #4]          ; [DPU_4_PIPE0] |733| 
    1303                            .dwpsn  file "../hcg/source/HL_adc.c",line 739,column 1,is_stmt,isa 2
    1304 00000630 E28DD024          ADD       SP, SP, #36           ; [DPU_4_PIPE0] 
    1305                            .dwcfi  cfa_offset, 4
    1306                    $C$DW$61        .dwtag  DW_TAG_TI_branch
    1307                            .dwattr $C$DW$61, DW_AT_low_pc(0x00)
    1308                            .dwattr $C$DW$61, DW_AT_TI_return
    1309                    
    1310 00000634 E8BD8000          LDMFD     SP!, {PC}             ; [DPU_4_PIPE1] 
    1311                            .dwcfi  cfa_offset, 0
    1312                            ; BRANCH OCCURS                  ; [] 
    1313                            .dwattr $C$DW$53, DW_AT_TI_end_file("../hcg/source/HL_adc.c")
    1314                            .dwattr $C$DW$53, DW_AT_TI_end_line(0x2e3)
    1315                            .dwattr $C$DW$53, DW_AT_TI_end_column(0x01)
    1316                            .dwendentry
    1317                            .dwendtag $C$DW$53
    1318                    
    1319 00000638                   .sect   ".text"
    1320                            .clink
TI ARM Assembler PC v16.9.0 Thu Feb 16 13:27:09 2017

Tools Copyright (c) 1996-2015 Texas Instruments Incorporated
C:\Users\bob\AppData\Local\Temp\0838410                              PAGE   25

    1321                            .armfunc adcMidPointCalibration
    1322 00000638                   .state32
    1323                            .global adcMidPointCalibration
    1324                    
    1325                    $C$DW$62        .dwtag  DW_TAG_subprogram
    1326                            .dwattr $C$DW$62, DW_AT_name("adcMidPointCalibration")
    1327                            .dwattr $C$DW$62, DW_AT_low_pc(adcMidPointCalibration)
    1328                            .dwattr $C$DW$62, DW_AT_high_pc(0x00)
    1329                            .dwattr $C$DW$62, DW_AT_TI_symbol_name("adcMidPointCalibration")
    1330                            .dwattr $C$DW$62, DW_AT_external
    1331                            .dwattr $C$DW$62, DW_AT_type(*$C$DW$T$20)
    1332                            .dwattr $C$DW$62, DW_AT_TI_begin_file("../hcg/source/HL_adc.c")
    1333                            .dwattr $C$DW$62, DW_AT_TI_begin_line(0x2f0)
    1334                            .dwattr $C$DW$62, DW_AT_TI_begin_column(0x08)
    1335                            .dwattr $C$DW$62, DW_AT_decl_file("../hcg/source/HL_adc.c")
    1336                            .dwattr $C$DW$62, DW_AT_decl_line(0x2f0)
    1337                            .dwattr $C$DW$62, DW_AT_decl_column(0x08)
    1338                            .dwattr $C$DW$62, DW_AT_TI_max_frame_size(0x20)
    1339                            .dwpsn  file "../hcg/source/HL_adc.c",line 753,column 1,is_stmt,address adcMidPointCalibration
    1340                    
    1341                            .dwfde $C$DW$CIE, adcMidPointCalibration
    1342                    $C$DW$63        .dwtag  DW_TAG_formal_parameter
    1343                            .dwattr $C$DW$63, DW_AT_name("adc")
    1344                            .dwattr $C$DW$63, DW_AT_TI_symbol_name("adc")
    1345                            .dwattr $C$DW$63, DW_AT_type(*$C$DW$T$49)
    1346                            .dwattr $C$DW$63, DW_AT_location[DW_OP_reg0]
    1347                    
    1348                    
    1349                    ;*****************************************************************************
    1350                    ;* FUNCTION NAME: adcMidPointCalibration                                     *
    1351                    ;*                                                                           *
    1352                    ;*   Regs Modified     : A1,A2,A3,A4,V9,SP,LR,SR,D0,D0_hi,D1,D1_hi,D2,D2_hi, *
    1353                    ;*                           D3,D3_hi,D4,D4_hi,D5,D5_hi,D6,D6_hi,D7,D7_hi,   *
    1354                    ;*                           FPEXC,FPSCR                                     *
    1355                    ;*   Regs Used         : A1,A2,A3,A4,V9,SP,LR,SR,D0,D0_hi,D1,D1_hi,D2,D2_hi, *
    1356                    ;*                           D3,D3_hi,D4,D4_hi,D5,D5_hi,D6,D6_hi,D7,D7_hi,   *
    1357                    ;*                           FPEXC,FPSCR                                     *
    1358                    ;*   Local Frame Size  : 0 Args + 28 Auto + 4 Save = 32 byte                 *
    1359                    ;*****************************************************************************
    1360 00000638           adcMidPointCalibration:
    1361                    ;* --------------------------------------------------------------------------*
    1362                            .dwcfi  cfa_offset, 0
    1363 00000638 E92D4000          STMFD     SP!, {LR}             ; [DPU_4_PIPE0] 
    1364                            .dwcfi  cfa_offset, 4
    1365                            .dwcfi  save_reg_to_mem, 14, -4
    1366 0000063c E24DD01C          SUB       SP, SP, #28           ; [DPU_4_PIPE0] 
    1367                            .dwcfi  cfa_offset, 32
    1368                    $C$DW$64        .dwtag  DW_TAG_variable
    1369                            .dwattr $C$DW$64, DW_AT_name("conv_val")
    1370                            .dwattr $C$DW$64, DW_AT_TI_symbol_name("conv_val")
    1371                            .dwattr $C$DW$64, DW_AT_type(*$C$DW$T$22)
    1372                            .dwattr $C$DW$64, DW_AT_location[DW_OP_breg13 0]
    1373                    
    1374                    $C$DW$65        .dwtag  DW_TAG_variable
    1375                            .dwattr $C$DW$65, DW_AT_name("adc")
TI ARM Assembler PC v16.9.0 Thu Feb 16 13:27:09 2017

Tools Copyright (c) 1996-2015 Texas Instruments Incorporated
C:\Users\bob\AppData\Local\Temp\0838410                              PAGE   26

    1376                            .dwattr $C$DW$65, DW_AT_TI_symbol_name("adc")
    1377                            .dwattr $C$DW$65, DW_AT_type(*$C$DW$T$49)
    1378                            .dwattr $C$DW$65, DW_AT_location[DW_OP_breg13 12]
    1379                    
    1380                    $C$DW$66        .dwtag  DW_TAG_variable
    1381                            .dwattr $C$DW$66, DW_AT_name("loop_index")
    1382                            .dwattr $C$DW$66, DW_AT_TI_symbol_name("loop_index")
    1383                            .dwattr $C$DW$66, DW_AT_type(*$C$DW$T$20)
    1384                            .dwattr $C$DW$66, DW_AT_location[DW_OP_breg13 16]
    1385                    
    1386                    $C$DW$67        .dwtag  DW_TAG_variable
    1387                            .dwattr $C$DW$67, DW_AT_name("offset_error")
    1388                            .dwattr $C$DW$67, DW_AT_TI_symbol_name("offset_error")
    1389                            .dwattr $C$DW$67, DW_AT_type(*$C$DW$T$20)
    1390                            .dwattr $C$DW$67, DW_AT_location[DW_OP_breg13 20]
    1391                    
    1392                    $C$DW$68        .dwtag  DW_TAG_variable
    1393                            .dwattr $C$DW$68, DW_AT_name("backup_mode")
    1394                            .dwattr $C$DW$68, DW_AT_TI_symbol_name("backup_mode")
    1395                            .dwattr $C$DW$68, DW_AT_type(*$C$DW$T$20)
    1396                            .dwattr $C$DW$68, DW_AT_location[DW_OP_breg13 24]
    1397                    
    1398 00000640 E58D000C          STR       A1, [SP, #12]         ; [DPU_4_PIPE0] |753| 
    1399                            .dwpsn  file "../hcg/source/HL_adc.c",line 757,column 21,is_stmt,isa 2
    1400 00000644 E3A0200C          MOV       A3, #12               ; [DPU_4_PIPE0] |757| 
    1401 00000648 E3A01000          MOV       A2, #0                ; [DPU_4_PIPE1] |757| 
    1402 0000064c E1A0000D          MOV       A1, SP                ; [DPU_4_PIPE0] |757| 
    1403                    $C$DW$69        .dwtag  DW_TAG_TI_branch
    1404                            .dwattr $C$DW$69, DW_AT_low_pc(0x00)
    1405                            .dwattr $C$DW$69, DW_AT_name("memset")
    1406                            .dwattr $C$DW$69, DW_AT_TI_call
    1407                    
    1408 00000650 EBFFFFFE!         BL        memset                ; [DPU_4_PIPE1] |757| 
    1409                            ; CALL OCCURS {memset }          ; [] |757| 
    1410                            .dwpsn  file "../hcg/source/HL_adc.c",line 758,column 19,is_stmt,isa 2
    1411 00000654 E3A0C000          MOV       V9, #0                ; [DPU_4_PIPE0] |758| 
    1412 00000658 E58DC010          STR       V9, [SP, #16]         ; [DPU_4_PIPE0] |758| 
    1413                            .dwpsn  file "../hcg/source/HL_adc.c",line 759,column 21,is_stmt,isa 2
    1414 0000065c E3A0C000          MOV       V9, #0                ; [DPU_4_PIPE0] |759| 
    1415 00000660 E58DC014          STR       V9, [SP, #20]         ; [DPU_4_PIPE0] |759| 
    1416                            .dwpsn  file "../hcg/source/HL_adc.c",line 763,column 2,is_stmt,isa 2
    1417 00000664 E59DC00C          LDR       V9, [SP, #12]         ; [DPU_4_PIPE0] |763| 
    1418 00000668 E59CC004          LDR       V9, [V9, #4]          ; [DPU_4_PIPE0] |763| 
    1419 0000066c E58DC018          STR       V9, [SP, #24]         ; [DPU_4_PIPE0] |763| 
    1420                            .dwpsn  file "../hcg/source/HL_adc.c",line 766,column 2,is_stmt,isa 2
    1421 00000670 E59F0410          LDR       A1, $C$CON2           ; [DPU_4_PIPE0] |766| 
    1422 00000674 E590C000          LDR       V9, [A1, #0]          ; [DPU_4_PIPE0] |766| 
    1423 00000678 E38CC102          ORR       V9, V9, #-2147483648  ; [DPU_4_PIPE0] |766| 
    1424 0000067c E580C000          STR       V9, [A1, #0]          ; [DPU_4_PIPE0] |766| 
    1425                            .dwpsn  file "../hcg/source/HL_adc.c",line 769,column 2,is_stmt,isa 2
    1426 00000680 E59DC00C          LDR       V9, [SP, #12]         ; [DPU_4_PIPE0] |769| 
    1427 00000684 E3A00000          MOV       A1, #0                ; [DPU_4_PIPE0] |769| 
    1428 00000688 E58C0078          STR       A1, [V9, #120]        ; [DPU_4_PIPE0] |769| 
    1429                            .dwpsn  file "../hcg/source/HL_adc.c",line 770,column 2,is_stmt,isa 2
    1430 0000068c E59DC00C          LDR       V9, [SP, #12]         ; [DPU_4_PIPE0] |770| 
TI ARM Assembler PC v16.9.0 Thu Feb 16 13:27:09 2017

Tools Copyright (c) 1996-2015 Texas Instruments Incorporated
C:\Users\bob\AppData\Local\Temp\0838410                              PAGE   27

    1431 00000690 E3A00000          MOV       A1, #0                ; [DPU_4_PIPE0] |770| 
    1432 00000694 E58C007C          STR       A1, [V9, #124]        ; [DPU_4_PIPE0] |770| 
    1433                            .dwpsn  file "../hcg/source/HL_adc.c",line 771,column 2,is_stmt,isa 2
    1434 00000698 E59DC00C          LDR       V9, [SP, #12]         ; [DPU_4_PIPE0] |771| 
    1435 0000069c E3A00000          MOV       A1, #0                ; [DPU_4_PIPE0] |771| 
    1436 000006a0 E58C0080          STR       A1, [V9, #128]        ; [DPU_4_PIPE0] |771| 
    1437                            .dwpsn  file "../hcg/source/HL_adc.c",line 773,column 6,is_stmt,isa 2
    1438 000006a4 E3A0C000          MOV       V9, #0                ; [DPU_4_PIPE0] |773| 
    1439 000006a8 E58DC010          STR       V9, [SP, #16]         ; [DPU_4_PIPE0] |773| 
    1440                            .dwpsn  file "../hcg/source/HL_adc.c",line 773,column 20,is_stmt,isa 2
    1441 000006ac E59DC010          LDR       V9, [SP, #16]         ; [DPU_4_PIPE0] |773| 
    1442 000006b0 E35C0002          CMP       V9, #2                ; [DPU_4_PIPE0] |773| 
    1443 000006b4 2AFFFFFE!         BCS       ||$C$L27||            ; [DPU_4_PIPE1] |773| 
    1444                            ; BRANCHCC OCCURS {||$C$L27||}   ; [] |773| 
    1445                    ;* --------------------------------------------------------------------------*
    1446                    ;*   BEGIN LOOP ||$C$L21||
    1447                    ;*
    1448                    ;*   Loop source line                : 773
    1449                    ;*   Loop closing brace source line  : 807
    1450                    ;*   Known Minimum Trip Count        : 1
    1451                    ;*   Known Maximum Trip Count        : 4294967295
    1452                    ;*   Known Max Trip Count Factor     : 1
    1453                    ;* --------------------------------------------------------------------------*
    1454 000006b8           ||$C$L21||:    
    1455                            .dwpsn  file "../hcg/source/HL_adc.c",line 776,column 3,is_stmt,isa 2
    1456 000006b8 E59DC00C          LDR       V9, [SP, #12]         ; [DPU_4_PIPE0] |776| 
    1457 000006bc E3A00000          MOV       A1, #0                ; [DPU_4_PIPE0] |776| 
    1458 000006c0 E58C000C          STR       A1, [V9, #12]         ; [DPU_4_PIPE0] |776| 
    1459                            .dwpsn  file "../hcg/source/HL_adc.c",line 778,column 3,is_stmt,isa 2
    1460 000006c4 EAFFFFFE!         B         ||$C$L24||            ; [DPU_4_PIPE1] |778| 
    1461                            ; BRANCH OCCURS {||$C$L24||}     ; [] |778| 
    1462                    ;* --------------------------------------------------------------------------*
    1463 000006c8           ||$C$L22||:    
    1464                            .dwpsn  file "../hcg/source/HL_adc.c",line 781,column 7,is_stmt,isa 2
    1465 000006c8 E59DC00C          LDR       V9, [SP, #12]         ; [DPU_4_PIPE0] |781| 
    1466 000006cc E3A00000          MOV       A1, #0                ; [DPU_4_PIPE0] |781| 
    1467 000006d0 E58C000C          STR       A1, [V9, #12]         ; [DPU_4_PIPE0] |781| 
    1468                            .dwpsn  file "../hcg/source/HL_adc.c",line 782,column 7,is_stmt,isa 2
    1469 000006d4 EAFFFFFE!         B         ||$C$L25||            ; [DPU_4_PIPE1] |782| 
    1470                            ; BRANCH OCCURS {||$C$L25||}     ; [] |782| 
    1471                    ;* --------------------------------------------------------------------------*
    1472 000006d8           ||$C$L23||:    
    1473                            .dwpsn  file "../hcg/source/HL_adc.c",line 785,column 7,is_stmt,isa 2
    1474 000006d8 E59DC00C          LDR       V9, [SP, #12]         ; [DPU_4_PIPE0] |785| 
    1475 000006dc E3A00C01          MOV       A1, #256              ; [DPU_4_PIPE0] |785| 
    1476 000006e0 E58C000C          STR       A1, [V9, #12]         ; [DPU_4_PIPE0] |785| 
    1477                            .dwpsn  file "../hcg/source/HL_adc.c",line 786,column 7,is_stmt,isa 2
    1478 000006e4 EAFFFFFE!         B         ||$C$L25||            ; [DPU_4_PIPE1] |786| 
    1479                            ; BRANCH OCCURS {||$C$L25||}     ; [] |786| 
    1480                    ;* --------------------------------------------------------------------------*
    1481                    ;* --------------------------------------------------------------------------*
    1482 000006e8           ||$C$L24||:    
    1483                            .dwpsn  file "../hcg/source/HL_adc.c",line 778,column 3,is_stmt,isa 2
    1484 000006e8 E59DC010          LDR       V9, [SP, #16]         ; [DPU_4_PIPE0] |778| 
    1485 000006ec E35C0000          CMP       V9, #0                ; [DPU_4_PIPE0] |778| 
TI ARM Assembler PC v16.9.0 Thu Feb 16 13:27:09 2017

Tools Copyright (c) 1996-2015 Texas Instruments Incorporated
C:\Users\bob\AppData\Local\Temp\0838410                              PAGE   28

    1486 000006f0 0AFFFFFE!         BEQ       ||$C$L22||            ; [DPU_4_PIPE1] |778| 
    1487                            ; BRANCHCC OCCURS {||$C$L22||}   ; [] |778| 
    1488                    ;* --------------------------------------------------------------------------*
    1489 000006f4 E25CC001          SUBS      V9, V9, #1            ; [DPU_4_PIPE0] |778| 
    1490 000006f8 0AFFFFFE!         BEQ       ||$C$L23||            ; [DPU_4_PIPE1] |778| 
    1491                            ; BRANCHCC OCCURS {||$C$L23||}   ; [] |778| 
    1492                    ;* --------------------------------------------------------------------------*
    1493 000006fc           ||$C$L25||:    
    1494                            .dwpsn  file "../hcg/source/HL_adc.c",line 794,column 3,is_stmt,isa 2
    1495 000006fc E59DC00C          LDR       V9, [SP, #12]         ; [DPU_4_PIPE0] |794| 
    1496 00000700 E59C000C          LDR       A1, [V9, #12]         ; [DPU_4_PIPE0] |794| 
    1497 00000704 E3800001          ORR       A1, A1, #1            ; [DPU_4_PIPE0] |794| 
    1498 00000708 E58C000C          STR       A1, [V9, #12]         ; [DPU_4_PIPE0] |794| 
    1499                            .dwpsn  file "../hcg/source/HL_adc.c",line 797,column 3,is_stmt,isa 2
    1500 0000070c E59DC00C          LDR       V9, [SP, #12]         ; [DPU_4_PIPE0] |797| 
    1501 00000710 E59C000C          LDR       A1, [V9, #12]         ; [DPU_4_PIPE0] |797| 
    1502 00000714 E3800801          ORR       A1, A1, #65536        ; [DPU_4_PIPE0] |797| 
    1503 00000718 E58C000C          STR       A1, [V9, #12]         ; [DPU_4_PIPE0] |797| 
    1504                            .dwpsn  file "../hcg/source/HL_adc.c",line 801,column 3,is_stmt,isa 2
    1505                    ;* --------------------------------------------------------------------------*
    1506                    ;*   BEGIN LOOP ||$C$L26||
    1507                    ;*
    1508                    ;*   Loop source line                : 801
    1509                    ;*   Loop closing brace source line  : 803
    1510                    ;*   Known Minimum Trip Count        : 1
    1511                    ;*   Known Maximum Trip Count        : 4294967295
    1512                    ;*   Known Max Trip Count Factor     : 1
    1513                    ;* --------------------------------------------------------------------------*
    1514 0000071c           ||$C$L26||:    
    1515                            .dwpsn  file "../hcg/source/HL_adc.c",line 801,column 9,is_stmt,isa 2
    1516 0000071c E59DC00C          LDR       V9, [SP, #12]         ; [DPU_4_PIPE0] |801| 
    1517 00000720 E59CC00C          LDR       V9, [V9, #12]         ; [DPU_4_PIPE0] |801| 
    1518 00000724 E31C0801          TST       V9, #65536            ; [DPU_4_PIPE0] |801| 
    1519 00000728 1AFFFFFE!         BNE       ||$C$L26||            ; [DPU_4_PIPE1] |801| 
    1520                            ; BRANCHCC OCCURS {||$C$L26||}   ; [] |801| 
    1521                    ;* --------------------------------------------------------------------------*
    1522                            .dwpsn  file "../hcg/source/HL_adc.c",line 806,column 3,is_stmt,isa 2
    1523 0000072c E59DC00C          LDR       V9, [SP, #12]         ; [DPU_4_PIPE0] |806| 
    1524 00000730 E59D0010          LDR       A1, [SP, #16]         ; [DPU_4_PIPE0] |806| 
    1525 00000734 E59CC084          LDR       V9, [V9, #132]        ; [DPU_4_PIPE0] |806| 
    1526 00000738 E78DC100          STR       V9, [SP, +A1, LSL #2] ; [DPU_4_PIPE0] |806| 
    1527                            .dwpsn  file "../hcg/source/HL_adc.c",line 773,column 34,is_stmt,isa 2
    1528 0000073c E59DC010          LDR       V9, [SP, #16]         ; [DPU_4_PIPE0] |773| 
    1529 00000740 E28CC001          ADD       V9, V9, #1            ; [DPU_4_PIPE0] |773| 
    1530 00000744 E58DC010          STR       V9, [SP, #16]         ; [DPU_4_PIPE0] |773| 
    1531                            .dwpsn  file "../hcg/source/HL_adc.c",line 773,column 20,is_stmt,isa 2
    1532 00000748 E59DC010          LDR       V9, [SP, #16]         ; [DPU_4_PIPE0] |773| 
    1533 0000074c E35C0002          CMP       V9, #2                ; [DPU_4_PIPE0] |773| 
    1534 00000750 3AFFFFFE!         BCC       ||$C$L21||            ; [DPU_4_PIPE1] |773| 
    1535                            ; BRANCHCC OCCURS {||$C$L21||}   ; [] |773| 
    1536                    ;* --------------------------------------------------------------------------*
    1537 00000754           ||$C$L27||:    
    1538                            .dwpsn  file "../hcg/source/HL_adc.c",line 810,column 2,is_stmt,isa 2
    1539 00000754 E59DC00C          LDR       V9, [SP, #12]         ; [DPU_4_PIPE0] |810| 
    1540 00000758 E3A00000          MOV       A1, #0                ; [DPU_4_PIPE0] |810| 
TI ARM Assembler PC v16.9.0 Thu Feb 16 13:27:09 2017

Tools Copyright (c) 1996-2015 Texas Instruments Incorporated
C:\Users\bob\AppData\Local\Temp\0838410                              PAGE   29

    1541 0000075c E58C000C          STR       A1, [V9, #12]         ; [DPU_4_PIPE0] |810| 
    1542                            .dwpsn  file "../hcg/source/HL_adc.c",line 813,column 2,is_stmt,isa 2
    1543 00000760 E59D0004          LDR       A1, [SP, #4]          ; [DPU_4_PIPE0] |813| 
    1544 00000764 E59DC000          LDR       V9, [SP, #0]          ; [DPU_4_PIPE0] |813| 
    1545 00000768 E080C00C          ADD       V9, A1, V9            ; [DPU_4_PIPE0] |813| 
    1546 0000076c E58DC008          STR       V9, [SP, #8]          ; [DPU_4_PIPE0] |813| 
    1547                            .dwpsn  file "../hcg/source/HL_adc.c",line 815,column 2,is_stmt,isa 2
    1548 00000770 E59DC008          LDR       V9, [SP, #8]          ; [DPU_4_PIPE0] |815| 
    1549 00000774 E1A0C0AC          MOV       V9, V9, LSR #1        ; [DPU_4_PIPE0] |815| 
    1550 00000778 E58DC008          STR       V9, [SP, #8]          ; [DPU_4_PIPE0] |815| 
    1551                            .dwpsn  file "../hcg/source/HL_adc.c",line 817,column 2,is_stmt,isa 2
    1552 0000077c E59DC008          LDR       V9, [SP, #8]          ; [DPU_4_PIPE0] |817| 
    1553 00000780 E30007FF          MOV       A1, #2047             ; [DPU_4_PIPE0] |817| 
    1554 00000784 E04CC000          SUB       V9, V9, A1            ; [DPU_4_PIPE0] |817| 
    1555 00000788 E58DC014          STR       V9, [SP, #20]         ; [DPU_4_PIPE0] |817| 
    1556                            .dwpsn  file "../hcg/source/HL_adc.c",line 821,column 2,is_stmt,isa 2
    1557 0000078c E59DC014          LDR       V9, [SP, #20]         ; [DPU_4_PIPE0] |821| 
    1558 00000790 E1E0C00C          MVN       V9, V9                ; [DPU_4_PIPE0] |821| 
    1559 00000794 E58DC014          STR       V9, [SP, #20]         ; [DPU_4_PIPE0] |821| 
    1560                            .dwpsn  file "../hcg/source/HL_adc.c",line 822,column 2,is_stmt,isa 2
    1561 00000798 E59DC014          LDR       V9, [SP, #20]         ; [DPU_4_PIPE0] |822| 
    1562 0000079c E28CC001          ADD       V9, V9, #1            ; [DPU_4_PIPE0] |822| 
    1563 000007a0 E58DC014          STR       V9, [SP, #20]         ; [DPU_4_PIPE0] |822| 
    1564                            .dwpsn  file "../hcg/source/HL_adc.c",line 823,column 2,is_stmt,isa 2
    1565 000007a4 E59DC014          LDR       V9, [SP, #20]         ; [DPU_4_PIPE0] |823| 
    1566 000007a8 E7DFC61F          BFC       V9, #12, #20          ; [DPU_4_PIPE0] |823| 
    1567 000007ac E58DC014          STR       V9, [SP, #20]         ; [DPU_4_PIPE0] |823| 
    1568                            .dwpsn  file "../hcg/source/HL_adc.c",line 825,column 2,is_stmt,isa 2
    1569 000007b0 E59D000C          LDR       A1, [SP, #12]         ; [DPU_4_PIPE0] |825| 
    1570 000007b4 E59DC014          LDR       V9, [SP, #20]         ; [DPU_4_PIPE0] |825| 
    1571 000007b8 E580C084          STR       V9, [A1, #132]        ; [DPU_4_PIPE0] |825| 
    1572                            .dwpsn  file "../hcg/source/HL_adc.c",line 828,column 2,is_stmt,isa 2
    1573 000007bc E59D000C          LDR       A1, [SP, #12]         ; [DPU_4_PIPE0] |828| 
    1574 000007c0 E59DC018          LDR       V9, [SP, #24]         ; [DPU_4_PIPE0] |828| 
    1575 000007c4 E580C004          STR       V9, [A1, #4]          ; [DPU_4_PIPE0] |828| 
    1576                            .dwpsn  file "../hcg/source/HL_adc.c",line 830,column 2,is_stmt,isa 2
    1577 000007c8 E59D0014          LDR       A1, [SP, #20]         ; [DPU_4_PIPE0] |830| 
    1578                            .dwpsn  file "../hcg/source/HL_adc.c",line 836,column 1,is_stmt,isa 2
    1579 000007cc E28DD01C          ADD       SP, SP, #28           ; [DPU_4_PIPE0] 
    1580                            .dwcfi  cfa_offset, 4
    1581                    $C$DW$70        .dwtag  DW_TAG_TI_branch
    1582                            .dwattr $C$DW$70, DW_AT_low_pc(0x00)
    1583                            .dwattr $C$DW$70, DW_AT_TI_return
    1584                    
    1585 000007d0 E8BD8000          LDMFD     SP!, {PC}             ; [DPU_4_PIPE1] 
    1586                            .dwcfi  cfa_offset, 0
    1587                            ; BRANCH OCCURS                  ; [] 
    1588                            .dwattr $C$DW$62, DW_AT_TI_end_file("../hcg/source/HL_adc.c")
    1589                            .dwattr $C$DW$62, DW_AT_TI_end_line(0x344)
    1590                            .dwattr $C$DW$62, DW_AT_TI_end_column(0x01)
    1591                            .dwendentry
    1592                            .dwendtag $C$DW$62
    1593                    
    1594 000007d4                   .sect   ".text"
    1595                            .clink
TI ARM Assembler PC v16.9.0 Thu Feb 16 13:27:09 2017

Tools Copyright (c) 1996-2015 Texas Instruments Incorporated
C:\Users\bob\AppData\Local\Temp\0838410                              PAGE   30

    1596                            .armfunc adcEnableNotification
    1597 000007d4                   .state32
    1598                            .global adcEnableNotification
    1599                    
    1600                    $C$DW$71        .dwtag  DW_TAG_subprogram
    1601                            .dwattr $C$DW$71, DW_AT_name("adcEnableNotification")
    1602                            .dwattr $C$DW$71, DW_AT_low_pc(adcEnableNotification)
    1603                            .dwattr $C$DW$71, DW_AT_high_pc(0x00)
    1604                            .dwattr $C$DW$71, DW_AT_TI_symbol_name("adcEnableNotification")
    1605                            .dwattr $C$DW$71, DW_AT_external
    1606                            .dwattr $C$DW$71, DW_AT_TI_begin_file("../hcg/source/HL_adc.c")
    1607                            .dwattr $C$DW$71, DW_AT_TI_begin_line(0x358)
    1608                            .dwattr $C$DW$71, DW_AT_TI_begin_column(0x06)
    1609                            .dwattr $C$DW$71, DW_AT_decl_file("../hcg/source/HL_adc.c")
    1610                            .dwattr $C$DW$71, DW_AT_decl_line(0x358)
    1611                            .dwattr $C$DW$71, DW_AT_decl_column(0x06)
    1612                            .dwattr $C$DW$71, DW_AT_TI_max_frame_size(0x10)
    1613                            .dwpsn  file "../hcg/source/HL_adc.c",line 857,column 1,is_stmt,address adcEnableNotification,
    1614                    
    1615                            .dwfde $C$DW$CIE, adcEnableNotification
    1616                    $C$DW$72        .dwtag  DW_TAG_formal_parameter
    1617                            .dwattr $C$DW$72, DW_AT_name("adc")
    1618                            .dwattr $C$DW$72, DW_AT_TI_symbol_name("adc")
    1619                            .dwattr $C$DW$72, DW_AT_type(*$C$DW$T$49)
    1620                            .dwattr $C$DW$72, DW_AT_location[DW_OP_reg0]
    1621                    
    1622                    $C$DW$73        .dwtag  DW_TAG_formal_parameter
    1623                            .dwattr $C$DW$73, DW_AT_name("group")
    1624                            .dwattr $C$DW$73, DW_AT_TI_symbol_name("group")
    1625                            .dwattr $C$DW$73, DW_AT_type(*$C$DW$T$20)
    1626                            .dwattr $C$DW$73, DW_AT_location[DW_OP_reg1]
    1627                    
    1628                    
    1629                    ;*****************************************************************************
    1630                    ;* FUNCTION NAME: adcEnableNotification                                      *
    1631                    ;*                                                                           *
    1632                    ;*   Regs Modified     : A1,V9,SP,SR                                         *
    1633                    ;*   Regs Used         : A1,A2,V9,SP,LR,SR                                   *
    1634                    ;*   Local Frame Size  : 0 Args + 12 Auto + 0 Save = 12 byte                 *
    1635                    ;*****************************************************************************
    1636 000007d4           adcEnableNotification:
    1637                    ;* --------------------------------------------------------------------------*
    1638                            .dwcfi  cfa_offset, 0
    1639 000007d4 E24DD010          SUB       SP, SP, #16           ; [DPU_4_PIPE0] 
    1640                            .dwcfi  cfa_offset, 16
    1641                    $C$DW$74        .dwtag  DW_TAG_variable
    1642                            .dwattr $C$DW$74, DW_AT_name("adc")
    1643                            .dwattr $C$DW$74, DW_AT_TI_symbol_name("adc")
    1644                            .dwattr $C$DW$74, DW_AT_type(*$C$DW$T$49)
    1645                            .dwattr $C$DW$74, DW_AT_location[DW_OP_breg13 0]
    1646                    
    1647                    $C$DW$75        .dwtag  DW_TAG_variable
    1648                            .dwattr $C$DW$75, DW_AT_name("group")
    1649                            .dwattr $C$DW$75, DW_AT_TI_symbol_name("group")
    1650                            .dwattr $C$DW$75, DW_AT_type(*$C$DW$T$20)
TI ARM Assembler PC v16.9.0 Thu Feb 16 13:27:09 2017

Tools Copyright (c) 1996-2015 Texas Instruments Incorporated
C:\Users\bob\AppData\Local\Temp\0838410                              PAGE   31

    1651                            .dwattr $C$DW$75, DW_AT_location[DW_OP_breg13 4]
    1652                    
    1653                    $C$DW$76        .dwtag  DW_TAG_variable
    1654                            .dwattr $C$DW$76, DW_AT_name("notif")
    1655                            .dwattr $C$DW$76, DW_AT_TI_symbol_name("notif")
    1656                            .dwattr $C$DW$76, DW_AT_type(*$C$DW$T$20)
    1657                            .dwattr $C$DW$76, DW_AT_location[DW_OP_breg13 8]
    1658                    
    1659 000007d8 E58D1004          STR       A2, [SP, #4]          ; [DPU_4_PIPE0] |857| 
    1660 000007dc E58D0000          STR       A1, [SP, #0]          ; [DPU_4_PIPE0] |857| 
    1661                            .dwpsn  file "../hcg/source/HL_adc.c",line 858,column 18,is_stmt,isa 2
    1662 000007e0 E59DC004          LDR       V9, [SP, #4]          ; [DPU_4_PIPE0] |858| 
    1663 000007e4 E59D0000          LDR       A1, [SP, #0]          ; [DPU_4_PIPE0] |858| 
    1664 000007e8 E080C10C          ADD       V9, A1, V9, LSL #2    ; [DPU_4_PIPE0] |858| 
    1665 000007ec E59CC010          LDR       V9, [V9, #16]         ; [DPU_4_PIPE0] |858| 
    1666 000007f0 E31C0002          TST       V9, #2                ; [DPU_4_PIPE0] |858| 
    1667 000007f4 0AFFFFFE!         BEQ       ||$C$L28||            ; [DPU_4_PIPE1] |858| 
    1668                            ; BRANCHCC OCCURS {||$C$L28||}   ; [] |858| 
    1669                    ;* --------------------------------------------------------------------------*
    1670 000007f8 E3A0C001          MOV       V9, #1                ; [DPU_4_PIPE0] |858| 
    1671 000007fc EAFFFFFE!         B         ||$C$L29||            ; [DPU_4_PIPE1] |858| 
    1672                            ; BRANCH OCCURS {||$C$L29||}     ; [] |858| 
    1673                    ;* --------------------------------------------------------------------------*
    1674 00000800           ||$C$L28||:    
    1675 00000800 E3A0C008          MOV       V9, #8                ; [DPU_4_PIPE0] |858| 
    1676                    ;* --------------------------------------------------------------------------*
    1677 00000804           ||$C$L29||:    
    1678 00000804 E58DC008          STR       V9, [SP, #8]          ; [DPU_4_PIPE0] |858| 
    1679                            .dwpsn  file "../hcg/source/HL_adc.c",line 863,column 5,is_stmt,isa 2
    1680 00000808 E59DC004          LDR       V9, [SP, #4]          ; [DPU_4_PIPE0] |863| 
    1681 0000080c E59D0000          LDR       A1, [SP, #0]          ; [DPU_4_PIPE0] |863| 
    1682 00000810 E080010C          ADD       A1, A1, V9, LSL #2    ; [DPU_4_PIPE0] |863| 
    1683 00000814 E59DC008          LDR       V9, [SP, #8]          ; [DPU_4_PIPE0] |863| 
    1684 00000818 E580C028          STR       V9, [A1, #40]         ; [DPU_4_PIPE0] |863| 
    1685                            .dwpsn  file "../hcg/source/HL_adc.c",line 871,column 1,is_stmt,isa 2
    1686 0000081c E28DD010          ADD       SP, SP, #16           ; [DPU_4_PIPE0] 
    1687                            .dwcfi  cfa_offset, 0
    1688                    $C$DW$77        .dwtag  DW_TAG_TI_branch
    1689                            .dwattr $C$DW$77, DW_AT_low_pc(0x00)
    1690                            .dwattr $C$DW$77, DW_AT_TI_return
    1691                    
    1692 00000820 E12FFF1E          BX        LR                    ; [DPU_4_PIPE1] 
    1693                            ; BRANCH OCCURS                  ; [] 
    1694                            .dwattr $C$DW$71, DW_AT_TI_end_file("../hcg/source/HL_adc.c")
    1695                            .dwattr $C$DW$71, DW_AT_TI_end_line(0x367)
    1696                            .dwattr $C$DW$71, DW_AT_TI_end_column(0x01)
    1697                            .dwendentry
    1698                            .dwendtag $C$DW$71
    1699                    
    1700 00000824                   .sect   ".text"
    1701                            .clink
    1702                            .armfunc adcDisableNotification
    1703 00000824                   .state32
    1704                            .global adcDisableNotification
    1705                    
TI ARM Assembler PC v16.9.0 Thu Feb 16 13:27:09 2017

Tools Copyright (c) 1996-2015 Texas Instruments Incorporated
C:\Users\bob\AppData\Local\Temp\0838410                              PAGE   32

    1706                    $C$DW$78        .dwtag  DW_TAG_subprogram
    1707                            .dwattr $C$DW$78, DW_AT_name("adcDisableNotification")
    1708                            .dwattr $C$DW$78, DW_AT_low_pc(adcDisableNotification)
    1709                            .dwattr $C$DW$78, DW_AT_high_pc(0x00)
    1710                            .dwattr $C$DW$78, DW_AT_TI_symbol_name("adcDisableNotification")
    1711                            .dwattr $C$DW$78, DW_AT_external
    1712                            .dwattr $C$DW$78, DW_AT_TI_begin_file("../hcg/source/HL_adc.c")
    1713                            .dwattr $C$DW$78, DW_AT_TI_begin_line(0x379)
    1714                            .dwattr $C$DW$78, DW_AT_TI_begin_column(0x06)
    1715                            .dwattr $C$DW$78, DW_AT_decl_file("../hcg/source/HL_adc.c")
    1716                            .dwattr $C$DW$78, DW_AT_decl_line(0x379)
    1717                            .dwattr $C$DW$78, DW_AT_decl_column(0x06)
    1718                            .dwattr $C$DW$78, DW_AT_TI_max_frame_size(0x08)
    1719                            .dwpsn  file "../hcg/source/HL_adc.c",line 890,column 1,is_stmt,address adcDisableNotification
    1720                    
    1721                            .dwfde $C$DW$CIE, adcDisableNotification
    1722                    $C$DW$79        .dwtag  DW_TAG_formal_parameter
    1723                            .dwattr $C$DW$79, DW_AT_name("adc")
    1724                            .dwattr $C$DW$79, DW_AT_TI_symbol_name("adc")
    1725                            .dwattr $C$DW$79, DW_AT_type(*$C$DW$T$49)
    1726                            .dwattr $C$DW$79, DW_AT_location[DW_OP_reg0]
    1727                    
    1728                    $C$DW$80        .dwtag  DW_TAG_formal_parameter
    1729                            .dwattr $C$DW$80, DW_AT_name("group")
    1730                            .dwattr $C$DW$80, DW_AT_TI_symbol_name("group")
    1731                            .dwattr $C$DW$80, DW_AT_type(*$C$DW$T$20)
    1732                            .dwattr $C$DW$80, DW_AT_location[DW_OP_reg1]
    1733                    
    1734                    
    1735                    ;*****************************************************************************
    1736                    ;* FUNCTION NAME: adcDisableNotification                                     *
    1737                    ;*                                                                           *
    1738                    ;*   Regs Modified     : A1,V9,SP                                            *
    1739                    ;*   Regs Used         : A1,A2,V9,SP,LR                                      *
    1740                    ;*   Local Frame Size  : 0 Args + 8 Auto + 0 Save = 8 byte                   *
    1741                    ;*****************************************************************************
    1742 00000824           adcDisableNotification:
    1743                    ;* --------------------------------------------------------------------------*
    1744                            .dwcfi  cfa_offset, 0
    1745 00000824 E24DD008          SUB       SP, SP, #8            ; [DPU_4_PIPE0] 
    1746                            .dwcfi  cfa_offset, 8
    1747                    $C$DW$81        .dwtag  DW_TAG_variable
    1748                            .dwattr $C$DW$81, DW_AT_name("adc")
    1749                            .dwattr $C$DW$81, DW_AT_TI_symbol_name("adc")
    1750                            .dwattr $C$DW$81, DW_AT_type(*$C$DW$T$49)
    1751                            .dwattr $C$DW$81, DW_AT_location[DW_OP_breg13 0]
    1752                    
    1753                    $C$DW$82        .dwtag  DW_TAG_variable
    1754                            .dwattr $C$DW$82, DW_AT_name("group")
    1755                            .dwattr $C$DW$82, DW_AT_TI_symbol_name("group")
    1756                            .dwattr $C$DW$82, DW_AT_type(*$C$DW$T$20)
    1757                            .dwattr $C$DW$82, DW_AT_location[DW_OP_breg13 4]
    1758                    
    1759 00000828 E58D1004          STR       A2, [SP, #4]          ; [DPU_4_PIPE0] |890| 
    1760 0000082c E58D0000          STR       A1, [SP, #0]          ; [DPU_4_PIPE0] |890| 
TI ARM Assembler PC v16.9.0 Thu Feb 16 13:27:09 2017

Tools Copyright (c) 1996-2015 Texas Instruments Incorporated
C:\Users\bob\AppData\Local\Temp\0838410                              PAGE   33

    1761                            .dwpsn  file "../hcg/source/HL_adc.c",line 894,column 5,is_stmt,isa 2
    1762 00000830 E59DC004          LDR       V9, [SP, #4]          ; [DPU_4_PIPE0] |894| 
    1763 00000834 E59D0000          LDR       A1, [SP, #0]          ; [DPU_4_PIPE0] |894| 
    1764 00000838 E080C10C          ADD       V9, A1, V9, LSL #2    ; [DPU_4_PIPE0] |894| 
    1765 0000083c E3A00000          MOV       A1, #0                ; [DPU_4_PIPE0] |894| 
    1766 00000840 E58C0028          STR       A1, [V9, #40]         ; [DPU_4_PIPE0] |894| 
    1767                            .dwpsn  file "../hcg/source/HL_adc.c",line 900,column 1,is_stmt,isa 2
    1768 00000844 E28DD008          ADD       SP, SP, #8            ; [DPU_4_PIPE0] 
    1769                            .dwcfi  cfa_offset, 0
    1770                    $C$DW$83        .dwtag  DW_TAG_TI_branch
    1771                            .dwattr $C$DW$83, DW_AT_low_pc(0x00)
    1772                            .dwattr $C$DW$83, DW_AT_TI_return
    1773                    
    1774 00000848 E12FFF1E          BX        LR                    ; [DPU_4_PIPE1] 
    1775                            ; BRANCH OCCURS                  ; [] 
    1776                            .dwattr $C$DW$78, DW_AT_TI_end_file("../hcg/source/HL_adc.c")
    1777                            .dwattr $C$DW$78, DW_AT_TI_end_line(0x384)
    1778                            .dwattr $C$DW$78, DW_AT_TI_end_column(0x01)
    1779                            .dwendentry
    1780                            .dwendtag $C$DW$78
    1781                    
    1782 0000084c                   .sect   ".text"
    1783                            .clink
    1784                            .armfunc adcSetEVTPin
    1785 0000084c                   .state32
    1786                            .global adcSetEVTPin
    1787                    
    1788                    $C$DW$84        .dwtag  DW_TAG_subprogram
    1789                            .dwattr $C$DW$84, DW_AT_name("adcSetEVTPin")
    1790                            .dwattr $C$DW$84, DW_AT_low_pc(adcSetEVTPin)
    1791                            .dwattr $C$DW$84, DW_AT_high_pc(0x00)
    1792                            .dwattr $C$DW$84, DW_AT_TI_symbol_name("adcSetEVTPin")
    1793                            .dwattr $C$DW$84, DW_AT_external
    1794                            .dwattr $C$DW$84, DW_AT_TI_begin_file("../hcg/source/HL_adc.c")
    1795                            .dwattr $C$DW$84, DW_AT_TI_begin_line(0x391)
    1796                            .dwattr $C$DW$84, DW_AT_TI_begin_column(0x06)
    1797                            .dwattr $C$DW$84, DW_AT_decl_file("../hcg/source/HL_adc.c")
    1798                            .dwattr $C$DW$84, DW_AT_decl_line(0x391)
    1799                            .dwattr $C$DW$84, DW_AT_decl_column(0x06)
    1800                            .dwattr $C$DW$84, DW_AT_TI_max_frame_size(0x08)
    1801                            .dwpsn  file "../hcg/source/HL_adc.c",line 914,column 1,is_stmt,address adcSetEVTPin,isa 2
    1802                    
    1803                            .dwfde $C$DW$CIE, adcSetEVTPin
    1804                    $C$DW$85        .dwtag  DW_TAG_formal_parameter
    1805                            .dwattr $C$DW$85, DW_AT_name("adc")
    1806                            .dwattr $C$DW$85, DW_AT_TI_symbol_name("adc")
    1807                            .dwattr $C$DW$85, DW_AT_type(*$C$DW$T$49)
    1808                            .dwattr $C$DW$85, DW_AT_location[DW_OP_reg0]
    1809                    
    1810                    $C$DW$86        .dwtag  DW_TAG_formal_parameter
    1811                            .dwattr $C$DW$86, DW_AT_name("value")
    1812                            .dwattr $C$DW$86, DW_AT_TI_symbol_name("value")
    1813                            .dwattr $C$DW$86, DW_AT_type(*$C$DW$T$20)
    1814                            .dwattr $C$DW$86, DW_AT_location[DW_OP_reg1]
    1815                    
TI ARM Assembler PC v16.9.0 Thu Feb 16 13:27:09 2017

Tools Copyright (c) 1996-2015 Texas Instruments Incorporated
C:\Users\bob\AppData\Local\Temp\0838410                              PAGE   34

    1816                    
    1817                    ;*****************************************************************************
    1818                    ;* FUNCTION NAME: adcSetEVTPin                                               *
    1819                    ;*                                                                           *
    1820                    ;*   Regs Modified     : A1,V9,SP                                            *
    1821                    ;*   Regs Used         : A1,A2,V9,SP,LR                                      *
    1822                    ;*   Local Frame Size  : 0 Args + 8 Auto + 0 Save = 8 byte                   *
    1823                    ;*****************************************************************************
    1824 0000084c           adcSetEVTPin:
    1825                    ;* --------------------------------------------------------------------------*
    1826                            .dwcfi  cfa_offset, 0
    1827 0000084c E24DD008          SUB       SP, SP, #8            ; [DPU_4_PIPE0] 
    1828                            .dwcfi  cfa_offset, 8
    1829                    $C$DW$87        .dwtag  DW_TAG_variable
    1830                            .dwattr $C$DW$87, DW_AT_name("adc")
    1831                            .dwattr $C$DW$87, DW_AT_TI_symbol_name("adc")
    1832                            .dwattr $C$DW$87, DW_AT_type(*$C$DW$T$49)
    1833                            .dwattr $C$DW$87, DW_AT_location[DW_OP_breg13 0]
    1834                    
    1835                    $C$DW$88        .dwtag  DW_TAG_variable
    1836                            .dwattr $C$DW$88, DW_AT_name("value")
    1837                            .dwattr $C$DW$88, DW_AT_TI_symbol_name("value")
    1838                            .dwattr $C$DW$88, DW_AT_type(*$C$DW$T$20)
    1839                            .dwattr $C$DW$88, DW_AT_location[DW_OP_breg13 4]
    1840                    
    1841 00000850 E58D1004          STR       A2, [SP, #4]          ; [DPU_4_PIPE0] |914| 
    1842 00000854 E58D0000          STR       A1, [SP, #0]          ; [DPU_4_PIPE0] |914| 
    1843                            .dwpsn  file "../hcg/source/HL_adc.c",line 915,column 5,is_stmt,isa 2
    1844 00000858 E59D0000          LDR       A1, [SP, #0]          ; [DPU_4_PIPE0] |915| 
    1845 0000085c E59DC004          LDR       V9, [SP, #4]          ; [DPU_4_PIPE0] |915| 
    1846 00000860 E580C100          STR       V9, [A1, #256]        ; [DPU_4_PIPE0] |915| 
    1847                            .dwpsn  file "../hcg/source/HL_adc.c",line 916,column 1,is_stmt,isa 2
    1848 00000864 E28DD008          ADD       SP, SP, #8            ; [DPU_4_PIPE0] 
    1849                            .dwcfi  cfa_offset, 0
    1850                    $C$DW$89        .dwtag  DW_TAG_TI_branch
    1851                            .dwattr $C$DW$89, DW_AT_low_pc(0x00)
    1852                            .dwattr $C$DW$89, DW_AT_TI_return
    1853                    
    1854 00000868 E12FFF1E          BX        LR                    ; [DPU_4_PIPE1] 
    1855                            ; BRANCH OCCURS                  ; [] 
    1856                            .dwattr $C$DW$84, DW_AT_TI_end_file("../hcg/source/HL_adc.c")
    1857                            .dwattr $C$DW$84, DW_AT_TI_end_line(0x394)
    1858                            .dwattr $C$DW$84, DW_AT_TI_end_column(0x01)
    1859                            .dwendentry
    1860                            .dwendtag $C$DW$84
    1861                    
    1862 0000086c                   .sect   ".text"
    1863                            .clink
    1864                            .armfunc adcGetEVTPin
    1865 0000086c                   .state32
    1866                            .global adcGetEVTPin
    1867                    
    1868                    $C$DW$90        .dwtag  DW_TAG_subprogram
    1869                            .dwattr $C$DW$90, DW_AT_name("adcGetEVTPin")
    1870                            .dwattr $C$DW$90, DW_AT_low_pc(adcGetEVTPin)
TI ARM Assembler PC v16.9.0 Thu Feb 16 13:27:09 2017

Tools Copyright (c) 1996-2015 Texas Instruments Incorporated
C:\Users\bob\AppData\Local\Temp\0838410                              PAGE   35

    1871                            .dwattr $C$DW$90, DW_AT_high_pc(0x00)
    1872                            .dwattr $C$DW$90, DW_AT_TI_symbol_name("adcGetEVTPin")
    1873                            .dwattr $C$DW$90, DW_AT_external
    1874                            .dwattr $C$DW$90, DW_AT_type(*$C$DW$T$20)
    1875                            .dwattr $C$DW$90, DW_AT_TI_begin_file("../hcg/source/HL_adc.c")
    1876                            .dwattr $C$DW$90, DW_AT_TI_begin_line(0x3a1)
    1877                            .dwattr $C$DW$90, DW_AT_TI_begin_column(0x08)
    1878                            .dwattr $C$DW$90, DW_AT_decl_file("../hcg/source/HL_adc.c")
    1879                            .dwattr $C$DW$90, DW_AT_decl_line(0x3a1)
    1880                            .dwattr $C$DW$90, DW_AT_decl_column(0x08)
    1881                            .dwattr $C$DW$90, DW_AT_TI_max_frame_size(0x08)
    1882                            .dwpsn  file "../hcg/source/HL_adc.c",line 930,column 1,is_stmt,address adcGetEVTPin,isa 2
    1883                    
    1884                            .dwfde $C$DW$CIE, adcGetEVTPin
    1885                    $C$DW$91        .dwtag  DW_TAG_formal_parameter
    1886                            .dwattr $C$DW$91, DW_AT_name("adc")
    1887                            .dwattr $C$DW$91, DW_AT_TI_symbol_name("adc")
    1888                            .dwattr $C$DW$91, DW_AT_type(*$C$DW$T$49)
    1889                            .dwattr $C$DW$91, DW_AT_location[DW_OP_reg0]
    1890                    
    1891                    
    1892                    ;*****************************************************************************
    1893                    ;* FUNCTION NAME: adcGetEVTPin                                               *
    1894                    ;*                                                                           *
    1895                    ;*   Regs Modified     : A1,V9,SP                                            *
    1896                    ;*   Regs Used         : A1,V9,SP,LR                                         *
    1897                    ;*   Local Frame Size  : 0 Args + 4 Auto + 0 Save = 4 byte                   *
    1898                    ;*****************************************************************************
    1899 0000086c           adcGetEVTPin:
    1900                    ;* --------------------------------------------------------------------------*
    1901                            .dwcfi  cfa_offset, 0
    1902 0000086c E24DD008          SUB       SP, SP, #8            ; [DPU_4_PIPE0] 
    1903                            .dwcfi  cfa_offset, 8
    1904                    $C$DW$92        .dwtag  DW_TAG_variable
    1905                            .dwattr $C$DW$92, DW_AT_name("adc")
    1906                            .dwattr $C$DW$92, DW_AT_TI_symbol_name("adc")
    1907                            .dwattr $C$DW$92, DW_AT_type(*$C$DW$T$49)
    1908                            .dwattr $C$DW$92, DW_AT_location[DW_OP_breg13 0]
    1909                    
    1910 00000870 E58D0000          STR       A1, [SP, #0]          ; [DPU_4_PIPE0] |930| 
    1911                            .dwpsn  file "../hcg/source/HL_adc.c",line 931,column 5,is_stmt,isa 2
    1912 00000874 E59DC000          LDR       V9, [SP, #0]          ; [DPU_4_PIPE0] |931| 
    1913 00000878 E59C0104          LDR       A1, [V9, #260]        ; [DPU_4_PIPE0] |931| 
    1914                            .dwpsn  file "../hcg/source/HL_adc.c",line 932,column 1,is_stmt,isa 2
    1915 0000087c E28DD008          ADD       SP, SP, #8            ; [DPU_4_PIPE0] 
    1916                            .dwcfi  cfa_offset, 0
    1917                    $C$DW$93        .dwtag  DW_TAG_TI_branch
    1918                            .dwattr $C$DW$93, DW_AT_low_pc(0x00)
    1919                            .dwattr $C$DW$93, DW_AT_TI_return
    1920                    
    1921 00000880 E12FFF1E          BX        LR                    ; [DPU_4_PIPE1] 
    1922                            ; BRANCH OCCURS                  ; [] 
    1923                            .dwattr $C$DW$90, DW_AT_TI_end_file("../hcg/source/HL_adc.c")
    1924                            .dwattr $C$DW$90, DW_AT_TI_end_line(0x3a4)
    1925                            .dwattr $C$DW$90, DW_AT_TI_end_column(0x01)
TI ARM Assembler PC v16.9.0 Thu Feb 16 13:27:09 2017

Tools Copyright (c) 1996-2015 Texas Instruments Incorporated
C:\Users\bob\AppData\Local\Temp\0838410                              PAGE   36

    1926                            .dwendentry
    1927                            .dwendtag $C$DW$90
    1928                    
    1929 00000884                   .sect   ".text"
    1930                            .clink
    1931                            .armfunc adc1GetConfigValue
    1932 00000884                   .state32
    1933                            .global adc1GetConfigValue
    1934                    
    1935                    $C$DW$94        .dwtag  DW_TAG_subprogram
    1936                            .dwattr $C$DW$94, DW_AT_name("adc1GetConfigValue")
    1937                            .dwattr $C$DW$94, DW_AT_low_pc(adc1GetConfigValue)
    1938                            .dwattr $C$DW$94, DW_AT_high_pc(0x00)
    1939                            .dwattr $C$DW$94, DW_AT_TI_symbol_name("adc1GetConfigValue")
    1940                            .dwattr $C$DW$94, DW_AT_external
    1941                            .dwattr $C$DW$94, DW_AT_TI_begin_file("../hcg/source/HL_adc.c")
    1942                            .dwattr $C$DW$94, DW_AT_TI_begin_line(0x3b5)
    1943                            .dwattr $C$DW$94, DW_AT_TI_begin_column(0x06)
    1944                            .dwattr $C$DW$94, DW_AT_decl_file("../hcg/source/HL_adc.c")
    1945                            .dwattr $C$DW$94, DW_AT_decl_line(0x3b5)
    1946                            .dwattr $C$DW$94, DW_AT_decl_column(0x06)
    1947                            .dwattr $C$DW$94, DW_AT_TI_max_frame_size(0x08)
    1948                            .dwpsn  file "../hcg/source/HL_adc.c",line 950,column 1,is_stmt,address adc1GetConfigValue,isa
    1949                    
    1950                            .dwfde $C$DW$CIE, adc1GetConfigValue
    1951                    $C$DW$95        .dwtag  DW_TAG_formal_parameter
    1952                            .dwattr $C$DW$95, DW_AT_name("config_reg")
    1953                            .dwattr $C$DW$95, DW_AT_TI_symbol_name("config_reg")
    1954                            .dwattr $C$DW$95, DW_AT_type(*$C$DW$T$53)
    1955                            .dwattr $C$DW$95, DW_AT_location[DW_OP_reg0]
    1956                    
    1957                    $C$DW$96        .dwtag  DW_TAG_formal_parameter
    1958                            .dwattr $C$DW$96, DW_AT_name("type")
    1959                            .dwattr $C$DW$96, DW_AT_TI_symbol_name("type")
    1960                            .dwattr $C$DW$96, DW_AT_type(*$C$DW$T$55)
    1961                            .dwattr $C$DW$96, DW_AT_location[DW_OP_reg1]
    1962                    
    1963                    
    1964                    ;*****************************************************************************
    1965                    ;* FUNCTION NAME: adc1GetConfigValue                                         *
    1966                    ;*                                                                           *
    1967                    ;*   Regs Modified     : A1,V9,SP,SR                                         *
    1968                    ;*   Regs Used         : A1,A2,V9,SP,LR,SR                                   *
    1969                    ;*   Local Frame Size  : 0 Args + 8 Auto + 0 Save = 8 byte                   *
    1970                    ;*****************************************************************************
    1971 00000884           adc1GetConfigValue:
    1972                    ;* --------------------------------------------------------------------------*
    1973                            .dwcfi  cfa_offset, 0
    1974 00000884 E24DD008          SUB       SP, SP, #8            ; [DPU_4_PIPE0] 
    1975                            .dwcfi  cfa_offset, 8
    1976                    $C$DW$97        .dwtag  DW_TAG_variable
    1977                            .dwattr $C$DW$97, DW_AT_name("config_reg")
    1978                            .dwattr $C$DW$97, DW_AT_TI_symbol_name("config_reg")
    1979                            .dwattr $C$DW$97, DW_AT_type(*$C$DW$T$53)
    1980                            .dwattr $C$DW$97, DW_AT_location[DW_OP_breg13 0]
TI ARM Assembler PC v16.9.0 Thu Feb 16 13:27:09 2017

Tools Copyright (c) 1996-2015 Texas Instruments Incorporated
C:\Users\bob\AppData\Local\Temp\0838410                              PAGE   37

    1981                    
    1982                    $C$DW$98        .dwtag  DW_TAG_variable
    1983                            .dwattr $C$DW$98, DW_AT_name("type")
    1984                            .dwattr $C$DW$98, DW_AT_TI_symbol_name("type")
    1985                            .dwattr $C$DW$98, DW_AT_type(*$C$DW$T$55)
    1986                            .dwattr $C$DW$98, DW_AT_location[DW_OP_breg13 4]
    1987                    
    1988 00000888 E5CD1004          STRB      A2, [SP, #4]          ; [DPU_4_PIPE0] |950| 
    1989 0000088c E58D0000          STR       A1, [SP, #0]          ; [DPU_4_PIPE0] |950| 
    1990                            .dwpsn  file "../hcg/source/HL_adc.c",line 951,column 2,is_stmt,isa 2
    1991 00000890 E5DDC004          LDRB      V9, [SP, #4]          ; [DPU_4_PIPE0] |951| 
    1992 00000894 E35C0000          CMP       V9, #0                ; [DPU_4_PIPE0] |951| 
    1993 00000898 1AFFFFFE!         BNE       ||$C$L30||            ; [DPU_4_PIPE1] |951| 
    1994                            ; BRANCHCC OCCURS {||$C$L30||}   ; [] |951| 
    1995                    ;* --------------------------------------------------------------------------*
    1996                            .dwpsn  file "../hcg/source/HL_adc.c",line 953,column 9,is_stmt,isa 2
    1997 0000089c E59DC000          LDR       V9, [SP, #0]          ; [DPU_4_PIPE0] |953| 
    1998 000008a0 E59F0248          LDR       A1, $C$CON28          ; [DPU_4_PIPE0] |953| 
    1999 000008a4 E58C0000          STR       A1, [V9, #0]          ; [DPU_4_PIPE0] |953| 
    2000                            .dwpsn  file "../hcg/source/HL_adc.c",line 954,column 9,is_stmt,isa 2
    2001 000008a8 E59DC000          LDR       V9, [SP, #0]          ; [DPU_4_PIPE0] |954| 
    2002 000008ac E3A00007          MOV       A1, #7                ; [DPU_4_PIPE0] |954| 
    2003 000008b0 E58C0004          STR       A1, [V9, #4]          ; [DPU_4_PIPE0] |954| 
    2004                            .dwpsn  file "../hcg/source/HL_adc.c",line 955,column 9,is_stmt,isa 2
    2005 000008b4 E59DC000          LDR       V9, [SP, #0]          ; [DPU_4_PIPE0] |955| 
    2006 000008b8 E3A00000          MOV       A1, #0                ; [DPU_4_PIPE0] |955| 
    2007 000008bc E58C0008          STR       A1, [V9, #8]          ; [DPU_4_PIPE0] |955| 
    2008                            .dwpsn  file "../hcg/source/HL_adc.c",line 956,column 9,is_stmt,isa 2
    2009 000008c0 E59DC000          LDR       V9, [SP, #0]          ; [DPU_4_PIPE0] |956| 
    2010 000008c4 E3A00000          MOV       A1, #0                ; [DPU_4_PIPE0] |956| 
    2011 000008c8 E58C000C          STR       A1, [V9, #12]         ; [DPU_4_PIPE0] |956| 
    2012                            .dwpsn  file "../hcg/source/HL_adc.c",line 957,column 9,is_stmt,isa 2
    2013 000008cc E59DC000          LDR       V9, [SP, #0]          ; [DPU_4_PIPE0] |957| 
    2014 000008d0 E3A00000          MOV       A1, #0                ; [DPU_4_PIPE0] |957| 
    2015 000008d4 E58C0010          STR       A1, [V9, #16]         ; [DPU_4_PIPE0] |957| 
    2016                            .dwpsn  file "../hcg/source/HL_adc.c",line 958,column 9,is_stmt,isa 2
    2017 000008d8 E59DC000          LDR       V9, [SP, #0]          ; [DPU_4_PIPE0] |958| 
    2018 000008dc E3A00000          MOV       A1, #0                ; [DPU_4_PIPE0] |958| 
    2019 000008e0 E58C0014          STR       A1, [V9, #20]         ; [DPU_4_PIPE0] |958| 
    2020                            .dwpsn  file "../hcg/source/HL_adc.c",line 959,column 9,is_stmt,isa 2
    2021 000008e4 E59DC000          LDR       V9, [SP, #0]          ; [DPU_4_PIPE0] |959| 
    2022 000008e8 E3A00000          MOV       A1, #0                ; [DPU_4_PIPE0] |959| 
    2023 000008ec E58C0018          STR       A1, [V9, #24]         ; [DPU_4_PIPE0] |959| 
    2024                            .dwpsn  file "../hcg/source/HL_adc.c",line 960,column 9,is_stmt,isa 2
    2025 000008f0 E59DC000          LDR       V9, [SP, #0]          ; [DPU_4_PIPE0] |960| 
    2026 000008f4 E3A00000          MOV       A1, #0                ; [DPU_4_PIPE0] |960| 
    2027 000008f8 E58C001C          STR       A1, [V9, #28]         ; [DPU_4_PIPE0] |960| 
    2028                            .dwpsn  file "../hcg/source/HL_adc.c",line 961,column 9,is_stmt,isa 2
    2029 000008fc E59DC000          LDR       V9, [SP, #0]          ; [DPU_4_PIPE0] |961| 
    2030 00000900 E59F018C          LDR       A1, $C$CON5           ; [DPU_4_PIPE0] |961| 
    2031 00000904 E58C0020          STR       A1, [V9, #32]         ; [DPU_4_PIPE0] |961| 
    2032                            .dwpsn  file "../hcg/source/HL_adc.c",line 962,column 9,is_stmt,isa 2
    2033 00000908 E59DC000          LDR       V9, [SP, #0]          ; [DPU_4_PIPE0] |962| 
    2034 0000090c E3A00002          MOV       A1, #2                ; [DPU_4_PIPE0] |962| 
    2035 00000910 E58C0024          STR       A1, [V9, #36]         ; [DPU_4_PIPE0] |962| 
TI ARM Assembler PC v16.9.0 Thu Feb 16 13:27:09 2017

Tools Copyright (c) 1996-2015 Texas Instruments Incorporated
C:\Users\bob\AppData\Local\Temp\0838410                              PAGE   38

    2036                            .dwpsn  file "../hcg/source/HL_adc.c",line 963,column 9,is_stmt,isa 2
    2037 00000914 E59DC000          LDR       V9, [SP, #0]          ; [DPU_4_PIPE0] |963| 
    2038 00000918 E3A00000          MOV       A1, #0                ; [DPU_4_PIPE0] |963| 
    2039 0000091c E58C0028          STR       A1, [V9, #40]         ; [DPU_4_PIPE0] |963| 
    2040                            .dwpsn  file "../hcg/source/HL_adc.c",line 964,column 9,is_stmt,isa 2
    2041 00000920 E59DC000          LDR       V9, [SP, #0]          ; [DPU_4_PIPE0] |964| 
    2042 00000924 E3A00000          MOV       A1, #0                ; [DPU_4_PIPE0] |964| 
    2043 00000928 E58C002C          STR       A1, [V9, #44]         ; [DPU_4_PIPE0] |964| 
    2044                            .dwpsn  file "../hcg/source/HL_adc.c",line 965,column 9,is_stmt,isa 2
    2045 0000092c E59DC000          LDR       V9, [SP, #0]          ; [DPU_4_PIPE0] |965| 
    2046 00000930 E3A00000          MOV       A1, #0                ; [DPU_4_PIPE0] |965| 
    2047 00000934 E58C0030          STR       A1, [V9, #48]         ; [DPU_4_PIPE0] |965| 
    2048                            .dwpsn  file "../hcg/source/HL_adc.c",line 966,column 9,is_stmt,isa 2
    2049 00000938 E59DC000          LDR       V9, [SP, #0]          ; [DPU_4_PIPE0] |966| 
    2050 0000093c E3A00000          MOV       A1, #0                ; [DPU_4_PIPE0] |966| 
    2051 00000940 E58C0034          STR       A1, [V9, #52]         ; [DPU_4_PIPE0] |966| 
    2052                            .dwpsn  file "../hcg/source/HL_adc.c",line 967,column 9,is_stmt,isa 2
    2053 00000944 E59DC000          LDR       V9, [SP, #0]          ; [DPU_4_PIPE0] |967| 
    2054 00000948 E3A00000          MOV       A1, #0                ; [DPU_4_PIPE0] |967| 
    2055 0000094c E58C0038          STR       A1, [V9, #56]         ; [DPU_4_PIPE0] |967| 
    2056                            .dwpsn  file "../hcg/source/HL_adc.c",line 968,column 9,is_stmt,isa 2
    2057 00000950 E59DC000          LDR       V9, [SP, #0]          ; [DPU_4_PIPE0] |968| 
    2058 00000954 E3A00000          MOV       A1, #0                ; [DPU_4_PIPE0] |968| 
    2059 00000958 E58C003C          STR       A1, [V9, #60]         ; [DPU_4_PIPE0] |968| 
    2060                            .dwpsn  file "../hcg/source/HL_adc.c",line 969,column 9,is_stmt,isa 2
    2061 0000095c E59DC000          LDR       V9, [SP, #0]          ; [DPU_4_PIPE0] |969| 
    2062 00000960 E3A00005          MOV       A1, #5                ; [DPU_4_PIPE0] |969| 
    2063 00000964 E58C0040          STR       A1, [V9, #64]         ; [DPU_4_PIPE0] |969| 
    2064                            .dwpsn  file "../hcg/source/HL_adc.c",line 970,column 2,is_stmt,isa 2
    2065 00000968 EAFFFFFE!         B         ||$C$L31||            ; [DPU_4_PIPE1] |970| 
    2066                            ; BRANCH OCCURS {||$C$L31||}     ; [] |970| 
    2067                    ;* --------------------------------------------------------------------------*
    2068 0000096c           ||$C$L30||:    
    2069                            .dwpsn  file "../hcg/source/HL_adc.c",line 973,column 9,is_stmt,isa 2
    2070 0000096c E59FC114          LDR       V9, $C$CON2           ; [DPU_4_PIPE0] |973| 
    2071 00000970 E59D0000          LDR       A1, [SP, #0]          ; [DPU_4_PIPE0] |973| 
    2072 00000974 E59CC000          LDR       V9, [V9, #0]          ; [DPU_4_PIPE0] |973| 
    2073 00000978 E580C000          STR       V9, [A1, #0]          ; [DPU_4_PIPE0] |973| 
    2074                            .dwpsn  file "../hcg/source/HL_adc.c",line 974,column 9,is_stmt,isa 2
    2075 0000097c E59FC108          LDR       V9, $C$CON3           ; [DPU_4_PIPE0] |974| 
    2076 00000980 E59D0000          LDR       A1, [SP, #0]          ; [DPU_4_PIPE0] |974| 
    2077 00000984 E59CC000          LDR       V9, [V9, #0]          ; [DPU_4_PIPE0] |974| 
    2078 00000988 E580C004          STR       V9, [A1, #4]          ; [DPU_4_PIPE0] |974| 
    2079                            .dwpsn  file "../hcg/source/HL_adc.c",line 975,column 9,is_stmt,isa 2
    2080 0000098c E59FC108          LDR       V9, $C$CON7           ; [DPU_4_PIPE0] |975| 
    2081 00000990 E59D0000          LDR       A1, [SP, #0]          ; [DPU_4_PIPE0] |975| 
    2082 00000994 E59CC000          LDR       V9, [V9, #0]          ; [DPU_4_PIPE0] |975| 
    2083 00000998 E580C008          STR       V9, [A1, #8]          ; [DPU_4_PIPE0] |975| 
    2084                            .dwpsn  file "../hcg/source/HL_adc.c",line 976,column 9,is_stmt,isa 2
    2085 0000099c E59FC108          LDR       V9, $C$CON11          ; [DPU_4_PIPE0] |976| 
    2086 000009a0 E59D0000          LDR       A1, [SP, #0]          ; [DPU_4_PIPE0] |976| 
    2087 000009a4 E59CC000          LDR       V9, [V9, #0]          ; [DPU_4_PIPE0] |976| 
    2088 000009a8 E580C00C          STR       V9, [A1, #12]         ; [DPU_4_PIPE0] |976| 
    2089                            .dwpsn  file "../hcg/source/HL_adc.c",line 977,column 9,is_stmt,isa 2
    2090 000009ac E59FC108          LDR       V9, $C$CON15          ; [DPU_4_PIPE0] |977| 
TI ARM Assembler PC v16.9.0 Thu Feb 16 13:27:09 2017

Tools Copyright (c) 1996-2015 Texas Instruments Incorporated
C:\Users\bob\AppData\Local\Temp\0838410                              PAGE   39

    2091 000009b0 E59D0000          LDR       A1, [SP, #0]          ; [DPU_4_PIPE0] |977| 
    2092 000009b4 E59CC000          LDR       V9, [V9, #0]          ; [DPU_4_PIPE0] |977| 
    2093 000009b8 E580C010          STR       V9, [A1, #16]         ; [DPU_4_PIPE0] |977| 
    2094                            .dwpsn  file "../hcg/source/HL_adc.c",line 978,column 9,is_stmt,isa 2
    2095 000009bc E59FC0DC          LDR       V9, $C$CON8           ; [DPU_4_PIPE0] |978| 
    2096 000009c0 E59D0000          LDR       A1, [SP, #0]          ; [DPU_4_PIPE0] |978| 
    2097 000009c4 E59CC000          LDR       V9, [V9, #0]          ; [DPU_4_PIPE0] |978| 
    2098 000009c8 E580C014          STR       V9, [A1, #20]         ; [DPU_4_PIPE0] |978| 
    2099                            .dwpsn  file "../hcg/source/HL_adc.c",line 979,column 9,is_stmt,isa 2
    2100 000009cc E59FC0DC          LDR       V9, $C$CON12          ; [DPU_4_PIPE0] |979| 
    2101 000009d0 E59D0000          LDR       A1, [SP, #0]          ; [DPU_4_PIPE0] |979| 
    2102 000009d4 E59CC000          LDR       V9, [V9, #0]          ; [DPU_4_PIPE0] |979| 
    2103 000009d8 E580C018          STR       V9, [A1, #24]         ; [DPU_4_PIPE0] |979| 
    2104                            .dwpsn  file "../hcg/source/HL_adc.c",line 980,column 9,is_stmt,isa 2
    2105 000009dc E59FC0DC          LDR       V9, $C$CON16          ; [DPU_4_PIPE0] |980| 
    2106 000009e0 E59D0000          LDR       A1, [SP, #0]          ; [DPU_4_PIPE0] |980| 
    2107 000009e4 E59CC000          LDR       V9, [V9, #0]          ; [DPU_4_PIPE0] |980| 
    2108 000009e8 E580C01C          STR       V9, [A1, #28]         ; [DPU_4_PIPE0] |980| 
    2109                            .dwpsn  file "../hcg/source/HL_adc.c",line 981,column 9,is_stmt,isa 2
    2110 000009ec E59FC09C          LDR       V9, $C$CON4           ; [DPU_4_PIPE0] |981| 
    2111 000009f0 E59D0000          LDR       A1, [SP, #0]          ; [DPU_4_PIPE0] |981| 
    2112 000009f4 E59CC000          LDR       V9, [V9, #0]          ; [DPU_4_PIPE0] |981| 
    2113 000009f8 E580C020          STR       V9, [A1, #32]         ; [DPU_4_PIPE0] |981| 
    2114                            .dwpsn  file "../hcg/source/HL_adc.c",line 982,column 9,is_stmt,isa 2
    2115 000009fc E59FC094          LDR       V9, $C$CON6           ; [DPU_4_PIPE0] |982| 
    2116 00000a00 E59D0000          LDR       A1, [SP, #0]          ; [DPU_4_PIPE0] |982| 
    2117 00000a04 E59CC000          LDR       V9, [V9, #0]          ; [DPU_4_PIPE0] |982| 
    2118 00000a08 E580C024          STR       V9, [A1, #36]         ; [DPU_4_PIPE0] |982| 
    2119                            .dwpsn  file "../hcg/source/HL_adc.c",line 983,column 9,is_stmt,isa 2
    2120 00000a0c E59FC090          LDR       V9, $C$CON9           ; [DPU_4_PIPE0] |983| 
    2121 00000a10 E59D0000          LDR       A1, [SP, #0]          ; [DPU_4_PIPE0] |983| 
    2122 00000a14 E59CC000          LDR       V9, [V9, #0]          ; [DPU_4_PIPE0] |983| 
    2123 00000a18 E580C028          STR       V9, [A1, #40]         ; [DPU_4_PIPE0] |983| 
    2124                            .dwpsn  file "../hcg/source/HL_adc.c",line 984,column 9,is_stmt,isa 2
    2125 00000a1c E59FC090          LDR       V9, $C$CON13          ; [DPU_4_PIPE0] |984| 
    2126 00000a20 E59D0000          LDR       A1, [SP, #0]          ; [DPU_4_PIPE0] |984| 
    2127 00000a24 E59CC000          LDR       V9, [V9, #0]          ; [DPU_4_PIPE0] |984| 
    2128 00000a28 E580C02C          STR       V9, [A1, #44]         ; [DPU_4_PIPE0] |984| 
    2129                            .dwpsn  file "../hcg/source/HL_adc.c",line 985,column 9,is_stmt,isa 2
    2130 00000a2c E59FC090          LDR       V9, $C$CON17          ; [DPU_4_PIPE0] |985| 
    2131 00000a30 E59D0000          LDR       A1, [SP, #0]          ; [DPU_4_PIPE0] |985| 
    2132 00000a34 E59CC000          LDR       V9, [V9, #0]          ; [DPU_4_PIPE0] |985| 
    2133 00000a38 E580C030          STR       V9, [A1, #48]         ; [DPU_4_PIPE0] |985| 
    2134                            .dwpsn  file "../hcg/source/HL_adc.c",line 986,column 9,is_stmt,isa 2
    2135 00000a3c E59FC064          LDR       V9, $C$CON10          ; [DPU_4_PIPE0] |986| 
    2136 00000a40 E59D0000          LDR       A1, [SP, #0]          ; [DPU_4_PIPE0] |986| 
    2137 00000a44 E59CC000          LDR       V9, [V9, #0]          ; [DPU_4_PIPE0] |986| 
    2138 00000a48 E580C034          STR       V9, [A1, #52]         ; [DPU_4_PIPE0] |986| 
    2139                            .dwpsn  file "../hcg/source/HL_adc.c",line 987,column 9,is_stmt,isa 2
    2140 00000a4c E59FC064          LDR       V9, $C$CON14          ; [DPU_4_PIPE0] |987| 
    2141 00000a50 E59D0000          LDR       A1, [SP, #0]          ; [DPU_4_PIPE0] |987| 
    2142 00000a54 E59CC000          LDR       V9, [V9, #0]          ; [DPU_4_PIPE0] |987| 
    2143 00000a58 E580C038          STR       V9, [A1, #56]         ; [DPU_4_PIPE0] |987| 
    2144                            .dwpsn  file "../hcg/source/HL_adc.c",line 988,column 9,is_stmt,isa 2
    2145 00000a5c E59FC064          LDR       V9, $C$CON18          ; [DPU_4_PIPE0] |988| 
TI ARM Assembler PC v16.9.0 Thu Feb 16 13:27:09 2017

Tools Copyright (c) 1996-2015 Texas Instruments Incorporated
C:\Users\bob\AppData\Local\Temp\0838410                              PAGE   40

    2146 00000a60 E59D0000          LDR       A1, [SP, #0]          ; [DPU_4_PIPE0] |988| 
    2147 00000a64 E59CC000          LDR       V9, [V9, #0]          ; [DPU_4_PIPE0] |988| 
    2148 00000a68 E580C03C          STR       V9, [A1, #60]         ; [DPU_4_PIPE0] |988| 
    2149                            .dwpsn  file "../hcg/source/HL_adc.c",line 989,column 9,is_stmt,isa 2
    2150 00000a6c E59FC070          LDR       V9, $C$CON25          ; [DPU_4_PIPE0] |989| 
    2151 00000a70 E59D0000          LDR       A1, [SP, #0]          ; [DPU_4_PIPE0] |989| 
    2152 00000a74 E59CC000          LDR       V9, [V9, #0]          ; [DPU_4_PIPE0] |989| 
    2153 00000a78 E580C040          STR       V9, [A1, #64]         ; [DPU_4_PIPE0] |989| 
    2154                            .dwpsn  file "../hcg/source/HL_adc.c",line 991,column 1,is_stmt,isa 2
    2155                    ;* --------------------------------------------------------------------------*
    2156 00000a7c           ||$C$L31||:    
    2157 00000a7c E28DD008          ADD       SP, SP, #8            ; [DPU_4_PIPE0] 
    2158                            .dwcfi  cfa_offset, 0
    2159                    $C$DW$99        .dwtag  DW_TAG_TI_branch
    2160                            .dwattr $C$DW$99, DW_AT_low_pc(0x00)
    2161                            .dwattr $C$DW$99, DW_AT_TI_return
    2162                    
    2163 00000a80 E12FFF1E          BX        LR                    ; [DPU_4_PIPE1] 
    2164                            ; BRANCH OCCURS                  ; [] 
    2165                            .dwattr $C$DW$94, DW_AT_TI_end_file("../hcg/source/HL_adc.c")
    2166                            .dwattr $C$DW$94, DW_AT_TI_end_line(0x3df)
    2167                            .dwattr $C$DW$94, DW_AT_TI_end_column(0x01)
    2168                            .dwendentry
    2169                            .dwendtag $C$DW$94
    2170                    
    2171                    ;******************************************************************************
    2172                    ;* CONSTANT TABLE                                                             *
    2173                    ;******************************************************************************
    2174 00000a84                   .sect   ".text"
    2175                            .align  4
    2176 00000a84 FFF7C000  ||$C$CON1||:    .bits   -540672,32
    2177                            .align  4
    2178 00000a88 FFF7C004  ||$C$CON2||:    .bits   -540668,32
    2179                            .align  4
    2180 00000a8c FFF7C008  ||$C$CON3||:    .bits   -540664,32
    2181                            .align  4
    2182 00000a90 FFF7C058  ||$C$CON4||:    .bits   -540584,32
    2183                            .align  4
    2184 00000a94 00080010  ||$C$CON5||:    .bits   524304,32
    2185                            .align  4
    2186 00000a98 FFF7C05C  ||$C$CON6||:    .bits   -540580,32
    2187                            .align  4
    2188 00000a9c FFF7C010  ||$C$CON7||:    .bits   -540656,32
    2189                            .align  4
    2190 00000aa0 FFF7C01C  ||$C$CON8||:    .bits   -540644,32
    2191                            .align  4
    2192 00000aa4 FFF7C060  ||$C$CON9||:    .bits   -540576,32
    2193                            .align  4
    2194 00000aa8 FFF7C11C  ||$C$CON10||:   .bits   -540388,32
    2195                            .align  4
    2196 00000aac FFF7C014  ||$C$CON11||:   .bits   -540652,32
    2197                            .align  4
    2198 00000ab0 FFF7C020  ||$C$CON12||:   .bits   -540640,32
    2199                            .align  4
    2200 00000ab4 FFF7C064  ||$C$CON13||:   .bits   -540572,32
TI ARM Assembler PC v16.9.0 Thu Feb 16 13:27:09 2017

Tools Copyright (c) 1996-2015 Texas Instruments Incorporated
C:\Users\bob\AppData\Local\Temp\0838410                              PAGE   41

    2201                            .align  4
    2202 00000ab8 FFF7C120  ||$C$CON14||:   .bits   -540384,32
    2203                            .align  4
    2204 00000abc FFF7C018  ||$C$CON15||:   .bits   -540648,32
    2205                            .align  4
    2206 00000ac0 FFF7C024  ||$C$CON16||:   .bits   -540636,32
    2207                            .align  4
    2208 00000ac4 FFF7C068  ||$C$CON17||:   .bits   -540568,32
    2209                            .align  4
    2210 00000ac8 FFF7C124  ||$C$CON18||:   .bits   -540380,32
    2211                            .align  4
    2212 00000acc FFF7C100  ||$C$CON19||:   .bits   -540416,32
    2213                            .align  4
    2214 00000ad0 FFF7C0FC  ||$C$CON20||:   .bits   -540420,32
    2215                            .align  4
    2216 00000ad4 FFF7C110  ||$C$CON21||:   .bits   -540400,32
    2217                            .align  4
    2218 00000ad8 FFF7C118  ||$C$CON22||:   .bits   -540392,32
    2219                            .align  4
    2220 00000adc FFF7C114  ||$C$CON23||:   .bits   -540396,32
    2221                            .align  4
    2222 00000ae0 80140001  ||$C$CON24||:   .bits   -2146172927,32
    2223                            .align  4
    2224 00000ae4 FFF7C180  ||$C$CON25||:   .bits   -540288,32
    2225                            .align  4
    2226 00000ae8 00000000! ||$C$CON26||:   .bits   s_adcFiFoSize,32
    2227                            .align  4
    2228 00000aec 00000000! ||$C$CON27||:   .bits   s_adcSelect,32
    2229                            .align  4
    2230 00000af0 81140001  ||$C$CON28||:   .bits   -2129395711,32
    2231                    ;*****************************************************************************
    2232                    ;* UNDEFINED EXTERNAL REFERENCES                                             *
    2233                    ;*****************************************************************************
    2234                            .global memset
    2235                    
    2236                    ;******************************************************************************
    2237                    ;* BUILD ATTRIBUTES                                                           *
    2238                    ;******************************************************************************
    2239                            .battr "aeabi", Tag_File, 1, Tag_ABI_PCS_wchar_t(2)
    2240                            .battr "aeabi", Tag_File, 1, Tag_ABI_FP_rounding(0)
    2241                            .battr "aeabi", Tag_File, 1, Tag_ABI_FP_denormal(0)
    2242                            .battr "aeabi", Tag_File, 1, Tag_ABI_FP_exceptions(0)
    2243                            .battr "aeabi", Tag_File, 1, Tag_ABI_FP_number_model(1)
    2244                            .battr "aeabi", Tag_File, 1, Tag_ABI_enum_size(1)
    2245                            .battr "aeabi", Tag_File, 1, Tag_ABI_optimization_goals(5)
    2246                            .battr "aeabi", Tag_File, 1, Tag_ABI_FP_optimization_goals(0)
    2247                            .battr "TI", Tag_File, 1, Tag_Bitfield_layout(2)
    2248                            .battr "aeabi", Tag_File, 1, Tag_ABI_VFP_args(3)
    2249                            .battr "TI", Tag_File, 1, Tag_FP_interface(1)
    2250                    
    2251                    ;******************************************************************************
    2252                    ;* TYPE INFORMATION                                                           *
    2253                    ;******************************************************************************
    2254                    
    2255                    $C$DW$T$21      .dwtag  DW_TAG_structure_type
TI ARM Assembler PC v16.9.0 Thu Feb 16 13:27:09 2017

Tools Copyright (c) 1996-2015 Texas Instruments Incorporated
C:\Users\bob\AppData\Local\Temp\0838410                              PAGE   42

    2256                            .dwattr $C$DW$T$21, DW_AT_byte_size(0x20)
    2257                    $C$DW$100       .dwtag  DW_TAG_member
    2258                            .dwattr $C$DW$100, DW_AT_type(*$C$DW$T$20)
    2259                            .dwattr $C$DW$100, DW_AT_name("BUF0")
    2260                            .dwattr $C$DW$100, DW_AT_TI_symbol_name("BUF0")
    2261                            .dwattr $C$DW$100, DW_AT_data_member_location[DW_OP_plus_uconst 0x0]
    2262                            .dwattr $C$DW$100, DW_AT_accessibility(DW_ACCESS_public)
    2263                            .dwattr $C$DW$100, DW_AT_decl_file("C:\Users\bob\Documents\Projects\induct_forge\RM57Lx_test\P
    2264                            .dwattr $C$DW$100, DW_AT_decl_line(0x64)
    2265                            .dwattr $C$DW$100, DW_AT_decl_column(0x10)
    2266                    
    2267                    $C$DW$101       .dwtag  DW_TAG_member
    2268                            .dwattr $C$DW$101, DW_AT_type(*$C$DW$T$20)
    2269                            .dwattr $C$DW$101, DW_AT_name("BUF1")
    2270                            .dwattr $C$DW$101, DW_AT_TI_symbol_name("BUF1")
    2271                            .dwattr $C$DW$101, DW_AT_data_member_location[DW_OP_plus_uconst 0x4]
    2272                            .dwattr $C$DW$101, DW_AT_accessibility(DW_ACCESS_public)
    2273                            .dwattr $C$DW$101, DW_AT_decl_file("C:\Users\bob\Documents\Projects\induct_forge\RM57Lx_test\P
    2274                            .dwattr $C$DW$101, DW_AT_decl_line(0x65)
    2275                            .dwattr $C$DW$101, DW_AT_decl_column(0x10)
    2276                    
    2277                    $C$DW$102       .dwtag  DW_TAG_member
    2278                            .dwattr $C$DW$102, DW_AT_type(*$C$DW$T$20)
    2279                            .dwattr $C$DW$102, DW_AT_name("BUF2")
    2280                            .dwattr $C$DW$102, DW_AT_TI_symbol_name("BUF2")
    2281                            .dwattr $C$DW$102, DW_AT_data_member_location[DW_OP_plus_uconst 0x8]
    2282                            .dwattr $C$DW$102, DW_AT_accessibility(DW_ACCESS_public)
    2283                            .dwattr $C$DW$102, DW_AT_decl_file("C:\Users\bob\Documents\Projects\induct_forge\RM57Lx_test\P
    2284                            .dwattr $C$DW$102, DW_AT_decl_line(0x66)
    2285                            .dwattr $C$DW$102, DW_AT_decl_column(0x10)
    2286                    
    2287                    $C$DW$103       .dwtag  DW_TAG_member
    2288                            .dwattr $C$DW$103, DW_AT_type(*$C$DW$T$20)
    2289                            .dwattr $C$DW$103, DW_AT_name("BUF3")
    2290                            .dwattr $C$DW$103, DW_AT_TI_symbol_name("BUF3")
    2291                            .dwattr $C$DW$103, DW_AT_data_member_location[DW_OP_plus_uconst 0xc]
    2292                            .dwattr $C$DW$103, DW_AT_accessibility(DW_ACCESS_public)
    2293                            .dwattr $C$DW$103, DW_AT_decl_file("C:\Users\bob\Documents\Projects\induct_forge\RM57Lx_test\P
    2294                            .dwattr $C$DW$103, DW_AT_decl_line(0x67)
    2295                            .dwattr $C$DW$103, DW_AT_decl_column(0x10)
    2296                    
    2297                    $C$DW$104       .dwtag  DW_TAG_member
    2298                            .dwattr $C$DW$104, DW_AT_type(*$C$DW$T$20)
    2299                            .dwattr $C$DW$104, DW_AT_name("BUF4")
    2300                            .dwattr $C$DW$104, DW_AT_TI_symbol_name("BUF4")
    2301                            .dwattr $C$DW$104, DW_AT_data_member_location[DW_OP_plus_uconst 0x10]
    2302                            .dwattr $C$DW$104, DW_AT_accessibility(DW_ACCESS_public)
    2303                            .dwattr $C$DW$104, DW_AT_decl_file("C:\Users\bob\Documents\Projects\induct_forge\RM57Lx_test\P
    2304                            .dwattr $C$DW$104, DW_AT_decl_line(0x68)
    2305                            .dwattr $C$DW$104, DW_AT_decl_column(0x10)
    2306                    
    2307                    $C$DW$105       .dwtag  DW_TAG_member
    2308                            .dwattr $C$DW$105, DW_AT_type(*$C$DW$T$20)
    2309                            .dwattr $C$DW$105, DW_AT_name("BUF5")
    2310                            .dwattr $C$DW$105, DW_AT_TI_symbol_name("BUF5")
TI ARM Assembler PC v16.9.0 Thu Feb 16 13:27:09 2017

Tools Copyright (c) 1996-2015 Texas Instruments Incorporated
C:\Users\bob\AppData\Local\Temp\0838410                              PAGE   43

    2311                            .dwattr $C$DW$105, DW_AT_data_member_location[DW_OP_plus_uconst 0x14]
    2312                            .dwattr $C$DW$105, DW_AT_accessibility(DW_ACCESS_public)
    2313                            .dwattr $C$DW$105, DW_AT_decl_file("C:\Users\bob\Documents\Projects\induct_forge\RM57Lx_test\P
    2314                            .dwattr $C$DW$105, DW_AT_decl_line(0x69)
    2315                            .dwattr $C$DW$105, DW_AT_decl_column(0x10)
    2316                    
    2317                    $C$DW$106       .dwtag  DW_TAG_member
    2318                            .dwattr $C$DW$106, DW_AT_type(*$C$DW$T$20)
    2319                            .dwattr $C$DW$106, DW_AT_name("BUF6")
    2320                            .dwattr $C$DW$106, DW_AT_TI_symbol_name("BUF6")
    2321                            .dwattr $C$DW$106, DW_AT_data_member_location[DW_OP_plus_uconst 0x18]
    2322                            .dwattr $C$DW$106, DW_AT_accessibility(DW_ACCESS_public)
    2323                            .dwattr $C$DW$106, DW_AT_decl_file("C:\Users\bob\Documents\Projects\induct_forge\RM57Lx_test\P
    2324                            .dwattr $C$DW$106, DW_AT_decl_line(0x6a)
    2325                            .dwattr $C$DW$106, DW_AT_decl_column(0x10)
    2326                    
    2327                    $C$DW$107       .dwtag  DW_TAG_member
    2328                            .dwattr $C$DW$107, DW_AT_type(*$C$DW$T$20)
    2329                            .dwattr $C$DW$107, DW_AT_name("BUF7")
    2330                            .dwattr $C$DW$107, DW_AT_TI_symbol_name("BUF7")
    2331                            .dwattr $C$DW$107, DW_AT_data_member_location[DW_OP_plus_uconst 0x1c]
    2332                            .dwattr $C$DW$107, DW_AT_accessibility(DW_ACCESS_public)
    2333                            .dwattr $C$DW$107, DW_AT_decl_file("C:\Users\bob\Documents\Projects\induct_forge\RM57Lx_test\P
    2334                            .dwattr $C$DW$107, DW_AT_decl_line(0x6b)
    2335                            .dwattr $C$DW$107, DW_AT_decl_column(0x10)
    2336                    
    2337                            .dwattr $C$DW$T$21, DW_AT_decl_file("C:\Users\bob\Documents\Projects\induct_forge\RM57Lx_test\
    2338                            .dwattr $C$DW$T$21, DW_AT_decl_line(0x63)
    2339                            .dwattr $C$DW$T$21, DW_AT_decl_column(0x05)
    2340                            .dwendtag $C$DW$T$21
    2341                    
    2342                    
    2343                    $C$DW$T$23      .dwtag  DW_TAG_array_type
    2344                            .dwattr $C$DW$T$23, DW_AT_type(*$C$DW$T$21)
    2345                            .dwattr $C$DW$T$23, DW_AT_language(DW_LANG_C)
    2346                            .dwattr $C$DW$T$23, DW_AT_byte_size(0x60)
    2347                    $C$DW$108       .dwtag  DW_TAG_subrange_type
    2348                            .dwattr $C$DW$108, DW_AT_upper_bound(0x02)
    2349                    
    2350                            .dwendtag $C$DW$T$23
    2351                    
    2352                    $C$DW$T$2       .dwtag  DW_TAG_unspecified_type
    2353                            .dwattr $C$DW$T$2, DW_AT_name("void")
    2354                    
    2355                    $C$DW$T$3       .dwtag  DW_TAG_pointer_type
    2356                            .dwattr $C$DW$T$3, DW_AT_type(*$C$DW$T$2)
    2357                            .dwattr $C$DW$T$3, DW_AT_address_class(0x20)
    2358                    
    2359                    
    2360                    $C$DW$T$44      .dwtag  DW_TAG_subroutine_type
    2361                            .dwattr $C$DW$T$44, DW_AT_language(DW_LANG_C)
    2362                            .dwendtag $C$DW$T$44
    2363                    
    2364                    $C$DW$T$45      .dwtag  DW_TAG_pointer_type
    2365                            .dwattr $C$DW$T$45, DW_AT_type(*$C$DW$T$44)
TI ARM Assembler PC v16.9.0 Thu Feb 16 13:27:09 2017

Tools Copyright (c) 1996-2015 Texas Instruments Incorporated
C:\Users\bob\AppData\Local\Temp\0838410                              PAGE   44

    2366                            .dwattr $C$DW$T$45, DW_AT_address_class(0x20)
    2367                    
    2368                    $C$DW$T$46      .dwtag  DW_TAG_typedef
    2369                            .dwattr $C$DW$T$46, DW_AT_name("t_isrFuncPTR")
    2370                            .dwattr $C$DW$T$46, DW_AT_type(*$C$DW$T$45)
    2371                            .dwattr $C$DW$T$46, DW_AT_language(DW_LANG_C)
    2372                            .dwattr $C$DW$T$46, DW_AT_decl_file("C:/Users/bob/Documents/Projects/induct_forge/RM57Lx_test/
    2373                            .dwattr $C$DW$T$46, DW_AT_decl_line(0x40)
    2374                            .dwattr $C$DW$T$46, DW_AT_decl_column(0x10)
    2375                    
    2376                    $C$DW$T$4       .dwtag  DW_TAG_base_type
    2377                            .dwattr $C$DW$T$4, DW_AT_encoding(DW_ATE_boolean)
    2378                            .dwattr $C$DW$T$4, DW_AT_name("bool")
    2379                            .dwattr $C$DW$T$4, DW_AT_byte_size(0x01)
    2380                    
    2381                    $C$DW$T$5       .dwtag  DW_TAG_base_type
    2382                            .dwattr $C$DW$T$5, DW_AT_encoding(DW_ATE_signed_char)
    2383                            .dwattr $C$DW$T$5, DW_AT_name("signed char")
    2384                            .dwattr $C$DW$T$5, DW_AT_byte_size(0x01)
    2385                    
    2386                    $C$DW$T$57      .dwtag  DW_TAG_typedef
    2387                            .dwattr $C$DW$T$57, DW_AT_name("int8_t")
    2388                            .dwattr $C$DW$T$57, DW_AT_type(*$C$DW$T$5)
    2389                            .dwattr $C$DW$T$57, DW_AT_language(DW_LANG_C)
    2390                            .dwattr $C$DW$T$57, DW_AT_decl_file("C:/ti/ccsv7/tools/compiler/ti-cgt-arm_16.9.0.LTS/include/
    2391                            .dwattr $C$DW$T$57, DW_AT_decl_line(0x2a)
    2392                            .dwattr $C$DW$T$57, DW_AT_decl_column(0x1d)
    2393                    
    2394                    $C$DW$T$58      .dwtag  DW_TAG_typedef
    2395                            .dwattr $C$DW$T$58, DW_AT_name("int_least8_t")
    2396                            .dwattr $C$DW$T$58, DW_AT_type(*$C$DW$T$57)
    2397                            .dwattr $C$DW$T$58, DW_AT_language(DW_LANG_C)
    2398                            .dwattr $C$DW$T$58, DW_AT_decl_file("C:/ti/ccsv7/tools/compiler/ti-cgt-arm_16.9.0.LTS/include/
    2399                            .dwattr $C$DW$T$58, DW_AT_decl_line(0x37)
    2400                            .dwattr $C$DW$T$58, DW_AT_decl_column(0x17)
    2401                    
    2402                    $C$DW$T$59      .dwtag  DW_TAG_typedef
    2403                            .dwattr $C$DW$T$59, DW_AT_name("sint8")
    2404                            .dwattr $C$DW$T$59, DW_AT_type(*$C$DW$T$57)
    2405                            .dwattr $C$DW$T$59, DW_AT_language(DW_LANG_C)
    2406                            .dwattr $C$DW$T$59, DW_AT_decl_file("C:\Users\bob\Documents\Projects\induct_forge\RM57Lx_test\
    2407                            .dwattr $C$DW$T$59, DW_AT_decl_line(0x68)
    2408                            .dwattr $C$DW$T$59, DW_AT_decl_column(0x10)
    2409                    
    2410                    $C$DW$T$6       .dwtag  DW_TAG_base_type
    2411                            .dwattr $C$DW$T$6, DW_AT_encoding(DW_ATE_unsigned_char)
    2412                            .dwattr $C$DW$T$6, DW_AT_name("unsigned char")
    2413                            .dwattr $C$DW$T$6, DW_AT_byte_size(0x01)
    2414                    
    2415                    $C$DW$T$31      .dwtag  DW_TAG_typedef
    2416                            .dwattr $C$DW$T$31, DW_AT_name("uint8_t")
    2417                            .dwattr $C$DW$T$31, DW_AT_type(*$C$DW$T$6)
    2418                            .dwattr $C$DW$T$31, DW_AT_language(DW_LANG_C)
    2419                            .dwattr $C$DW$T$31, DW_AT_decl_file("C:/ti/ccsv7/tools/compiler/ti-cgt-arm_16.9.0.LTS/include/
    2420                            .dwattr $C$DW$T$31, DW_AT_decl_line(0x2b)
TI ARM Assembler PC v16.9.0 Thu Feb 16 13:27:09 2017

Tools Copyright (c) 1996-2015 Texas Instruments Incorporated
C:\Users\bob\AppData\Local\Temp\0838410                              PAGE   45

    2421                            .dwattr $C$DW$T$31, DW_AT_decl_column(0x1c)
    2422                    
    2423                    $C$DW$T$32      .dwtag  DW_TAG_typedef
    2424                            .dwattr $C$DW$T$32, DW_AT_name("uint8")
    2425                            .dwattr $C$DW$T$32, DW_AT_type(*$C$DW$T$31)
    2426                            .dwattr $C$DW$T$32, DW_AT_language(DW_LANG_C)
    2427                            .dwattr $C$DW$T$32, DW_AT_decl_file("C:\Users\bob\Documents\Projects\induct_forge\RM57Lx_test\
    2428                            .dwattr $C$DW$T$32, DW_AT_decl_line(0x4b)
    2429                            .dwattr $C$DW$T$32, DW_AT_decl_column(0x11)
    2430                    
    2431                    $C$DW$T$60      .dwtag  DW_TAG_typedef
    2432                            .dwattr $C$DW$T$60, DW_AT_name("uint_least8_t")
    2433                            .dwattr $C$DW$T$60, DW_AT_type(*$C$DW$T$31)
    2434                            .dwattr $C$DW$T$60, DW_AT_language(DW_LANG_C)
    2435                            .dwattr $C$DW$T$60, DW_AT_decl_file("C:/ti/ccsv7/tools/compiler/ti-cgt-arm_16.9.0.LTS/include/
    2436                            .dwattr $C$DW$T$60, DW_AT_decl_line(0x38)
    2437                            .dwattr $C$DW$T$60, DW_AT_decl_column(0x16)
    2438                    
    2439                    $C$DW$T$7       .dwtag  DW_TAG_base_type
    2440                            .dwattr $C$DW$T$7, DW_AT_encoding(DW_ATE_signed_char)
    2441                            .dwattr $C$DW$T$7, DW_AT_name("wchar_t")
    2442                            .dwattr $C$DW$T$7, DW_AT_byte_size(0x02)
    2443                    
    2444                    $C$DW$T$8       .dwtag  DW_TAG_base_type
    2445                            .dwattr $C$DW$T$8, DW_AT_encoding(DW_ATE_signed)
    2446                            .dwattr $C$DW$T$8, DW_AT_name("short")
    2447                            .dwattr $C$DW$T$8, DW_AT_byte_size(0x02)
    2448                    
    2449                    $C$DW$T$61      .dwtag  DW_TAG_typedef
    2450                            .dwattr $C$DW$T$61, DW_AT_name("int16_t")
    2451                            .dwattr $C$DW$T$61, DW_AT_type(*$C$DW$T$8)
    2452                            .dwattr $C$DW$T$61, DW_AT_language(DW_LANG_C)
    2453                            .dwattr $C$DW$T$61, DW_AT_decl_file("C:/ti/ccsv7/tools/compiler/ti-cgt-arm_16.9.0.LTS/include/
    2454                            .dwattr $C$DW$T$61, DW_AT_decl_line(0x2c)
    2455                            .dwattr $C$DW$T$61, DW_AT_decl_column(0x1d)
    2456                    
    2457                    $C$DW$T$62      .dwtag  DW_TAG_typedef
    2458                            .dwattr $C$DW$T$62, DW_AT_name("int_least16_t")
    2459                            .dwattr $C$DW$T$62, DW_AT_type(*$C$DW$T$61)
    2460                            .dwattr $C$DW$T$62, DW_AT_language(DW_LANG_C)
    2461                            .dwattr $C$DW$T$62, DW_AT_decl_file("C:/ti/ccsv7/tools/compiler/ti-cgt-arm_16.9.0.LTS/include/
    2462                            .dwattr $C$DW$T$62, DW_AT_decl_line(0x3a)
    2463                            .dwattr $C$DW$T$62, DW_AT_decl_column(0x17)
    2464                    
    2465                    $C$DW$T$63      .dwtag  DW_TAG_typedef
    2466                            .dwattr $C$DW$T$63, DW_AT_name("sint16")
    2467                            .dwattr $C$DW$T$63, DW_AT_type(*$C$DW$T$61)
    2468                            .dwattr $C$DW$T$63, DW_AT_language(DW_LANG_C)
    2469                            .dwattr $C$DW$T$63, DW_AT_decl_file("C:\Users\bob\Documents\Projects\induct_forge\RM57Lx_test\
    2470                            .dwattr $C$DW$T$63, DW_AT_decl_line(0x63)
    2471                            .dwattr $C$DW$T$63, DW_AT_decl_column(0x11)
    2472                    
    2473                    $C$DW$T$9       .dwtag  DW_TAG_base_type
    2474                            .dwattr $C$DW$T$9, DW_AT_encoding(DW_ATE_unsigned)
    2475                            .dwattr $C$DW$T$9, DW_AT_name("unsigned short")
TI ARM Assembler PC v16.9.0 Thu Feb 16 13:27:09 2017

Tools Copyright (c) 1996-2015 Texas Instruments Incorporated
C:\Users\bob\AppData\Local\Temp\0838410                              PAGE   46

    2476                            .dwattr $C$DW$T$9, DW_AT_byte_size(0x02)
    2477                    
    2478                    $C$DW$T$25      .dwtag  DW_TAG_typedef
    2479                            .dwattr $C$DW$T$25, DW_AT_name("uint16_t")
    2480                            .dwattr $C$DW$T$25, DW_AT_type(*$C$DW$T$9)
    2481                            .dwattr $C$DW$T$25, DW_AT_language(DW_LANG_C)
    2482                            .dwattr $C$DW$T$25, DW_AT_decl_file("C:/ti/ccsv7/tools/compiler/ti-cgt-arm_16.9.0.LTS/include/
    2483                            .dwattr $C$DW$T$25, DW_AT_decl_line(0x2d)
    2484                            .dwattr $C$DW$T$25, DW_AT_decl_column(0x1c)
    2485                    
    2486                    $C$DW$T$26      .dwtag  DW_TAG_typedef
    2487                            .dwattr $C$DW$T$26, DW_AT_name("uint16")
    2488                            .dwattr $C$DW$T$26, DW_AT_type(*$C$DW$T$25)
    2489                            .dwattr $C$DW$T$26, DW_AT_language(DW_LANG_C)
    2490                            .dwattr $C$DW$T$26, DW_AT_decl_file("C:\Users\bob\Documents\Projects\induct_forge\RM57Lx_test\
    2491                            .dwattr $C$DW$T$26, DW_AT_decl_line(0x46)
    2492                            .dwattr $C$DW$T$26, DW_AT_decl_column(0x12)
    2493                    
    2494                    $C$DW$T$64      .dwtag  DW_TAG_typedef
    2495                            .dwattr $C$DW$T$64, DW_AT_name("uint_least16_t")
    2496                            .dwattr $C$DW$T$64, DW_AT_type(*$C$DW$T$25)
    2497                            .dwattr $C$DW$T$64, DW_AT_language(DW_LANG_C)
    2498                            .dwattr $C$DW$T$64, DW_AT_decl_file("C:/ti/ccsv7/tools/compiler/ti-cgt-arm_16.9.0.LTS/include/
    2499                            .dwattr $C$DW$T$64, DW_AT_decl_line(0x3b)
    2500                            .dwattr $C$DW$T$64, DW_AT_decl_column(0x16)
    2501                    
    2502                    $C$DW$T$10      .dwtag  DW_TAG_base_type
    2503                            .dwattr $C$DW$T$10, DW_AT_encoding(DW_ATE_signed)
    2504                            .dwattr $C$DW$T$10, DW_AT_name("int")
    2505                            .dwattr $C$DW$T$10, DW_AT_byte_size(0x04)
    2506                    
    2507                    $C$DW$T$65      .dwtag  DW_TAG_typedef
    2508                            .dwattr $C$DW$T$65, DW_AT_name("int32_t")
    2509                            .dwattr $C$DW$T$65, DW_AT_type(*$C$DW$T$10)
    2510                            .dwattr $C$DW$T$65, DW_AT_language(DW_LANG_C)
    2511                            .dwattr $C$DW$T$65, DW_AT_decl_file("C:/ti/ccsv7/tools/compiler/ti-cgt-arm_16.9.0.LTS/include/
    2512                            .dwattr $C$DW$T$65, DW_AT_decl_line(0x2e)
    2513                            .dwattr $C$DW$T$65, DW_AT_decl_column(0x1d)
    2514                    
    2515                    $C$DW$T$66      .dwtag  DW_TAG_typedef
    2516                            .dwattr $C$DW$T$66, DW_AT_name("int_fast16_t")
    2517                            .dwattr $C$DW$T$66, DW_AT_type(*$C$DW$T$65)
    2518                            .dwattr $C$DW$T$66, DW_AT_language(DW_LANG_C)
    2519                            .dwattr $C$DW$T$66, DW_AT_decl_file("C:/ti/ccsv7/tools/compiler/ti-cgt-arm_16.9.0.LTS/include/
    2520                            .dwattr $C$DW$T$66, DW_AT_decl_line(0x47)
    2521                            .dwattr $C$DW$T$66, DW_AT_decl_column(0x17)
    2522                    
    2523                    $C$DW$T$67      .dwtag  DW_TAG_typedef
    2524                            .dwattr $C$DW$T$67, DW_AT_name("int_fast32_t")
    2525                            .dwattr $C$DW$T$67, DW_AT_type(*$C$DW$T$65)
    2526                            .dwattr $C$DW$T$67, DW_AT_language(DW_LANG_C)
    2527                            .dwattr $C$DW$T$67, DW_AT_decl_file("C:/ti/ccsv7/tools/compiler/ti-cgt-arm_16.9.0.LTS/include/
    2528                            .dwattr $C$DW$T$67, DW_AT_decl_line(0x4a)
    2529                            .dwattr $C$DW$T$67, DW_AT_decl_column(0x17)
    2530                    
TI ARM Assembler PC v16.9.0 Thu Feb 16 13:27:09 2017

Tools Copyright (c) 1996-2015 Texas Instruments Incorporated
C:\Users\bob\AppData\Local\Temp\0838410                              PAGE   47

    2531                    $C$DW$T$68      .dwtag  DW_TAG_typedef
    2532                            .dwattr $C$DW$T$68, DW_AT_name("int_fast8_t")
    2533                            .dwattr $C$DW$T$68, DW_AT_type(*$C$DW$T$65)
    2534                            .dwattr $C$DW$T$68, DW_AT_language(DW_LANG_C)
    2535                            .dwattr $C$DW$T$68, DW_AT_decl_file("C:/ti/ccsv7/tools/compiler/ti-cgt-arm_16.9.0.LTS/include/
    2536                            .dwattr $C$DW$T$68, DW_AT_decl_line(0x45)
    2537                            .dwattr $C$DW$T$68, DW_AT_decl_column(0x17)
    2538                    
    2539                    $C$DW$T$69      .dwtag  DW_TAG_typedef
    2540                            .dwattr $C$DW$T$69, DW_AT_name("int_least32_t")
    2541                            .dwattr $C$DW$T$69, DW_AT_type(*$C$DW$T$65)
    2542                            .dwattr $C$DW$T$69, DW_AT_language(DW_LANG_C)
    2543                            .dwattr $C$DW$T$69, DW_AT_decl_file("C:/ti/ccsv7/tools/compiler/ti-cgt-arm_16.9.0.LTS/include/
    2544                            .dwattr $C$DW$T$69, DW_AT_decl_line(0x3c)
    2545                            .dwattr $C$DW$T$69, DW_AT_decl_column(0x17)
    2546                    
    2547                    $C$DW$T$70      .dwtag  DW_TAG_typedef
    2548                            .dwattr $C$DW$T$70, DW_AT_name("sint32")
    2549                            .dwattr $C$DW$T$70, DW_AT_type(*$C$DW$T$65)
    2550                            .dwattr $C$DW$T$70, DW_AT_language(DW_LANG_C)
    2551                            .dwattr $C$DW$T$70, DW_AT_decl_file("C:\Users\bob\Documents\Projects\induct_forge\RM57Lx_test\
    2552                            .dwattr $C$DW$T$70, DW_AT_decl_line(0x5e)
    2553                            .dwattr $C$DW$T$70, DW_AT_decl_column(0x11)
    2554                    
    2555                    $C$DW$T$71      .dwtag  DW_TAG_typedef
    2556                            .dwattr $C$DW$T$71, DW_AT_name("intptr_t")
    2557                            .dwattr $C$DW$T$71, DW_AT_type(*$C$DW$T$10)
    2558                            .dwattr $C$DW$T$71, DW_AT_language(DW_LANG_C)
    2559                            .dwattr $C$DW$T$71, DW_AT_decl_file("C:/ti/ccsv7/tools/compiler/ti-cgt-arm_16.9.0.LTS/include/
    2560                            .dwattr $C$DW$T$71, DW_AT_decl_line(0x52)
    2561                            .dwattr $C$DW$T$71, DW_AT_decl_column(0x1a)
    2562                    
    2563                    $C$DW$T$11      .dwtag  DW_TAG_base_type
    2564                            .dwattr $C$DW$T$11, DW_AT_encoding(DW_ATE_unsigned)
    2565                            .dwattr $C$DW$T$11, DW_AT_name("unsigned int")
    2566                            .dwattr $C$DW$T$11, DW_AT_byte_size(0x04)
    2567                    
    2568                    $C$DW$T$19      .dwtag  DW_TAG_typedef
    2569                            .dwattr $C$DW$T$19, DW_AT_name("uint32_t")
    2570                            .dwattr $C$DW$T$19, DW_AT_type(*$C$DW$T$11)
    2571                            .dwattr $C$DW$T$19, DW_AT_language(DW_LANG_C)
    2572                            .dwattr $C$DW$T$19, DW_AT_decl_file("C:/ti/ccsv7/tools/compiler/ti-cgt-arm_16.9.0.LTS/include/
    2573                            .dwattr $C$DW$T$19, DW_AT_decl_line(0x2f)
    2574                            .dwattr $C$DW$T$19, DW_AT_decl_column(0x1c)
    2575                    
    2576                    $C$DW$T$20      .dwtag  DW_TAG_typedef
    2577                            .dwattr $C$DW$T$20, DW_AT_name("uint32")
    2578                            .dwattr $C$DW$T$20, DW_AT_type(*$C$DW$T$19)
    2579                            .dwattr $C$DW$T$20, DW_AT_language(DW_LANG_C)
    2580                            .dwattr $C$DW$T$20, DW_AT_decl_file("C:\Users\bob\Documents\Projects\induct_forge\RM57Lx_test\
    2581                            .dwattr $C$DW$T$20, DW_AT_decl_line(0x41)
    2582                            .dwattr $C$DW$T$20, DW_AT_decl_column(0x12)
    2583                    
    2584                    
    2585                    $C$DW$T$22      .dwtag  DW_TAG_array_type
TI ARM Assembler PC v16.9.0 Thu Feb 16 13:27:09 2017

Tools Copyright (c) 1996-2015 Texas Instruments Incorporated
C:\Users\bob\AppData\Local\Temp\0838410                              PAGE   48

    2586                            .dwattr $C$DW$T$22, DW_AT_type(*$C$DW$T$20)
    2587                            .dwattr $C$DW$T$22, DW_AT_language(DW_LANG_C)
    2588                            .dwattr $C$DW$T$22, DW_AT_byte_size(0x0c)
    2589                    $C$DW$109       .dwtag  DW_TAG_subrange_type
    2590                            .dwattr $C$DW$109, DW_AT_upper_bound(0x02)
    2591                    
    2592                            .dwendtag $C$DW$T$22
    2593                    
    2594                    
    2595                    $C$DW$T$35      .dwtag  DW_TAG_array_type
    2596                            .dwattr $C$DW$T$35, DW_AT_type(*$C$DW$T$20)
    2597                            .dwattr $C$DW$T$35, DW_AT_language(DW_LANG_C)
    2598                            .dwattr $C$DW$T$35, DW_AT_byte_size(0xec)
    2599                    $C$DW$110       .dwtag  DW_TAG_subrange_type
    2600                            .dwattr $C$DW$110, DW_AT_upper_bound(0x3a)
    2601                    
    2602                            .dwendtag $C$DW$T$35
    2603                    
    2604                    
    2605                    $C$DW$T$36      .dwtag  DW_TAG_array_type
    2606                            .dwattr $C$DW$T$36, DW_AT_type(*$C$DW$T$20)
    2607                            .dwattr $C$DW$T$36, DW_AT_language(DW_LANG_C)
    2608                            .dwattr $C$DW$T$36, DW_AT_byte_size(0x60)
    2609                    $C$DW$111       .dwtag  DW_TAG_subrange_type
    2610                            .dwattr $C$DW$111, DW_AT_upper_bound(0x17)
    2611                    
    2612                            .dwendtag $C$DW$T$36
    2613                    
    2614                    
    2615                    $C$DW$T$78      .dwtag  DW_TAG_array_type
    2616                            .dwattr $C$DW$T$78, DW_AT_type(*$C$DW$T$20)
    2617                            .dwattr $C$DW$T$78, DW_AT_language(DW_LANG_C)
    2618                            .dwattr $C$DW$T$78, DW_AT_byte_size(0x14)
    2619                    $C$DW$112       .dwtag  DW_TAG_subrange_type
    2620                            .dwattr $C$DW$112, DW_AT_upper_bound(0x04)
    2621                    
    2622                            .dwendtag $C$DW$T$78
    2623                    
    2624                    $C$DW$T$81      .dwtag  DW_TAG_const_type
    2625                            .dwattr $C$DW$T$81, DW_AT_type(*$C$DW$T$20)
    2626                    
    2627                    
    2628                    $C$DW$T$82      .dwtag  DW_TAG_array_type
    2629                            .dwattr $C$DW$T$82, DW_AT_type(*$C$DW$T$81)
    2630                            .dwattr $C$DW$T$82, DW_AT_language(DW_LANG_C)
    2631                            .dwattr $C$DW$T$82, DW_AT_byte_size(0x0c)
    2632                    $C$DW$113       .dwtag  DW_TAG_subrange_type
    2633                            .dwattr $C$DW$113, DW_AT_upper_bound(0x02)
    2634                    
    2635                            .dwendtag $C$DW$T$82
    2636                    
    2637                    
    2638                    $C$DW$T$83      .dwtag  DW_TAG_array_type
    2639                            .dwattr $C$DW$T$83, DW_AT_type(*$C$DW$T$81)
    2640                            .dwattr $C$DW$T$83, DW_AT_language(DW_LANG_C)
TI ARM Assembler PC v16.9.0 Thu Feb 16 13:27:09 2017

Tools Copyright (c) 1996-2015 Texas Instruments Incorporated
C:\Users\bob\AppData\Local\Temp\0838410                              PAGE   49

    2641                            .dwattr $C$DW$T$83, DW_AT_byte_size(0x18)
    2642                    $C$DW$114       .dwtag  DW_TAG_subrange_type
    2643                            .dwattr $C$DW$114, DW_AT_upper_bound(0x01)
    2644                    
    2645                    $C$DW$115       .dwtag  DW_TAG_subrange_type
    2646                            .dwattr $C$DW$115, DW_AT_upper_bound(0x02)
    2647                    
    2648                            .dwendtag $C$DW$T$83
    2649                    
    2650                    $C$DW$T$89      .dwtag  DW_TAG_typedef
    2651                            .dwattr $C$DW$T$89, DW_AT_name("uint_fast16_t")
    2652                            .dwattr $C$DW$T$89, DW_AT_type(*$C$DW$T$19)
    2653                            .dwattr $C$DW$T$89, DW_AT_language(DW_LANG_C)
    2654                            .dwattr $C$DW$T$89, DW_AT_decl_file("C:/ti/ccsv7/tools/compiler/ti-cgt-arm_16.9.0.LTS/include/
    2655                            .dwattr $C$DW$T$89, DW_AT_decl_line(0x48)
    2656                            .dwattr $C$DW$T$89, DW_AT_decl_column(0x16)
    2657                    
    2658                    $C$DW$T$90      .dwtag  DW_TAG_typedef
    2659                            .dwattr $C$DW$T$90, DW_AT_name("uint_fast32_t")
    2660                            .dwattr $C$DW$T$90, DW_AT_type(*$C$DW$T$19)
    2661                            .dwattr $C$DW$T$90, DW_AT_language(DW_LANG_C)
    2662                            .dwattr $C$DW$T$90, DW_AT_decl_file("C:/ti/ccsv7/tools/compiler/ti-cgt-arm_16.9.0.LTS/include/
    2663                            .dwattr $C$DW$T$90, DW_AT_decl_line(0x4b)
    2664                            .dwattr $C$DW$T$90, DW_AT_decl_column(0x16)
    2665                    
    2666                    $C$DW$T$91      .dwtag  DW_TAG_typedef
    2667                            .dwattr $C$DW$T$91, DW_AT_name("uint_fast8_t")
    2668                            .dwattr $C$DW$T$91, DW_AT_type(*$C$DW$T$19)
    2669                            .dwattr $C$DW$T$91, DW_AT_language(DW_LANG_C)
    2670                            .dwattr $C$DW$T$91, DW_AT_decl_file("C:/ti/ccsv7/tools/compiler/ti-cgt-arm_16.9.0.LTS/include/
    2671                            .dwattr $C$DW$T$91, DW_AT_decl_line(0x46)
    2672                            .dwattr $C$DW$T$91, DW_AT_decl_column(0x16)
    2673                    
    2674                    $C$DW$T$92      .dwtag  DW_TAG_typedef
    2675                            .dwattr $C$DW$T$92, DW_AT_name("uint_least32_t")
    2676                            .dwattr $C$DW$T$92, DW_AT_type(*$C$DW$T$19)
    2677                            .dwattr $C$DW$T$92, DW_AT_language(DW_LANG_C)
    2678                            .dwattr $C$DW$T$92, DW_AT_decl_file("C:/ti/ccsv7/tools/compiler/ti-cgt-arm_16.9.0.LTS/include/
    2679                            .dwattr $C$DW$T$92, DW_AT_decl_line(0x3d)
    2680                            .dwattr $C$DW$T$92, DW_AT_decl_column(0x16)
    2681                    
    2682                    $C$DW$T$93      .dwtag  DW_TAG_typedef
    2683                            .dwattr $C$DW$T$93, DW_AT_name("uintptr_t")
    2684                            .dwattr $C$DW$T$93, DW_AT_type(*$C$DW$T$11)
    2685                            .dwattr $C$DW$T$93, DW_AT_language(DW_LANG_C)
    2686                            .dwattr $C$DW$T$93, DW_AT_decl_file("C:/ti/ccsv7/tools/compiler/ti-cgt-arm_16.9.0.LTS/include/
    2687                            .dwattr $C$DW$T$93, DW_AT_decl_line(0x53)
    2688                            .dwattr $C$DW$T$93, DW_AT_decl_column(0x1a)
    2689                    
    2690                    $C$DW$T$12      .dwtag  DW_TAG_base_type
    2691                            .dwattr $C$DW$T$12, DW_AT_encoding(DW_ATE_signed)
    2692                            .dwattr $C$DW$T$12, DW_AT_name("long")
    2693                            .dwattr $C$DW$T$12, DW_AT_byte_size(0x04)
    2694                    
    2695                    $C$DW$T$13      .dwtag  DW_TAG_base_type
TI ARM Assembler PC v16.9.0 Thu Feb 16 13:27:09 2017

Tools Copyright (c) 1996-2015 Texas Instruments Incorporated
C:\Users\bob\AppData\Local\Temp\0838410                              PAGE   50

    2696                            .dwattr $C$DW$T$13, DW_AT_encoding(DW_ATE_unsigned)
    2697                            .dwattr $C$DW$T$13, DW_AT_name("unsigned long")
    2698                            .dwattr $C$DW$T$13, DW_AT_byte_size(0x04)
    2699                    
    2700                    $C$DW$T$14      .dwtag  DW_TAG_base_type
    2701                            .dwattr $C$DW$T$14, DW_AT_encoding(DW_ATE_signed)
    2702                            .dwattr $C$DW$T$14, DW_AT_name("long long")
    2703                            .dwattr $C$DW$T$14, DW_AT_byte_size(0x08)
    2704                    
    2705                    $C$DW$T$94      .dwtag  DW_TAG_typedef
    2706                            .dwattr $C$DW$T$94, DW_AT_name("int64_t")
    2707                            .dwattr $C$DW$T$94, DW_AT_type(*$C$DW$T$14)
    2708                            .dwattr $C$DW$T$94, DW_AT_language(DW_LANG_C)
    2709                            .dwattr $C$DW$T$94, DW_AT_decl_file("C:/ti/ccsv7/tools/compiler/ti-cgt-arm_16.9.0.LTS/include/
    2710                            .dwattr $C$DW$T$94, DW_AT_decl_line(0x32)
    2711                            .dwattr $C$DW$T$94, DW_AT_decl_column(0x21)
    2712                    
    2713                    $C$DW$T$95      .dwtag  DW_TAG_typedef
    2714                            .dwattr $C$DW$T$95, DW_AT_name("int_fast64_t")
    2715                            .dwattr $C$DW$T$95, DW_AT_type(*$C$DW$T$94)
    2716                            .dwattr $C$DW$T$95, DW_AT_language(DW_LANG_C)
    2717                            .dwattr $C$DW$T$95, DW_AT_decl_file("C:/ti/ccsv7/tools/compiler/ti-cgt-arm_16.9.0.LTS/include/
    2718                            .dwattr $C$DW$T$95, DW_AT_decl_line(0x4e)
    2719                            .dwattr $C$DW$T$95, DW_AT_decl_column(0x17)
    2720                    
    2721                    $C$DW$T$96      .dwtag  DW_TAG_typedef
    2722                            .dwattr $C$DW$T$96, DW_AT_name("int_least64_t")
    2723                            .dwattr $C$DW$T$96, DW_AT_type(*$C$DW$T$94)
    2724                            .dwattr $C$DW$T$96, DW_AT_language(DW_LANG_C)
    2725                            .dwattr $C$DW$T$96, DW_AT_decl_file("C:/ti/ccsv7/tools/compiler/ti-cgt-arm_16.9.0.LTS/include/
    2726                            .dwattr $C$DW$T$96, DW_AT_decl_line(0x40)
    2727                            .dwattr $C$DW$T$96, DW_AT_decl_column(0x17)
    2728                    
    2729                    $C$DW$T$97      .dwtag  DW_TAG_typedef
    2730                            .dwattr $C$DW$T$97, DW_AT_name("sint64")
    2731                            .dwattr $C$DW$T$97, DW_AT_type(*$C$DW$T$94)
    2732                            .dwattr $C$DW$T$97, DW_AT_language(DW_LANG_C)
    2733                            .dwattr $C$DW$T$97, DW_AT_decl_file("C:\Users\bob\Documents\Projects\induct_forge\RM57Lx_test\
    2734                            .dwattr $C$DW$T$97, DW_AT_decl_line(0x59)
    2735                            .dwattr $C$DW$T$97, DW_AT_decl_column(0x11)
    2736                    
    2737                    $C$DW$T$98      .dwtag  DW_TAG_typedef
    2738                            .dwattr $C$DW$T$98, DW_AT_name("intmax_t")
    2739                            .dwattr $C$DW$T$98, DW_AT_type(*$C$DW$T$14)
    2740                            .dwattr $C$DW$T$98, DW_AT_language(DW_LANG_C)
    2741                            .dwattr $C$DW$T$98, DW_AT_decl_file("C:/ti/ccsv7/tools/compiler/ti-cgt-arm_16.9.0.LTS/include/
    2742                            .dwattr $C$DW$T$98, DW_AT_decl_line(0x56)
    2743                            .dwattr $C$DW$T$98, DW_AT_decl_column(0x20)
    2744                    
    2745                    $C$DW$T$15      .dwtag  DW_TAG_base_type
    2746                            .dwattr $C$DW$T$15, DW_AT_encoding(DW_ATE_unsigned)
    2747                            .dwattr $C$DW$T$15, DW_AT_name("unsigned long long")
    2748                            .dwattr $C$DW$T$15, DW_AT_byte_size(0x08)
    2749                    
    2750                    $C$DW$T$99      .dwtag  DW_TAG_typedef
TI ARM Assembler PC v16.9.0 Thu Feb 16 13:27:09 2017

Tools Copyright (c) 1996-2015 Texas Instruments Incorporated
C:\Users\bob\AppData\Local\Temp\0838410                              PAGE   51

    2751                            .dwattr $C$DW$T$99, DW_AT_name("uint64_t")
    2752                            .dwattr $C$DW$T$99, DW_AT_type(*$C$DW$T$15)
    2753                            .dwattr $C$DW$T$99, DW_AT_language(DW_LANG_C)
    2754                            .dwattr $C$DW$T$99, DW_AT_decl_file("C:/ti/ccsv7/tools/compiler/ti-cgt-arm_16.9.0.LTS/include/
    2755                            .dwattr $C$DW$T$99, DW_AT_decl_line(0x33)
    2756                            .dwattr $C$DW$T$99, DW_AT_decl_column(0x20)
    2757                    
    2758                    $C$DW$T$100     .dwtag  DW_TAG_typedef
    2759                            .dwattr $C$DW$T$100, DW_AT_name("uint64")
    2760                            .dwattr $C$DW$T$100, DW_AT_type(*$C$DW$T$99)
    2761                            .dwattr $C$DW$T$100, DW_AT_language(DW_LANG_C)
    2762                            .dwattr $C$DW$T$100, DW_AT_decl_file("C:\Users\bob\Documents\Projects\induct_forge\RM57Lx_test
    2763                            .dwattr $C$DW$T$100, DW_AT_decl_line(0x3c)
    2764                            .dwattr $C$DW$T$100, DW_AT_decl_column(0x12)
    2765                    
    2766                    $C$DW$T$101     .dwtag  DW_TAG_typedef
    2767                            .dwattr $C$DW$T$101, DW_AT_name("uint_fast64_t")
    2768                            .dwattr $C$DW$T$101, DW_AT_type(*$C$DW$T$99)
    2769                            .dwattr $C$DW$T$101, DW_AT_language(DW_LANG_C)
    2770                            .dwattr $C$DW$T$101, DW_AT_decl_file("C:/ti/ccsv7/tools/compiler/ti-cgt-arm_16.9.0.LTS/include
    2771                            .dwattr $C$DW$T$101, DW_AT_decl_line(0x4f)
    2772                            .dwattr $C$DW$T$101, DW_AT_decl_column(0x16)
    2773                    
    2774                    $C$DW$T$102     .dwtag  DW_TAG_typedef
    2775                            .dwattr $C$DW$T$102, DW_AT_name("uint_least64_t")
    2776                            .dwattr $C$DW$T$102, DW_AT_type(*$C$DW$T$99)
    2777                            .dwattr $C$DW$T$102, DW_AT_language(DW_LANG_C)
    2778                            .dwattr $C$DW$T$102, DW_AT_decl_file("C:/ti/ccsv7/tools/compiler/ti-cgt-arm_16.9.0.LTS/include
    2779                            .dwattr $C$DW$T$102, DW_AT_decl_line(0x41)
    2780                            .dwattr $C$DW$T$102, DW_AT_decl_column(0x16)
    2781                    
    2782                    $C$DW$T$103     .dwtag  DW_TAG_typedef
    2783                            .dwattr $C$DW$T$103, DW_AT_name("uintmax_t")
    2784                            .dwattr $C$DW$T$103, DW_AT_type(*$C$DW$T$15)
    2785                            .dwattr $C$DW$T$103, DW_AT_language(DW_LANG_C)
    2786                            .dwattr $C$DW$T$103, DW_AT_decl_file("C:/ti/ccsv7/tools/compiler/ti-cgt-arm_16.9.0.LTS/include
    2787                            .dwattr $C$DW$T$103, DW_AT_decl_line(0x57)
    2788                            .dwattr $C$DW$T$103, DW_AT_decl_column(0x20)
    2789                    
    2790                    $C$DW$T$16      .dwtag  DW_TAG_base_type
    2791                            .dwattr $C$DW$T$16, DW_AT_encoding(DW_ATE_float)
    2792                            .dwattr $C$DW$T$16, DW_AT_name("float")
    2793                            .dwattr $C$DW$T$16, DW_AT_byte_size(0x04)
    2794                    
    2795                    $C$DW$T$104     .dwtag  DW_TAG_typedef
    2796                            .dwattr $C$DW$T$104, DW_AT_name("float32")
    2797                            .dwattr $C$DW$T$104, DW_AT_type(*$C$DW$T$16)
    2798                            .dwattr $C$DW$T$104, DW_AT_language(DW_LANG_C)
    2799                            .dwattr $C$DW$T$104, DW_AT_decl_file("C:\Users\bob\Documents\Projects\induct_forge\RM57Lx_test
    2800                            .dwattr $C$DW$T$104, DW_AT_decl_line(0x6d)
    2801                            .dwattr $C$DW$T$104, DW_AT_decl_column(0x0f)
    2802                    
    2803                    $C$DW$T$17      .dwtag  DW_TAG_base_type
    2804                            .dwattr $C$DW$T$17, DW_AT_encoding(DW_ATE_float)
    2805                            .dwattr $C$DW$T$17, DW_AT_name("double")
TI ARM Assembler PC v16.9.0 Thu Feb 16 13:27:09 2017

Tools Copyright (c) 1996-2015 Texas Instruments Incorporated
C:\Users\bob\AppData\Local\Temp\0838410                              PAGE   52

    2806                            .dwattr $C$DW$T$17, DW_AT_byte_size(0x08)
    2807                    
    2808                    $C$DW$T$105     .dwtag  DW_TAG_typedef
    2809                            .dwattr $C$DW$T$105, DW_AT_name("float64")
    2810                            .dwattr $C$DW$T$105, DW_AT_type(*$C$DW$T$17)
    2811                            .dwattr $C$DW$T$105, DW_AT_language(DW_LANG_C)
    2812                            .dwattr $C$DW$T$105, DW_AT_decl_file("C:\Users\bob\Documents\Projects\induct_forge\RM57Lx_test
    2813                            .dwattr $C$DW$T$105, DW_AT_decl_line(0x72)
    2814                            .dwattr $C$DW$T$105, DW_AT_decl_column(0x10)
    2815                    
    2816                    $C$DW$T$18      .dwtag  DW_TAG_base_type
    2817                            .dwattr $C$DW$T$18, DW_AT_encoding(DW_ATE_float)
    2818                            .dwattr $C$DW$T$18, DW_AT_name("long double")
    2819                            .dwattr $C$DW$T$18, DW_AT_byte_size(0x08)
    2820                    
    2821                    $C$DW$T$106     .dwtag  DW_TAG_base_type
    2822                            .dwattr $C$DW$T$106, DW_AT_encoding(DW_ATE_unsigned_char)
    2823                            .dwattr $C$DW$T$106, DW_AT_name("unsigned char")
    2824                            .dwattr $C$DW$T$106, DW_AT_byte_size(0x01)
    2825                    
    2826                    $C$DW$T$107     .dwtag  DW_TAG_typedef
    2827                            .dwattr $C$DW$T$107, DW_AT_name("boolean")
    2828                            .dwattr $C$DW$T$107, DW_AT_type(*$C$DW$T$106)
    2829                            .dwattr $C$DW$T$107, DW_AT_language(DW_LANG_C)
    2830                            .dwattr $C$DW$T$107, DW_AT_decl_file("C:\Users\bob\Documents\Projects\induct_forge\RM57Lx_test
    2831                            .dwattr $C$DW$T$107, DW_AT_decl_line(0x53)
    2832                            .dwattr $C$DW$T$107, DW_AT_decl_column(0x0f)
    2833                    
    2834                    $C$DW$T$108     .dwtag  DW_TAG_typedef
    2835                            .dwattr $C$DW$T$108, DW_AT_name("tBoolean")
    2836                            .dwattr $C$DW$T$108, DW_AT_type(*$C$DW$T$107)
    2837                            .dwattr $C$DW$T$108, DW_AT_language(DW_LANG_C)
    2838                            .dwattr $C$DW$T$108, DW_AT_decl_file("C:\Users\bob\Documents\Projects\induct_forge\RM57Lx_test
    2839                            .dwattr $C$DW$T$108, DW_AT_decl_line(0x40)
    2840                            .dwattr $C$DW$T$108, DW_AT_decl_column(0x11)
    2841                    
    2842                    
    2843                    $C$DW$T$109     .dwtag  DW_TAG_enumeration_type
    2844                            .dwattr $C$DW$T$109, DW_AT_name("adc1HwTriggerSource")
    2845                            .dwattr $C$DW$T$109, DW_AT_byte_size(0x01)
    2846                    $C$DW$116       .dwtag  DW_TAG_enumerator
    2847                            .dwattr $C$DW$116, DW_AT_name("ADC1_EVENT")
    2848                            .dwattr $C$DW$116, DW_AT_const_value(0x00)
    2849                            .dwattr $C$DW$116, DW_AT_decl_file("C:/Users/bob/Documents/Projects/induct_forge/RM57Lx_test/P
    2850                            .dwattr $C$DW$116, DW_AT_decl_line(0x8b)
    2851                            .dwattr $C$DW$116, DW_AT_decl_column(0x02)
    2852                    
    2853                    $C$DW$117       .dwtag  DW_TAG_enumerator
    2854                            .dwattr $C$DW$117, DW_AT_name("ADC1_HET1_8")
    2855                            .dwattr $C$DW$117, DW_AT_const_value(0x01)
    2856                            .dwattr $C$DW$117, DW_AT_decl_file("C:/Users/bob/Documents/Projects/induct_forge/RM57Lx_test/P
    2857                            .dwattr $C$DW$117, DW_AT_decl_line(0x8c)
    2858                            .dwattr $C$DW$117, DW_AT_decl_column(0x02)
    2859                    
    2860                    $C$DW$118       .dwtag  DW_TAG_enumerator
TI ARM Assembler PC v16.9.0 Thu Feb 16 13:27:09 2017

Tools Copyright (c) 1996-2015 Texas Instruments Incorporated
C:\Users\bob\AppData\Local\Temp\0838410                              PAGE   53

    2861                            .dwattr $C$DW$118, DW_AT_name("ADC1_HET1_10")
    2862                            .dwattr $C$DW$118, DW_AT_const_value(0x02)
    2863                            .dwattr $C$DW$118, DW_AT_decl_file("C:/Users/bob/Documents/Projects/induct_forge/RM57Lx_test/P
    2864                            .dwattr $C$DW$118, DW_AT_decl_line(0x8d)
    2865                            .dwattr $C$DW$118, DW_AT_decl_column(0x02)
    2866                    
    2867                    $C$DW$119       .dwtag  DW_TAG_enumerator
    2868                            .dwattr $C$DW$119, DW_AT_name("ADC1_RTI_COMP0")
    2869                            .dwattr $C$DW$119, DW_AT_const_value(0x03)
    2870                            .dwattr $C$DW$119, DW_AT_decl_file("C:/Users/bob/Documents/Projects/induct_forge/RM57Lx_test/P
    2871                            .dwattr $C$DW$119, DW_AT_decl_line(0x8e)
    2872                            .dwattr $C$DW$119, DW_AT_decl_column(0x02)
    2873                    
    2874                    $C$DW$120       .dwtag  DW_TAG_enumerator
    2875                            .dwattr $C$DW$120, DW_AT_name("ADC1_HET1_12")
    2876                            .dwattr $C$DW$120, DW_AT_const_value(0x04)
    2877                            .dwattr $C$DW$120, DW_AT_decl_file("C:/Users/bob/Documents/Projects/induct_forge/RM57Lx_test/P
    2878                            .dwattr $C$DW$120, DW_AT_decl_line(0x8f)
    2879                            .dwattr $C$DW$120, DW_AT_decl_column(0x02)
    2880                    
    2881                    $C$DW$121       .dwtag  DW_TAG_enumerator
    2882                            .dwattr $C$DW$121, DW_AT_name("ADC1_HET1_14")
    2883                            .dwattr $C$DW$121, DW_AT_const_value(0x05)
    2884                            .dwattr $C$DW$121, DW_AT_decl_file("C:/Users/bob/Documents/Projects/induct_forge/RM57Lx_test/P
    2885                            .dwattr $C$DW$121, DW_AT_decl_line(0x90)
    2886                            .dwattr $C$DW$121, DW_AT_decl_column(0x02)
    2887                    
    2888                    $C$DW$122       .dwtag  DW_TAG_enumerator
    2889                            .dwattr $C$DW$122, DW_AT_name("ADC1_GIOB0")
    2890                            .dwattr $C$DW$122, DW_AT_const_value(0x06)
    2891                            .dwattr $C$DW$122, DW_AT_decl_file("C:/Users/bob/Documents/Projects/induct_forge/RM57Lx_test/P
    2892                            .dwattr $C$DW$122, DW_AT_decl_line(0x91)
    2893                            .dwattr $C$DW$122, DW_AT_decl_column(0x02)
    2894                    
    2895                    $C$DW$123       .dwtag  DW_TAG_enumerator
    2896                            .dwattr $C$DW$123, DW_AT_name("ADC1_GIOB1")
    2897                            .dwattr $C$DW$123, DW_AT_const_value(0x07)
    2898                            .dwattr $C$DW$123, DW_AT_decl_file("C:/Users/bob/Documents/Projects/induct_forge/RM57Lx_test/P
    2899                            .dwattr $C$DW$123, DW_AT_decl_line(0x92)
    2900                            .dwattr $C$DW$123, DW_AT_decl_column(0x02)
    2901                    
    2902                    $C$DW$124       .dwtag  DW_TAG_enumerator
    2903                            .dwattr $C$DW$124, DW_AT_name("ADC1_HET2_5")
    2904                            .dwattr $C$DW$124, DW_AT_const_value(0x01)
    2905                            .dwattr $C$DW$124, DW_AT_decl_file("C:/Users/bob/Documents/Projects/induct_forge/RM57Lx_test/P
    2906                            .dwattr $C$DW$124, DW_AT_decl_line(0x94)
    2907                            .dwattr $C$DW$124, DW_AT_decl_column(0x02)
    2908                    
    2909                    $C$DW$125       .dwtag  DW_TAG_enumerator
    2910                            .dwattr $C$DW$125, DW_AT_name("ADC1_HET1_27")
    2911                            .dwattr $C$DW$125, DW_AT_const_value(0x02)
    2912                            .dwattr $C$DW$125, DW_AT_decl_file("C:/Users/bob/Documents/Projects/induct_forge/RM57Lx_test/P
    2913                            .dwattr $C$DW$125, DW_AT_decl_line(0x95)
    2914                            .dwattr $C$DW$125, DW_AT_decl_column(0x02)
    2915                    
TI ARM Assembler PC v16.9.0 Thu Feb 16 13:27:09 2017

Tools Copyright (c) 1996-2015 Texas Instruments Incorporated
C:\Users\bob\AppData\Local\Temp\0838410                              PAGE   54

    2916                    $C$DW$126       .dwtag  DW_TAG_enumerator
    2917                            .dwattr $C$DW$126, DW_AT_name("ADC1_HET1_17")
    2918                            .dwattr $C$DW$126, DW_AT_const_value(0x04)
    2919                            .dwattr $C$DW$126, DW_AT_decl_file("C:/Users/bob/Documents/Projects/induct_forge/RM57Lx_test/P
    2920                            .dwattr $C$DW$126, DW_AT_decl_line(0x96)
    2921                            .dwattr $C$DW$126, DW_AT_decl_column(0x02)
    2922                    
    2923                    $C$DW$127       .dwtag  DW_TAG_enumerator
    2924                            .dwattr $C$DW$127, DW_AT_name("ADC1_HET1_19")
    2925                            .dwattr $C$DW$127, DW_AT_const_value(0x05)
    2926                            .dwattr $C$DW$127, DW_AT_decl_file("C:/Users/bob/Documents/Projects/induct_forge/RM57Lx_test/P
    2927                            .dwattr $C$DW$127, DW_AT_decl_line(0x97)
    2928                            .dwattr $C$DW$127, DW_AT_decl_column(0x02)
    2929                    
    2930                    $C$DW$128       .dwtag  DW_TAG_enumerator
    2931                            .dwattr $C$DW$128, DW_AT_name("ADC1_HET1_11")
    2932                            .dwattr $C$DW$128, DW_AT_const_value(0x06)
    2933                            .dwattr $C$DW$128, DW_AT_decl_file("C:/Users/bob/Documents/Projects/induct_forge/RM57Lx_test/P
    2934                            .dwattr $C$DW$128, DW_AT_decl_line(0x98)
    2935                            .dwattr $C$DW$128, DW_AT_decl_column(0x02)
    2936                    
    2937                    $C$DW$129       .dwtag  DW_TAG_enumerator
    2938                            .dwattr $C$DW$129, DW_AT_name("ADC1_HET2_13")
    2939                            .dwattr $C$DW$129, DW_AT_const_value(0x07)
    2940                            .dwattr $C$DW$129, DW_AT_decl_file("C:/Users/bob/Documents/Projects/induct_forge/RM57Lx_test/P
    2941                            .dwattr $C$DW$129, DW_AT_decl_line(0x99)
    2942                            .dwattr $C$DW$129, DW_AT_decl_column(0x02)
    2943                    
    2944                    $C$DW$130       .dwtag  DW_TAG_enumerator
    2945                            .dwattr $C$DW$130, DW_AT_name("ADC1_EPWM_B")
    2946                            .dwattr $C$DW$130, DW_AT_const_value(0x01)
    2947                            .dwattr $C$DW$130, DW_AT_decl_file("C:/Users/bob/Documents/Projects/induct_forge/RM57Lx_test/P
    2948                            .dwattr $C$DW$130, DW_AT_decl_line(0x9b)
    2949                            .dwattr $C$DW$130, DW_AT_decl_column(0x02)
    2950                    
    2951                    $C$DW$131       .dwtag  DW_TAG_enumerator
    2952                            .dwattr $C$DW$131, DW_AT_name("ADC1_EPWM_A1")
    2953                            .dwattr $C$DW$131, DW_AT_const_value(0x03)
    2954                            .dwattr $C$DW$131, DW_AT_decl_file("C:/Users/bob/Documents/Projects/induct_forge/RM57Lx_test/P
    2955                            .dwattr $C$DW$131, DW_AT_decl_line(0x9c)
    2956                            .dwattr $C$DW$131, DW_AT_decl_column(0x02)
    2957                    
    2958                    $C$DW$132       .dwtag  DW_TAG_enumerator
    2959                            .dwattr $C$DW$132, DW_AT_name("ADC1_HET2_1")
    2960                            .dwattr $C$DW$132, DW_AT_const_value(0x05)
    2961                            .dwattr $C$DW$132, DW_AT_decl_file("C:/Users/bob/Documents/Projects/induct_forge/RM57Lx_test/P
    2962                            .dwattr $C$DW$132, DW_AT_decl_line(0x9d)
    2963                            .dwattr $C$DW$132, DW_AT_decl_column(0x02)
    2964                    
    2965                    $C$DW$133       .dwtag  DW_TAG_enumerator
    2966                            .dwattr $C$DW$133, DW_AT_name("ADC1_EPWM_A2")
    2967                            .dwattr $C$DW$133, DW_AT_const_value(0x06)
    2968                            .dwattr $C$DW$133, DW_AT_decl_file("C:/Users/bob/Documents/Projects/induct_forge/RM57Lx_test/P
    2969                            .dwattr $C$DW$133, DW_AT_decl_line(0x9e)
    2970                            .dwattr $C$DW$133, DW_AT_decl_column(0x02)
TI ARM Assembler PC v16.9.0 Thu Feb 16 13:27:09 2017

Tools Copyright (c) 1996-2015 Texas Instruments Incorporated
C:\Users\bob\AppData\Local\Temp\0838410                              PAGE   55

    2971                    
    2972                    $C$DW$134       .dwtag  DW_TAG_enumerator
    2973                            .dwattr $C$DW$134, DW_AT_name("ADC1_EPWM_AB")
    2974                            .dwattr $C$DW$134, DW_AT_const_value(0x07)
    2975                            .dwattr $C$DW$134, DW_AT_decl_file("C:/Users/bob/Documents/Projects/induct_forge/RM57Lx_test/P
    2976                            .dwattr $C$DW$134, DW_AT_decl_line(0x9f)
    2977                            .dwattr $C$DW$134, DW_AT_decl_column(0x02)
    2978                    
    2979                            .dwattr $C$DW$T$109, DW_AT_decl_file("C:/Users/bob/Documents/Projects/induct_forge/RM57Lx_test
    2980                            .dwattr $C$DW$T$109, DW_AT_decl_line(0x89)
    2981                            .dwattr $C$DW$T$109, DW_AT_decl_column(0x06)
    2982                            .dwendtag $C$DW$T$109
    2983                    
    2984                    
    2985                    $C$DW$T$110     .dwtag  DW_TAG_enumeration_type
    2986                            .dwattr $C$DW$T$110, DW_AT_name("adc2HwTriggerSource")
    2987                            .dwattr $C$DW$T$110, DW_AT_byte_size(0x01)
    2988                    $C$DW$135       .dwtag  DW_TAG_enumerator
    2989                            .dwattr $C$DW$135, DW_AT_name("ADC2_EVENT")
    2990                            .dwattr $C$DW$135, DW_AT_const_value(0x00)
    2991                            .dwattr $C$DW$135, DW_AT_decl_file("C:/Users/bob/Documents/Projects/induct_forge/RM57Lx_test/P
    2992                            .dwattr $C$DW$135, DW_AT_decl_line(0xaa)
    2993                            .dwattr $C$DW$135, DW_AT_decl_column(0x02)
    2994                    
    2995                    $C$DW$136       .dwtag  DW_TAG_enumerator
    2996                            .dwattr $C$DW$136, DW_AT_name("ADC2_HET1_8")
    2997                            .dwattr $C$DW$136, DW_AT_const_value(0x01)
    2998                            .dwattr $C$DW$136, DW_AT_decl_file("C:/Users/bob/Documents/Projects/induct_forge/RM57Lx_test/P
    2999                            .dwattr $C$DW$136, DW_AT_decl_line(0xab)
    3000                            .dwattr $C$DW$136, DW_AT_decl_column(0x02)
    3001                    
    3002                    $C$DW$137       .dwtag  DW_TAG_enumerator
    3003                            .dwattr $C$DW$137, DW_AT_name("ADC2_HET1_10")
    3004                            .dwattr $C$DW$137, DW_AT_const_value(0x02)
    3005                            .dwattr $C$DW$137, DW_AT_decl_file("C:/Users/bob/Documents/Projects/induct_forge/RM57Lx_test/P
    3006                            .dwattr $C$DW$137, DW_AT_decl_line(0xac)
    3007                            .dwattr $C$DW$137, DW_AT_decl_column(0x02)
    3008                    
