TI ARM Assembler PC v16.9.0 Thu Feb 16 13:27:09 2017

Tools Copyright (c) 1996-2015 Texas Instruments Incorporated
C:\Users\bob\AppData\Local\Temp\1063210                              PAGE    1

       1                    ;******************************************************************************
       2                    ;* TI ARM C/C++ Codegen                                        PC v16.9.0.LTS *
       3                    ;* Date/Time created: Thu Feb 16 13:27:08 2017                                *
       4                    ;******************************************************************************
       5                            .compiler_opts --abi=eabi --arm_vmrs_si_workaround=off --code_state=32 --diag_wrap=off --embed
       6 00000000                   .state32
       7                    
       8                    $C$DW$CU        .dwtag  DW_TAG_compile_unit
       9                            .dwattr $C$DW$CU, DW_AT_name("../hcg/source/HL_esm.c")
      10                            .dwattr $C$DW$CU, DW_AT_producer("TI TI ARM C/C++ Codegen PC v16.9.0.LTS Copyright (c) 1996-20
      11                            .dwattr $C$DW$CU, DW_AT_TI_version(0x01)
      12                            .dwattr $C$DW$CU, DW_AT_comp_dir("C:\Users\bob\Documents\Projects\induct_forge\RM57Lx_test\Pro
      13                    
      14                    $C$DW$1 .dwtag  DW_TAG_subprogram
      15                            .dwattr $C$DW$1, DW_AT_name("esmGroup1Notification")
      16                            .dwattr $C$DW$1, DW_AT_TI_symbol_name("esmGroup1Notification")
      17                            .dwattr $C$DW$1, DW_AT_declaration
      18                            .dwattr $C$DW$1, DW_AT_external
      19                            .dwattr $C$DW$1, DW_AT_decl_file("C:/Users/bob/Documents/Projects/induct_forge/RM57Lx_test/Pro
      20                            .dwattr $C$DW$1, DW_AT_decl_line(0x4d1)
      21                            .dwattr $C$DW$1, DW_AT_decl_column(0x06)
      22                    $C$DW$2 .dwtag  DW_TAG_formal_parameter
      23                            .dwattr $C$DW$2, DW_AT_type(*$C$DW$T$31)
      24                    
      25                    $C$DW$3 .dwtag  DW_TAG_formal_parameter
      26                            .dwattr $C$DW$3, DW_AT_type(*$C$DW$T$20)
      27                    
      28                            .dwendtag $C$DW$1
      29                    
      30                    
      31                    $C$DW$4 .dwtag  DW_TAG_subprogram
      32                            .dwattr $C$DW$4, DW_AT_name("esmGroup2Notification")
      33                            .dwattr $C$DW$4, DW_AT_TI_symbol_name("esmGroup2Notification")
      34                            .dwattr $C$DW$4, DW_AT_declaration
      35                            .dwattr $C$DW$4, DW_AT_external
      36                            .dwattr $C$DW$4, DW_AT_decl_file("C:/Users/bob/Documents/Projects/induct_forge/RM57Lx_test/Pro
      37                            .dwattr $C$DW$4, DW_AT_decl_line(0x4da)
      38                            .dwattr $C$DW$4, DW_AT_decl_column(0x06)
      39                    $C$DW$5 .dwtag  DW_TAG_formal_parameter
      40                            .dwattr $C$DW$5, DW_AT_type(*$C$DW$T$31)
      41                    
      42                    $C$DW$6 .dwtag  DW_TAG_formal_parameter
      43                            .dwattr $C$DW$6, DW_AT_type(*$C$DW$T$20)
      44                    
      45                            .dwendtag $C$DW$4
      46                    
      47                    ;       C:\ti\ccsv7\tools\compiler\ti-cgt-arm_16.9.0.LTS\bin\armacpia.exe -@C:\\Users\\bob\\AppData\\L
      48 00000000                   .sect   ".text"
      49                            .clink
      50                            .armfunc esmInit
      51 00000000                   .state32
      52                            .global esmInit
      53                    
      54                    $C$DW$7 .dwtag  DW_TAG_subprogram
      55                            .dwattr $C$DW$7, DW_AT_name("esmInit")
TI ARM Assembler PC v16.9.0 Thu Feb 16 13:27:09 2017

Tools Copyright (c) 1996-2015 Texas Instruments Incorporated
C:\Users\bob\AppData\Local\Temp\1063210                              PAGE    2

      56                            .dwattr $C$DW$7, DW_AT_low_pc(esmInit)
      57                            .dwattr $C$DW$7, DW_AT_high_pc(0x00)
      58                            .dwattr $C$DW$7, DW_AT_TI_symbol_name("esmInit")
      59                            .dwattr $C$DW$7, DW_AT_external
      60                            .dwattr $C$DW$7, DW_AT_TI_begin_file("../hcg/source/HL_esm.c")
      61                            .dwattr $C$DW$7, DW_AT_TI_begin_line(0x45)
      62                            .dwattr $C$DW$7, DW_AT_TI_begin_column(0x06)
      63                            .dwattr $C$DW$7, DW_AT_decl_file("../hcg/source/HL_esm.c")
      64                            .dwattr $C$DW$7, DW_AT_decl_line(0x45)
      65                            .dwattr $C$DW$7, DW_AT_decl_column(0x06)
      66                            .dwattr $C$DW$7, DW_AT_TI_max_frame_size(0x00)
      67                            .dwpsn  file "../hcg/source/HL_esm.c",line 70,column 1,is_stmt,address esmInit,isa 2
      68                    
      69                            .dwfde $C$DW$CIE, esmInit
      70                    
      71                    ;*****************************************************************************
      72                    ;* FUNCTION NAME: esmInit                                                    *
      73                    ;*                                                                           *
      74                    ;*   Regs Modified     : A1,V9,SR                                            *
      75                    ;*   Regs Used         : A1,V9,LR,SR                                         *
      76                    ;*   Local Frame Size  : 0 Args + 0 Auto + 0 Save = 0 byte                   *
      77                    ;*****************************************************************************
      78 00000000           esmInit:
      79                    ;* --------------------------------------------------------------------------*
      80                            .dwcfi  cfa_offset, 0
      81                            .dwpsn  file "../hcg/source/HL_esm.c",line 75,column 5,is_stmt,isa 2
      82 00000000 E59F0740          LDR       A1, $C$CON1           ; [DPU_4_PIPE0] |75| 
      83 00000004 E3E0C000          MVN       V9, #0                ; [DPU_4_PIPE0] |75| 
      84 00000008 E580C000          STR       V9, [A1, #0]          ; [DPU_4_PIPE0] |75| 
      85                            .dwpsn  file "../hcg/source/HL_esm.c",line 76,column 5,is_stmt,isa 2
      86 0000000c E59F0738          LDR       A1, $C$CON2           ; [DPU_4_PIPE0] |76| 
      87 00000010 E3E0C000          MVN       V9, #0                ; [DPU_4_PIPE0] |76| 
      88 00000014 E580C000          STR       V9, [A1, #0]          ; [DPU_4_PIPE0] |76| 
      89                            .dwpsn  file "../hcg/source/HL_esm.c",line 77,column 5,is_stmt,isa 2
      90 00000018 E59F0730          LDR       A1, $C$CON3           ; [DPU_4_PIPE0] |77| 
      91 0000001c E3E0C000          MVN       V9, #0                ; [DPU_4_PIPE0] |77| 
      92 00000020 E580C000          STR       V9, [A1, #0]          ; [DPU_4_PIPE0] |77| 
      93                            .dwpsn  file "../hcg/source/HL_esm.c",line 80,column 5,is_stmt,isa 2
      94 00000024 E59F0728          LDR       A1, $C$CON4           ; [DPU_4_PIPE0] |80| 
      95 00000028 E3E0C000          MVN       V9, #0                ; [DPU_4_PIPE0] |80| 
      96 0000002c E580C000          STR       V9, [A1, #0]          ; [DPU_4_PIPE0] |80| 
      97                            .dwpsn  file "../hcg/source/HL_esm.c",line 81,column 5,is_stmt,isa 2
      98 00000030 E59F0720          LDR       A1, $C$CON5           ; [DPU_4_PIPE0] |81| 
      99 00000034 E3E0C000          MVN       V9, #0                ; [DPU_4_PIPE0] |81| 
     100 00000038 E580C000          STR       V9, [A1, #0]          ; [DPU_4_PIPE0] |81| 
     101                            .dwpsn  file "../hcg/source/HL_esm.c",line 82,column 5,is_stmt,isa 2
     102 0000003c E59F0718          LDR       A1, $C$CON6           ; [DPU_4_PIPE0] |82| 
     103 00000040 E3E0C000          MVN       V9, #0                ; [DPU_4_PIPE0] |82| 
     104 00000044 E580C000          STR       V9, [A1, #0]          ; [DPU_4_PIPE0] |82| 
     105                            .dwpsn  file "../hcg/source/HL_esm.c",line 85,column 5,is_stmt,isa 2
     106 00000048 E59F0710          LDR       A1, $C$CON7           ; [DPU_4_PIPE0] |85| 
     107 0000004c E3E0C000          MVN       V9, #0                ; [DPU_4_PIPE0] |85| 
     108 00000050 E580C000          STR       V9, [A1, #0]          ; [DPU_4_PIPE0] |85| 
     109                            .dwpsn  file "../hcg/source/HL_esm.c",line 86,column 5,is_stmt,isa 2
     110 00000054 E59F0708          LDR       A1, $C$CON8           ; [DPU_4_PIPE0] |86| 
TI ARM Assembler PC v16.9.0 Thu Feb 16 13:27:09 2017

Tools Copyright (c) 1996-2015 Texas Instruments Incorporated
C:\Users\bob\AppData\Local\Temp\1063210                              PAGE    3

     111 00000058 E3E0C000          MVN       V9, #0                ; [DPU_4_PIPE0] |86| 
     112 0000005c E580C000          STR       V9, [A1, #0]          ; [DPU_4_PIPE0] |86| 
     113                            .dwpsn  file "../hcg/source/HL_esm.c",line 87,column 5,is_stmt,isa 2
     114 00000060 E59F0700          LDR       A1, $C$CON9           ; [DPU_4_PIPE0] |87| 
     115 00000064 E3E0C000          MVN       V9, #0                ; [DPU_4_PIPE0] |87| 
     116 00000068 E580C000          STR       V9, [A1, #0]          ; [DPU_4_PIPE0] |87| 
     117                            .dwpsn  file "../hcg/source/HL_esm.c",line 88,column 5,is_stmt,isa 2
     118 0000006c E59F06F8          LDR       A1, $C$CON10          ; [DPU_4_PIPE0] |88| 
     119 00000070 E3E0C000          MVN       V9, #0                ; [DPU_4_PIPE0] |88| 
     120 00000074 E580C000          STR       V9, [A1, #0]          ; [DPU_4_PIPE0] |88| 
     121                            .dwpsn  file "../hcg/source/HL_esm.c",line 90,column 5,is_stmt,isa 2
     122 00000078 E59F06F0          LDR       A1, $C$CON11          ; [DPU_4_PIPE0] |90| 
     123 0000007c E3E0C000          MVN       V9, #0                ; [DPU_4_PIPE0] |90| 
     124 00000080 E580C000          STR       V9, [A1, #0]          ; [DPU_4_PIPE0] |90| 
     125                            .dwpsn  file "../hcg/source/HL_esm.c",line 91,column 5,is_stmt,isa 2
     126 00000084 E59F06E8          LDR       A1, $C$CON12          ; [DPU_4_PIPE0] |91| 
     127 00000088 E3E0C000          MVN       V9, #0                ; [DPU_4_PIPE0] |91| 
     128 0000008c E580C000          STR       V9, [A1, #0]          ; [DPU_4_PIPE0] |91| 
     129                            .dwpsn  file "../hcg/source/HL_esm.c",line 92,column 5,is_stmt,isa 2
     130 00000090 E59F06E0          LDR       A1, $C$CON13          ; [DPU_4_PIPE0] |92| 
     131 00000094 E3E0C000          MVN       V9, #0                ; [DPU_4_PIPE0] |92| 
     132 00000098 E580C000          STR       V9, [A1, #0]          ; [DPU_4_PIPE0] |92| 
     133                            .dwpsn  file "../hcg/source/HL_esm.c",line 94,column 5,is_stmt,isa 2
     134 0000009c E59F06D8          LDR       A1, $C$CON14          ; [DPU_4_PIPE0] |94| 
     135 000000a0 E3E0C000          MVN       V9, #0                ; [DPU_4_PIPE0] |94| 
     136 000000a4 E580C000          STR       V9, [A1, #0]          ; [DPU_4_PIPE0] |94| 
     137                            .dwpsn  file "../hcg/source/HL_esm.c",line 95,column 5,is_stmt,isa 2
     138 000000a8 E59F06D0          LDR       A1, $C$CON15          ; [DPU_4_PIPE0] |95| 
     139 000000ac E3E0C000          MVN       V9, #0                ; [DPU_4_PIPE0] |95| 
     140 000000b0 E580C000          STR       V9, [A1, #0]          ; [DPU_4_PIPE0] |95| 
     141                            .dwpsn  file "../hcg/source/HL_esm.c",line 96,column 5,is_stmt,isa 2
     142 000000b4 E59F06C8          LDR       A1, $C$CON16          ; [DPU_4_PIPE0] |96| 
     143 000000b8 E3E0C000          MVN       V9, #0                ; [DPU_4_PIPE0] |96| 
     144 000000bc E580C000          STR       V9, [A1, #0]          ; [DPU_4_PIPE0] |96| 
     145                            .dwpsn  file "../hcg/source/HL_esm.c",line 99,column 5,is_stmt,isa 2
     146 000000c0 E59F06C0          LDR       A1, $C$CON17          ; [DPU_4_PIPE0] |99| 
     147 000000c4 E303CFFF          MOV       V9, #16383            ; [DPU_4_PIPE0] |99| 
     148 000000c8 E580C000          STR       V9, [A1, #0]          ; [DPU_4_PIPE0] |99| 
     149                            .dwpsn  file "../hcg/source/HL_esm.c",line 102,column 5,is_stmt,isa 2
     150 000000cc E59FC6B8          LDR       V9, $C$CON18          ; [DPU_4_PIPE0] |102| 
     151 000000d0 E59CC000          LDR       V9, [V9, #0]          ; [DPU_4_PIPE0] |102| 
     152 000000d4 E35C0000          CMP       V9, #0                ; [DPU_4_PIPE0] |102| 
     153 000000d8 1AFFFFFE!         BNE       ||$C$L1||             ; [DPU_4_PIPE1] |102| 
     154                            ; BRANCHCC OCCURS {||$C$L1||}    ; [] |102| 
     155                    ;* --------------------------------------------------------------------------*
     156                            .dwpsn  file "../hcg/source/HL_esm.c",line 104,column 9,is_stmt,isa 2
     157 000000dc E59F06AC          LDR       A1, $C$CON19          ; [DPU_4_PIPE0] |104| 
     158 000000e0 E3A0C005          MOV       V9, #5                ; [DPU_4_PIPE0] |104| 
     159 000000e4 E580C000          STR       V9, [A1, #0]          ; [DPU_4_PIPE0] |104| 
     160                            .dwpsn  file "../hcg/source/HL_esm.c",line 105,column 5,is_stmt,isa 2
     161 000000e8 EAFFFFFE!         B         ||$C$L2||             ; [DPU_4_PIPE1] |105| 
     162                            ; BRANCH OCCURS {||$C$L2||}      ; [] |105| 
     163                    ;* --------------------------------------------------------------------------*
     164 000000ec           ||$C$L1||:    
     165                            .dwpsn  file "../hcg/source/HL_esm.c",line 108,column 9,is_stmt,isa 2
TI ARM Assembler PC v16.9.0 Thu Feb 16 13:27:09 2017

Tools Copyright (c) 1996-2015 Texas Instruments Incorporated
C:\Users\bob\AppData\Local\Temp\1063210                              PAGE    4

     166 000000ec E59F069C          LDR       A1, $C$CON19          ; [DPU_4_PIPE0] |108| 
     167 000000f0 E3A0C000          MOV       V9, #0                ; [DPU_4_PIPE0] |108| 
     168 000000f4 E580C000          STR       V9, [A1, #0]          ; [DPU_4_PIPE0] |108| 
     169                    ;* --------------------------------------------------------------------------*
     170 000000f8           ||$C$L2||:    
     171                            .dwpsn  file "../hcg/source/HL_esm.c",line 112,column 5,is_stmt,isa 2
     172 000000f8 E59F0694          LDR       A1, $C$CON20          ; [DPU_4_PIPE0] |112| 
     173 000000fc E3E0C000          MVN       V9, #0                ; [DPU_4_PIPE0] |112| 
     174 00000100 E580C000          STR       V9, [A1, #0]          ; [DPU_4_PIPE0] |112| 
     175                            .dwpsn  file "../hcg/source/HL_esm.c",line 113,column 5,is_stmt,isa 2
     176 00000104 E59F068C          LDR       A1, $C$CON21          ; [DPU_4_PIPE0] |113| 
     177 00000108 E3E0C000          MVN       V9, #0                ; [DPU_4_PIPE0] |113| 
     178 0000010c E580C000          STR       V9, [A1, #0]          ; [DPU_4_PIPE0] |113| 
     179                            .dwpsn  file "../hcg/source/HL_esm.c",line 114,column 5,is_stmt,isa 2
     180 00000110 E59F0684          LDR       A1, $C$CON22          ; [DPU_4_PIPE0] |114| 
     181 00000114 E3E0C000          MVN       V9, #0                ; [DPU_4_PIPE0] |114| 
     182 00000118 E580C000          STR       V9, [A1, #0]          ; [DPU_4_PIPE0] |114| 
     183                            .dwpsn  file "../hcg/source/HL_esm.c",line 117,column 5,is_stmt,isa 2
     184 0000011c E59F067C          LDR       A1, $C$CON23          ; [DPU_4_PIPE0] |117| 
     185 00000120 E3A0C000          MOV       V9, #0                ; [DPU_4_PIPE0] |117| 
     186 00000124 E580C000          STR       V9, [A1, #0]          ; [DPU_4_PIPE0] |117| 
     187                            .dwpsn  file "../hcg/source/HL_esm.c",line 150,column 5,is_stmt,isa 2
     188 00000128 E59F0674          LDR       A1, $C$CON24          ; [DPU_4_PIPE0] |150| 
     189 0000012c E3A0C000          MOV       V9, #0                ; [DPU_4_PIPE0] |150| 
     190 00000130 E580C000          STR       V9, [A1, #0]          ; [DPU_4_PIPE0] |150| 
     191                            .dwpsn  file "../hcg/source/HL_esm.c",line 183,column 5,is_stmt,isa 2
     192 00000134 E59F066C          LDR       A1, $C$CON25          ; [DPU_4_PIPE0] |183| 
     193 00000138 E3A0C000          MOV       V9, #0                ; [DPU_4_PIPE0] |183| 
     194 0000013c E580C000          STR       V9, [A1, #0]          ; [DPU_4_PIPE0] |183| 
     195                            .dwpsn  file "../hcg/source/HL_esm.c",line 217,column 5,is_stmt,isa 2
     196 00000140 E59F0664          LDR       A1, $C$CON26          ; [DPU_4_PIPE0] |217| 
     197 00000144 E3A0CB03          MOV       V9, #3072             ; [DPU_4_PIPE0] |217| 
     198 00000148 E580C000          STR       V9, [A1, #0]          ; [DPU_4_PIPE0] |217| 
     199                            .dwpsn  file "../hcg/source/HL_esm.c",line 250,column 5,is_stmt,isa 2
     200 0000014c E59F065C          LDR       A1, $C$CON27          ; [DPU_4_PIPE0] |250| 
     201 00000150 E3A0C0C0          MOV       V9, #192              ; [DPU_4_PIPE0] |250| 
     202 00000154 E580C000          STR       V9, [A1, #0]          ; [DPU_4_PIPE0] |250| 
     203                            .dwpsn  file "../hcg/source/HL_esm.c",line 283,column 5,is_stmt,isa 2
     204 00000158 E59F0654          LDR       A1, $C$CON28          ; [DPU_4_PIPE0] |283| 
     205 0000015c E3A0C000          MOV       V9, #0                ; [DPU_4_PIPE0] |283| 
     206 00000160 E580C000          STR       V9, [A1, #0]          ; [DPU_4_PIPE0] |283| 
     207                            .dwpsn  file "../hcg/source/HL_esm.c",line 317,column 5,is_stmt,isa 2
     208 00000164 E59F064C          LDR       A1, $C$CON29          ; [DPU_4_PIPE0] |317| 
     209 00000168 E59FC64C          LDR       V9, $C$CON30          ; [DPU_4_PIPE0] |317| 
     210 0000016c E580C000          STR       V9, [A1, #0]          ; [DPU_4_PIPE0] |317| 
     211                            .dwpsn  file "../hcg/source/HL_esm.c",line 350,column 5,is_stmt,isa 2
     212 00000170 E59F0648          LDR       A1, $C$CON31          ; [DPU_4_PIPE0] |350| 
     213 00000174 E59FC648          LDR       V9, $C$CON32          ; [DPU_4_PIPE0] |350| 
     214 00000178 E580C000          STR       V9, [A1, #0]          ; [DPU_4_PIPE0] |350| 
     215                            .dwpsn  file "../hcg/source/HL_esm.c",line 383,column 5,is_stmt,isa 2
     216 0000017c E59F0644          LDR       A1, $C$CON33          ; [DPU_4_PIPE0] |383| 
     217 00000180 E59FC644          LDR       V9, $C$CON34          ; [DPU_4_PIPE0] |383| 
     218 00000184 E580C000          STR       V9, [A1, #0]          ; [DPU_4_PIPE0] |383| 
     219                            .dwpsn  file "../hcg/source/HL_esm.c",line 418,column 1,is_stmt,isa 2
     220                    $C$DW$8 .dwtag  DW_TAG_TI_branch
TI ARM Assembler PC v16.9.0 Thu Feb 16 13:27:09 2017

Tools Copyright (c) 1996-2015 Texas Instruments Incorporated
C:\Users\bob\AppData\Local\Temp\1063210                              PAGE    5

     221                            .dwattr $C$DW$8, DW_AT_low_pc(0x00)
     222                            .dwattr $C$DW$8, DW_AT_TI_return
     223                    
     224 00000188 E12FFF1E          BX        LR                    ; [DPU_4_PIPE1] 
     225                            ; BRANCH OCCURS                  ; [] 
     226                            .dwattr $C$DW$7, DW_AT_TI_end_file("../hcg/source/HL_esm.c")
     227                            .dwattr $C$DW$7, DW_AT_TI_end_line(0x1a2)
     228                            .dwattr $C$DW$7, DW_AT_TI_end_column(0x01)
     229                            .dwendentry
     230                            .dwendtag $C$DW$7
     231                    
     232 0000018c                   .sect   ".text"
     233                            .clink
     234                            .armfunc esmError
     235 0000018c                   .state32
     236                            .global esmError
     237                    
     238                    $C$DW$9 .dwtag  DW_TAG_subprogram
     239                            .dwattr $C$DW$9, DW_AT_name("esmError")
     240                            .dwattr $C$DW$9, DW_AT_low_pc(esmError)
     241                            .dwattr $C$DW$9, DW_AT_high_pc(0x00)
     242                            .dwattr $C$DW$9, DW_AT_TI_symbol_name("esmError")
     243                            .dwattr $C$DW$9, DW_AT_external
     244                            .dwattr $C$DW$9, DW_AT_type(*$C$DW$T$20)
     245                            .dwattr $C$DW$9, DW_AT_TI_begin_file("../hcg/source/HL_esm.c")
     246                            .dwattr $C$DW$9, DW_AT_TI_begin_line(0x1ab)
     247                            .dwattr $C$DW$9, DW_AT_TI_begin_column(0x08)
     248                            .dwattr $C$DW$9, DW_AT_decl_file("../hcg/source/HL_esm.c")
     249                            .dwattr $C$DW$9, DW_AT_decl_line(0x1ab)
     250                            .dwattr $C$DW$9, DW_AT_decl_column(0x08)
     251                            .dwattr $C$DW$9, DW_AT_TI_max_frame_size(0x08)
     252                            .dwpsn  file "../hcg/source/HL_esm.c",line 428,column 1,is_stmt,address esmError,isa 2
     253                    
     254                            .dwfde $C$DW$CIE, esmError
     255                    
     256                    ;*****************************************************************************
     257                    ;* FUNCTION NAME: esmError                                                   *
     258                    ;*                                                                           *
     259                    ;*   Regs Modified     : A1,V9,SP                                            *
     260                    ;*   Regs Used         : A1,V9,SP,LR                                         *
     261                    ;*   Local Frame Size  : 0 Args + 4 Auto + 0 Save = 4 byte                   *
     262                    ;*****************************************************************************
     263 0000018c           esmError:
     264                    ;* --------------------------------------------------------------------------*
     265                            .dwcfi  cfa_offset, 0
     266 0000018c E24DD008          SUB       SP, SP, #8            ; [DPU_4_PIPE0] 
     267                            .dwcfi  cfa_offset, 8
     268                    $C$DW$10        .dwtag  DW_TAG_variable
     269                            .dwattr $C$DW$10, DW_AT_name("status")
     270                            .dwattr $C$DW$10, DW_AT_TI_symbol_name("status")
     271                            .dwattr $C$DW$10, DW_AT_type(*$C$DW$T$20)
     272                            .dwattr $C$DW$10, DW_AT_location[DW_OP_breg13 0]
     273                    
     274                            .dwpsn  file "../hcg/source/HL_esm.c",line 434,column 5,is_stmt,isa 2
     275 00000190 E59FC5F4          LDR       V9, $C$CON18          ; [DPU_4_PIPE0] |434| 
TI ARM Assembler PC v16.9.0 Thu Feb 16 13:27:09 2017

Tools Copyright (c) 1996-2015 Texas Instruments Incorporated
C:\Users\bob\AppData\Local\Temp\1063210                              PAGE    6

     276 00000194 E59CC000          LDR       V9, [V9, #0]          ; [DPU_4_PIPE0] |434| 
     277 00000198 E58DC000          STR       V9, [SP, #0]          ; [DPU_4_PIPE0] |434| 
     278                            .dwpsn  file "../hcg/source/HL_esm.c",line 439,column 5,is_stmt,isa 2
     279 0000019c E59D0000          LDR       A1, [SP, #0]          ; [DPU_4_PIPE0] |439| 
     280                            .dwpsn  file "../hcg/source/HL_esm.c",line 440,column 1,is_stmt,isa 2
     281 000001a0 E28DD008          ADD       SP, SP, #8            ; [DPU_4_PIPE0] 
     282                            .dwcfi  cfa_offset, 0
     283                    $C$DW$11        .dwtag  DW_TAG_TI_branch
     284                            .dwattr $C$DW$11, DW_AT_low_pc(0x00)
     285                            .dwattr $C$DW$11, DW_AT_TI_return
     286                    
     287 000001a4 E12FFF1E          BX        LR                    ; [DPU_4_PIPE1] 
     288                            ; BRANCH OCCURS                  ; [] 
     289                            .dwattr $C$DW$9, DW_AT_TI_end_file("../hcg/source/HL_esm.c")
     290                            .dwattr $C$DW$9, DW_AT_TI_end_line(0x1b8)
     291                            .dwattr $C$DW$9, DW_AT_TI_end_column(0x01)
     292                            .dwendentry
     293                            .dwendtag $C$DW$9
     294                    
     295 000001a8                   .sect   ".text"
     296                            .clink
     297                            .armfunc esmEnableError
     298 000001a8                   .state32
     299                            .global esmEnableError
     300                    
     301                    $C$DW$12        .dwtag  DW_TAG_subprogram
     302                            .dwattr $C$DW$12, DW_AT_name("esmEnableError")
     303                            .dwattr $C$DW$12, DW_AT_low_pc(esmEnableError)
     304                            .dwattr $C$DW$12, DW_AT_high_pc(0x00)
     305                            .dwattr $C$DW$12, DW_AT_TI_symbol_name("esmEnableError")
     306                            .dwattr $C$DW$12, DW_AT_external
     307                            .dwattr $C$DW$12, DW_AT_TI_begin_file("../hcg/source/HL_esm.c")
     308                            .dwattr $C$DW$12, DW_AT_TI_begin_line(0x1c2)
     309                            .dwattr $C$DW$12, DW_AT_TI_begin_column(0x06)
     310                            .dwattr $C$DW$12, DW_AT_decl_file("../hcg/source/HL_esm.c")
     311                            .dwattr $C$DW$12, DW_AT_decl_line(0x1c2)
     312                            .dwattr $C$DW$12, DW_AT_decl_column(0x06)
     313                            .dwattr $C$DW$12, DW_AT_TI_max_frame_size(0x08)
     314                            .dwpsn  file "../hcg/source/HL_esm.c",line 451,column 1,is_stmt,address esmEnableError,isa 2
     315                    
     316                            .dwfde $C$DW$CIE, esmEnableError
     317                    $C$DW$13        .dwtag  DW_TAG_formal_parameter
     318                            .dwattr $C$DW$13, DW_AT_name("channels")
     319                            .dwattr $C$DW$13, DW_AT_TI_symbol_name("channels")
     320                            .dwattr $C$DW$13, DW_AT_type(*$C$DW$T$38)
     321                            .dwattr $C$DW$13, DW_AT_location[DW_OP_reg0]
     322                    
     323                    
     324                    ;*****************************************************************************
     325                    ;* FUNCTION NAME: esmEnableError                                             *
     326                    ;*                                                                           *
     327                    ;*   Regs Modified     : A1,A2,V9,SP                                         *
     328                    ;*   Regs Used         : A1,A2,V9,SP,LR                                      *
     329                    ;*   Local Frame Size  : 0 Args + 8 Auto + 0 Save = 8 byte                   *
     330                    ;*****************************************************************************
TI ARM Assembler PC v16.9.0 Thu Feb 16 13:27:09 2017

Tools Copyright (c) 1996-2015 Texas Instruments Incorporated
C:\Users\bob\AppData\Local\Temp\1063210                              PAGE    7

     331 000001a8           esmEnableError:
     332                    ;* --------------------------------------------------------------------------*
     333                            .dwcfi  cfa_offset, 0
     334 000001a8 E24DD008          SUB       SP, SP, #8            ; [DPU_4_PIPE0] 
     335                            .dwcfi  cfa_offset, 8
     336                    $C$DW$14        .dwtag  DW_TAG_variable
     337                            .dwattr $C$DW$14, DW_AT_name("channels")
     338                            .dwattr $C$DW$14, DW_AT_TI_symbol_name("channels")
     339                            .dwattr $C$DW$14, DW_AT_type(*$C$DW$T$38)
     340                            .dwattr $C$DW$14, DW_AT_location[DW_OP_breg13 0]
     341                    
     342 000001ac E88D0003          STMIA     SP, {A1,A2}           ; [DPU_4_PIPE0] |451| 
     343                            .dwpsn  file "../hcg/source/HL_esm.c",line 455,column 5,is_stmt,isa 2
     344 000001b0 E89D0003          LDMIA     SP, {A1,A2}           ; [DPU_4_PIPE0] |455| 
     345 000001b4 E59F05F4          LDR       A1, $C$CON27          ; [DPU_4_PIPE0] |455| 
     346 000001b8 E1A0C001          MOV       V9, A2                ; [DPU_4_PIPE0] |455| 
     347 000001bc E580C000          STR       V9, [A1, #0]          ; [DPU_4_PIPE0] |455| 
     348                            .dwpsn  file "../hcg/source/HL_esm.c",line 456,column 5,is_stmt,isa 2
     349 000001c0 E59F05E4          LDR       A1, $C$CON26          ; [DPU_4_PIPE0] |456| 
     350 000001c4 E59DC000          LDR       V9, [SP, #0]          ; [DPU_4_PIPE0] |456| 
     351 000001c8 E580C000          STR       V9, [A1, #0]          ; [DPU_4_PIPE0] |456| 
     352                            .dwpsn  file "../hcg/source/HL_esm.c",line 460,column 1,is_stmt,isa 2
     353 000001cc E28DD008          ADD       SP, SP, #8            ; [DPU_4_PIPE0] 
     354                            .dwcfi  cfa_offset, 0
     355                    $C$DW$15        .dwtag  DW_TAG_TI_branch
     356                            .dwattr $C$DW$15, DW_AT_low_pc(0x00)
     357                            .dwattr $C$DW$15, DW_AT_TI_return
     358                    
     359 000001d0 E12FFF1E          BX        LR                    ; [DPU_4_PIPE1] 
     360                            ; BRANCH OCCURS                  ; [] 
     361                            .dwattr $C$DW$12, DW_AT_TI_end_file("../hcg/source/HL_esm.c")
     362                            .dwattr $C$DW$12, DW_AT_TI_end_line(0x1cc)
     363                            .dwattr $C$DW$12, DW_AT_TI_end_column(0x01)
     364                            .dwendentry
     365                            .dwendtag $C$DW$12
     366                    
     367 000001d4                   .sect   ".text"
     368                            .clink
     369                            .armfunc esmEnableErrorUpper
     370 000001d4                   .state32
     371                            .global esmEnableErrorUpper
     372                    
     373                    $C$DW$16        .dwtag  DW_TAG_subprogram
     374                            .dwattr $C$DW$16, DW_AT_name("esmEnableErrorUpper")
     375                            .dwattr $C$DW$16, DW_AT_low_pc(esmEnableErrorUpper)
     376                            .dwattr $C$DW$16, DW_AT_high_pc(0x00)
     377                            .dwattr $C$DW$16, DW_AT_TI_symbol_name("esmEnableErrorUpper")
     378                            .dwattr $C$DW$16, DW_AT_external
     379                            .dwattr $C$DW$16, DW_AT_TI_begin_file("../hcg/source/HL_esm.c")
     380                            .dwattr $C$DW$16, DW_AT_TI_begin_line(0x1d5)
     381                            .dwattr $C$DW$16, DW_AT_TI_begin_column(0x06)
     382                            .dwattr $C$DW$16, DW_AT_decl_file("../hcg/source/HL_esm.c")
     383                            .dwattr $C$DW$16, DW_AT_decl_line(0x1d5)
     384                            .dwattr $C$DW$16, DW_AT_decl_column(0x06)
     385                            .dwattr $C$DW$16, DW_AT_TI_max_frame_size(0x08)
TI ARM Assembler PC v16.9.0 Thu Feb 16 13:27:09 2017

Tools Copyright (c) 1996-2015 Texas Instruments Incorporated
C:\Users\bob\AppData\Local\Temp\1063210                              PAGE    8

     386                            .dwpsn  file "../hcg/source/HL_esm.c",line 470,column 1,is_stmt,address esmEnableErrorUpper,is
     387                    
     388                            .dwfde $C$DW$CIE, esmEnableErrorUpper
     389                    $C$DW$17        .dwtag  DW_TAG_formal_parameter
     390                            .dwattr $C$DW$17, DW_AT_name("channels")
     391                            .dwattr $C$DW$17, DW_AT_TI_symbol_name("channels")
     392                            .dwattr $C$DW$17, DW_AT_type(*$C$DW$T$38)
     393                            .dwattr $C$DW$17, DW_AT_location[DW_OP_reg0]
     394                    
     395                    
     396                    ;*****************************************************************************
     397                    ;* FUNCTION NAME: esmEnableErrorUpper                                        *
     398                    ;*                                                                           *
     399                    ;*   Regs Modified     : A1,V9,SP                                            *
     400                    ;*   Regs Used         : A1,A2,V9,SP,LR                                      *
     401                    ;*   Local Frame Size  : 0 Args + 8 Auto + 0 Save = 8 byte                   *
     402                    ;*****************************************************************************
     403 000001d4           esmEnableErrorUpper:
     404                    ;* --------------------------------------------------------------------------*
     405                            .dwcfi  cfa_offset, 0
     406 000001d4 E24DD008          SUB       SP, SP, #8            ; [DPU_4_PIPE0] 
     407                            .dwcfi  cfa_offset, 8
     408                    $C$DW$18        .dwtag  DW_TAG_variable
     409                            .dwattr $C$DW$18, DW_AT_name("channels")
     410                            .dwattr $C$DW$18, DW_AT_TI_symbol_name("channels")
     411                            .dwattr $C$DW$18, DW_AT_type(*$C$DW$T$38)
     412                            .dwattr $C$DW$18, DW_AT_location[DW_OP_breg13 0]
     413                    
     414 000001d8 E88D0003          STMIA     SP, {A1,A2}           ; [DPU_4_PIPE0] |470| 
     415                            .dwpsn  file "../hcg/source/HL_esm.c",line 474,column 5,is_stmt,isa 2
     416 000001dc E59F05D0          LDR       A1, $C$CON28          ; [DPU_4_PIPE0] |474| 
     417 000001e0 E59DC000          LDR       V9, [SP, #0]          ; [DPU_4_PIPE0] |474| 
     418 000001e4 E580C000          STR       V9, [A1, #0]          ; [DPU_4_PIPE0] |474| 
     419                            .dwpsn  file "../hcg/source/HL_esm.c",line 478,column 1,is_stmt,isa 2
     420 000001e8 E28DD008          ADD       SP, SP, #8            ; [DPU_4_PIPE0] 
     421                            .dwcfi  cfa_offset, 0
     422                    $C$DW$19        .dwtag  DW_TAG_TI_branch
     423                            .dwattr $C$DW$19, DW_AT_low_pc(0x00)
     424                            .dwattr $C$DW$19, DW_AT_TI_return
     425                    
     426 000001ec E12FFF1E          BX        LR                    ; [DPU_4_PIPE1] 
     427                            ; BRANCH OCCURS                  ; [] 
     428                            .dwattr $C$DW$16, DW_AT_TI_end_file("../hcg/source/HL_esm.c")
     429                            .dwattr $C$DW$16, DW_AT_TI_end_line(0x1de)
     430                            .dwattr $C$DW$16, DW_AT_TI_end_column(0x01)
     431                            .dwendentry
     432                            .dwendtag $C$DW$16
     433                    
     434 000001f0                   .sect   ".text"
     435                            .clink
     436                            .armfunc esmDisableError
     437 000001f0                   .state32
     438                            .global esmDisableError
     439                    
     440                    $C$DW$20        .dwtag  DW_TAG_subprogram
TI ARM Assembler PC v16.9.0 Thu Feb 16 13:27:09 2017

Tools Copyright (c) 1996-2015 Texas Instruments Incorporated
C:\Users\bob\AppData\Local\Temp\1063210                              PAGE    9

     441                            .dwattr $C$DW$20, DW_AT_name("esmDisableError")
     442                            .dwattr $C$DW$20, DW_AT_low_pc(esmDisableError)
     443                            .dwattr $C$DW$20, DW_AT_high_pc(0x00)
     444                            .dwattr $C$DW$20, DW_AT_TI_symbol_name("esmDisableError")
     445                            .dwattr $C$DW$20, DW_AT_external
     446                            .dwattr $C$DW$20, DW_AT_TI_begin_file("../hcg/source/HL_esm.c")
     447                            .dwattr $C$DW$20, DW_AT_TI_begin_line(0x1e6)
     448                            .dwattr $C$DW$20, DW_AT_TI_begin_column(0x06)
     449                            .dwattr $C$DW$20, DW_AT_decl_file("../hcg/source/HL_esm.c")
     450                            .dwattr $C$DW$20, DW_AT_decl_line(0x1e6)
     451                            .dwattr $C$DW$20, DW_AT_decl_column(0x06)
     452                            .dwattr $C$DW$20, DW_AT_TI_max_frame_size(0x08)
     453                            .dwpsn  file "../hcg/source/HL_esm.c",line 487,column 1,is_stmt,address esmDisableError,isa 2
     454                    
     455                            .dwfde $C$DW$CIE, esmDisableError
     456                    $C$DW$21        .dwtag  DW_TAG_formal_parameter
     457                            .dwattr $C$DW$21, DW_AT_name("channels")
     458                            .dwattr $C$DW$21, DW_AT_TI_symbol_name("channels")
     459                            .dwattr $C$DW$21, DW_AT_type(*$C$DW$T$38)
     460                            .dwattr $C$DW$21, DW_AT_location[DW_OP_reg0]
     461                    
     462                    
     463                    ;*****************************************************************************
     464                    ;* FUNCTION NAME: esmDisableError                                            *
     465                    ;*                                                                           *
     466                    ;*   Regs Modified     : A1,A2,V9,SP                                         *
     467                    ;*   Regs Used         : A1,A2,V9,SP,LR                                      *
     468                    ;*   Local Frame Size  : 0 Args + 8 Auto + 0 Save = 8 byte                   *
     469                    ;*****************************************************************************
     470 000001f0           esmDisableError:
     471                    ;* --------------------------------------------------------------------------*
     472                            .dwcfi  cfa_offset, 0
     473 000001f0 E24DD008          SUB       SP, SP, #8            ; [DPU_4_PIPE0] 
     474                            .dwcfi  cfa_offset, 8
     475                    $C$DW$22        .dwtag  DW_TAG_variable
     476                            .dwattr $C$DW$22, DW_AT_name("channels")
     477                            .dwattr $C$DW$22, DW_AT_TI_symbol_name("channels")
     478                            .dwattr $C$DW$22, DW_AT_type(*$C$DW$T$38)
     479                            .dwattr $C$DW$22, DW_AT_location[DW_OP_breg13 0]
     480                    
     481 000001f4 E88D0003          STMIA     SP, {A1,A2}           ; [DPU_4_PIPE0] |487| 
     482                            .dwpsn  file "../hcg/source/HL_esm.c",line 491,column 5,is_stmt,isa 2
     483 000001f8 E89D0003          LDMIA     SP, {A1,A2}           ; [DPU_4_PIPE0] |491| 
     484 000001fc E59F0548          LDR       A1, $C$CON2           ; [DPU_4_PIPE0] |491| 
     485 00000200 E1A0C001          MOV       V9, A2                ; [DPU_4_PIPE0] |491| 
     486 00000204 E580C000          STR       V9, [A1, #0]          ; [DPU_4_PIPE0] |491| 
     487                            .dwpsn  file "../hcg/source/HL_esm.c",line 492,column 5,is_stmt,isa 2
     488 00000208 E59F0538          LDR       A1, $C$CON1           ; [DPU_4_PIPE0] |492| 
     489 0000020c E59DC000          LDR       V9, [SP, #0]          ; [DPU_4_PIPE0] |492| 
     490 00000210 E580C000          STR       V9, [A1, #0]          ; [DPU_4_PIPE0] |492| 
     491                            .dwpsn  file "../hcg/source/HL_esm.c",line 496,column 1,is_stmt,isa 2
     492 00000214 E28DD008          ADD       SP, SP, #8            ; [DPU_4_PIPE0] 
     493                            .dwcfi  cfa_offset, 0
     494                    $C$DW$23        .dwtag  DW_TAG_TI_branch
     495                            .dwattr $C$DW$23, DW_AT_low_pc(0x00)
TI ARM Assembler PC v16.9.0 Thu Feb 16 13:27:09 2017

Tools Copyright (c) 1996-2015 Texas Instruments Incorporated
C:\Users\bob\AppData\Local\Temp\1063210                              PAGE   10

     496                            .dwattr $C$DW$23, DW_AT_TI_return
     497                    
     498 00000218 E12FFF1E          BX        LR                    ; [DPU_4_PIPE1] 
     499                            ; BRANCH OCCURS                  ; [] 
     500                            .dwattr $C$DW$20, DW_AT_TI_end_file("../hcg/source/HL_esm.c")
     501                            .dwattr $C$DW$20, DW_AT_TI_end_line(0x1f0)
     502                            .dwattr $C$DW$20, DW_AT_TI_end_column(0x01)
     503                            .dwendentry
     504                            .dwendtag $C$DW$20
     505                    
     506 0000021c                   .sect   ".text"
     507                            .clink
     508                            .armfunc esmDisableErrorUpper
     509 0000021c                   .state32
     510                            .global esmDisableErrorUpper
     511                    
     512                    $C$DW$24        .dwtag  DW_TAG_subprogram
     513                            .dwattr $C$DW$24, DW_AT_name("esmDisableErrorUpper")
     514                            .dwattr $C$DW$24, DW_AT_low_pc(esmDisableErrorUpper)
     515                            .dwattr $C$DW$24, DW_AT_high_pc(0x00)
     516                            .dwattr $C$DW$24, DW_AT_TI_symbol_name("esmDisableErrorUpper")
     517                            .dwattr $C$DW$24, DW_AT_external
     518                            .dwattr $C$DW$24, DW_AT_TI_begin_file("../hcg/source/HL_esm.c")
     519                            .dwattr $C$DW$24, DW_AT_TI_begin_line(0x1f9)
     520                            .dwattr $C$DW$24, DW_AT_TI_begin_column(0x06)
     521                            .dwattr $C$DW$24, DW_AT_decl_file("../hcg/source/HL_esm.c")
     522                            .dwattr $C$DW$24, DW_AT_decl_line(0x1f9)
     523                            .dwattr $C$DW$24, DW_AT_decl_column(0x06)
     524                            .dwattr $C$DW$24, DW_AT_TI_max_frame_size(0x08)
     525                            .dwpsn  file "../hcg/source/HL_esm.c",line 506,column 1,is_stmt,address esmDisableErrorUpper,i
     526                    
     527                            .dwfde $C$DW$CIE, esmDisableErrorUpper
     528                    $C$DW$25        .dwtag  DW_TAG_formal_parameter
     529                            .dwattr $C$DW$25, DW_AT_name("channels")
     530                            .dwattr $C$DW$25, DW_AT_TI_symbol_name("channels")
     531                            .dwattr $C$DW$25, DW_AT_type(*$C$DW$T$38)
     532                            .dwattr $C$DW$25, DW_AT_location[DW_OP_reg0]
     533                    
     534                    
     535                    ;*****************************************************************************
     536                    ;* FUNCTION NAME: esmDisableErrorUpper                                       *
     537                    ;*                                                                           *
     538                    ;*   Regs Modified     : A1,V9,SP                                            *
     539                    ;*   Regs Used         : A1,A2,V9,SP,LR                                      *
     540                    ;*   Local Frame Size  : 0 Args + 8 Auto + 0 Save = 8 byte                   *
     541                    ;*****************************************************************************
     542 0000021c           esmDisableErrorUpper:
     543                    ;* --------------------------------------------------------------------------*
     544                            .dwcfi  cfa_offset, 0
     545 0000021c E24DD008          SUB       SP, SP, #8            ; [DPU_4_PIPE0] 
     546                            .dwcfi  cfa_offset, 8
     547                    $C$DW$26        .dwtag  DW_TAG_variable
     548                            .dwattr $C$DW$26, DW_AT_name("channels")
     549                            .dwattr $C$DW$26, DW_AT_TI_symbol_name("channels")
     550                            .dwattr $C$DW$26, DW_AT_type(*$C$DW$T$38)
TI ARM Assembler PC v16.9.0 Thu Feb 16 13:27:09 2017

Tools Copyright (c) 1996-2015 Texas Instruments Incorporated
C:\Users\bob\AppData\Local\Temp\1063210                              PAGE   11

     551                            .dwattr $C$DW$26, DW_AT_location[DW_OP_breg13 0]
     552                    
     553 00000220 E88D0003          STMIA     SP, {A1,A2}           ; [DPU_4_PIPE0] |506| 
     554                            .dwpsn  file "../hcg/source/HL_esm.c",line 510,column 5,is_stmt,isa 2
     555 00000224 E59F0524          LDR       A1, $C$CON3           ; [DPU_4_PIPE0] |510| 
     556 00000228 E59DC000          LDR       V9, [SP, #0]          ; [DPU_4_PIPE0] |510| 
     557 0000022c E580C000          STR       V9, [A1, #0]          ; [DPU_4_PIPE0] |510| 
     558                            .dwpsn  file "../hcg/source/HL_esm.c",line 514,column 1,is_stmt,isa 2
     559 00000230 E28DD008          ADD       SP, SP, #8            ; [DPU_4_PIPE0] 
     560                            .dwcfi  cfa_offset, 0
     561                    $C$DW$27        .dwtag  DW_TAG_TI_branch
     562                            .dwattr $C$DW$27, DW_AT_low_pc(0x00)
     563                            .dwattr $C$DW$27, DW_AT_TI_return
     564                    
     565 00000234 E12FFF1E          BX        LR                    ; [DPU_4_PIPE1] 
     566                            ; BRANCH OCCURS                  ; [] 
     567                            .dwattr $C$DW$24, DW_AT_TI_end_file("../hcg/source/HL_esm.c")
     568                            .dwattr $C$DW$24, DW_AT_TI_end_line(0x202)
     569                            .dwattr $C$DW$24, DW_AT_TI_end_column(0x01)
     570                            .dwendentry
     571                            .dwendtag $C$DW$24
     572                    
     573 00000238                   .sect   ".text"
     574                            .clink
     575                            .armfunc esmTriggerErrorPinReset
     576 00000238                   .state32
     577                            .global esmTriggerErrorPinReset
     578                    
     579                    $C$DW$28        .dwtag  DW_TAG_subprogram
     580                            .dwattr $C$DW$28, DW_AT_name("esmTriggerErrorPinReset")
     581                            .dwattr $C$DW$28, DW_AT_low_pc(esmTriggerErrorPinReset)
     582                            .dwattr $C$DW$28, DW_AT_high_pc(0x00)
     583                            .dwattr $C$DW$28, DW_AT_TI_symbol_name("esmTriggerErrorPinReset")
     584                            .dwattr $C$DW$28, DW_AT_external
     585                            .dwattr $C$DW$28, DW_AT_TI_begin_file("../hcg/source/HL_esm.c")
     586                            .dwattr $C$DW$28, DW_AT_TI_begin_line(0x208)
     587                            .dwattr $C$DW$28, DW_AT_TI_begin_column(0x06)
     588                            .dwattr $C$DW$28, DW_AT_decl_file("../hcg/source/HL_esm.c")
     589                            .dwattr $C$DW$28, DW_AT_decl_line(0x208)
     590                            .dwattr $C$DW$28, DW_AT_decl_column(0x06)
     591                            .dwattr $C$DW$28, DW_AT_TI_max_frame_size(0x00)
     592                            .dwpsn  file "../hcg/source/HL_esm.c",line 521,column 1,is_stmt,address esmTriggerErrorPinRese
     593                    
     594                            .dwfde $C$DW$CIE, esmTriggerErrorPinReset
     595                    
     596                    ;*****************************************************************************
     597                    ;* FUNCTION NAME: esmTriggerErrorPinReset                                    *
     598                    ;*                                                                           *
     599                    ;*   Regs Modified     : A1,V9                                               *
     600                    ;*   Regs Used         : A1,V9,LR                                            *
     601                    ;*   Local Frame Size  : 0 Args + 0 Auto + 0 Save = 0 byte                   *
     602                    ;*****************************************************************************
     603 00000238           esmTriggerErrorPinReset:
     604                    ;* --------------------------------------------------------------------------*
     605                            .dwcfi  cfa_offset, 0
TI ARM Assembler PC v16.9.0 Thu Feb 16 13:27:09 2017

Tools Copyright (c) 1996-2015 Texas Instruments Incorporated
C:\Users\bob\AppData\Local\Temp\1063210                              PAGE   12

     606                            .dwpsn  file "../hcg/source/HL_esm.c",line 525,column 5,is_stmt,isa 2
     607 00000238 E59F0550          LDR       A1, $C$CON19          ; [DPU_4_PIPE0] |525| 
     608 0000023c E3A0C005          MOV       V9, #5                ; [DPU_4_PIPE0] |525| 
     609 00000240 E580C000          STR       V9, [A1, #0]          ; [DPU_4_PIPE0] |525| 
     610                            .dwpsn  file "../hcg/source/HL_esm.c",line 529,column 1,is_stmt,isa 2
     611                    $C$DW$29        .dwtag  DW_TAG_TI_branch
     612                            .dwattr $C$DW$29, DW_AT_low_pc(0x00)
     613                            .dwattr $C$DW$29, DW_AT_TI_return
     614                    
     615 00000244 E12FFF1E          BX        LR                    ; [DPU_4_PIPE1] 
     616                            ; BRANCH OCCURS                  ; [] 
     617                            .dwattr $C$DW$28, DW_AT_TI_end_file("../hcg/source/HL_esm.c")
     618                            .dwattr $C$DW$28, DW_AT_TI_end_line(0x211)
     619                            .dwattr $C$DW$28, DW_AT_TI_end_column(0x01)
     620                            .dwendentry
     621                            .dwendtag $C$DW$28
     622                    
     623 00000248                   .sect   ".text"
     624                            .clink
     625                            .armfunc esmActivateNormalOperation
     626 00000248                   .state32
     627                            .global esmActivateNormalOperation
     628                    
     629                    $C$DW$30        .dwtag  DW_TAG_subprogram
     630                            .dwattr $C$DW$30, DW_AT_name("esmActivateNormalOperation")
     631                            .dwattr $C$DW$30, DW_AT_low_pc(esmActivateNormalOperation)
     632                            .dwattr $C$DW$30, DW_AT_high_pc(0x00)
     633                            .dwattr $C$DW$30, DW_AT_TI_symbol_name("esmActivateNormalOperation")
     634                            .dwattr $C$DW$30, DW_AT_external
     635                            .dwattr $C$DW$30, DW_AT_TI_begin_file("../hcg/source/HL_esm.c")
     636                            .dwattr $C$DW$30, DW_AT_TI_begin_line(0x219)
     637                            .dwattr $C$DW$30, DW_AT_TI_begin_column(0x06)
     638                            .dwattr $C$DW$30, DW_AT_decl_file("../hcg/source/HL_esm.c")
     639                            .dwattr $C$DW$30, DW_AT_decl_line(0x219)
     640                            .dwattr $C$DW$30, DW_AT_decl_column(0x06)
     641                            .dwattr $C$DW$30, DW_AT_TI_max_frame_size(0x00)
     642                            .dwpsn  file "../hcg/source/HL_esm.c",line 538,column 1,is_stmt,address esmActivateNormalOpera
     643                    
     644                            .dwfde $C$DW$CIE, esmActivateNormalOperation
     645                    
     646                    ;*****************************************************************************
     647                    ;* FUNCTION NAME: esmActivateNormalOperation                                 *
     648                    ;*                                                                           *
     649                    ;*   Regs Modified     : A1,V9                                               *
     650                    ;*   Regs Used         : A1,V9,LR                                            *
     651                    ;*   Local Frame Size  : 0 Args + 0 Auto + 0 Save = 0 byte                   *
     652                    ;*****************************************************************************
     653 00000248           esmActivateNormalOperation:
     654                    ;* --------------------------------------------------------------------------*
     655                            .dwcfi  cfa_offset, 0
     656                            .dwpsn  file "../hcg/source/HL_esm.c",line 542,column 5,is_stmt,isa 2
     657 00000248 E59F0540          LDR       A1, $C$CON19          ; [DPU_4_PIPE0] |542| 
     658 0000024c E3A0C000          MOV       V9, #0                ; [DPU_4_PIPE0] |542| 
     659 00000250 E580C000          STR       V9, [A1, #0]          ; [DPU_4_PIPE0] |542| 
     660                            .dwpsn  file "../hcg/source/HL_esm.c",line 546,column 1,is_stmt,isa 2
TI ARM Assembler PC v16.9.0 Thu Feb 16 13:27:09 2017

Tools Copyright (c) 1996-2015 Texas Instruments Incorporated
C:\Users\bob\AppData\Local\Temp\1063210                              PAGE   13

     661                    $C$DW$31        .dwtag  DW_TAG_TI_branch
     662                            .dwattr $C$DW$31, DW_AT_low_pc(0x00)
     663                            .dwattr $C$DW$31, DW_AT_TI_return
     664                    
     665 00000254 E12FFF1E          BX        LR                    ; [DPU_4_PIPE1] 
     666                            ; BRANCH OCCURS                  ; [] 
     667                            .dwattr $C$DW$30, DW_AT_TI_end_file("../hcg/source/HL_esm.c")
     668                            .dwattr $C$DW$30, DW_AT_TI_end_line(0x222)
     669                            .dwattr $C$DW$30, DW_AT_TI_end_column(0x01)
     670                            .dwendentry
     671                            .dwendtag $C$DW$30
     672                    
     673 00000258                   .sect   ".text"
     674                            .clink
     675                            .armfunc esmEnableInterrupt
     676 00000258                   .state32
     677                            .global esmEnableInterrupt
     678                    
     679                    $C$DW$32        .dwtag  DW_TAG_subprogram
     680                            .dwattr $C$DW$32, DW_AT_name("esmEnableInterrupt")
     681                            .dwattr $C$DW$32, DW_AT_low_pc(esmEnableInterrupt)
     682                            .dwattr $C$DW$32, DW_AT_high_pc(0x00)
     683                            .dwattr $C$DW$32, DW_AT_TI_symbol_name("esmEnableInterrupt")
     684                            .dwattr $C$DW$32, DW_AT_external
     685                            .dwattr $C$DW$32, DW_AT_TI_begin_file("../hcg/source/HL_esm.c")
     686                            .dwattr $C$DW$32, DW_AT_TI_begin_line(0x22c)
     687                            .dwattr $C$DW$32, DW_AT_TI_begin_column(0x06)
     688                            .dwattr $C$DW$32, DW_AT_decl_file("../hcg/source/HL_esm.c")
     689                            .dwattr $C$DW$32, DW_AT_decl_line(0x22c)
     690                            .dwattr $C$DW$32, DW_AT_decl_column(0x06)
     691                            .dwattr $C$DW$32, DW_AT_TI_max_frame_size(0x08)
     692                            .dwpsn  file "../hcg/source/HL_esm.c",line 557,column 1,is_stmt,address esmEnableInterrupt,isa
     693                    
     694                            .dwfde $C$DW$CIE, esmEnableInterrupt
     695                    $C$DW$33        .dwtag  DW_TAG_formal_parameter
     696                            .dwattr $C$DW$33, DW_AT_name("channels")
     697                            .dwattr $C$DW$33, DW_AT_TI_symbol_name("channels")
     698                            .dwattr $C$DW$33, DW_AT_type(*$C$DW$T$38)
     699                            .dwattr $C$DW$33, DW_AT_location[DW_OP_reg0]
     700                    
     701                    
     702                    ;*****************************************************************************
     703                    ;* FUNCTION NAME: esmEnableInterrupt                                         *
     704                    ;*                                                                           *
     705                    ;*   Regs Modified     : A1,A2,V9,SP                                         *
     706                    ;*   Regs Used         : A1,A2,V9,SP,LR                                      *
     707                    ;*   Local Frame Size  : 0 Args + 8 Auto + 0 Save = 8 byte                   *
     708                    ;*****************************************************************************
     709 00000258           esmEnableInterrupt:
     710                    ;* --------------------------------------------------------------------------*
     711                            .dwcfi  cfa_offset, 0
     712 00000258 E24DD008          SUB       SP, SP, #8            ; [DPU_4_PIPE0] 
     713                            .dwcfi  cfa_offset, 8
     714                    $C$DW$34        .dwtag  DW_TAG_variable
     715                            .dwattr $C$DW$34, DW_AT_name("channels")
TI ARM Assembler PC v16.9.0 Thu Feb 16 13:27:09 2017

Tools Copyright (c) 1996-2015 Texas Instruments Incorporated
C:\Users\bob\AppData\Local\Temp\1063210                              PAGE   14

     716                            .dwattr $C$DW$34, DW_AT_TI_symbol_name("channels")
     717                            .dwattr $C$DW$34, DW_AT_type(*$C$DW$T$38)
     718                            .dwattr $C$DW$34, DW_AT_location[DW_OP_breg13 0]
     719                    
     720 0000025c E88D0003          STMIA     SP, {A1,A2}           ; [DPU_4_PIPE0] |557| 
     721                            .dwpsn  file "../hcg/source/HL_esm.c",line 561,column 5,is_stmt,isa 2
     722 00000260 E89D0003          LDMIA     SP, {A1,A2}           ; [DPU_4_PIPE0] |561| 
     723 00000264 E59F0554          LDR       A1, $C$CON31          ; [DPU_4_PIPE0] |561| 
     724 00000268 E1A0C001          MOV       V9, A2                ; [DPU_4_PIPE0] |561| 
     725 0000026c E580C000          STR       V9, [A1, #0]          ; [DPU_4_PIPE0] |561| 
     726                            .dwpsn  file "../hcg/source/HL_esm.c",line 562,column 5,is_stmt,isa 2
     727 00000270 E59F0540          LDR       A1, $C$CON29          ; [DPU_4_PIPE0] |562| 
     728 00000274 E59DC000          LDR       V9, [SP, #0]          ; [DPU_4_PIPE0] |562| 
     729 00000278 E580C000          STR       V9, [A1, #0]          ; [DPU_4_PIPE0] |562| 
     730                            .dwpsn  file "../hcg/source/HL_esm.c",line 566,column 1,is_stmt,isa 2
     731 0000027c E28DD008          ADD       SP, SP, #8            ; [DPU_4_PIPE0] 
     732                            .dwcfi  cfa_offset, 0
     733                    $C$DW$35        .dwtag  DW_TAG_TI_branch
     734                            .dwattr $C$DW$35, DW_AT_low_pc(0x00)
     735                            .dwattr $C$DW$35, DW_AT_TI_return
     736                    
     737 00000280 E12FFF1E          BX        LR                    ; [DPU_4_PIPE1] 
     738                            ; BRANCH OCCURS                  ; [] 
     739                            .dwattr $C$DW$32, DW_AT_TI_end_file("../hcg/source/HL_esm.c")
     740                            .dwattr $C$DW$32, DW_AT_TI_end_line(0x236)
     741                            .dwattr $C$DW$32, DW_AT_TI_end_column(0x01)
     742                            .dwendentry
     743                            .dwendtag $C$DW$32
     744                    
     745 00000284                   .sect   ".text"
     746                            .clink
     747                            .armfunc esmEnableInterruptUpper
     748 00000284                   .state32
     749                            .global esmEnableInterruptUpper
     750                    
     751                    $C$DW$36        .dwtag  DW_TAG_subprogram
     752                            .dwattr $C$DW$36, DW_AT_name("esmEnableInterruptUpper")
     753                            .dwattr $C$DW$36, DW_AT_low_pc(esmEnableInterruptUpper)
     754                            .dwattr $C$DW$36, DW_AT_high_pc(0x00)
     755                            .dwattr $C$DW$36, DW_AT_TI_symbol_name("esmEnableInterruptUpper")
     756                            .dwattr $C$DW$36, DW_AT_external
     757                            .dwattr $C$DW$36, DW_AT_TI_begin_file("../hcg/source/HL_esm.c")
     758                            .dwattr $C$DW$36, DW_AT_TI_begin_line(0x23f)
     759                            .dwattr $C$DW$36, DW_AT_TI_begin_column(0x06)
     760                            .dwattr $C$DW$36, DW_AT_decl_file("../hcg/source/HL_esm.c")
     761                            .dwattr $C$DW$36, DW_AT_decl_line(0x23f)
     762                            .dwattr $C$DW$36, DW_AT_decl_column(0x06)
     763                            .dwattr $C$DW$36, DW_AT_TI_max_frame_size(0x08)
     764                            .dwpsn  file "../hcg/source/HL_esm.c",line 576,column 1,is_stmt,address esmEnableInterruptUppe
     765                    
     766                            .dwfde $C$DW$CIE, esmEnableInterruptUpper
     767                    $C$DW$37        .dwtag  DW_TAG_formal_parameter
     768                            .dwattr $C$DW$37, DW_AT_name("channels")
     769                            .dwattr $C$DW$37, DW_AT_TI_symbol_name("channels")
     770                            .dwattr $C$DW$37, DW_AT_type(*$C$DW$T$38)
TI ARM Assembler PC v16.9.0 Thu Feb 16 13:27:09 2017

Tools Copyright (c) 1996-2015 Texas Instruments Incorporated
C:\Users\bob\AppData\Local\Temp\1063210                              PAGE   15

     771                            .dwattr $C$DW$37, DW_AT_location[DW_OP_reg0]
     772                    
     773                    
     774                    ;*****************************************************************************
     775                    ;* FUNCTION NAME: esmEnableInterruptUpper                                    *
     776                    ;*                                                                           *
     777                    ;*   Regs Modified     : A1,V9,SP                                            *
     778                    ;*   Regs Used         : A1,A2,V9,SP,LR                                      *
     779                    ;*   Local Frame Size  : 0 Args + 8 Auto + 0 Save = 8 byte                   *
     780                    ;*****************************************************************************
     781 00000284           esmEnableInterruptUpper:
     782                    ;* --------------------------------------------------------------------------*
     783                            .dwcfi  cfa_offset, 0
     784 00000284 E24DD008          SUB       SP, SP, #8            ; [DPU_4_PIPE0] 
     785                            .dwcfi  cfa_offset, 8
     786                    $C$DW$38        .dwtag  DW_TAG_variable
     787                            .dwattr $C$DW$38, DW_AT_name("channels")
     788                            .dwattr $C$DW$38, DW_AT_TI_symbol_name("channels")
     789                            .dwattr $C$DW$38, DW_AT_type(*$C$DW$T$38)
     790                            .dwattr $C$DW$38, DW_AT_location[DW_OP_breg13 0]
     791                    
     792 00000288 E88D0003          STMIA     SP, {A1,A2}           ; [DPU_4_PIPE0] |576| 
     793                            .dwpsn  file "../hcg/source/HL_esm.c",line 580,column 5,is_stmt,isa 2
     794 0000028c E59F0534          LDR       A1, $C$CON33          ; [DPU_4_PIPE0] |580| 
     795 00000290 E59DC000          LDR       V9, [SP, #0]          ; [DPU_4_PIPE0] |580| 
     796 00000294 E580C000          STR       V9, [A1, #0]          ; [DPU_4_PIPE0] |580| 
     797                            .dwpsn  file "../hcg/source/HL_esm.c",line 584,column 1,is_stmt,isa 2
     798 00000298 E28DD008          ADD       SP, SP, #8            ; [DPU_4_PIPE0] 
     799                            .dwcfi  cfa_offset, 0
     800                    $C$DW$39        .dwtag  DW_TAG_TI_branch
     801                            .dwattr $C$DW$39, DW_AT_low_pc(0x00)
     802                            .dwattr $C$DW$39, DW_AT_TI_return
     803                    
     804 0000029c E12FFF1E          BX        LR                    ; [DPU_4_PIPE1] 
     805                            ; BRANCH OCCURS                  ; [] 
     806                            .dwattr $C$DW$36, DW_AT_TI_end_file("../hcg/source/HL_esm.c")
     807                            .dwattr $C$DW$36, DW_AT_TI_end_line(0x248)
     808                            .dwattr $C$DW$36, DW_AT_TI_end_column(0x01)
     809                            .dwendentry
     810                            .dwendtag $C$DW$36
     811                    
     812 000002a0                   .sect   ".text"
     813                            .clink
     814                            .armfunc esmDisableInterrupt
     815 000002a0                   .state32
     816                            .global esmDisableInterrupt
     817                    
     818                    $C$DW$40        .dwtag  DW_TAG_subprogram
     819                            .dwattr $C$DW$40, DW_AT_name("esmDisableInterrupt")
     820                            .dwattr $C$DW$40, DW_AT_low_pc(esmDisableInterrupt)
     821                            .dwattr $C$DW$40, DW_AT_high_pc(0x00)
     822                            .dwattr $C$DW$40, DW_AT_TI_symbol_name("esmDisableInterrupt")
     823                            .dwattr $C$DW$40, DW_AT_external
     824                            .dwattr $C$DW$40, DW_AT_TI_begin_file("../hcg/source/HL_esm.c")
     825                            .dwattr $C$DW$40, DW_AT_TI_begin_line(0x250)
TI ARM Assembler PC v16.9.0 Thu Feb 16 13:27:09 2017

Tools Copyright (c) 1996-2015 Texas Instruments Incorporated
C:\Users\bob\AppData\Local\Temp\1063210                              PAGE   16

     826                            .dwattr $C$DW$40, DW_AT_TI_begin_column(0x06)
     827                            .dwattr $C$DW$40, DW_AT_decl_file("../hcg/source/HL_esm.c")
     828                            .dwattr $C$DW$40, DW_AT_decl_line(0x250)
     829                            .dwattr $C$DW$40, DW_AT_decl_column(0x06)
     830                            .dwattr $C$DW$40, DW_AT_TI_max_frame_size(0x08)
     831                            .dwpsn  file "../hcg/source/HL_esm.c",line 593,column 1,is_stmt,address esmDisableInterrupt,is
     832                    
     833                            .dwfde $C$DW$CIE, esmDisableInterrupt
     834                    $C$DW$41        .dwtag  DW_TAG_formal_parameter
     835                            .dwattr $C$DW$41, DW_AT_name("channels")
     836                            .dwattr $C$DW$41, DW_AT_TI_symbol_name("channels")
     837                            .dwattr $C$DW$41, DW_AT_type(*$C$DW$T$38)
     838                            .dwattr $C$DW$41, DW_AT_location[DW_OP_reg0]
     839                    
     840                    
     841                    ;*****************************************************************************
     842                    ;* FUNCTION NAME: esmDisableInterrupt                                        *
     843                    ;*                                                                           *
     844                    ;*   Regs Modified     : A1,A2,V9,SP                                         *
     845                    ;*   Regs Used         : A1,A2,V9,SP,LR                                      *
     846                    ;*   Local Frame Size  : 0 Args + 8 Auto + 0 Save = 8 byte                   *
     847                    ;*****************************************************************************
     848 000002a0           esmDisableInterrupt:
     849                    ;* --------------------------------------------------------------------------*
     850                            .dwcfi  cfa_offset, 0
     851 000002a0 E24DD008          SUB       SP, SP, #8            ; [DPU_4_PIPE0] 
     852                            .dwcfi  cfa_offset, 8
     853                    $C$DW$42        .dwtag  DW_TAG_variable
     854                            .dwattr $C$DW$42, DW_AT_name("channels")
     855                            .dwattr $C$DW$42, DW_AT_TI_symbol_name("channels")
     856                            .dwattr $C$DW$42, DW_AT_type(*$C$DW$T$38)
     857                            .dwattr $C$DW$42, DW_AT_location[DW_OP_breg13 0]
     858                    
     859 000002a4 E88D0003          STMIA     SP, {A1,A2}           ; [DPU_4_PIPE0] |593| 
     860                            .dwpsn  file "../hcg/source/HL_esm.c",line 597,column 5,is_stmt,isa 2
     861 000002a8 E89D0003          LDMIA     SP, {A1,A2}           ; [DPU_4_PIPE0] |597| 
     862 000002ac E59F04A4          LDR       A1, $C$CON5           ; [DPU_4_PIPE0] |597| 
     863 000002b0 E1A0C001          MOV       V9, A2                ; [DPU_4_PIPE0] |597| 
     864 000002b4 E580C000          STR       V9, [A1, #0]          ; [DPU_4_PIPE0] |597| 
     865                            .dwpsn  file "../hcg/source/HL_esm.c",line 598,column 5,is_stmt,isa 2
     866 000002b8 E59F0494          LDR       A1, $C$CON4           ; [DPU_4_PIPE0] |598| 
     867 000002bc E59DC000          LDR       V9, [SP, #0]          ; [DPU_4_PIPE0] |598| 
     868 000002c0 E580C000          STR       V9, [A1, #0]          ; [DPU_4_PIPE0] |598| 
     869                            .dwpsn  file "../hcg/source/HL_esm.c",line 602,column 1,is_stmt,isa 2
     870 000002c4 E28DD008          ADD       SP, SP, #8            ; [DPU_4_PIPE0] 
     871                            .dwcfi  cfa_offset, 0
     872                    $C$DW$43        .dwtag  DW_TAG_TI_branch
     873                            .dwattr $C$DW$43, DW_AT_low_pc(0x00)
     874                            .dwattr $C$DW$43, DW_AT_TI_return
     875                    
     876 000002c8 E12FFF1E          BX        LR                    ; [DPU_4_PIPE1] 
     877                            ; BRANCH OCCURS                  ; [] 
     878                            .dwattr $C$DW$40, DW_AT_TI_end_file("../hcg/source/HL_esm.c")
     879                            .dwattr $C$DW$40, DW_AT_TI_end_line(0x25a)
     880                            .dwattr $C$DW$40, DW_AT_TI_end_column(0x01)
TI ARM Assembler PC v16.9.0 Thu Feb 16 13:27:09 2017

Tools Copyright (c) 1996-2015 Texas Instruments Incorporated
C:\Users\bob\AppData\Local\Temp\1063210                              PAGE   17

     881                            .dwendentry
     882                            .dwendtag $C$DW$40
     883                    
     884 000002cc                   .sect   ".text"
     885                            .clink
     886                            .armfunc esmDisableInterruptUpper
     887 000002cc                   .state32
     888                            .global esmDisableInterruptUpper
     889                    
     890                    $C$DW$44        .dwtag  DW_TAG_subprogram
     891                            .dwattr $C$DW$44, DW_AT_name("esmDisableInterruptUpper")
     892                            .dwattr $C$DW$44, DW_AT_low_pc(esmDisableInterruptUpper)
     893                            .dwattr $C$DW$44, DW_AT_high_pc(0x00)
     894                            .dwattr $C$DW$44, DW_AT_TI_symbol_name("esmDisableInterruptUpper")
     895                            .dwattr $C$DW$44, DW_AT_external
     896                            .dwattr $C$DW$44, DW_AT_TI_begin_file("../hcg/source/HL_esm.c")
     897                            .dwattr $C$DW$44, DW_AT_TI_begin_line(0x263)
     898                            .dwattr $C$DW$44, DW_AT_TI_begin_column(0x06)
     899                            .dwattr $C$DW$44, DW_AT_decl_file("../hcg/source/HL_esm.c")
     900                            .dwattr $C$DW$44, DW_AT_decl_line(0x263)
     901                            .dwattr $C$DW$44, DW_AT_decl_column(0x06)
     902                            .dwattr $C$DW$44, DW_AT_TI_max_frame_size(0x08)
     903                            .dwpsn  file "../hcg/source/HL_esm.c",line 612,column 1,is_stmt,address esmDisableInterruptUpp
     904                    
     905                            .dwfde $C$DW$CIE, esmDisableInterruptUpper
     906                    $C$DW$45        .dwtag  DW_TAG_formal_parameter
     907                            .dwattr $C$DW$45, DW_AT_name("channels")
     908                            .dwattr $C$DW$45, DW_AT_TI_symbol_name("channels")
     909                            .dwattr $C$DW$45, DW_AT_type(*$C$DW$T$38)
     910                            .dwattr $C$DW$45, DW_AT_location[DW_OP_reg0]
     911                    
     912                    
     913                    ;*****************************************************************************
     914                    ;* FUNCTION NAME: esmDisableInterruptUpper                                   *
     915                    ;*                                                                           *
     916                    ;*   Regs Modified     : A1,V9,SP                                            *
     917                    ;*   Regs Used         : A1,A2,V9,SP,LR                                      *
     918                    ;*   Local Frame Size  : 0 Args + 8 Auto + 0 Save = 8 byte                   *
     919                    ;*****************************************************************************
     920 000002cc           esmDisableInterruptUpper:
     921                    ;* --------------------------------------------------------------------------*
     922                            .dwcfi  cfa_offset, 0
     923 000002cc E24DD008          SUB       SP, SP, #8            ; [DPU_4_PIPE0] 
     924                            .dwcfi  cfa_offset, 8
     925                    $C$DW$46        .dwtag  DW_TAG_variable
     926                            .dwattr $C$DW$46, DW_AT_name("channels")
     927                            .dwattr $C$DW$46, DW_AT_TI_symbol_name("channels")
     928                            .dwattr $C$DW$46, DW_AT_type(*$C$DW$T$38)
     929                            .dwattr $C$DW$46, DW_AT_location[DW_OP_breg13 0]
     930                    
     931 000002d0 E88D0003          STMIA     SP, {A1,A2}           ; [DPU_4_PIPE0] |612| 
     932                            .dwpsn  file "../hcg/source/HL_esm.c",line 616,column 5,is_stmt,isa 2
     933 000002d4 E59F0480          LDR       A1, $C$CON6           ; [DPU_4_PIPE0] |616| 
     934 000002d8 E59DC000          LDR       V9, [SP, #0]          ; [DPU_4_PIPE0] |616| 
     935 000002dc E580C000          STR       V9, [A1, #0]          ; [DPU_4_PIPE0] |616| 
TI ARM Assembler PC v16.9.0 Thu Feb 16 13:27:09 2017

Tools Copyright (c) 1996-2015 Texas Instruments Incorporated
C:\Users\bob\AppData\Local\Temp\1063210                              PAGE   18

     936                            .dwpsn  file "../hcg/source/HL_esm.c",line 620,column 1,is_stmt,isa 2
     937 000002e0 E28DD008          ADD       SP, SP, #8            ; [DPU_4_PIPE0] 
     938                            .dwcfi  cfa_offset, 0
     939                    $C$DW$47        .dwtag  DW_TAG_TI_branch
     940                            .dwattr $C$DW$47, DW_AT_low_pc(0x00)
     941                            .dwattr $C$DW$47, DW_AT_TI_return
     942                    
     943 000002e4 E12FFF1E          BX        LR                    ; [DPU_4_PIPE1] 
     944                            ; BRANCH OCCURS                  ; [] 
     945                            .dwattr $C$DW$44, DW_AT_TI_end_file("../hcg/source/HL_esm.c")
     946                            .dwattr $C$DW$44, DW_AT_TI_end_line(0x26c)
     947                            .dwattr $C$DW$44, DW_AT_TI_end_column(0x01)
     948                            .dwendentry
     949                            .dwendtag $C$DW$44
     950                    
     951 000002e8                   .sect   ".text"
     952                            .clink
     953                            .armfunc esmSetInterruptLevel
     954 000002e8                   .state32
     955                            .global esmSetInterruptLevel
     956                    
     957                    $C$DW$48        .dwtag  DW_TAG_subprogram
     958                            .dwattr $C$DW$48, DW_AT_name("esmSetInterruptLevel")
     959                            .dwattr $C$DW$48, DW_AT_low_pc(esmSetInterruptLevel)
     960                            .dwattr $C$DW$48, DW_AT_high_pc(0x00)
     961                            .dwattr $C$DW$48, DW_AT_TI_symbol_name("esmSetInterruptLevel")
     962                            .dwattr $C$DW$48, DW_AT_external
     963                            .dwattr $C$DW$48, DW_AT_TI_begin_file("../hcg/source/HL_esm.c")
     964                            .dwattr $C$DW$48, DW_AT_TI_begin_line(0x276)
     965                            .dwattr $C$DW$48, DW_AT_TI_begin_column(0x06)
     966                            .dwattr $C$DW$48, DW_AT_decl_file("../hcg/source/HL_esm.c")
     967                            .dwattr $C$DW$48, DW_AT_decl_line(0x276)
     968                            .dwattr $C$DW$48, DW_AT_decl_column(0x06)
     969                            .dwattr $C$DW$48, DW_AT_TI_max_frame_size(0x10)
     970                            .dwpsn  file "../hcg/source/HL_esm.c",line 631,column 1,is_stmt,address esmSetInterruptLevel,i
     971                    
     972                            .dwfde $C$DW$CIE, esmSetInterruptLevel
     973                    $C$DW$49        .dwtag  DW_TAG_formal_parameter
     974                            .dwattr $C$DW$49, DW_AT_name("channels")
     975                            .dwattr $C$DW$49, DW_AT_TI_symbol_name("channels")
     976                            .dwattr $C$DW$49, DW_AT_type(*$C$DW$T$38)
     977                            .dwattr $C$DW$49, DW_AT_location[DW_OP_reg0]
     978                    
     979                    $C$DW$50        .dwtag  DW_TAG_formal_parameter
     980                            .dwattr $C$DW$50, DW_AT_name("flags")
     981                            .dwattr $C$DW$50, DW_AT_TI_symbol_name("flags")
     982                            .dwattr $C$DW$50, DW_AT_type(*$C$DW$T$38)
     983                            .dwattr $C$DW$50, DW_AT_location[DW_OP_reg2]
     984                    
     985                    
     986                    ;*****************************************************************************
     987                    ;* FUNCTION NAME: esmSetInterruptLevel                                       *
     988                    ;*                                                                           *
     989                    ;*   Regs Modified     : A1,A2,A3,A4,V9,SP                                   *
     990                    ;*   Regs Used         : A1,A2,A3,A4,V9,SP,LR                                *
TI ARM Assembler PC v16.9.0 Thu Feb 16 13:27:09 2017

Tools Copyright (c) 1996-2015 Texas Instruments Incorporated
C:\Users\bob\AppData\Local\Temp\1063210                              PAGE   19

     991                    ;*   Local Frame Size  : 0 Args + 16 Auto + 0 Save = 16 byte                 *
     992                    ;*****************************************************************************
     993 000002e8           esmSetInterruptLevel:
     994                    ;* --------------------------------------------------------------------------*
     995                            .dwcfi  cfa_offset, 0
     996 000002e8 E24DD010          SUB       SP, SP, #16           ; [DPU_4_PIPE0] 
     997                            .dwcfi  cfa_offset, 16
     998                    $C$DW$51        .dwtag  DW_TAG_variable
     999                            .dwattr $C$DW$51, DW_AT_name("channels")
    1000                            .dwattr $C$DW$51, DW_AT_TI_symbol_name("channels")
    1001                            .dwattr $C$DW$51, DW_AT_type(*$C$DW$T$38)
    1002                            .dwattr $C$DW$51, DW_AT_location[DW_OP_breg13 0]
    1003                    
    1004                    $C$DW$52        .dwtag  DW_TAG_variable
    1005                            .dwattr $C$DW$52, DW_AT_name("flags")
    1006                            .dwattr $C$DW$52, DW_AT_TI_symbol_name("flags")
    1007                            .dwattr $C$DW$52, DW_AT_type(*$C$DW$T$38)
    1008                            .dwattr $C$DW$52, DW_AT_location[DW_OP_breg13 8]
    1009                    
    1010 000002ec E28DC008          ADD       V9, SP, #8            ; [DPU_4_PIPE0] |631| 
    1011 000002f0 E88D0003          STMIA     SP, {A1,A2}           ; [DPU_4_PIPE0] |631| 
    1012 000002f4 E88C000C          STMIA     V9, {A3,A4}           ; [DPU_4_PIPE0] |631| 
    1013                            .dwpsn  file "../hcg/source/HL_esm.c",line 635,column 5,is_stmt,isa 2
    1014 000002f8 E28DC008          ADD       V9, SP, #8            ; [DPU_4_PIPE0] |635| 
    1015 000002fc E89D0003          LDMIA     SP, {A1,A2}           ; [DPU_4_PIPE0] |635| 
    1016 00000300 E89C000C          LDMIA     V9, {A3,A4}           ; [DPU_4_PIPE0] |635| 
    1017 00000304 E59F048C          LDR       A1, $C$CON21          ; [DPU_4_PIPE0] |635| 
    1018 00000308 E1E0C003          MVN       V9, A4                ; [DPU_4_PIPE0] |635| 
    1019 0000030c E00CC001          AND       V9, V9, A2            ; [DPU_4_PIPE0] |635| 
    1020 00000310 E1A0C00C          MOV       V9, V9                ; [DPU_4_PIPE0] |635| 
    1021 00000314 E580C000          STR       V9, [A1, #0]          ; [DPU_4_PIPE0] |635| 
    1022                            .dwpsn  file "../hcg/source/HL_esm.c",line 636,column 5,is_stmt,isa 2
    1023 00000318 E28DC008          ADD       V9, SP, #8            ; [DPU_4_PIPE0] |636| 
    1024 0000031c E89D0003          LDMIA     SP, {A1,A2}           ; [DPU_4_PIPE0] |636| 
    1025 00000320 E59F047C          LDR       A1, $C$CON24          ; [DPU_4_PIPE0] |636| 
    1026 00000324 E89C000C          LDMIA     V9, {A3,A4}           ; [DPU_4_PIPE0] |636| 
    1027 00000328 E003C001          AND       V9, A4, A2            ; [DPU_4_PIPE0] |636| 
    1028 0000032c E1A0C00C          MOV       V9, V9                ; [DPU_4_PIPE0] |636| 
    1029 00000330 E580C000          STR       V9, [A1, #0]          ; [DPU_4_PIPE0] |636| 
    1030                            .dwpsn  file "../hcg/source/HL_esm.c",line 637,column 5,is_stmt,isa 2
    1031 00000334 E59DC008          LDR       V9, [SP, #8]          ; [DPU_4_PIPE0] |637| 
    1032 00000338 E59D0000          LDR       A1, [SP, #0]          ; [DPU_4_PIPE0] |637| 
    1033 0000033c E1C0C00C          BIC       V9, A1, V9            ; [DPU_4_PIPE0] |637| 
    1034 00000340 E59F044C          LDR       A1, $C$CON20          ; [DPU_4_PIPE0] |637| 
    1035 00000344 E580C000          STR       V9, [A1, #0]          ; [DPU_4_PIPE0] |637| 
    1036                            .dwpsn  file "../hcg/source/HL_esm.c",line 638,column 5,is_stmt,isa 2
    1037 00000348 E59DC000          LDR       V9, [SP, #0]          ; [DPU_4_PIPE0] |638| 
    1038 0000034c E59D0008          LDR       A1, [SP, #8]          ; [DPU_4_PIPE0] |638| 
    1039 00000350 E000C00C          AND       V9, A1, V9            ; [DPU_4_PIPE0] |638| 
    1040 00000354 E59F0444          LDR       A1, $C$CON23          ; [DPU_4_PIPE0] |638| 
    1041 00000358 E580C000          STR       V9, [A1, #0]          ; [DPU_4_PIPE0] |638| 
    1042                            .dwpsn  file "../hcg/source/HL_esm.c",line 642,column 1,is_stmt,isa 2
    1043 0000035c E28DD010          ADD       SP, SP, #16           ; [DPU_4_PIPE0] 
    1044                            .dwcfi  cfa_offset, 0
    1045                    $C$DW$53        .dwtag  DW_TAG_TI_branch
TI ARM Assembler PC v16.9.0 Thu Feb 16 13:27:09 2017

Tools Copyright (c) 1996-2015 Texas Instruments Incorporated
C:\Users\bob\AppData\Local\Temp\1063210                              PAGE   20

    1046                            .dwattr $C$DW$53, DW_AT_low_pc(0x00)
    1047                            .dwattr $C$DW$53, DW_AT_TI_return
    1048                    
    1049 00000360 E12FFF1E          BX        LR                    ; [DPU_4_PIPE1] 
    1050                            ; BRANCH OCCURS                  ; [] 
    1051                            .dwattr $C$DW$48, DW_AT_TI_end_file("../hcg/source/HL_esm.c")
    1052                            .dwattr $C$DW$48, DW_AT_TI_end_line(0x282)
    1053                            .dwattr $C$DW$48, DW_AT_TI_end_column(0x01)
    1054                            .dwendentry
    1055                            .dwendtag $C$DW$48
    1056                    
    1057 00000364                   .sect   ".text"
    1058                            .clink
    1059                            .armfunc esmSetInterruptLevelUpper
    1060 00000364                   .state32
    1061                            .global esmSetInterruptLevelUpper
    1062                    
    1063                    $C$DW$54        .dwtag  DW_TAG_subprogram
    1064                            .dwattr $C$DW$54, DW_AT_name("esmSetInterruptLevelUpper")
    1065                            .dwattr $C$DW$54, DW_AT_low_pc(esmSetInterruptLevelUpper)
    1066                            .dwattr $C$DW$54, DW_AT_high_pc(0x00)
    1067                            .dwattr $C$DW$54, DW_AT_TI_symbol_name("esmSetInterruptLevelUpper")
    1068                            .dwattr $C$DW$54, DW_AT_external
    1069                            .dwattr $C$DW$54, DW_AT_TI_begin_file("../hcg/source/HL_esm.c")
    1070                            .dwattr $C$DW$54, DW_AT_TI_begin_line(0x28d)
    1071                            .dwattr $C$DW$54, DW_AT_TI_begin_column(0x06)
    1072                            .dwattr $C$DW$54, DW_AT_decl_file("../hcg/source/HL_esm.c")
    1073                            .dwattr $C$DW$54, DW_AT_decl_line(0x28d)
    1074                            .dwattr $C$DW$54, DW_AT_decl_column(0x06)
    1075                            .dwattr $C$DW$54, DW_AT_TI_max_frame_size(0x10)
    1076                            .dwpsn  file "../hcg/source/HL_esm.c",line 654,column 1,is_stmt,address esmSetInterruptLevelUp
    1077                    
    1078                            .dwfde $C$DW$CIE, esmSetInterruptLevelUpper
    1079                    $C$DW$55        .dwtag  DW_TAG_formal_parameter
    1080                            .dwattr $C$DW$55, DW_AT_name("channels")
    1081                            .dwattr $C$DW$55, DW_AT_TI_symbol_name("channels")
    1082                            .dwattr $C$DW$55, DW_AT_type(*$C$DW$T$38)
    1083                            .dwattr $C$DW$55, DW_AT_location[DW_OP_reg0]
    1084                    
    1085                    $C$DW$56        .dwtag  DW_TAG_formal_parameter
    1086                            .dwattr $C$DW$56, DW_AT_name("flags")
    1087                            .dwattr $C$DW$56, DW_AT_TI_symbol_name("flags")
    1088                            .dwattr $C$DW$56, DW_AT_type(*$C$DW$T$38)
    1089                            .dwattr $C$DW$56, DW_AT_location[DW_OP_reg2]
    1090                    
    1091                    
    1092                    ;*****************************************************************************
    1093                    ;* FUNCTION NAME: esmSetInterruptLevelUpper                                  *
    1094                    ;*                                                                           *
    1095                    ;*   Regs Modified     : A1,V9,SP                                            *
    1096                    ;*   Regs Used         : A1,A2,A3,A4,V9,SP,LR                                *
    1097                    ;*   Local Frame Size  : 0 Args + 16 Auto + 0 Save = 16 byte                 *
    1098                    ;*****************************************************************************
    1099 00000364           esmSetInterruptLevelUpper:
    1100                    ;* --------------------------------------------------------------------------*
TI ARM Assembler PC v16.9.0 Thu Feb 16 13:27:09 2017

Tools Copyright (c) 1996-2015 Texas Instruments Incorporated
C:\Users\bob\AppData\Local\Temp\1063210                              PAGE   21

    1101                            .dwcfi  cfa_offset, 0
    1102 00000364 E24DD010          SUB       SP, SP, #16           ; [DPU_4_PIPE0] 
    1103                            .dwcfi  cfa_offset, 16
    1104                    $C$DW$57        .dwtag  DW_TAG_variable
    1105                            .dwattr $C$DW$57, DW_AT_name("channels")
    1106                            .dwattr $C$DW$57, DW_AT_TI_symbol_name("channels")
    1107                            .dwattr $C$DW$57, DW_AT_type(*$C$DW$T$38)
    1108                            .dwattr $C$DW$57, DW_AT_location[DW_OP_breg13 0]
    1109                    
    1110                    $C$DW$58        .dwtag  DW_TAG_variable
    1111                            .dwattr $C$DW$58, DW_AT_name("flags")
    1112                            .dwattr $C$DW$58, DW_AT_TI_symbol_name("flags")
    1113                            .dwattr $C$DW$58, DW_AT_type(*$C$DW$T$38)
    1114                            .dwattr $C$DW$58, DW_AT_location[DW_OP_breg13 8]
    1115                    
    1116 00000368 E28DC008          ADD       V9, SP, #8            ; [DPU_4_PIPE0] |654| 
    1117 0000036c E88D0003          STMIA     SP, {A1,A2}           ; [DPU_4_PIPE0] |654| 
    1118 00000370 E88C000C          STMIA     V9, {A3,A4}           ; [DPU_4_PIPE0] |654| 
    1119                            .dwpsn  file "../hcg/source/HL_esm.c",line 658,column 5,is_stmt,isa 2
    1120 00000374 E59D0000          LDR       A1, [SP, #0]          ; [DPU_4_PIPE0] |658| 
    1121 00000378 E59DC008          LDR       V9, [SP, #8]          ; [DPU_4_PIPE0] |658| 
    1122 0000037c E1C0C00C          BIC       V9, A1, V9            ; [DPU_4_PIPE0] |658| 
    1123 00000380 E59F0414          LDR       A1, $C$CON22          ; [DPU_4_PIPE0] |658| 
    1124 00000384 E580C000          STR       V9, [A1, #0]          ; [DPU_4_PIPE0] |658| 
    1125                            .dwpsn  file "../hcg/source/HL_esm.c",line 659,column 5,is_stmt,isa 2
    1126 00000388 E59DC000          LDR       V9, [SP, #0]          ; [DPU_4_PIPE0] |659| 
    1127 0000038c E59D0008          LDR       A1, [SP, #8]          ; [DPU_4_PIPE0] |659| 
    1128 00000390 E000C00C          AND       V9, A1, V9            ; [DPU_4_PIPE0] |659| 
    1129 00000394 E59F040C          LDR       A1, $C$CON25          ; [DPU_4_PIPE0] |659| 
    1130 00000398 E580C000          STR       V9, [A1, #0]          ; [DPU_4_PIPE0] |659| 
    1131                            .dwpsn  file "../hcg/source/HL_esm.c",line 663,column 1,is_stmt,isa 2
    1132 0000039c E28DD010          ADD       SP, SP, #16           ; [DPU_4_PIPE0] 
    1133                            .dwcfi  cfa_offset, 0
    1134                    $C$DW$59        .dwtag  DW_TAG_TI_branch
    1135                            .dwattr $C$DW$59, DW_AT_low_pc(0x00)
    1136                            .dwattr $C$DW$59, DW_AT_TI_return
    1137                    
    1138 000003a0 E12FFF1E          BX        LR                    ; [DPU_4_PIPE1] 
    1139                            ; BRANCH OCCURS                  ; [] 
    1140                            .dwattr $C$DW$54, DW_AT_TI_end_file("../hcg/source/HL_esm.c")
    1141                            .dwattr $C$DW$54, DW_AT_TI_end_line(0x297)
    1142                            .dwattr $C$DW$54, DW_AT_TI_end_column(0x01)
    1143                            .dwendentry
    1144                            .dwendtag $C$DW$54
    1145                    
    1146 000003a4                   .sect   ".text"
    1147                            .clink
    1148                            .armfunc esmClearStatus
    1149 000003a4                   .state32
    1150                            .global esmClearStatus
    1151                    
    1152                    $C$DW$60        .dwtag  DW_TAG_subprogram
    1153                            .dwattr $C$DW$60, DW_AT_name("esmClearStatus")
    1154                            .dwattr $C$DW$60, DW_AT_low_pc(esmClearStatus)
    1155                            .dwattr $C$DW$60, DW_AT_high_pc(0x00)
TI ARM Assembler PC v16.9.0 Thu Feb 16 13:27:09 2017

Tools Copyright (c) 1996-2015 Texas Instruments Incorporated
C:\Users\bob\AppData\Local\Temp\1063210                              PAGE   22

    1156                            .dwattr $C$DW$60, DW_AT_TI_symbol_name("esmClearStatus")
    1157                            .dwattr $C$DW$60, DW_AT_external
    1158                            .dwattr $C$DW$60, DW_AT_TI_begin_file("../hcg/source/HL_esm.c")
    1159                            .dwattr $C$DW$60, DW_AT_TI_begin_line(0x2a2)
    1160                            .dwattr $C$DW$60, DW_AT_TI_begin_column(0x06)
    1161                            .dwattr $C$DW$60, DW_AT_decl_file("../hcg/source/HL_esm.c")
    1162                            .dwattr $C$DW$60, DW_AT_decl_line(0x2a2)
    1163                            .dwattr $C$DW$60, DW_AT_decl_column(0x06)
    1164                            .dwattr $C$DW$60, DW_AT_TI_max_frame_size(0x10)
    1165                            .dwpsn  file "../hcg/source/HL_esm.c",line 675,column 1,is_stmt,address esmClearStatus,isa 2
    1166                    
    1167                            .dwfde $C$DW$CIE, esmClearStatus
    1168                    $C$DW$61        .dwtag  DW_TAG_formal_parameter
    1169                            .dwattr $C$DW$61, DW_AT_name("group")
    1170                            .dwattr $C$DW$61, DW_AT_TI_symbol_name("group")
    1171                            .dwattr $C$DW$61, DW_AT_type(*$C$DW$T$20)
    1172                            .dwattr $C$DW$61, DW_AT_location[DW_OP_reg0]
    1173                    
    1174                    $C$DW$62        .dwtag  DW_TAG_formal_parameter
    1175                            .dwattr $C$DW$62, DW_AT_name("channels")
    1176                            .dwattr $C$DW$62, DW_AT_TI_symbol_name("channels")
    1177                            .dwattr $C$DW$62, DW_AT_type(*$C$DW$T$38)
    1178                            .dwattr $C$DW$62, DW_AT_location[DW_OP_reg2]
    1179                    
    1180                    
    1181                    ;*****************************************************************************
    1182                    ;* FUNCTION NAME: esmClearStatus                                             *
    1183                    ;*                                                                           *
    1184                    ;*   Regs Modified     : A1,A2,V9,SP                                         *
    1185                    ;*   Regs Used         : A1,A2,A3,A4,V9,SP,LR                                *
    1186                    ;*   Local Frame Size  : 0 Args + 12 Auto + 0 Save = 12 byte                 *
    1187                    ;*****************************************************************************
    1188 000003a4           esmClearStatus:
    1189                    ;* --------------------------------------------------------------------------*
    1190                            .dwcfi  cfa_offset, 0
    1191 000003a4 E24DD010          SUB       SP, SP, #16           ; [DPU_4_PIPE0] 
    1192                            .dwcfi  cfa_offset, 16
    1193                    $C$DW$63        .dwtag  DW_TAG_variable
    1194                            .dwattr $C$DW$63, DW_AT_name("channels")
    1195                            .dwattr $C$DW$63, DW_AT_TI_symbol_name("channels")
    1196                            .dwattr $C$DW$63, DW_AT_type(*$C$DW$T$38)
    1197                            .dwattr $C$DW$63, DW_AT_location[DW_OP_breg13 0]
    1198                    
    1199                    $C$DW$64        .dwtag  DW_TAG_variable
    1200                            .dwattr $C$DW$64, DW_AT_name("group")
    1201                            .dwattr $C$DW$64, DW_AT_TI_symbol_name("group")
    1202                            .dwattr $C$DW$64, DW_AT_type(*$C$DW$T$20)
    1203                            .dwattr $C$DW$64, DW_AT_location[DW_OP_breg13 8]
    1204                    
    1205 000003a8 E88D000C          STMIA     SP, {A3,A4}           ; [DPU_4_PIPE0] |675| 
    1206 000003ac E58D0008          STR       A1, [SP, #8]          ; [DPU_4_PIPE0] |675| 
    1207                            .dwpsn  file "../hcg/source/HL_esm.c",line 679,column 5,is_stmt,isa 2
    1208 000003b0 E89D0003          LDMIA     SP, {A1,A2}           ; [DPU_4_PIPE0] |679| 
    1209 000003b4 E59DC008          LDR       V9, [SP, #8]          ; [DPU_4_PIPE0] |679| 
    1210 000003b8 E1A00001          MOV       A1, A2                ; [DPU_4_PIPE0] |679| 
TI ARM Assembler PC v16.9.0 Thu Feb 16 13:27:09 2017

Tools Copyright (c) 1996-2015 Texas Instruments Incorporated
C:\Users\bob\AppData\Local\Temp\1063210                              PAGE   23

    1211 000003bc E59F13AC          LDR       A2, $C$CON11          ; [DPU_4_PIPE0] |679| 
    1212 000003c0 E781010C          STR       A1, [A2, +V9, LSL #2] ; [DPU_4_PIPE0] |679| 
    1213                            .dwpsn  file "../hcg/source/HL_esm.c",line 680,column 5,is_stmt,isa 2
    1214 000003c4 E59F1394          LDR       A2, $C$CON7           ; [DPU_4_PIPE0] |680| 
    1215 000003c8 E59D0008          LDR       A1, [SP, #8]          ; [DPU_4_PIPE0] |680| 
    1216 000003cc E59DC000          LDR       V9, [SP, #0]          ; [DPU_4_PIPE0] |680| 
    1217 000003d0 E781C100          STR       V9, [A2, +A1, LSL #2] ; [DPU_4_PIPE0] |680| 
    1218                            .dwpsn  file "../hcg/source/HL_esm.c",line 684,column 1,is_stmt,isa 2
    1219 000003d4 E28DD010          ADD       SP, SP, #16           ; [DPU_4_PIPE0] 
    1220                            .dwcfi  cfa_offset, 0
    1221                    $C$DW$65        .dwtag  DW_TAG_TI_branch
    1222                            .dwattr $C$DW$65, DW_AT_low_pc(0x00)
    1223                            .dwattr $C$DW$65, DW_AT_TI_return
    1224                    
    1225 000003d8 E12FFF1E          BX        LR                    ; [DPU_4_PIPE1] 
    1226                            ; BRANCH OCCURS                  ; [] 
    1227                            .dwattr $C$DW$60, DW_AT_TI_end_file("../hcg/source/HL_esm.c")
    1228                            .dwattr $C$DW$60, DW_AT_TI_end_line(0x2ac)
    1229                            .dwattr $C$DW$60, DW_AT_TI_end_column(0x01)
    1230                            .dwendentry
    1231                            .dwendtag $C$DW$60
    1232                    
    1233 000003dc                   .sect   ".text"
    1234                            .clink
    1235                            .armfunc esmClearStatusUpper
    1236 000003dc                   .state32
    1237                            .global esmClearStatusUpper
    1238                    
    1239                    $C$DW$66        .dwtag  DW_TAG_subprogram
    1240                            .dwattr $C$DW$66, DW_AT_name("esmClearStatusUpper")
    1241                            .dwattr $C$DW$66, DW_AT_low_pc(esmClearStatusUpper)
    1242                            .dwattr $C$DW$66, DW_AT_high_pc(0x00)
    1243                            .dwattr $C$DW$66, DW_AT_TI_symbol_name("esmClearStatusUpper")
    1244                            .dwattr $C$DW$66, DW_AT_external
    1245                            .dwattr $C$DW$66, DW_AT_TI_begin_file("../hcg/source/HL_esm.c")
    1246                            .dwattr $C$DW$66, DW_AT_TI_begin_line(0x2b6)
    1247                            .dwattr $C$DW$66, DW_AT_TI_begin_column(0x06)
    1248                            .dwattr $C$DW$66, DW_AT_decl_file("../hcg/source/HL_esm.c")
    1249                            .dwattr $C$DW$66, DW_AT_decl_line(0x2b6)
    1250                            .dwattr $C$DW$66, DW_AT_decl_column(0x06)
    1251                            .dwattr $C$DW$66, DW_AT_TI_max_frame_size(0x10)
    1252                            .dwpsn  file "../hcg/source/HL_esm.c",line 695,column 1,is_stmt,address esmClearStatusUpper,is
    1253                    
    1254                            .dwfde $C$DW$CIE, esmClearStatusUpper
    1255                    $C$DW$67        .dwtag  DW_TAG_formal_parameter
    1256                            .dwattr $C$DW$67, DW_AT_name("group")
    1257                            .dwattr $C$DW$67, DW_AT_TI_symbol_name("group")
    1258                            .dwattr $C$DW$67, DW_AT_type(*$C$DW$T$20)
    1259                            .dwattr $C$DW$67, DW_AT_location[DW_OP_reg0]
    1260                    
    1261                    $C$DW$68        .dwtag  DW_TAG_formal_parameter
    1262                            .dwattr $C$DW$68, DW_AT_name("channels")
    1263                            .dwattr $C$DW$68, DW_AT_TI_symbol_name("channels")
    1264                            .dwattr $C$DW$68, DW_AT_type(*$C$DW$T$38)
    1265                            .dwattr $C$DW$68, DW_AT_location[DW_OP_reg2]
TI ARM Assembler PC v16.9.0 Thu Feb 16 13:27:09 2017

Tools Copyright (c) 1996-2015 Texas Instruments Incorporated
C:\Users\bob\AppData\Local\Temp\1063210                              PAGE   24

    1266                    
    1267                    
    1268                    ;*****************************************************************************
    1269                    ;* FUNCTION NAME: esmClearStatusUpper                                        *
    1270                    ;*                                                                           *
    1271                    ;*   Regs Modified     : A1,A2,V9,SP                                         *
    1272                    ;*   Regs Used         : A1,A2,A3,A4,V9,SP,LR                                *
    1273                    ;*   Local Frame Size  : 0 Args + 12 Auto + 0 Save = 12 byte                 *
    1274                    ;*****************************************************************************
    1275 000003dc           esmClearStatusUpper:
    1276                    ;* --------------------------------------------------------------------------*
    1277                            .dwcfi  cfa_offset, 0
    1278 000003dc E24DD010          SUB       SP, SP, #16           ; [DPU_4_PIPE0] 
    1279                            .dwcfi  cfa_offset, 16
    1280                    $C$DW$69        .dwtag  DW_TAG_variable
    1281                            .dwattr $C$DW$69, DW_AT_name("channels")
    1282                            .dwattr $C$DW$69, DW_AT_TI_symbol_name("channels")
    1283                            .dwattr $C$DW$69, DW_AT_type(*$C$DW$T$38)
    1284                            .dwattr $C$DW$69, DW_AT_location[DW_OP_breg13 0]
    1285                    
    1286                    $C$DW$70        .dwtag  DW_TAG_variable
    1287                            .dwattr $C$DW$70, DW_AT_name("group")
    1288                            .dwattr $C$DW$70, DW_AT_TI_symbol_name("group")
    1289                            .dwattr $C$DW$70, DW_AT_type(*$C$DW$T$20)
    1290                            .dwattr $C$DW$70, DW_AT_location[DW_OP_breg13 8]
    1291                    
    1292 000003e0 E88D000C          STMIA     SP, {A3,A4}           ; [DPU_4_PIPE0] |695| 
    1293 000003e4 E58D0008          STR       A1, [SP, #8]          ; [DPU_4_PIPE0] |695| 
    1294                            .dwpsn  file "../hcg/source/HL_esm.c",line 699,column 5,is_stmt,isa 2
    1295 000003e8 E59F138C          LDR       A2, $C$CON14          ; [DPU_4_PIPE0] |699| 
    1296 000003ec E59D0008          LDR       A1, [SP, #8]          ; [DPU_4_PIPE0] |699| 
    1297 000003f0 E59DC000          LDR       V9, [SP, #0]          ; [DPU_4_PIPE0] |699| 
    1298 000003f4 E781C100          STR       V9, [A2, +A1, LSL #2] ; [DPU_4_PIPE0] |699| 
    1299                            .dwpsn  file "../hcg/source/HL_esm.c",line 703,column 1,is_stmt,isa 2
    1300 000003f8 E28DD010          ADD       SP, SP, #16           ; [DPU_4_PIPE0] 
    1301                            .dwcfi  cfa_offset, 0
    1302                    $C$DW$71        .dwtag  DW_TAG_TI_branch
    1303                            .dwattr $C$DW$71, DW_AT_low_pc(0x00)
    1304                            .dwattr $C$DW$71, DW_AT_TI_return
    1305                    
    1306 000003fc E12FFF1E          BX        LR                    ; [DPU_4_PIPE1] 
    1307                            ; BRANCH OCCURS                  ; [] 
    1308                            .dwattr $C$DW$66, DW_AT_TI_end_file("../hcg/source/HL_esm.c")
    1309                            .dwattr $C$DW$66, DW_AT_TI_end_line(0x2bf)
    1310                            .dwattr $C$DW$66, DW_AT_TI_end_column(0x01)
    1311                            .dwendentry
    1312                            .dwendtag $C$DW$66
    1313                    
    1314 00000400                   .sect   ".text"
    1315                            .clink
    1316                            .armfunc esmClearStatusBuffer
    1317 00000400                   .state32
    1318                            .global esmClearStatusBuffer
    1319                    
    1320                    $C$DW$72        .dwtag  DW_TAG_subprogram
TI ARM Assembler PC v16.9.0 Thu Feb 16 13:27:09 2017

Tools Copyright (c) 1996-2015 Texas Instruments Incorporated
C:\Users\bob\AppData\Local\Temp\1063210                              PAGE   25

    1321                            .dwattr $C$DW$72, DW_AT_name("esmClearStatusBuffer")
    1322                            .dwattr $C$DW$72, DW_AT_low_pc(esmClearStatusBuffer)
    1323                            .dwattr $C$DW$72, DW_AT_high_pc(0x00)
    1324                            .dwattr $C$DW$72, DW_AT_TI_symbol_name("esmClearStatusBuffer")
    1325                            .dwattr $C$DW$72, DW_AT_external
    1326                            .dwattr $C$DW$72, DW_AT_TI_begin_file("../hcg/source/HL_esm.c")
    1327                            .dwattr $C$DW$72, DW_AT_TI_begin_line(0x2c7)
    1328                            .dwattr $C$DW$72, DW_AT_TI_begin_column(0x06)
    1329                            .dwattr $C$DW$72, DW_AT_decl_file("../hcg/source/HL_esm.c")
    1330                            .dwattr $C$DW$72, DW_AT_decl_line(0x2c7)
    1331                            .dwattr $C$DW$72, DW_AT_decl_column(0x06)
    1332                            .dwattr $C$DW$72, DW_AT_TI_max_frame_size(0x08)
    1333                            .dwpsn  file "../hcg/source/HL_esm.c",line 712,column 1,is_stmt,address esmClearStatusBuffer,i
    1334                    
    1335                            .dwfde $C$DW$CIE, esmClearStatusBuffer
    1336                    $C$DW$73        .dwtag  DW_TAG_formal_parameter
    1337                            .dwattr $C$DW$73, DW_AT_name("channels")
    1338                            .dwattr $C$DW$73, DW_AT_TI_symbol_name("channels")
    1339                            .dwattr $C$DW$73, DW_AT_type(*$C$DW$T$20)
    1340                            .dwattr $C$DW$73, DW_AT_location[DW_OP_reg0]
    1341                    
    1342                    
    1343                    ;*****************************************************************************
    1344                    ;* FUNCTION NAME: esmClearStatusBuffer                                       *
    1345                    ;*                                                                           *
    1346                    ;*   Regs Modified     : A1,V9,SP                                            *
    1347                    ;*   Regs Used         : A1,V9,SP,LR                                         *
    1348                    ;*   Local Frame Size  : 0 Args + 4 Auto + 0 Save = 4 byte                   *
    1349                    ;*****************************************************************************
    1350 00000400           esmClearStatusBuffer:
    1351                    ;* --------------------------------------------------------------------------*
    1352                            .dwcfi  cfa_offset, 0
    1353 00000400 E24DD008          SUB       SP, SP, #8            ; [DPU_4_PIPE0] 
    1354                            .dwcfi  cfa_offset, 8
    1355                    $C$DW$74        .dwtag  DW_TAG_variable
    1356                            .dwattr $C$DW$74, DW_AT_name("channels")
    1357                            .dwattr $C$DW$74, DW_AT_TI_symbol_name("channels")
    1358                            .dwattr $C$DW$74, DW_AT_type(*$C$DW$T$20)
    1359                            .dwattr $C$DW$74, DW_AT_location[DW_OP_breg13 0]
    1360                    
    1361 00000404 E58D0000          STR       A1, [SP, #0]          ; [DPU_4_PIPE0] |712| 
    1362                            .dwpsn  file "../hcg/source/HL_esm.c",line 716,column 5,is_stmt,isa 2
    1363 00000408 E59F0358          LDR       A1, $C$CON9           ; [DPU_4_PIPE0] |716| 
    1364 0000040c E59DC000          LDR       V9, [SP, #0]          ; [DPU_4_PIPE0] |716| 
    1365 00000410 E580C000          STR       V9, [A1, #0]          ; [DPU_4_PIPE0] |716| 
    1366                            .dwpsn  file "../hcg/source/HL_esm.c",line 720,column 1,is_stmt,isa 2
    1367 00000414 E28DD008          ADD       SP, SP, #8            ; [DPU_4_PIPE0] 
    1368                            .dwcfi  cfa_offset, 0
    1369                    $C$DW$75        .dwtag  DW_TAG_TI_branch
    1370                            .dwattr $C$DW$75, DW_AT_low_pc(0x00)
    1371                            .dwattr $C$DW$75, DW_AT_TI_return
    1372                    
    1373 00000418 E12FFF1E          BX        LR                    ; [DPU_4_PIPE1] 
    1374                            ; BRANCH OCCURS                  ; [] 
    1375                            .dwattr $C$DW$72, DW_AT_TI_end_file("../hcg/source/HL_esm.c")
TI ARM Assembler PC v16.9.0 Thu Feb 16 13:27:09 2017

Tools Copyright (c) 1996-2015 Texas Instruments Incorporated
C:\Users\bob\AppData\Local\Temp\1063210                              PAGE   26

    1376                            .dwattr $C$DW$72, DW_AT_TI_end_line(0x2d0)
    1377                            .dwattr $C$DW$72, DW_AT_TI_end_column(0x01)
    1378                            .dwendentry
    1379                            .dwendtag $C$DW$72
    1380                    
    1381 0000041c                   .sect   ".text"
    1382                            .clink
    1383                            .armfunc esmSetCounterPreloadValue
    1384 0000041c                   .state32
    1385                            .global esmSetCounterPreloadValue
    1386                    
    1387                    $C$DW$76        .dwtag  DW_TAG_subprogram
    1388                            .dwattr $C$DW$76, DW_AT_name("esmSetCounterPreloadValue")
    1389                            .dwattr $C$DW$76, DW_AT_low_pc(esmSetCounterPreloadValue)
    1390                            .dwattr $C$DW$76, DW_AT_high_pc(0x00)
    1391                            .dwattr $C$DW$76, DW_AT_TI_symbol_name("esmSetCounterPreloadValue")
    1392                            .dwattr $C$DW$76, DW_AT_external
    1393                            .dwattr $C$DW$76, DW_AT_TI_begin_file("../hcg/source/HL_esm.c")
    1394                            .dwattr $C$DW$76, DW_AT_TI_begin_line(0x2da)
    1395                            .dwattr $C$DW$76, DW_AT_TI_begin_column(0x06)
    1396                            .dwattr $C$DW$76, DW_AT_decl_file("../hcg/source/HL_esm.c")
    1397                            .dwattr $C$DW$76, DW_AT_decl_line(0x2da)
    1398                            .dwattr $C$DW$76, DW_AT_decl_column(0x06)
    1399                            .dwattr $C$DW$76, DW_AT_TI_max_frame_size(0x08)
    1400                            .dwpsn  file "../hcg/source/HL_esm.c",line 731,column 1,is_stmt,address esmSetCounterPreloadVa
    1401                    
    1402                            .dwfde $C$DW$CIE, esmSetCounterPreloadValue
    1403                    $C$DW$77        .dwtag  DW_TAG_formal_parameter
    1404                            .dwattr $C$DW$77, DW_AT_name("value")
    1405                            .dwattr $C$DW$77, DW_AT_TI_symbol_name("value")
    1406                            .dwattr $C$DW$77, DW_AT_type(*$C$DW$T$20)
    1407                            .dwattr $C$DW$77, DW_AT_location[DW_OP_reg0]
    1408                    
    1409                    
    1410                    ;*****************************************************************************
    1411                    ;* FUNCTION NAME: esmSetCounterPreloadValue                                  *
    1412                    ;*                                                                           *
    1413                    ;*   Regs Modified     : A1,V9,SP                                            *
    1414                    ;*   Regs Used         : A1,V9,SP,LR                                         *
    1415                    ;*   Local Frame Size  : 0 Args + 4 Auto + 0 Save = 4 byte                   *
    1416                    ;*****************************************************************************
    1417 0000041c           esmSetCounterPreloadValue:
    1418                    ;* --------------------------------------------------------------------------*
    1419                            .dwcfi  cfa_offset, 0
    1420 0000041c E24DD008          SUB       SP, SP, #8            ; [DPU_4_PIPE0] 
    1421                            .dwcfi  cfa_offset, 8
    1422                    $C$DW$78        .dwtag  DW_TAG_variable
    1423                            .dwattr $C$DW$78, DW_AT_name("value")
    1424                            .dwattr $C$DW$78, DW_AT_TI_symbol_name("value")
    1425                            .dwattr $C$DW$78, DW_AT_type(*$C$DW$T$20)
    1426                            .dwattr $C$DW$78, DW_AT_location[DW_OP_breg13 0]
    1427                    
    1428 00000420 E58D0000          STR       A1, [SP, #0]          ; [DPU_4_PIPE0] |731| 
    1429                            .dwpsn  file "../hcg/source/HL_esm.c",line 735,column 5,is_stmt,isa 2
    1430 00000424 E59F035C          LDR       A1, $C$CON17          ; [DPU_4_PIPE0] |735| 
TI ARM Assembler PC v16.9.0 Thu Feb 16 13:27:09 2017

Tools Copyright (c) 1996-2015 Texas Instruments Incorporated
C:\Users\bob\AppData\Local\Temp\1063210                              PAGE   27

    1431 00000428 E59DC000          LDR       V9, [SP, #0]          ; [DPU_4_PIPE0] |735| 
    1432 0000042c E20CC903          AND       V9, V9, #49152        ; [DPU_4_PIPE0] |735| 
    1433 00000430 E580C000          STR       V9, [A1, #0]          ; [DPU_4_PIPE0] |735| 
    1434                            .dwpsn  file "../hcg/source/HL_esm.c",line 739,column 1,is_stmt,isa 2
    1435 00000434 E28DD008          ADD       SP, SP, #8            ; [DPU_4_PIPE0] 
    1436                            .dwcfi  cfa_offset, 0
    1437                    $C$DW$79        .dwtag  DW_TAG_TI_branch
    1438                            .dwattr $C$DW$79, DW_AT_low_pc(0x00)
    1439                            .dwattr $C$DW$79, DW_AT_TI_return
    1440                    
    1441 00000438 E12FFF1E          BX        LR                    ; [DPU_4_PIPE1] 
    1442                            ; BRANCH OCCURS                  ; [] 
    1443                            .dwattr $C$DW$76, DW_AT_TI_end_file("../hcg/source/HL_esm.c")
    1444                            .dwattr $C$DW$76, DW_AT_TI_end_line(0x2e3)
    1445                            .dwattr $C$DW$76, DW_AT_TI_end_column(0x01)
    1446                            .dwendentry
    1447                            .dwendtag $C$DW$76
    1448                    
    1449 0000043c                   .sect   ".text"
    1450                            .clink
    1451                            .armfunc esmGetStatus
    1452 0000043c                   .state32
    1453                            .global esmGetStatus
    1454                    
    1455                    $C$DW$80        .dwtag  DW_TAG_subprogram
    1456                            .dwattr $C$DW$80, DW_AT_name("esmGetStatus")
    1457                            .dwattr $C$DW$80, DW_AT_low_pc(esmGetStatus)
    1458                            .dwattr $C$DW$80, DW_AT_high_pc(0x00)
    1459                            .dwattr $C$DW$80, DW_AT_TI_symbol_name("esmGetStatus")
    1460                            .dwattr $C$DW$80, DW_AT_external
    1461                            .dwattr $C$DW$80, DW_AT_type(*$C$DW$T$38)
    1462                            .dwattr $C$DW$80, DW_AT_TI_begin_file("../hcg/source/HL_esm.c")
    1463                            .dwattr $C$DW$80, DW_AT_TI_begin_line(0x2f0)
    1464                            .dwattr $C$DW$80, DW_AT_TI_begin_column(0x08)
    1465                            .dwattr $C$DW$80, DW_AT_decl_file("../hcg/source/HL_esm.c")
    1466                            .dwattr $C$DW$80, DW_AT_decl_line(0x2f0)
    1467                            .dwattr $C$DW$80, DW_AT_decl_column(0x08)
    1468                            .dwattr $C$DW$80, DW_AT_TI_max_frame_size(0x20)
    1469                            .dwpsn  file "../hcg/source/HL_esm.c",line 753,column 1,is_stmt,address esmGetStatus,isa 2
    1470                    
    1471                            .dwfde $C$DW$CIE, esmGetStatus
    1472                    $C$DW$81        .dwtag  DW_TAG_formal_parameter
    1473                            .dwattr $C$DW$81, DW_AT_name("group")
    1474                            .dwattr $C$DW$81, DW_AT_TI_symbol_name("group")
    1475                            .dwattr $C$DW$81, DW_AT_type(*$C$DW$T$20)
    1476                            .dwattr $C$DW$81, DW_AT_location[DW_OP_reg0]
    1477                    
    1478                    $C$DW$82        .dwtag  DW_TAG_formal_parameter
    1479                            .dwattr $C$DW$82, DW_AT_name("channels")
    1480                            .dwattr $C$DW$82, DW_AT_TI_symbol_name("channels")
    1481                            .dwattr $C$DW$82, DW_AT_type(*$C$DW$T$38)
    1482                            .dwattr $C$DW$82, DW_AT_location[DW_OP_reg2]
    1483                    
    1484                    
    1485                    ;*****************************************************************************
TI ARM Assembler PC v16.9.0 Thu Feb 16 13:27:09 2017

Tools Copyright (c) 1996-2015 Texas Instruments Incorporated
C:\Users\bob\AppData\Local\Temp\1063210                              PAGE   28

    1486                    ;* FUNCTION NAME: esmGetStatus                                               *
    1487                    ;*                                                                           *
    1488                    ;*   Regs Modified     : A1,A2,A3,A4,V9,SP                                   *
    1489                    ;*   Regs Used         : A1,A2,A3,A4,V9,SP,LR                                *
    1490                    ;*   Local Frame Size  : 0 Args + 28 Auto + 0 Save = 28 byte                 *
    1491                    ;*****************************************************************************
    1492 0000043c           esmGetStatus:
    1493                    ;* --------------------------------------------------------------------------*
    1494                            .dwcfi  cfa_offset, 0
    1495 0000043c E24DD020          SUB       SP, SP, #32           ; [DPU_4_PIPE0] 
    1496                            .dwcfi  cfa_offset, 32
    1497                    $C$DW$83        .dwtag  DW_TAG_variable
    1498                            .dwattr $C$DW$83, DW_AT_name("channels")
    1499                            .dwattr $C$DW$83, DW_AT_TI_symbol_name("channels")
    1500                            .dwattr $C$DW$83, DW_AT_type(*$C$DW$T$38)
    1501                            .dwattr $C$DW$83, DW_AT_location[DW_OP_breg13 0]
    1502                    
    1503                    $C$DW$84        .dwtag  DW_TAG_variable
    1504                            .dwattr $C$DW$84, DW_AT_name("status")
    1505                            .dwattr $C$DW$84, DW_AT_TI_symbol_name("status")
    1506                            .dwattr $C$DW$84, DW_AT_type(*$C$DW$T$38)
    1507                            .dwattr $C$DW$84, DW_AT_location[DW_OP_breg13 8]
    1508                    
    1509                    $C$DW$85        .dwtag  DW_TAG_variable
    1510                            .dwattr $C$DW$85, DW_AT_name("group")
    1511                            .dwattr $C$DW$85, DW_AT_TI_symbol_name("group")
    1512                            .dwattr $C$DW$85, DW_AT_type(*$C$DW$T$20)
    1513                            .dwattr $C$DW$85, DW_AT_location[DW_OP_breg13 16]
    1514                    
    1515                    $C$DW$86        .dwtag  DW_TAG_variable
    1516                            .dwattr $C$DW$86, DW_AT_name("ESM_ESTATUS4")
    1517                            .dwattr $C$DW$86, DW_AT_TI_symbol_name("ESM_ESTATUS4")
    1518                            .dwattr $C$DW$86, DW_AT_type(*$C$DW$T$20)
    1519                            .dwattr $C$DW$86, DW_AT_location[DW_OP_breg13 20]
    1520                    
    1521                    $C$DW$87        .dwtag  DW_TAG_variable
    1522                            .dwattr $C$DW$87, DW_AT_name("ESM_ESTATUS1")
    1523                            .dwattr $C$DW$87, DW_AT_TI_symbol_name("ESM_ESTATUS1")
    1524                            .dwattr $C$DW$87, DW_AT_type(*$C$DW$T$20)
    1525                            .dwattr $C$DW$87, DW_AT_location[DW_OP_breg13 24]
    1526                    
    1527 00000440 E88D000C          STMIA     SP, {A3,A4}           ; [DPU_4_PIPE0] |753| 
    1528 00000444 E58D0010          STR       A1, [SP, #16]         ; [DPU_4_PIPE0] |753| 
    1529                            .dwpsn  file "../hcg/source/HL_esm.c",line 755,column 25,is_stmt,isa 2
    1530 00000448 E59F0320          LDR       A1, $C$CON11          ; [DPU_4_PIPE0] |755| 
    1531 0000044c E59DC010          LDR       V9, [SP, #16]         ; [DPU_4_PIPE0] |755| 
    1532 00000450 E790C10C          LDR       V9, [A1, +V9, LSL #2] ; [DPU_4_PIPE0] |755| 
    1533 00000454 E58DC014          STR       V9, [SP, #20]         ; [DPU_4_PIPE0] |755| 
    1534                            .dwpsn  file "../hcg/source/HL_esm.c",line 756,column 25,is_stmt,isa 2
    1535 00000458 E59F0300          LDR       A1, $C$CON7           ; [DPU_4_PIPE0] |756| 
    1536 0000045c E59DC010          LDR       V9, [SP, #16]         ; [DPU_4_PIPE0] |756| 
    1537 00000460 E790C10C          LDR       V9, [A1, +V9, LSL #2] ; [DPU_4_PIPE0] |756| 
    1538 00000464 E58DC018          STR       V9, [SP, #24]         ; [DPU_4_PIPE0] |756| 
    1539                            .dwpsn  file "../hcg/source/HL_esm.c",line 762,column 6,is_stmt,isa 2
    1540 00000468 E59DC014          LDR       V9, [SP, #20]         ; [DPU_4_PIPE0] |762| 
TI ARM Assembler PC v16.9.0 Thu Feb 16 13:27:09 2017

Tools Copyright (c) 1996-2015 Texas Instruments Incorporated
C:\Users\bob\AppData\Local\Temp\1063210                              PAGE   29

    1541 0000046c E1A0000C          MOV       A1, V9, LSL #0        ; [DPU_4_PIPE0] |762| 
    1542 00000470 E59DC018          LDR       V9, [SP, #24]         ; [DPU_4_PIPE0] |762| 
    1543 00000474 E3A03000          MOV       A4, #0                ; [DPU_4_PIPE0] |762| 
    1544 00000478 E3A01000          MOV       A2, #0                ; [DPU_4_PIPE1] |762| 
    1545 0000047c E18C2001          ORR       A3, V9, A2            ; [DPU_4_PIPE0] |762| 
    1546 00000480 E183C000          ORR       V9, A4, A1            ; [DPU_4_PIPE0] |762| 
    1547 00000484 E89D0003          LDMIA     SP, {A1,A2}           ; [DPU_4_PIPE0] |762| 
    1548 00000488 E001100C          AND       A2, A2, V9            ; [DPU_4_PIPE0] |762| 
    1549 0000048c E28DC008          ADD       V9, SP, #8            ; [DPU_4_PIPE0] |762| 
    1550 00000490 E0000002          AND       A1, A1, A3            ; [DPU_4_PIPE0] |762| 
    1551 00000494 E88C0003          STMIA     V9, {A1,A2}           ; [DPU_4_PIPE0] |762| 
    1552                            .dwpsn  file "../hcg/source/HL_esm.c",line 767,column 5,is_stmt,isa 2
    1553 00000498 E28DC008          ADD       V9, SP, #8            ; [DPU_4_PIPE0] |767| 
    1554 0000049c E89C0003          LDMIA     V9, {A1,A2}           ; [DPU_4_PIPE0] |767| 
    1555                            .dwpsn  file "../hcg/source/HL_esm.c",line 768,column 1,is_stmt,isa 2
    1556 000004a0 E28DD020          ADD       SP, SP, #32           ; [DPU_4_PIPE0] 
    1557                            .dwcfi  cfa_offset, 0
    1558                    $C$DW$88        .dwtag  DW_TAG_TI_branch
    1559                            .dwattr $C$DW$88, DW_AT_low_pc(0x00)
    1560                            .dwattr $C$DW$88, DW_AT_TI_return
    1561                    
    1562 000004a4 E12FFF1E          BX        LR                    ; [DPU_4_PIPE1] 
    1563                            ; BRANCH OCCURS                  ; [] 
    1564                            .dwattr $C$DW$80, DW_AT_TI_end_file("../hcg/source/HL_esm.c")
    1565                            .dwattr $C$DW$80, DW_AT_TI_end_line(0x300)
    1566                            .dwattr $C$DW$80, DW_AT_TI_end_column(0x01)
    1567                            .dwendentry
    1568                            .dwendtag $C$DW$80
    1569                    
    1570 000004a8                   .sect   ".text"
    1571                            .clink
    1572                            .armfunc esmGetStatusUpper
    1573 000004a8                   .state32
    1574                            .global esmGetStatusUpper
    1575                    
    1576                    $C$DW$89        .dwtag  DW_TAG_subprogram
    1577                            .dwattr $C$DW$89, DW_AT_name("esmGetStatusUpper")
    1578                            .dwattr $C$DW$89, DW_AT_low_pc(esmGetStatusUpper)
    1579                            .dwattr $C$DW$89, DW_AT_high_pc(0x00)
    1580                            .dwattr $C$DW$89, DW_AT_TI_symbol_name("esmGetStatusUpper")
    1581                            .dwattr $C$DW$89, DW_AT_external
    1582                            .dwattr $C$DW$89, DW_AT_type(*$C$DW$T$38)
    1583                            .dwattr $C$DW$89, DW_AT_TI_begin_file("../hcg/source/HL_esm.c")
    1584                            .dwattr $C$DW$89, DW_AT_TI_begin_line(0x30c)
    1585                            .dwattr $C$DW$89, DW_AT_TI_begin_column(0x08)
    1586                            .dwattr $C$DW$89, DW_AT_decl_file("../hcg/source/HL_esm.c")
    1587                            .dwattr $C$DW$89, DW_AT_decl_line(0x30c)
    1588                            .dwattr $C$DW$89, DW_AT_decl_column(0x08)
    1589                            .dwattr $C$DW$89, DW_AT_TI_max_frame_size(0x18)
    1590                            .dwpsn  file "../hcg/source/HL_esm.c",line 781,column 1,is_stmt,address esmGetStatusUpper,isa 
    1591                    
    1592                            .dwfde $C$DW$CIE, esmGetStatusUpper
    1593                    $C$DW$90        .dwtag  DW_TAG_formal_parameter
    1594                            .dwattr $C$DW$90, DW_AT_name("group")
    1595                            .dwattr $C$DW$90, DW_AT_TI_symbol_name("group")
TI ARM Assembler PC v16.9.0 Thu Feb 16 13:27:09 2017

Tools Copyright (c) 1996-2015 Texas Instruments Incorporated
C:\Users\bob\AppData\Local\Temp\1063210                              PAGE   30

    1596                            .dwattr $C$DW$90, DW_AT_type(*$C$DW$T$20)
    1597                            .dwattr $C$DW$90, DW_AT_location[DW_OP_reg0]
    1598                    
    1599                    $C$DW$91        .dwtag  DW_TAG_formal_parameter
    1600                            .dwattr $C$DW$91, DW_AT_name("channels")
    1601                            .dwattr $C$DW$91, DW_AT_TI_symbol_name("channels")
    1602                            .dwattr $C$DW$91, DW_AT_type(*$C$DW$T$38)
    1603                            .dwattr $C$DW$91, DW_AT_location[DW_OP_reg2]
    1604                    
    1605                    
    1606                    ;*****************************************************************************
    1607                    ;* FUNCTION NAME: esmGetStatusUpper                                          *
    1608                    ;*                                                                           *
    1609                    ;*   Regs Modified     : A1,A2,A3,V9,SP                                      *
    1610                    ;*   Regs Used         : A1,A2,A3,A4,V9,SP,LR                                *
    1611                    ;*   Local Frame Size  : 0 Args + 24 Auto + 0 Save = 24 byte                 *
    1612                    ;*****************************************************************************
    1613 000004a8           esmGetStatusUpper:
    1614                    ;* --------------------------------------------------------------------------*
    1615                            .dwcfi  cfa_offset, 0
    1616 000004a8 E24DD018          SUB       SP, SP, #24           ; [DPU_4_PIPE0] 
    1617                            .dwcfi  cfa_offset, 24
    1618                    $C$DW$92        .dwtag  DW_TAG_variable
    1619                            .dwattr $C$DW$92, DW_AT_name("channels")
    1620                            .dwattr $C$DW$92, DW_AT_TI_symbol_name("channels")
    1621                            .dwattr $C$DW$92, DW_AT_type(*$C$DW$T$38)
    1622                            .dwattr $C$DW$92, DW_AT_location[DW_OP_breg13 0]
    1623                    
    1624                    $C$DW$93        .dwtag  DW_TAG_variable
    1625                            .dwattr $C$DW$93, DW_AT_name("status")
    1626                            .dwattr $C$DW$93, DW_AT_TI_symbol_name("status")
    1627                            .dwattr $C$DW$93, DW_AT_type(*$C$DW$T$38)
    1628                            .dwattr $C$DW$93, DW_AT_location[DW_OP_breg13 8]
    1629                    
    1630                    $C$DW$94        .dwtag  DW_TAG_variable
    1631                            .dwattr $C$DW$94, DW_AT_name("group")
    1632                            .dwattr $C$DW$94, DW_AT_TI_symbol_name("group")
    1633                            .dwattr $C$DW$94, DW_AT_type(*$C$DW$T$20)
    1634                            .dwattr $C$DW$94, DW_AT_location[DW_OP_breg13 16]
    1635                    
    1636                    $C$DW$95        .dwtag  DW_TAG_variable
    1637                            .dwattr $C$DW$95, DW_AT_name("ESM_ESTATUS7")
    1638                            .dwattr $C$DW$95, DW_AT_TI_symbol_name("ESM_ESTATUS7")
    1639                            .dwattr $C$DW$95, DW_AT_type(*$C$DW$T$20)
    1640                            .dwattr $C$DW$95, DW_AT_location[DW_OP_breg13 20]
    1641                    
    1642 000004ac E88D000C          STMIA     SP, {A3,A4}           ; [DPU_4_PIPE0] |781| 
    1643 000004b0 E58D0010          STR       A1, [SP, #16]         ; [DPU_4_PIPE0] |781| 
    1644                            .dwpsn  file "../hcg/source/HL_esm.c",line 783,column 25,is_stmt,isa 2
    1645 000004b4 E59F02C0          LDR       A1, $C$CON14          ; [DPU_4_PIPE0] |783| 
    1646 000004b8 E59DC010          LDR       V9, [SP, #16]         ; [DPU_4_PIPE0] |783| 
    1647 000004bc E790C10C          LDR       V9, [A1, +V9, LSL #2] ; [DPU_4_PIPE0] |783| 
    1648 000004c0 E58DC014          STR       V9, [SP, #20]         ; [DPU_4_PIPE0] |783| 
    1649                            .dwpsn  file "../hcg/source/HL_esm.c",line 789,column 6,is_stmt,isa 2
    1650 000004c4 E59DC014          LDR       V9, [SP, #20]         ; [DPU_4_PIPE0] |789| 
TI ARM Assembler PC v16.9.0 Thu Feb 16 13:27:09 2017

Tools Copyright (c) 1996-2015 Texas Instruments Incorporated
C:\Users\bob\AppData\Local\Temp\1063210                              PAGE   31

    1651 000004c8 E89D0003          LDMIA     SP, {A1,A2}           ; [DPU_4_PIPE0] |789| 
    1652 000004cc E000000C          AND       A1, A1, V9            ; [DPU_4_PIPE0] |789| 
    1653 000004d0 E28DC008          ADD       V9, SP, #8            ; [DPU_4_PIPE0] |789| 
    1654 000004d4 E3A02000          MOV       A3, #0                ; [DPU_4_PIPE0] |789| 
    1655 000004d8 E0011002          AND       A2, A2, A3            ; [DPU_4_PIPE0] |789| 
    1656 000004dc E88C0003          STMIA     V9, {A1,A2}           ; [DPU_4_PIPE0] |789| 
    1657                            .dwpsn  file "../hcg/source/HL_esm.c",line 794,column 5,is_stmt,isa 2
    1658 000004e0 E28DC008          ADD       V9, SP, #8            ; [DPU_4_PIPE0] |794| 
    1659 000004e4 E89C0003          LDMIA     V9, {A1,A2}           ; [DPU_4_PIPE0] |794| 
    1660                            .dwpsn  file "../hcg/source/HL_esm.c",line 795,column 1,is_stmt,isa 2
    1661 000004e8 E28DD018          ADD       SP, SP, #24           ; [DPU_4_PIPE0] 
    1662                            .dwcfi  cfa_offset, 0
    1663                    $C$DW$96        .dwtag  DW_TAG_TI_branch
    1664                            .dwattr $C$DW$96, DW_AT_low_pc(0x00)
    1665                            .dwattr $C$DW$96, DW_AT_TI_return
    1666                    
    1667 000004ec E12FFF1E          BX        LR                    ; [DPU_4_PIPE1] 
    1668                            ; BRANCH OCCURS                  ; [] 
    1669                            .dwattr $C$DW$89, DW_AT_TI_end_file("../hcg/source/HL_esm.c")
    1670                            .dwattr $C$DW$89, DW_AT_TI_end_line(0x31b)
    1671                            .dwattr $C$DW$89, DW_AT_TI_end_column(0x01)
    1672                            .dwendentry
    1673                            .dwendtag $C$DW$89
    1674                    
    1675 000004f0                   .sect   ".text"
    1676                            .clink
    1677                            .armfunc esmGetStatusBuffer
    1678 000004f0                   .state32
    1679                            .global esmGetStatusBuffer
    1680                    
    1681                    $C$DW$97        .dwtag  DW_TAG_subprogram
    1682                            .dwattr $C$DW$97, DW_AT_name("esmGetStatusBuffer")
    1683                            .dwattr $C$DW$97, DW_AT_low_pc(esmGetStatusBuffer)
    1684                            .dwattr $C$DW$97, DW_AT_high_pc(0x00)
    1685                            .dwattr $C$DW$97, DW_AT_TI_symbol_name("esmGetStatusBuffer")
    1686                            .dwattr $C$DW$97, DW_AT_external
    1687                            .dwattr $C$DW$97, DW_AT_type(*$C$DW$T$20)
    1688                            .dwattr $C$DW$97, DW_AT_TI_begin_file("../hcg/source/HL_esm.c")
    1689                            .dwattr $C$DW$97, DW_AT_TI_begin_line(0x326)
    1690                            .dwattr $C$DW$97, DW_AT_TI_begin_column(0x08)
    1691                            .dwattr $C$DW$97, DW_AT_decl_file("../hcg/source/HL_esm.c")
    1692                            .dwattr $C$DW$97, DW_AT_decl_line(0x326)
    1693                            .dwattr $C$DW$97, DW_AT_decl_column(0x08)
    1694                            .dwattr $C$DW$97, DW_AT_TI_max_frame_size(0x08)
    1695                            .dwpsn  file "../hcg/source/HL_esm.c",line 807,column 1,is_stmt,address esmGetStatusBuffer,isa
    1696                    
    1697                            .dwfde $C$DW$CIE, esmGetStatusBuffer
    1698                    $C$DW$98        .dwtag  DW_TAG_formal_parameter
    1699                            .dwattr $C$DW$98, DW_AT_name("channels")
    1700                            .dwattr $C$DW$98, DW_AT_TI_symbol_name("channels")
    1701                            .dwattr $C$DW$98, DW_AT_type(*$C$DW$T$20)
    1702                            .dwattr $C$DW$98, DW_AT_location[DW_OP_reg0]
    1703                    
    1704                    
    1705                    ;*****************************************************************************
TI ARM Assembler PC v16.9.0 Thu Feb 16 13:27:09 2017

Tools Copyright (c) 1996-2015 Texas Instruments Incorporated
C:\Users\bob\AppData\Local\Temp\1063210                              PAGE   32

    1706                    ;* FUNCTION NAME: esmGetStatusBuffer                                         *
    1707                    ;*                                                                           *
    1708                    ;*   Regs Modified     : A1,V9,SP                                            *
    1709                    ;*   Regs Used         : A1,V9,SP,LR                                         *
    1710                    ;*   Local Frame Size  : 0 Args + 8 Auto + 0 Save = 8 byte                   *
    1711                    ;*****************************************************************************
    1712 000004f0           esmGetStatusBuffer:
    1713                    ;* --------------------------------------------------------------------------*
    1714                            .dwcfi  cfa_offset, 0
    1715 000004f0 E24DD008          SUB       SP, SP, #8            ; [DPU_4_PIPE0] 
    1716                            .dwcfi  cfa_offset, 8
    1717                    $C$DW$99        .dwtag  DW_TAG_variable
    1718                            .dwattr $C$DW$99, DW_AT_name("channels")
    1719                            .dwattr $C$DW$99, DW_AT_TI_symbol_name("channels")
    1720                            .dwattr $C$DW$99, DW_AT_type(*$C$DW$T$20)
    1721                            .dwattr $C$DW$99, DW_AT_location[DW_OP_breg13 0]
    1722                    
    1723                    $C$DW$100       .dwtag  DW_TAG_variable
    1724                            .dwattr $C$DW$100, DW_AT_name("status")
    1725                            .dwattr $C$DW$100, DW_AT_TI_symbol_name("status")
    1726                            .dwattr $C$DW$100, DW_AT_type(*$C$DW$T$20)
    1727                            .dwattr $C$DW$100, DW_AT_location[DW_OP_breg13 4]
    1728                    
    1729 000004f4 E58D0000          STR       A1, [SP, #0]          ; [DPU_4_PIPE0] |807| 
    1730                            .dwpsn  file "../hcg/source/HL_esm.c",line 812,column 5,is_stmt,isa 2
    1731 000004f8 E59FC268          LDR       V9, $C$CON9           ; [DPU_4_PIPE0] |812| 
    1732 000004fc E59D0000          LDR       A1, [SP, #0]          ; [DPU_4_PIPE0] |812| 
    1733 00000500 E59CC000          LDR       V9, [V9, #0]          ; [DPU_4_PIPE0] |812| 
    1734 00000504 E000C00C          AND       V9, A1, V9            ; [DPU_4_PIPE0] |812| 
    1735 00000508 E58DC004          STR       V9, [SP, #4]          ; [DPU_4_PIPE0] |812| 
    1736                            .dwpsn  file "../hcg/source/HL_esm.c",line 817,column 5,is_stmt,isa 2
    1737 0000050c E59D0004          LDR       A1, [SP, #4]          ; [DPU_4_PIPE0] |817| 
    1738                            .dwpsn  file "../hcg/source/HL_esm.c",line 818,column 1,is_stmt,isa 2
    1739 00000510 E28DD008          ADD       SP, SP, #8            ; [DPU_4_PIPE0] 
    1740                            .dwcfi  cfa_offset, 0
    1741                    $C$DW$101       .dwtag  DW_TAG_TI_branch
    1742                            .dwattr $C$DW$101, DW_AT_low_pc(0x00)
    1743                            .dwattr $C$DW$101, DW_AT_TI_return
    1744                    
    1745 00000514 E12FFF1E          BX        LR                    ; [DPU_4_PIPE1] 
    1746                            ; BRANCH OCCURS                  ; [] 
    1747                            .dwattr $C$DW$97, DW_AT_TI_end_file("../hcg/source/HL_esm.c")
    1748                            .dwattr $C$DW$97, DW_AT_TI_end_line(0x332)
    1749                            .dwattr $C$DW$97, DW_AT_TI_end_column(0x01)
    1750                            .dwendentry
    1751                            .dwendtag $C$DW$97
    1752                    
    1753 00000518                   .sect   ".text"
    1754                            .clink
    1755                            .armfunc esmEnterSelfTest
    1756 00000518                   .state32
    1757                            .global esmEnterSelfTest
    1758                    
    1759                    $C$DW$102       .dwtag  DW_TAG_subprogram
    1760                            .dwattr $C$DW$102, DW_AT_name("esmEnterSelfTest")
TI ARM Assembler PC v16.9.0 Thu Feb 16 13:27:09 2017

Tools Copyright (c) 1996-2015 Texas Instruments Incorporated
C:\Users\bob\AppData\Local\Temp\1063210                              PAGE   33

    1761                            .dwattr $C$DW$102, DW_AT_low_pc(esmEnterSelfTest)
    1762                            .dwattr $C$DW$102, DW_AT_high_pc(0x00)
    1763                            .dwattr $C$DW$102, DW_AT_TI_symbol_name("esmEnterSelfTest")
    1764                            .dwattr $C$DW$102, DW_AT_external
    1765                            .dwattr $C$DW$102, DW_AT_type(*$C$DW$T$92)
    1766                            .dwattr $C$DW$102, DW_AT_TI_begin_file("../hcg/source/HL_esm.c")
    1767                            .dwattr $C$DW$102, DW_AT_TI_begin_line(0x33b)
    1768                            .dwattr $C$DW$102, DW_AT_TI_begin_column(0x13)
    1769                            .dwattr $C$DW$102, DW_AT_decl_file("../hcg/source/HL_esm.c")
    1770                            .dwattr $C$DW$102, DW_AT_decl_line(0x33b)
    1771                            .dwattr $C$DW$102, DW_AT_decl_column(0x13)
    1772                            .dwattr $C$DW$102, DW_AT_TI_max_frame_size(0x10)
    1773                            .dwpsn  file "../hcg/source/HL_esm.c",line 828,column 1,is_stmt,address esmEnterSelfTest,isa 2
    1774                    
    1775                            .dwfde $C$DW$CIE, esmEnterSelfTest
    1776                    
    1777                    ;*****************************************************************************
    1778                    ;* FUNCTION NAME: esmEnterSelfTest                                           *
    1779                    ;*                                                                           *
    1780                    ;*   Regs Modified     : A1,V9,SP,SR                                         *
    1781                    ;*   Regs Used         : A1,V9,SP,LR,SR                                      *
    1782                    ;*   Local Frame Size  : 0 Args + 12 Auto + 0 Save = 12 byte                 *
    1783                    ;*****************************************************************************
    1784 00000518           esmEnterSelfTest:
    1785                    ;* --------------------------------------------------------------------------*
    1786                            .dwcfi  cfa_offset, 0
    1787 00000518 E24DD010          SUB       SP, SP, #16           ; [DPU_4_PIPE0] 
    1788                            .dwcfi  cfa_offset, 16
    1789                    $C$DW$103       .dwtag  DW_TAG_variable
    1790                            .dwattr $C$DW$103, DW_AT_name("errPinStat")
    1791                            .dwattr $C$DW$103, DW_AT_TI_symbol_name("errPinStat")
    1792                            .dwattr $C$DW$103, DW_AT_type(*$C$DW$T$20)
    1793                            .dwattr $C$DW$103, DW_AT_location[DW_OP_breg13 0]
    1794                    
    1795                    $C$DW$104       .dwtag  DW_TAG_variable
    1796                            .dwattr $C$DW$104, DW_AT_name("esmKeyReg")
    1797                            .dwattr $C$DW$104, DW_AT_TI_symbol_name("esmKeyReg")
    1798                            .dwattr $C$DW$104, DW_AT_type(*$C$DW$T$20)
    1799                            .dwattr $C$DW$104, DW_AT_location[DW_OP_breg13 4]
    1800                    
    1801                    $C$DW$105       .dwtag  DW_TAG_variable
    1802                            .dwattr $C$DW$105, DW_AT_name("status")
    1803                            .dwattr $C$DW$105, DW_AT_TI_symbol_name("status")
    1804                            .dwattr $C$DW$105, DW_AT_type(*$C$DW$T$92)
    1805                            .dwattr $C$DW$105, DW_AT_location[DW_OP_breg13 8]
    1806                    
    1807                            .dwpsn  file "../hcg/source/HL_esm.c",line 834,column 23,is_stmt,isa 2
    1808 0000051c E59FC268          LDR       V9, $C$CON18          ; [DPU_4_PIPE0] |834| 
    1809 00000520 E59CC000          LDR       V9, [V9, #0]          ; [DPU_4_PIPE0] |834| 
    1810 00000524 E20CC001          AND       V9, V9, #1            ; [DPU_4_PIPE0] |834| 
    1811 00000528 E58DC000          STR       V9, [SP, #0]          ; [DPU_4_PIPE0] |834| 
    1812                            .dwpsn  file "../hcg/source/HL_esm.c",line 835,column 23,is_stmt,isa 2
    1813 0000052c E59FC25C          LDR       V9, $C$CON19          ; [DPU_4_PIPE0] |835| 
    1814 00000530 E59CC000          LDR       V9, [V9, #0]          ; [DPU_4_PIPE0] |835| 
    1815 00000534 E58DC004          STR       V9, [SP, #4]          ; [DPU_4_PIPE0] |835| 
TI ARM Assembler PC v16.9.0 Thu Feb 16 13:27:09 2017

Tools Copyright (c) 1996-2015 Texas Instruments Incorporated
C:\Users\bob\AppData\Local\Temp\1063210                              PAGE   34

    1816                            .dwpsn  file "../hcg/source/HL_esm.c",line 836,column 5,is_stmt,isa 2
    1817 00000538 E59DC000          LDR       V9, [SP, #0]          ; [DPU_4_PIPE0] |836| 
    1818 0000053c E35C0000          CMP       V9, #0                ; [DPU_4_PIPE0] |836| 
    1819 00000540 1AFFFFFE!         BNE       ||$C$L3||             ; [DPU_4_PIPE1] |836| 
    1820                            ; BRANCHCC OCCURS {||$C$L3||}    ; [] |836| 
    1821                    ;* --------------------------------------------------------------------------*
    1822 00000544 E59DC004          LDR       V9, [SP, #4]          ; [DPU_4_PIPE0] |836| 
    1823 00000548 E35C0000          CMP       V9, #0                ; [DPU_4_PIPE0] |836| 
    1824 0000054c 1AFFFFFE!         BNE       ||$C$L3||             ; [DPU_4_PIPE1] |836| 
    1825                            ; BRANCHCC OCCURS {||$C$L3||}    ; [] |836| 
    1826                    ;* --------------------------------------------------------------------------*
    1827                            .dwpsn  file "../hcg/source/HL_esm.c",line 838,column 7,is_stmt,isa 2
    1828 00000550 E3A0C002          MOV       V9, #2                ; [DPU_4_PIPE0] |838| 
    1829 00000554 E5CDC008          STRB      V9, [SP, #8]          ; [DPU_4_PIPE0] |838| 
    1830                            .dwpsn  file "../hcg/source/HL_esm.c",line 839,column 5,is_stmt,isa 2
    1831 00000558 EAFFFFFE!         B         ||$C$L5||             ; [DPU_4_PIPE1] |839| 
    1832                            ; BRANCH OCCURS {||$C$L5||}      ; [] |839| 
    1833                    ;* --------------------------------------------------------------------------*
    1834 0000055c           ||$C$L3||:    
    1835                            .dwpsn  file "../hcg/source/HL_esm.c",line 842,column 7,is_stmt,isa 2
    1836 0000055c E59F022C          LDR       A1, $C$CON19          ; [DPU_4_PIPE0] |842| 
    1837 00000560 E3A0C00A          MOV       V9, #10               ; [DPU_4_PIPE0] |842| 
    1838 00000564 E580C000          STR       V9, [A1, #0]          ; [DPU_4_PIPE0] |842| 
    1839                            .dwpsn  file "../hcg/source/HL_esm.c",line 843,column 7,is_stmt,isa 2
    1840 00000568 E3A0C001          MOV       V9, #1                ; [DPU_4_PIPE0] |843| 
    1841 0000056c E5CDC008          STRB      V9, [SP, #8]          ; [DPU_4_PIPE0] |843| 
    1842                            .dwpsn  file "../hcg/source/HL_esm.c",line 844,column 7,is_stmt,isa 2
    1843 00000570 E59FC214          LDR       V9, $C$CON18          ; [DPU_4_PIPE0] |844| 
    1844 00000574 E59CC000          LDR       V9, [V9, #0]          ; [DPU_4_PIPE0] |844| 
    1845 00000578 E31C0001          TST       V9, #1                ; [DPU_4_PIPE0] |844| 
    1846 0000057c 0AFFFFFE!         BEQ       ||$C$L4||             ; [DPU_4_PIPE1] |844| 
    1847                            ; BRANCHCC OCCURS {||$C$L4||}    ; [] |844| 
    1848                    ;* --------------------------------------------------------------------------*
    1849                            .dwpsn  file "../hcg/source/HL_esm.c",line 846,column 9,is_stmt,isa 2
    1850 00000580 E3A0C003          MOV       V9, #3                ; [DPU_4_PIPE0] |846| 
    1851 00000584 E5CDC008          STRB      V9, [SP, #8]          ; [DPU_4_PIPE0] |846| 
    1852                    ;* --------------------------------------------------------------------------*
    1853 00000588           ||$C$L4||:    
    1854                            .dwpsn  file "../hcg/source/HL_esm.c",line 848,column 7,is_stmt,isa 2
    1855 00000588 E59F0200          LDR       A1, $C$CON19          ; [DPU_4_PIPE0] |848| 
    1856 0000058c E3A0C005          MOV       V9, #5                ; [DPU_4_PIPE0] |848| 
    1857 00000590 E580C000          STR       V9, [A1, #0]          ; [DPU_4_PIPE0] |848| 
    1858                    ;* --------------------------------------------------------------------------*
    1859 00000594           ||$C$L5||:    
    1860                            .dwpsn  file "../hcg/source/HL_esm.c",line 854,column 5,is_stmt,isa 2
    1861 00000594 E5DD0008          LDRB      A1, [SP, #8]          ; [DPU_4_PIPE0] |854| 
    1862                            .dwpsn  file "../hcg/source/HL_esm.c",line 855,column 1,is_stmt,isa 2
    1863 00000598 E28DD010          ADD       SP, SP, #16           ; [DPU_4_PIPE0] 
    1864                            .dwcfi  cfa_offset, 0
    1865                    $C$DW$106       .dwtag  DW_TAG_TI_branch
    1866                            .dwattr $C$DW$106, DW_AT_low_pc(0x00)
    1867                            .dwattr $C$DW$106, DW_AT_TI_return
    1868                    
    1869 0000059c E12FFF1E          BX        LR                    ; [DPU_4_PIPE1] 
    1870                            ; BRANCH OCCURS                  ; [] 
TI ARM Assembler PC v16.9.0 Thu Feb 16 13:27:09 2017

Tools Copyright (c) 1996-2015 Texas Instruments Incorporated
C:\Users\bob\AppData\Local\Temp\1063210                              PAGE   35

    1871                            .dwattr $C$DW$102, DW_AT_TI_end_file("../hcg/source/HL_esm.c")
    1872                            .dwattr $C$DW$102, DW_AT_TI_end_line(0x357)
    1873                            .dwattr $C$DW$102, DW_AT_TI_end_column(0x01)
    1874                            .dwendentry
    1875                            .dwendtag $C$DW$102
    1876                    
    1877 000005a0                   .sect   ".text"
    1878                            .clink
    1879                            .armfunc esmSelfTestStatus
    1880 000005a0                   .state32
    1881                            .global esmSelfTestStatus
    1882                    
    1883                    $C$DW$107       .dwtag  DW_TAG_subprogram
    1884                            .dwattr $C$DW$107, DW_AT_name("esmSelfTestStatus")
    1885                            .dwattr $C$DW$107, DW_AT_low_pc(esmSelfTestStatus)
    1886                            .dwattr $C$DW$107, DW_AT_high_pc(0x00)
    1887                            .dwattr $C$DW$107, DW_AT_TI_symbol_name("esmSelfTestStatus")
    1888                            .dwattr $C$DW$107, DW_AT_external
    1889                            .dwattr $C$DW$107, DW_AT_type(*$C$DW$T$92)
    1890                            .dwattr $C$DW$107, DW_AT_TI_begin_file("../hcg/source/HL_esm.c")
    1891                            .dwattr $C$DW$107, DW_AT_TI_begin_line(0x35e)
    1892                            .dwattr $C$DW$107, DW_AT_TI_begin_column(0x13)
    1893                            .dwattr $C$DW$107, DW_AT_decl_file("../hcg/source/HL_esm.c")
    1894                            .dwattr $C$DW$107, DW_AT_decl_line(0x35e)
    1895                            .dwattr $C$DW$107, DW_AT_decl_column(0x13)
    1896                            .dwattr $C$DW$107, DW_AT_TI_max_frame_size(0x08)
    1897                            .dwpsn  file "../hcg/source/HL_esm.c",line 863,column 1,is_stmt,address esmSelfTestStatus,isa 
    1898                    
    1899                            .dwfde $C$DW$CIE, esmSelfTestStatus
    1900                    
    1901                    ;*****************************************************************************
    1902                    ;* FUNCTION NAME: esmSelfTestStatus                                          *
    1903                    ;*                                                                           *
    1904                    ;*   Regs Modified     : A1,V9,SP,SR                                         *
    1905                    ;*   Regs Used         : A1,V9,SP,LR,SR                                      *
    1906                    ;*   Local Frame Size  : 0 Args + 4 Auto + 0 Save = 4 byte                   *
    1907                    ;*****************************************************************************
    1908 000005a0           esmSelfTestStatus:
    1909                    ;* --------------------------------------------------------------------------*
    1910                            .dwcfi  cfa_offset, 0
    1911 000005a0 E24DD008          SUB       SP, SP, #8            ; [DPU_4_PIPE0] 
    1912                            .dwcfi  cfa_offset, 8
    1913                    $C$DW$108       .dwtag  DW_TAG_variable
    1914                            .dwattr $C$DW$108, DW_AT_name("status")
    1915                            .dwattr $C$DW$108, DW_AT_TI_symbol_name("status")
    1916                            .dwattr $C$DW$108, DW_AT_type(*$C$DW$T$92)
    1917                            .dwattr $C$DW$108, DW_AT_location[DW_OP_breg13 0]
    1918                    
    1919                            .dwpsn  file "../hcg/source/HL_esm.c",line 869,column 5,is_stmt,isa 2
    1920 000005a4 E59FC1E0          LDR       V9, $C$CON18          ; [DPU_4_PIPE0] |869| 
    1921 000005a8 E59CC000          LDR       V9, [V9, #0]          ; [DPU_4_PIPE0] |869| 
    1922 000005ac E31C0001          TST       V9, #1                ; [DPU_4_PIPE0] |869| 
    1923 000005b0 1AFFFFFE!         BNE       ||$C$L7||             ; [DPU_4_PIPE1] |869| 
    1924                            ; BRANCHCC OCCURS {||$C$L7||}    ; [] |869| 
    1925                    ;* --------------------------------------------------------------------------*
TI ARM Assembler PC v16.9.0 Thu Feb 16 13:27:09 2017

Tools Copyright (c) 1996-2015 Texas Instruments Incorporated
C:\Users\bob\AppData\Local\Temp\1063210                              PAGE   36

    1926                            .dwpsn  file "../hcg/source/HL_esm.c",line 871,column 7,is_stmt,isa 2
    1927 000005b4 E59FC1D4          LDR       V9, $C$CON19          ; [DPU_4_PIPE0] |871| 
    1928 000005b8 E59CC000          LDR       V9, [V9, #0]          ; [DPU_4_PIPE0] |871| 
    1929 000005bc E35C0005          CMP       V9, #5                ; [DPU_4_PIPE0] |871| 
    1930 000005c0 1AFFFFFE!         BNE       ||$C$L6||             ; [DPU_4_PIPE1] |871| 
    1931                            ; BRANCHCC OCCURS {||$C$L6||}    ; [] |871| 
    1932                    ;* --------------------------------------------------------------------------*
    1933                            .dwpsn  file "../hcg/source/HL_esm.c",line 873,column 9,is_stmt,isa 2
    1934 000005c4 E3A0C001          MOV       V9, #1                ; [DPU_4_PIPE0] |873| 
    1935 000005c8 E5CDC000          STRB      V9, [SP, #0]          ; [DPU_4_PIPE0] |873| 
    1936                            .dwpsn  file "../hcg/source/HL_esm.c",line 874,column 7,is_stmt,isa 2
    1937 000005cc EAFFFFFE!         B         ||$C$L8||             ; [DPU_4_PIPE1] |874| 
    1938                            ; BRANCH OCCURS {||$C$L8||}      ; [] |874| 
    1939                    ;* --------------------------------------------------------------------------*
    1940 000005d0           ||$C$L6||:    
    1941                            .dwpsn  file "../hcg/source/HL_esm.c",line 877,column 9,is_stmt,isa 2
    1942 000005d0 E3A0C003          MOV       V9, #3                ; [DPU_4_PIPE0] |877| 
    1943 000005d4 E5CDC000          STRB      V9, [SP, #0]          ; [DPU_4_PIPE0] |877| 
    1944                            .dwpsn  file "../hcg/source/HL_esm.c",line 879,column 5,is_stmt,isa 2
    1945 000005d8 EAFFFFFE!         B         ||$C$L8||             ; [DPU_4_PIPE1] |879| 
    1946                            ; BRANCH OCCURS {||$C$L8||}      ; [] |879| 
    1947                    ;* --------------------------------------------------------------------------*
    1948 000005dc           ||$C$L7||:    
    1949                            .dwpsn  file "../hcg/source/HL_esm.c",line 882,column 9,is_stmt,isa 2
    1950 000005dc E3A0C000          MOV       V9, #0                ; [DPU_4_PIPE0] |882| 
    1951 000005e0 E5CDC000          STRB      V9, [SP, #0]          ; [DPU_4_PIPE0] |882| 
    1952                    ;* --------------------------------------------------------------------------*
    1953 000005e4           ||$C$L8||:    
    1954                            .dwpsn  file "../hcg/source/HL_esm.c",line 888,column 5,is_stmt,isa 2
    1955 000005e4 E5DD0000          LDRB      A1, [SP, #0]          ; [DPU_4_PIPE0] |888| 
    1956                            .dwpsn  file "../hcg/source/HL_esm.c",line 889,column 1,is_stmt,isa 2
    1957 000005e8 E28DD008          ADD       SP, SP, #8            ; [DPU_4_PIPE0] 
    1958                            .dwcfi  cfa_offset, 0
    1959                    $C$DW$109       .dwtag  DW_TAG_TI_branch
    1960                            .dwattr $C$DW$109, DW_AT_low_pc(0x00)
    1961                            .dwattr $C$DW$109, DW_AT_TI_return
    1962                    
    1963 000005ec E12FFF1E          BX        LR                    ; [DPU_4_PIPE1] 
    1964                            ; BRANCH OCCURS                  ; [] 
    1965                            .dwattr $C$DW$107, DW_AT_TI_end_file("../hcg/source/HL_esm.c")
    1966                            .dwattr $C$DW$107, DW_AT_TI_end_line(0x379)
    1967                            .dwattr $C$DW$107, DW_AT_TI_end_column(0x01)
    1968                            .dwendentry
    1969                            .dwendtag $C$DW$107
    1970                    
    1971 000005f0                   .sect   ".text"
    1972                            .clink
    1973                            .armfunc esmGetConfigValue
    1974 000005f0                   .state32
    1975                            .global esmGetConfigValue
    1976                    
    1977                    $C$DW$110       .dwtag  DW_TAG_subprogram
    1978                            .dwattr $C$DW$110, DW_AT_name("esmGetConfigValue")
    1979                            .dwattr $C$DW$110, DW_AT_low_pc(esmGetConfigValue)
    1980                            .dwattr $C$DW$110, DW_AT_high_pc(0x00)
TI ARM Assembler PC v16.9.0 Thu Feb 16 13:27:09 2017

Tools Copyright (c) 1996-2015 Texas Instruments Incorporated
C:\Users\bob\AppData\Local\Temp\1063210                              PAGE   37

    1981                            .dwattr $C$DW$110, DW_AT_TI_symbol_name("esmGetConfigValue")
    1982                            .dwattr $C$DW$110, DW_AT_external
    1983                            .dwattr $C$DW$110, DW_AT_TI_begin_file("../hcg/source/HL_esm.c")
    1984                            .dwattr $C$DW$110, DW_AT_TI_begin_line(0x38b)
    1985                            .dwattr $C$DW$110, DW_AT_TI_begin_column(0x06)
    1986                            .dwattr $C$DW$110, DW_AT_decl_file("../hcg/source/HL_esm.c")
    1987                            .dwattr $C$DW$110, DW_AT_decl_line(0x38b)
    1988                            .dwattr $C$DW$110, DW_AT_decl_column(0x06)
    1989                            .dwattr $C$DW$110, DW_AT_TI_max_frame_size(0x08)
    1990                            .dwpsn  file "../hcg/source/HL_esm.c",line 908,column 1,is_stmt,address esmGetConfigValue,isa 
    1991                    
    1992                            .dwfde $C$DW$CIE, esmGetConfigValue
    1993                    $C$DW$111       .dwtag  DW_TAG_formal_parameter
    1994                            .dwattr $C$DW$111, DW_AT_name("config_reg")
    1995                            .dwattr $C$DW$111, DW_AT_TI_symbol_name("config_reg")
    1996                            .dwattr $C$DW$111, DW_AT_type(*$C$DW$T$44)
    1997                            .dwattr $C$DW$111, DW_AT_location[DW_OP_reg0]
    1998                    
    1999                    $C$DW$112       .dwtag  DW_TAG_formal_parameter
    2000                            .dwattr $C$DW$112, DW_AT_name("type")
    2001                            .dwattr $C$DW$112, DW_AT_TI_symbol_name("type")
    2002                            .dwattr $C$DW$112, DW_AT_type(*$C$DW$T$46)
    2003                            .dwattr $C$DW$112, DW_AT_location[DW_OP_reg1]
    2004                    
    2005                    
    2006                    ;*****************************************************************************
    2007                    ;* FUNCTION NAME: esmGetConfigValue                                          *
    2008                    ;*                                                                           *
    2009                    ;*   Regs Modified     : A1,V9,SP,SR                                         *
    2010                    ;*   Regs Used         : A1,A2,V9,SP,LR,SR                                   *
    2011                    ;*   Local Frame Size  : 0 Args + 8 Auto + 0 Save = 8 byte                   *
    2012                    ;*****************************************************************************
    2013 000005f0           esmGetConfigValue:
    2014                    ;* --------------------------------------------------------------------------*
    2015                            .dwcfi  cfa_offset, 0
    2016 000005f0 E24DD008          SUB       SP, SP, #8            ; [DPU_4_PIPE0] 
    2017                            .dwcfi  cfa_offset, 8
    2018                    $C$DW$113       .dwtag  DW_TAG_variable
    2019                            .dwattr $C$DW$113, DW_AT_name("config_reg")
    2020                            .dwattr $C$DW$113, DW_AT_TI_symbol_name("config_reg")
    2021                            .dwattr $C$DW$113, DW_AT_type(*$C$DW$T$44)
    2022                            .dwattr $C$DW$113, DW_AT_location[DW_OP_breg13 0]
    2023                    
    2024                    $C$DW$114       .dwtag  DW_TAG_variable
    2025                            .dwattr $C$DW$114, DW_AT_name("type")
    2026                            .dwattr $C$DW$114, DW_AT_TI_symbol_name("type")
    2027                            .dwattr $C$DW$114, DW_AT_type(*$C$DW$T$46)
    2028                            .dwattr $C$DW$114, DW_AT_location[DW_OP_breg13 4]
    2029                    
    2030 000005f4 E5CD1004          STRB      A2, [SP, #4]          ; [DPU_4_PIPE0] |908| 
    2031 000005f8 E58D0000          STR       A1, [SP, #0]          ; [DPU_4_PIPE0] |908| 
    2032                            .dwpsn  file "../hcg/source/HL_esm.c",line 909,column 5,is_stmt,isa 2
    2033 000005fc E5DDC004          LDRB      V9, [SP, #4]          ; [DPU_4_PIPE0] |909| 
    2034 00000600 E35C0000          CMP       V9, #0                ; [DPU_4_PIPE0] |909| 
    2035 00000604 1AFFFFFE!         BNE       ||$C$L9||             ; [DPU_4_PIPE1] |909| 
TI ARM Assembler PC v16.9.0 Thu Feb 16 13:27:09 2017

Tools Copyright (c) 1996-2015 Texas Instruments Incorporated
C:\Users\bob\AppData\Local\Temp\1063210                              PAGE   38

    2036                            ; BRANCHCC OCCURS {||$C$L9||}    ; [] |909| 
    2037                    ;* --------------------------------------------------------------------------*
    2038                            .dwpsn  file "../hcg/source/HL_esm.c",line 911,column 9,is_stmt,isa 2
    2039 00000608 E59DC000          LDR       V9, [SP, #0]          ; [DPU_4_PIPE0] |911| 
    2040 0000060c E3A00B03          MOV       A1, #3072             ; [DPU_4_PIPE0] |911| 
    2041 00000610 E58C0000          STR       A1, [V9, #0]          ; [DPU_4_PIPE0] |911| 
    2042                            .dwpsn  file "../hcg/source/HL_esm.c",line 912,column 9,is_stmt,isa 2
    2043 00000614 E59DC000          LDR       V9, [SP, #0]          ; [DPU_4_PIPE0] |912| 
    2044 00000618 E59F019C          LDR       A1, $C$CON30          ; [DPU_4_PIPE0] |912| 
    2045 0000061c E58C0004          STR       A1, [V9, #4]          ; [DPU_4_PIPE0] |912| 
    2046                            .dwpsn  file "../hcg/source/HL_esm.c",line 913,column 9,is_stmt,isa 2
    2047 00000620 E59DC000          LDR       V9, [SP, #0]          ; [DPU_4_PIPE0] |913| 
    2048 00000624 E3A00000          MOV       A1, #0                ; [DPU_4_PIPE0] |913| 
    2049 00000628 E58C0008          STR       A1, [V9, #8]          ; [DPU_4_PIPE0] |913| 
    2050                            .dwpsn  file "../hcg/source/HL_esm.c",line 914,column 9,is_stmt,isa 2
    2051 0000062c E59DC000          LDR       V9, [SP, #0]          ; [DPU_4_PIPE0] |914| 
    2052 00000630 E3030FFF          MOV       A1, #16383            ; [DPU_4_PIPE0] |914| 
    2053 00000634 E58C000C          STR       A1, [V9, #12]         ; [DPU_4_PIPE0] |914| 
    2054                            .dwpsn  file "../hcg/source/HL_esm.c",line 915,column 9,is_stmt,isa 2
    2055 00000638 E59DC000          LDR       V9, [SP, #0]          ; [DPU_4_PIPE0] |915| 
    2056 0000063c E3A00000          MOV       A1, #0                ; [DPU_4_PIPE0] |915| 
    2057 00000640 E58C0010          STR       A1, [V9, #16]         ; [DPU_4_PIPE0] |915| 
    2058                            .dwpsn  file "../hcg/source/HL_esm.c",line 916,column 9,is_stmt,isa 2
    2059 00000644 E59DC000          LDR       V9, [SP, #0]          ; [DPU_4_PIPE0] |916| 
    2060 00000648 E3A000C0          MOV       A1, #192              ; [DPU_4_PIPE0] |916| 
    2061 0000064c E58C0014          STR       A1, [V9, #20]         ; [DPU_4_PIPE0] |916| 
    2062                            .dwpsn  file "../hcg/source/HL_esm.c",line 917,column 9,is_stmt,isa 2
    2063 00000650 E59DC000          LDR       V9, [SP, #0]          ; [DPU_4_PIPE0] |917| 
    2064 00000654 E59F0168          LDR       A1, $C$CON32          ; [DPU_4_PIPE0] |917| 
    2065 00000658 E58C0018          STR       A1, [V9, #24]         ; [DPU_4_PIPE0] |917| 
    2066                            .dwpsn  file "../hcg/source/HL_esm.c",line 918,column 9,is_stmt,isa 2
    2067 0000065c E59DC000          LDR       V9, [SP, #0]          ; [DPU_4_PIPE0] |918| 
    2068 00000660 E3A00000          MOV       A1, #0                ; [DPU_4_PIPE0] |918| 
    2069 00000664 E58C001C          STR       A1, [V9, #28]         ; [DPU_4_PIPE0] |918| 
    2070                            .dwpsn  file "../hcg/source/HL_esm.c",line 919,column 9,is_stmt,isa 2
    2071 00000668 E59DC000          LDR       V9, [SP, #0]          ; [DPU_4_PIPE0] |919| 
    2072 0000066c E3A000C0          MOV       A1, #192              ; [DPU_4_PIPE0] |919| 
    2073 00000670 E58C0020          STR       A1, [V9, #32]         ; [DPU_4_PIPE0] |919| 
    2074                            .dwpsn  file "../hcg/source/HL_esm.c",line 920,column 9,is_stmt,isa 2
    2075 00000674 E59DC000          LDR       V9, [SP, #0]          ; [DPU_4_PIPE0] |920| 
    2076 00000678 E59F0144          LDR       A1, $C$CON32          ; [DPU_4_PIPE0] |920| 
    2077 0000067c E58C0024          STR       A1, [V9, #36]         ; [DPU_4_PIPE0] |920| 
    2078                            .dwpsn  file "../hcg/source/HL_esm.c",line 921,column 9,is_stmt,isa 2
    2079 00000680 E59DC000          LDR       V9, [SP, #0]          ; [DPU_4_PIPE0] |921| 
    2080 00000684 E3A00000          MOV       A1, #0                ; [DPU_4_PIPE0] |921| 
    2081 00000688 E58C0028          STR       A1, [V9, #40]         ; [DPU_4_PIPE0] |921| 
    2082                            .dwpsn  file "../hcg/source/HL_esm.c",line 922,column 5,is_stmt,isa 2
    2083 0000068c EAFFFFFE!         B         ||$C$L10||            ; [DPU_4_PIPE1] |922| 
    2084                            ; BRANCH OCCURS {||$C$L10||}     ; [] |922| 
    2085                    ;* --------------------------------------------------------------------------*
    2086 00000690           ||$C$L9||:    
    2087                            .dwpsn  file "../hcg/source/HL_esm.c",line 926,column 9,is_stmt,isa 2
    2088 00000690 E59FC114          LDR       V9, $C$CON26          ; [DPU_4_PIPE0] |926| 
    2089 00000694 E59D0000          LDR       A1, [SP, #0]          ; [DPU_4_PIPE0] |926| 
    2090 00000698 E59CC000          LDR       V9, [V9, #0]          ; [DPU_4_PIPE0] |926| 
TI ARM Assembler PC v16.9.0 Thu Feb 16 13:27:09 2017

Tools Copyright (c) 1996-2015 Texas Instruments Incorporated
C:\Users\bob\AppData\Local\Temp\1063210                              PAGE   39

    2091 0000069c E580C000          STR       V9, [A1, #0]          ; [DPU_4_PIPE0] |926| 
    2092                            .dwpsn  file "../hcg/source/HL_esm.c",line 927,column 9,is_stmt,isa 2
    2093 000006a0 E59FC110          LDR       V9, $C$CON29          ; [DPU_4_PIPE0] |927| 
    2094 000006a4 E59D0000          LDR       A1, [SP, #0]          ; [DPU_4_PIPE0] |927| 
    2095 000006a8 E59CC000          LDR       V9, [V9, #0]          ; [DPU_4_PIPE0] |927| 
    2096 000006ac E580C004          STR       V9, [A1, #4]          ; [DPU_4_PIPE0] |927| 
    2097                            .dwpsn  file "../hcg/source/HL_esm.c",line 928,column 9,is_stmt,isa 2
    2098 000006b0 E59FC0E8          LDR       V9, $C$CON23          ; [DPU_4_PIPE0] |928| 
    2099 000006b4 E59D0000          LDR       A1, [SP, #0]          ; [DPU_4_PIPE0] |928| 
    2100 000006b8 E59CC000          LDR       V9, [V9, #0]          ; [DPU_4_PIPE0] |928| 
    2101 000006bc E580C008          STR       V9, [A1, #8]          ; [DPU_4_PIPE0] |928| 
    2102                            .dwpsn  file "../hcg/source/HL_esm.c",line 929,column 9,is_stmt,isa 2
    2103 000006c0 E59FC0C0          LDR       V9, $C$CON17          ; [DPU_4_PIPE0] |929| 
    2104 000006c4 E59D0000          LDR       A1, [SP, #0]          ; [DPU_4_PIPE0] |929| 
    2105 000006c8 E59CC000          LDR       V9, [V9, #0]          ; [DPU_4_PIPE0] |929| 
    2106 000006cc E580C00C          STR       V9, [A1, #12]         ; [DPU_4_PIPE0] |929| 
    2107                            .dwpsn  file "../hcg/source/HL_esm.c",line 930,column 9,is_stmt,isa 2
    2108 000006d0 E59FC0B8          LDR       V9, $C$CON19          ; [DPU_4_PIPE0] |930| 
    2109 000006d4 E59D0000          LDR       A1, [SP, #0]          ; [DPU_4_PIPE0] |930| 
    2110 000006d8 E59CC000          LDR       V9, [V9, #0]          ; [DPU_4_PIPE0] |930| 
    2111 000006dc E580C010          STR       V9, [A1, #16]         ; [DPU_4_PIPE0] |930| 
    2112                            .dwpsn  file "../hcg/source/HL_esm.c",line 931,column 9,is_stmt,isa 2
    2113 000006e0 E59FC0C8          LDR       V9, $C$CON27          ; [DPU_4_PIPE0] |931| 
    2114 000006e4 E59D0000          LDR       A1, [SP, #0]          ; [DPU_4_PIPE0] |931| 
    2115 000006e8 E59CC000          LDR       V9, [V9, #0]          ; [DPU_4_PIPE0] |931| 
    2116 000006ec E580C014          STR       V9, [A1, #20]         ; [DPU_4_PIPE0] |931| 
    2117                            .dwpsn  file "../hcg/source/HL_esm.c",line 932,column 9,is_stmt,isa 2
    2118 000006f0 E59FC0C8          LDR       V9, $C$CON31          ; [DPU_4_PIPE0] |932| 
    2119 000006f4 E59D0000          LDR       A1, [SP, #0]          ; [DPU_4_PIPE0] |932| 
    2120 000006f8 E59CC000          LDR       V9, [V9, #0]          ; [DPU_4_PIPE0] |932| 
    2121 000006fc E580C018          STR       V9, [A1, #24]         ; [DPU_4_PIPE0] |932| 
    2122                            .dwpsn  file "../hcg/source/HL_esm.c",line 933,column 9,is_stmt,isa 2
    2123 00000700 E59FC09C          LDR       V9, $C$CON24          ; [DPU_4_PIPE0] |933| 
    2124 00000704 E59D0000          LDR       A1, [SP, #0]          ; [DPU_4_PIPE0] |933| 
    2125 00000708 E59CC000          LDR       V9, [V9, #0]          ; [DPU_4_PIPE0] |933| 
    2126 0000070c E580C01C          STR       V9, [A1, #28]         ; [DPU_4_PIPE0] |933| 
    2127                            .dwpsn  file "../hcg/source/HL_esm.c",line 934,column 9,is_stmt,isa 2
    2128 00000710 E59FC09C          LDR       V9, $C$CON28          ; [DPU_4_PIPE0] |934| 
    2129 00000714 E59D0000          LDR       A1, [SP, #0]          ; [DPU_4_PIPE0] |934| 
    2130 00000718 E59CC000          LDR       V9, [V9, #0]          ; [DPU_4_PIPE0] |934| 
    2131 0000071c E580C020          STR       V9, [A1, #32]         ; [DPU_4_PIPE0] |934| 
    2132                            .dwpsn  file "../hcg/source/HL_esm.c",line 935,column 9,is_stmt,isa 2
    2133 00000720 E59FC0A0          LDR       V9, $C$CON33          ; [DPU_4_PIPE0] |935| 
    2134 00000724 E59D0000          LDR       A1, [SP, #0]          ; [DPU_4_PIPE0] |935| 
    2135 00000728 E59CC000          LDR       V9, [V9, #0]          ; [DPU_4_PIPE0] |935| 
    2136 0000072c E580C024          STR       V9, [A1, #36]         ; [DPU_4_PIPE0] |935| 
    2137                            .dwpsn  file "../hcg/source/HL_esm.c",line 936,column 9,is_stmt,isa 2
    2138 00000730 E59FC070          LDR       V9, $C$CON25          ; [DPU_4_PIPE0] |936| 
    2139 00000734 E59D0000          LDR       A1, [SP, #0]          ; [DPU_4_PIPE0] |936| 
    2140 00000738 E59CC000          LDR       V9, [V9, #0]          ; [DPU_4_PIPE0] |936| 
    2141 0000073c E580C028          STR       V9, [A1, #40]         ; [DPU_4_PIPE0] |936| 
    2142                            .dwpsn  file "../hcg/source/HL_esm.c",line 938,column 1,is_stmt,isa 2
    2143                    ;* --------------------------------------------------------------------------*
    2144 00000740           ||$C$L10||:    
    2145 00000740 E28DD008          ADD       SP, SP, #8            ; [DPU_4_PIPE0] 
TI ARM Assembler PC v16.9.0 Thu Feb 16 13:27:09 2017

Tools Copyright (c) 1996-2015 Texas Instruments Incorporated
C:\Users\bob\AppData\Local\Temp\1063210                              PAGE   40

    2146                            .dwcfi  cfa_offset, 0
    2147                    $C$DW$115       .dwtag  DW_TAG_TI_branch
    2148                            .dwattr $C$DW$115, DW_AT_low_pc(0x00)
    2149                            .dwattr $C$DW$115, DW_AT_TI_return
    2150                    
    2151 00000744 E12FFF1E          BX        LR                    ; [DPU_4_PIPE1] 
    2152                            ; BRANCH OCCURS                  ; [] 
    2153                            .dwattr $C$DW$110, DW_AT_TI_end_file("../hcg/source/HL_esm.c")
    2154                            .dwattr $C$DW$110, DW_AT_TI_end_line(0x3aa)
    2155                            .dwattr $C$DW$110, DW_AT_TI_end_column(0x01)
    2156                            .dwendentry
    2157                            .dwendtag $C$DW$110
    2158                    
    2159 00000000                   .sect   ".text:retain"
    2160                            .retain
    2161                            .retainrefs
    2162                            .armfunc esmHighInterrupt
    2163 00000000                   .state32
    2164                            .global esmHighInterrupt
    2165                    
    2166                    $C$DW$116       .dwtag  DW_TAG_subprogram
    2167                            .dwattr $C$DW$116, DW_AT_name("esmHighInterrupt")
    2168                            .dwattr $C$DW$116, DW_AT_low_pc(esmHighInterrupt)
    2169                            .dwattr $C$DW$116, DW_AT_high_pc(0x00)
    2170                            .dwattr $C$DW$116, DW_AT_TI_symbol_name("esmHighInterrupt")
    2171                            .dwattr $C$DW$116, DW_AT_external
    2172                            .dwattr $C$DW$116, DW_AT_TI_begin_file("../hcg/source/HL_esm.c")
    2173                            .dwattr $C$DW$116, DW_AT_TI_begin_line(0x3b5)
    2174                            .dwattr $C$DW$116, DW_AT_TI_begin_column(0x06)
    2175                            .dwattr $C$DW$116, DW_AT_decl_file("../hcg/source/HL_esm.c")
    2176                            .dwattr $C$DW$116, DW_AT_decl_line(0x3b5)
    2177                            .dwattr $C$DW$116, DW_AT_decl_column(0x06)
    2178                            .dwattr $C$DW$116, DW_AT_TI_interrupt
    2179                            .dwattr $C$DW$116, DW_AT_TI_max_frame_size(0x68)
    2180                            .dwpsn  file "../hcg/source/HL_esm.c",line 950,column 1,is_stmt,address esmHighInterrupt,isa 2
    2181                    
    2182                            .dwfde $C$DW$CIE, esmHighInterrupt
    2183                    
    2184                    ;*****************************************************************************
    2185                    ;* FUNCTION NAME: esmHighInterrupt                                           *
    2186                    ;*                                                                           *
    2187                    ;*   Regs Modified     : A1,A2,A3,A4,V5,V6,V7,V9,SP,LR,SR,D0,D0_hi,D1,D1_hi, *
    2188                    ;*                           D2,D2_hi,D3,D3_hi,D4,D4_hi,D5,D5_hi,D6,D6_hi,D7,*
    2189                    ;*                           D7_hi,FPEXC,FPSCR                               *
    2190                    ;*   Regs Used         : A1,A2,A3,A4,V5,V6,V7,V9,SP,LR,SR,D0,D0_hi,D1,D1_hi, *
    2191                    ;*                           D2,D2_hi,D3,D3_hi,D4,D4_hi,D5,D5_hi,D6,D6_hi,D7,*
    2192                    ;*                           D7_hi,FPEXC,FPSCR                               *
    2193                    ;*   Local Frame Size  : 0 Args + 4 Auto + 96 Save = 100 byte                *
    2194                    ;*****************************************************************************
    2195 00000000           esmHighInterrupt:
    2196                    ;* --------------------------------------------------------------------------*
    2197                            .dwcfi  cfa_offset, 0
    2198 00000000 E92D500F          STMFD     SP!, {A1, A2, A3, A4, V9, LR} ; [DPU_4_PIPE0] 
    2199                            .dwcfi  cfa_offset, 24
    2200                            .dwcfi  save_reg_to_mem, 14, -4
TI ARM Assembler PC v16.9.0 Thu Feb 16 13:27:09 2017

Tools Copyright (c) 1996-2015 Texas Instruments Incorporated
C:\Users\bob\AppData\Local\Temp\1063210                              PAGE   41

    2201                            .dwcfi  save_reg_to_mem, 12, -8
    2202                            .dwcfi  save_reg_to_mem, 3, -12
    2203                            .dwcfi  save_reg_to_mem, 2, -16
    2204                            .dwcfi  save_reg_to_mem, 1, -20
    2205                            .dwcfi  save_reg_to_mem, 0, -24
    2206 00000004 EEF8CA10          VMRS      V9,FPEXC              ; [DPU_4_PIPE0] 
    2207 00000008 E92D1000          STMFD     SP!, {V9}             ; [DPU_4_PIPE0] 
    2208                            .dwcfi  cfa_offset, 28
    2209 0000000c EEF1CA10          VMRS      V9,FPSCR              ; [DPU_4_PIPE0] 
    2210 00000010 E92D1000          STMFD     SP!, {V9}             ; [DPU_4_PIPE0] 
    2211                            .dwcfi  cfa_offset, 32
    2212 00000014 ED2D0B10          VSTMDB    SP!, {D0-D7}          ; [DPU_4_PIPE0] 
    2213                            .dwcfi  cfa_offset, 96
    2214                            .dwcfi  save_reg_to_mem, 79, -36
    2215                            .dwcfi  save_reg_to_mem, 78, -40
    2216                            .dwcfi  save_reg_to_mem, 77, -44
    2217                            .dwcfi  save_reg_to_mem, 76, -48
    2218                            .dwcfi  save_reg_to_mem, 75, -52
    2219                            .dwcfi  save_reg_to_mem, 74, -56
    2220                            .dwcfi  save_reg_to_mem, 73, -60
    2221                            .dwcfi  save_reg_to_mem, 72, -64
    2222                            .dwcfi  save_reg_to_mem, 71, -68
    2223                            .dwcfi  save_reg_to_mem, 70, -72
    2224                            .dwcfi  save_reg_to_mem, 69, -76
    2225                            .dwcfi  save_reg_to_mem, 68, -80
    2226                            .dwcfi  save_reg_to_mem, 67, -84
    2227                            .dwcfi  save_reg_to_mem, 66, -88
    2228                            .dwcfi  save_reg_to_mem, 65, -92
    2229                            .dwcfi  save_reg_to_mem, 64, -96
    2230 00000018 E24DD008          SUB       SP, SP, #8            ; [DPU_4_PIPE0] 
    2231                            .dwcfi  cfa_offset, 104
    2232                    $C$DW$117       .dwtag  DW_TAG_variable
    2233                            .dwattr $C$DW$117, DW_AT_name("vec")
    2234                            .dwattr $C$DW$117, DW_AT_TI_symbol_name("vec")
    2235                            .dwattr $C$DW$117, DW_AT_type(*$C$DW$T$20)
    2236                            .dwattr $C$DW$117, DW_AT_location[DW_OP_breg13 0]
    2237                    
    2238                            .dwpsn  file "../hcg/source/HL_esm.c",line 958,column 16,is_stmt,isa 2
    2239 0000001c E59F8270          LDR       V5, $C$CON35          ; [DPU_4_PIPE0] |958| 
    2240 00000020 E5988000          LDR       V5, [V5, #0]          ; [DPU_4_PIPE0] |958| 
    2241 00000024 E2488001          SUB       V5, V5, #1            ; [DPU_4_PIPE0] |958| 
    2242 00000028 E58D8000          STR       V5, [SP, #0]          ; [DPU_4_PIPE0] |958| 
    2243                            .dwpsn  file "../hcg/source/HL_esm.c",line 963,column 5,is_stmt,isa 2
    2244 0000002c E59D8000          LDR       V5, [SP, #0]          ; [DPU_4_PIPE0] |963| 
    2245 00000030 E3580020          CMP       V5, #32               ; [DPU_4_PIPE0] |963| 
    2246 00000034 2AFFFFFE!         BCS       ||$C$L11||            ; [DPU_4_PIPE1] |963| 
    2247                            ; BRANCHCC OCCURS {||$C$L11||}   ; [] |963| 
    2248                    ;* --------------------------------------------------------------------------*
    2249                            .dwpsn  file "../hcg/source/HL_esm.c",line 965,column 9,is_stmt,isa 2
    2250 00000038 E59D8000          LDR       V5, [SP, #0]          ; [DPU_4_PIPE0] |965| 
    2251 0000003c E59FA254          LDR       V7, $C$CON36          ; [DPU_4_PIPE0] |965| 
    2252 00000040 E3A09001          MOV       V6, #1                ; [DPU_4_PIPE0] |965| 
    2253 00000044 E1A08819          MOV       V5, V6, LSL V5        ; [DPU_4_PIPE0] |965| 
    2254 00000048 E58A8000          STR       V5, [V7, #0]          ; [DPU_4_PIPE0] |965| 
    2255                            .dwpsn  file "../hcg/source/HL_esm.c",line 966,column 9,is_stmt,isa 2
TI ARM Assembler PC v16.9.0 Thu Feb 16 13:27:09 2017

Tools Copyright (c) 1996-2015 Texas Instruments Incorporated
C:\Users\bob\AppData\Local\Temp\1063210                              PAGE   42

    2256 0000004c E59F0248          LDR       A1, $C$CON37          ; [DPU_4_PIPE0] |966| 
    2257 00000050 E59D1000          LDR       A2, [SP, #0]          ; [DPU_4_PIPE0] |966| 
    2258                    $C$DW$118       .dwtag  DW_TAG_TI_branch
    2259                            .dwattr $C$DW$118, DW_AT_low_pc(0x00)
    2260                            .dwattr $C$DW$118, DW_AT_name("esmGroup1Notification")
    2261                            .dwattr $C$DW$118, DW_AT_TI_call
    2262                    
    2263 00000054 EBFFFFFE!         BL        esmGroup1Notification ; [DPU_4_PIPE1] |966| 
    2264                            ; CALL OCCURS {esmGroup1Notification }  ; [] |966| 
    2265                            .dwpsn  file "../hcg/source/HL_esm.c",line 967,column 5,is_stmt,isa 2
    2266 00000058 EAFFFFFE!         B         ||$C$L15||            ; [DPU_4_PIPE1] |967| 
    2267                            ; BRANCH OCCURS {||$C$L15||}     ; [] |967| 
    2268                    ;* --------------------------------------------------------------------------*
    2269 0000005c           ||$C$L11||:    
    2270                            .dwpsn  file "../hcg/source/HL_esm.c",line 968,column 10,is_stmt,isa 2
    2271 0000005c E59D8000          LDR       V5, [SP, #0]          ; [DPU_4_PIPE0] |968| 
    2272 00000060 E3580040          CMP       V5, #64               ; [DPU_4_PIPE0] |968| 
    2273 00000064 2AFFFFFE!         BCS       ||$C$L12||            ; [DPU_4_PIPE1] |968| 
    2274                            ; BRANCHCC OCCURS {||$C$L12||}   ; [] |968| 
    2275                    ;* --------------------------------------------------------------------------*
    2276                            .dwpsn  file "../hcg/source/HL_esm.c",line 970,column 9,is_stmt,isa 2
    2277 00000068 E59D8000          LDR       V5, [SP, #0]          ; [DPU_4_PIPE0] |970| 
    2278 0000006c E59FA22C          LDR       V7, $C$CON38          ; [DPU_4_PIPE0] |970| 
    2279 00000070 E3A09001          MOV       V6, #1                ; [DPU_4_PIPE0] |970| 
    2280 00000074 E2488020          SUB       V5, V5, #32           ; [DPU_4_PIPE0] |970| 
    2281 00000078 E1A08819          MOV       V5, V6, LSL V5        ; [DPU_4_PIPE0] |970| 
    2282 0000007c E58A8000          STR       V5, [V7, #0]          ; [DPU_4_PIPE0] |970| 
    2283                            .dwpsn  file "../hcg/source/HL_esm.c",line 971,column 9,is_stmt,isa 2
    2284 00000080 E59D8000          LDR       V5, [SP, #0]          ; [DPU_4_PIPE0] |971| 
    2285 00000084 E59F0210          LDR       A1, $C$CON37          ; [DPU_4_PIPE0] |971| 
    2286 00000088 E2481020          SUB       A2, V5, #32           ; [DPU_4_PIPE0] |971| 
    2287                    $C$DW$119       .dwtag  DW_TAG_TI_branch
    2288                            .dwattr $C$DW$119, DW_AT_low_pc(0x00)
    2289                            .dwattr $C$DW$119, DW_AT_name("esmGroup2Notification")
    2290                            .dwattr $C$DW$119, DW_AT_TI_call
    2291                    
    2292 0000008c EBFFFFFE!         BL        esmGroup2Notification ; [DPU_4_PIPE1] |971| 
    2293                            ; CALL OCCURS {esmGroup2Notification }  ; [] |971| 
    2294                            .dwpsn  file "../hcg/source/HL_esm.c",line 972,column 5,is_stmt,isa 2
    2295 00000090 EAFFFFFE!         B         ||$C$L15||            ; [DPU_4_PIPE1] |972| 
    2296                            ; BRANCH OCCURS {||$C$L15||}     ; [] |972| 
    2297                    ;* --------------------------------------------------------------------------*
    2298 00000094           ||$C$L12||:    
    2299                            .dwpsn  file "../hcg/source/HL_esm.c",line 973,column 10,is_stmt,isa 2
    2300 00000094 E59D8000          LDR       V5, [SP, #0]          ; [DPU_4_PIPE0] |973| 
    2301 00000098 E3580060          CMP       V5, #96               ; [DPU_4_PIPE0] |973| 
    2302 0000009c 2AFFFFFE!         BCS       ||$C$L13||            ; [DPU_4_PIPE1] |973| 
    2303                            ; BRANCHCC OCCURS {||$C$L13||}   ; [] |973| 
    2304                    ;* --------------------------------------------------------------------------*
    2305                            .dwpsn  file "../hcg/source/HL_esm.c",line 975,column 9,is_stmt,isa 2
    2306 000000a0 E59D8000          LDR       V5, [SP, #0]          ; [DPU_4_PIPE0] |975| 
    2307 000000a4 E59FA1F8          LDR       V7, $C$CON39          ; [DPU_4_PIPE0] |975| 
    2308 000000a8 E3A09001          MOV       V6, #1                ; [DPU_4_PIPE0] |975| 
    2309 000000ac E2488040          SUB       V5, V5, #64           ; [DPU_4_PIPE0] |975| 
    2310 000000b0 E1A08819          MOV       V5, V6, LSL V5        ; [DPU_4_PIPE0] |975| 
TI ARM Assembler PC v16.9.0 Thu Feb 16 13:27:09 2017

Tools Copyright (c) 1996-2015 Texas Instruments Incorporated
C:\Users\bob\AppData\Local\Temp\1063210                              PAGE   43

    2311 000000b4 E58A8000          STR       V5, [V7, #0]          ; [DPU_4_PIPE0] |975| 
    2312                            .dwpsn  file "../hcg/source/HL_esm.c",line 976,column 9,is_stmt,isa 2
    2313 000000b8 E59D8000          LDR       V5, [SP, #0]          ; [DPU_4_PIPE0] |976| 
    2314 000000bc E59F01D8          LDR       A1, $C$CON37          ; [DPU_4_PIPE0] |976| 
    2315 000000c0 E2481020          SUB       A2, V5, #32           ; [DPU_4_PIPE0] |976| 
    2316                    $C$DW$120       .dwtag  DW_TAG_TI_branch
    2317                            .dwattr $C$DW$120, DW_AT_low_pc(0x00)
    2318                            .dwattr $C$DW$120, DW_AT_name("esmGroup1Notification")
    2319                            .dwattr $C$DW$120, DW_AT_TI_call
    2320                    
    2321 000000c4 EBFFFFFE!         BL        esmGroup1Notification ; [DPU_4_PIPE1] |976| 
    2322                            ; CALL OCCURS {esmGroup1Notification }  ; [] |976| 
    2323                            .dwpsn  file "../hcg/source/HL_esm.c",line 977,column 5,is_stmt,isa 2
    2324 000000c8 EAFFFFFE!         B         ||$C$L15||            ; [DPU_4_PIPE1] |977| 
    2325                            ; BRANCH OCCURS {||$C$L15||}     ; [] |977| 
    2326                    ;* --------------------------------------------------------------------------*
    2327 000000cc           ||$C$L13||:    
    2328                            .dwpsn  file "../hcg/source/HL_esm.c",line 978,column 10,is_stmt,isa 2
    2329 000000cc E59D8000          LDR       V5, [SP, #0]          ; [DPU_4_PIPE0] |978| 
    2330 000000d0 E3580080          CMP       V5, #128              ; [DPU_4_PIPE0] |978| 
    2331 000000d4 3AFFFFFE!         BCC       ||$C$L14||            ; [DPU_4_PIPE1] |978| 
    2332                            ; BRANCHCC OCCURS {||$C$L14||}   ; [] |978| 
    2333                    ;* --------------------------------------------------------------------------*
    2334 000000d8 E59D8000          LDR       V5, [SP, #0]          ; [DPU_4_PIPE0] |978| 
    2335 000000dc E35800A0          CMP       V5, #160              ; [DPU_4_PIPE0] |978| 
    2336 000000e0 2AFFFFFE!         BCS       ||$C$L14||            ; [DPU_4_PIPE1] |978| 
    2337                            ; BRANCHCC OCCURS {||$C$L14||}   ; [] |978| 
    2338                    ;* --------------------------------------------------------------------------*
    2339                            .dwpsn  file "../hcg/source/HL_esm.c",line 980,column 9,is_stmt,isa 2
    2340 000000e4 E59D8000          LDR       V5, [SP, #0]          ; [DPU_4_PIPE0] |980| 
    2341 000000e8 E59FA1B8          LDR       V7, $C$CON40          ; [DPU_4_PIPE0] |980| 
    2342 000000ec E3A09001          MOV       V6, #1                ; [DPU_4_PIPE0] |980| 
    2343 000000f0 E2488080          SUB       V5, V5, #128          ; [DPU_4_PIPE0] |980| 
    2344 000000f4 E1A08819          MOV       V5, V6, LSL V5        ; [DPU_4_PIPE0] |980| 
    2345 000000f8 E58A8000          STR       V5, [V7, #0]          ; [DPU_4_PIPE0] |980| 
    2346                            .dwpsn  file "../hcg/source/HL_esm.c",line 981,column 9,is_stmt,isa 2
    2347 000000fc E59D8000          LDR       V5, [SP, #0]          ; [DPU_4_PIPE0] |981| 
    2348 00000100 E59F0194          LDR       A1, $C$CON37          ; [DPU_4_PIPE0] |981| 
    2349 00000104 E2481060          SUB       A2, V5, #96           ; [DPU_4_PIPE0] |981| 
    2350                    $C$DW$121       .dwtag  DW_TAG_TI_branch
    2351                            .dwattr $C$DW$121, DW_AT_low_pc(0x00)
    2352                            .dwattr $C$DW$121, DW_AT_name("esmGroup1Notification")
    2353                            .dwattr $C$DW$121, DW_AT_TI_call
    2354                    
    2355 00000108 EBFFFFFE!         BL        esmGroup1Notification ; [DPU_4_PIPE1] |981| 
    2356                            ; CALL OCCURS {esmGroup1Notification }  ; [] |981| 
    2357                            .dwpsn  file "../hcg/source/HL_esm.c",line 982,column 5,is_stmt,isa 2
    2358 0000010c EAFFFFFE!         B         ||$C$L15||            ; [DPU_4_PIPE1] |982| 
    2359                            ; BRANCH OCCURS {||$C$L15||}     ; [] |982| 
    2360                    ;* --------------------------------------------------------------------------*
    2361 00000110           ||$C$L14||:    
    2362                            .dwpsn  file "../hcg/source/HL_esm.c",line 985,column 9,is_stmt,isa 2
    2363 00000110 E59F9190          LDR       V6, $C$CON40          ; [DPU_4_PIPE0] |985| 
    2364 00000114 E3E08000          MVN       V5, #0                ; [DPU_4_PIPE0] |985| 
    2365 00000118 E5898000          STR       V5, [V6, #0]          ; [DPU_4_PIPE0] |985| 
TI ARM Assembler PC v16.9.0 Thu Feb 16 13:27:09 2017

Tools Copyright (c) 1996-2015 Texas Instruments Incorporated
C:\Users\bob\AppData\Local\Temp\1063210                              PAGE   44

    2366                            .dwpsn  file "../hcg/source/HL_esm.c",line 986,column 9,is_stmt,isa 2
    2367 0000011c E59F9188          LDR       V6, $C$CON41          ; [DPU_4_PIPE0] |986| 
    2368 00000120 E3E08000          MVN       V5, #0                ; [DPU_4_PIPE0] |986| 
    2369 00000124 E5898000          STR       V5, [V6, #0]          ; [DPU_4_PIPE0] |986| 
    2370                            .dwpsn  file "../hcg/source/HL_esm.c",line 987,column 9,is_stmt,isa 2
    2371 00000128 E59F9174          LDR       V6, $C$CON39          ; [DPU_4_PIPE0] |987| 
    2372 0000012c E3E08000          MVN       V5, #0                ; [DPU_4_PIPE0] |987| 
    2373 00000130 E5898000          STR       V5, [V6, #0]          ; [DPU_4_PIPE0] |987| 
    2374                            .dwpsn  file "../hcg/source/HL_esm.c",line 988,column 9,is_stmt,isa 2
    2375 00000134 E59F9164          LDR       V6, $C$CON38          ; [DPU_4_PIPE0] |988| 
    2376 00000138 E3E08000          MVN       V5, #0                ; [DPU_4_PIPE0] |988| 
    2377 0000013c E5898000          STR       V5, [V6, #0]          ; [DPU_4_PIPE0] |988| 
    2378                            .dwpsn  file "../hcg/source/HL_esm.c",line 989,column 9,is_stmt,isa 2
    2379 00000140 E59F9150          LDR       V6, $C$CON36          ; [DPU_4_PIPE0] |989| 
    2380 00000144 E3E08000          MVN       V5, #0                ; [DPU_4_PIPE0] |989| 
    2381 00000148 E5898000          STR       V5, [V6, #0]          ; [DPU_4_PIPE0] |989| 
    2382                            .dwpsn  file "../hcg/source/HL_esm.c",line 994,column 1,is_stmt,isa 2
    2383                    ;* --------------------------------------------------------------------------*
    2384 0000014c           ||$C$L15||:    
    2385 0000014c E28DD008          ADD       SP, SP, #8            ; [DPU_4_PIPE0] 
    2386                            .dwcfi  cfa_offset, 96
    2387 00000150 ECBD0B10          VLDMIA    SP!, {D0-D7}          ; [DPU_4_PIPE0] 
    2388                            .dwcfi  cfa_offset, 32
    2389                            .dwcfi  restore_reg, 79
    2390                            .dwcfi  restore_reg, 78
    2391                            .dwcfi  restore_reg, 77
    2392                            .dwcfi  restore_reg, 76
    2393                            .dwcfi  restore_reg, 75
    2394                            .dwcfi  restore_reg, 74
    2395                            .dwcfi  restore_reg, 73
    2396                            .dwcfi  restore_reg, 72
    2397                            .dwcfi  restore_reg, 71
    2398                            .dwcfi  restore_reg, 70
    2399                            .dwcfi  restore_reg, 69
    2400                            .dwcfi  restore_reg, 68
    2401                            .dwcfi  restore_reg, 67
    2402                            .dwcfi  restore_reg, 66
    2403                            .dwcfi  restore_reg, 65
    2404                            .dwcfi  restore_reg, 64
    2405 00000154 E8BD1000          LDMFD     SP!, {V9}             ; [DPU_4_PIPE0] 
    2406                            .dwcfi  cfa_offset, 28
    2407 00000158 EEE1CA10          VMSR      FPSCR, V9             ; [DPU_4_PIPE0] 
    2408 0000015c E8BD1000          LDMFD     SP!, {V9}             ; [DPU_4_PIPE0] 
    2409                            .dwcfi  cfa_offset, 24
    2410 00000160 EEE8CA10          VMSR      FPEXC, V9             ; [DPU_4_PIPE0] 
    2411 00000164 E8BD500F          LDMFD     SP!, {A1, A2, A3, A4, V9, LR} ; [DPU_4_PIPE0] 
    2412                            .dwcfi  cfa_offset, 0
    2413                            .dwcfi  restore_reg, 14
    2414                            .dwcfi  restore_reg, 12
    2415                            .dwcfi  restore_reg, 3
    2416                            .dwcfi  restore_reg, 2
    2417                            .dwcfi  restore_reg, 1
    2418                            .dwcfi  restore_reg, 0
    2419                    $C$DW$122       .dwtag  DW_TAG_TI_branch
    2420                            .dwattr $C$DW$122, DW_AT_low_pc(0x00)
TI ARM Assembler PC v16.9.0 Thu Feb 16 13:27:09 2017

Tools Copyright (c) 1996-2015 Texas Instruments Incorporated
C:\Users\bob\AppData\Local\Temp\1063210                              PAGE   45

    2421                            .dwattr $C$DW$122, DW_AT_TI_return
    2422                    
    2423 00000168 E25EF004          SUBS      PC, LR, #4            ; [DPU_4_PIPE1] 
    2424                            ; BRANCH OCCURS                  ; [] 
    2425                            .dwattr $C$DW$116, DW_AT_TI_end_file("../hcg/source/HL_esm.c")
    2426                            .dwattr $C$DW$116, DW_AT_TI_end_line(0x3e2)
    2427                            .dwattr $C$DW$116, DW_AT_TI_end_column(0x01)
    2428                            .dwendentry
    2429                            .dwendtag $C$DW$116
    2430                    
    2431 0000016c                   .sect   ".text:retain"
    2432                            .retain
    2433                            .retainrefs
    2434                            .armfunc esmLowInterrupt
    2435 0000016c                   .state32
    2436                            .global esmLowInterrupt
    2437                    
    2438                    $C$DW$123       .dwtag  DW_TAG_subprogram
    2439                            .dwattr $C$DW$123, DW_AT_name("esmLowInterrupt")
    2440                            .dwattr $C$DW$123, DW_AT_low_pc(esmLowInterrupt)
    2441                            .dwattr $C$DW$123, DW_AT_high_pc(0x00)
    2442                            .dwattr $C$DW$123, DW_AT_TI_symbol_name("esmLowInterrupt")
    2443                            .dwattr $C$DW$123, DW_AT_external
    2444                            .dwattr $C$DW$123, DW_AT_TI_begin_file("../hcg/source/HL_esm.c")
    2445                            .dwattr $C$DW$123, DW_AT_TI_begin_line(0x3ed)
    2446                            .dwattr $C$DW$123, DW_AT_TI_begin_column(0x06)
    2447                            .dwattr $C$DW$123, DW_AT_decl_file("../hcg/source/HL_esm.c")
    2448                            .dwattr $C$DW$123, DW_AT_decl_line(0x3ed)
    2449                            .dwattr $C$DW$123, DW_AT_decl_column(0x06)
    2450                            .dwattr $C$DW$123, DW_AT_TI_interrupt
    2451                            .dwattr $C$DW$123, DW_AT_TI_max_frame_size(0x68)
    2452                            .dwpsn  file "../hcg/source/HL_esm.c",line 1006,column 1,is_stmt,address esmLowInterrupt,isa 2
    2453                    
    2454                            .dwfde $C$DW$CIE, esmLowInterrupt
    2455                    
    2456                    ;*****************************************************************************
    2457                    ;* FUNCTION NAME: esmLowInterrupt                                            *
    2458                    ;*                                                                           *
    2459                    ;*   Regs Modified     : A1,A2,A3,A4,V5,V6,V7,V9,SP,LR,SR,D0,D0_hi,D1,D1_hi, *
    2460                    ;*                           D2,D2_hi,D3,D3_hi,D4,D4_hi,D5,D5_hi,D6,D6_hi,D7,*
    2461                    ;*                           D7_hi,FPEXC,FPSCR                               *
    2462                    ;*   Regs Used         : A1,A2,A3,A4,V5,V6,V7,V9,SP,LR,SR,D0,D0_hi,D1,D1_hi, *
    2463                    ;*                           D2,D2_hi,D3,D3_hi,D4,D4_hi,D5,D5_hi,D6,D6_hi,D7,*
    2464                    ;*                           D7_hi,FPEXC,FPSCR                               *
    2465                    ;*   Local Frame Size  : 0 Args + 4 Auto + 96 Save = 100 byte                *
    2466                    ;*****************************************************************************
    2467 0000016c           esmLowInterrupt:
    2468                    ;* --------------------------------------------------------------------------*
    2469                            .dwcfi  cfa_offset, 0
    2470 0000016c E92D500F          STMFD     SP!, {A1, A2, A3, A4, V9, LR} ; [DPU_4_PIPE0] 
    2471                            .dwcfi  cfa_offset, 24
    2472                            .dwcfi  save_reg_to_mem, 14, -4
    2473                            .dwcfi  save_reg_to_mem, 12, -8
    2474                            .dwcfi  save_reg_to_mem, 3, -12
    2475                            .dwcfi  save_reg_to_mem, 2, -16
TI ARM Assembler PC v16.9.0 Thu Feb 16 13:27:09 2017

Tools Copyright (c) 1996-2015 Texas Instruments Incorporated
C:\Users\bob\AppData\Local\Temp\1063210                              PAGE   46

    2476                            .dwcfi  save_reg_to_mem, 1, -20
    2477                            .dwcfi  save_reg_to_mem, 0, -24
    2478 00000170 EEF8CA10          VMRS      V9,FPEXC              ; [DPU_4_PIPE0] 
    2479 00000174 E92D1000          STMFD     SP!, {V9}             ; [DPU_4_PIPE0] 
    2480                            .dwcfi  cfa_offset, 28
    2481 00000178 EEF1CA10          VMRS      V9,FPSCR              ; [DPU_4_PIPE0] 
    2482 0000017c E92D1000          STMFD     SP!, {V9}             ; [DPU_4_PIPE0] 
    2483                            .dwcfi  cfa_offset, 32
    2484 00000180 ED2D0B10          VSTMDB    SP!, {D0-D7}          ; [DPU_4_PIPE0] 
    2485                            .dwcfi  cfa_offset, 96
    2486                            .dwcfi  save_reg_to_mem, 79, -36
    2487                            .dwcfi  save_reg_to_mem, 78, -40
    2488                            .dwcfi  save_reg_to_mem, 77, -44
    2489                            .dwcfi  save_reg_to_mem, 76, -48
    2490                            .dwcfi  save_reg_to_mem, 75, -52
    2491                            .dwcfi  save_reg_to_mem, 74, -56
    2492                            .dwcfi  save_reg_to_mem, 73, -60
    2493                            .dwcfi  save_reg_to_mem, 72, -64
    2494                            .dwcfi  save_reg_to_mem, 71, -68
    2495                            .dwcfi  save_reg_to_mem, 70, -72
    2496                            .dwcfi  save_reg_to_mem, 69, -76
    2497                            .dwcfi  save_reg_to_mem, 68, -80
    2498                            .dwcfi  save_reg_to_mem, 67, -84
    2499                            .dwcfi  save_reg_to_mem, 66, -88
    2500                            .dwcfi  save_reg_to_mem, 65, -92
    2501                            .dwcfi  save_reg_to_mem, 64, -96
    2502 00000184 E24DD008          SUB       SP, SP, #8            ; [DPU_4_PIPE0] 
    2503                            .dwcfi  cfa_offset, 104
    2504                    $C$DW$124       .dwtag  DW_TAG_variable
    2505                            .dwattr $C$DW$124, DW_AT_name("vec")
    2506                            .dwattr $C$DW$124, DW_AT_TI_symbol_name("vec")
    2507                            .dwattr $C$DW$124, DW_AT_type(*$C$DW$T$20)
    2508                            .dwattr $C$DW$124, DW_AT_location[DW_OP_breg13 0]
    2509                    
    2510                            .dwpsn  file "../hcg/source/HL_esm.c",line 1013,column 16,is_stmt,isa 2
    2511 00000188 E59F8120          LDR       V5, $C$CON42          ; [DPU_4_PIPE0] |1013| 
    2512 0000018c E5988000          LDR       V5, [V5, #0]          ; [DPU_4_PIPE0] |1013| 
    2513 00000190 E2488001          SUB       V5, V5, #1            ; [DPU_4_PIPE0] |1013| 
    2514 00000194 E58D8000          STR       V5, [SP, #0]          ; [DPU_4_PIPE0] |1013| 
    2515                            .dwpsn  file "../hcg/source/HL_esm.c",line 1018,column 5,is_stmt,isa 2
    2516 00000198 E59D8000          LDR       V5, [SP, #0]          ; [DPU_4_PIPE0] |1018| 
    2517 0000019c E3580020          CMP       V5, #32               ; [DPU_4_PIPE0] |1018| 
    2518 000001a0 2AFFFFFE!         BCS       ||$C$L16||            ; [DPU_4_PIPE1] |1018| 
    2519                            ; BRANCHCC OCCURS {||$C$L16||}   ; [] |1018| 
    2520                    ;* --------------------------------------------------------------------------*
    2521                            .dwpsn  file "../hcg/source/HL_esm.c",line 1020,column 9,is_stmt,isa 2
    2522 000001a4 E59D8000          LDR       V5, [SP, #0]          ; [DPU_4_PIPE0] |1020| 
    2523 000001a8 E59FA0E8          LDR       V7, $C$CON36          ; [DPU_4_PIPE0] |1020| 
    2524 000001ac E3A09001          MOV       V6, #1                ; [DPU_4_PIPE0] |1020| 
    2525 000001b0 E1A08819          MOV       V5, V6, LSL V5        ; [DPU_4_PIPE0] |1020| 
    2526 000001b4 E58A8000          STR       V5, [V7, #0]          ; [DPU_4_PIPE0] |1020| 
    2527                            .dwpsn  file "../hcg/source/HL_esm.c",line 1021,column 9,is_stmt,isa 2
    2528 000001b8 E59F00DC          LDR       A1, $C$CON37          ; [DPU_4_PIPE0] |1021| 
    2529 000001bc E59D1000          LDR       A2, [SP, #0]          ; [DPU_4_PIPE0] |1021| 
    2530                    $C$DW$125       .dwtag  DW_TAG_TI_branch
TI ARM Assembler PC v16.9.0 Thu Feb 16 13:27:09 2017

Tools Copyright (c) 1996-2015 Texas Instruments Incorporated
C:\Users\bob\AppData\Local\Temp\1063210                              PAGE   47

    2531                            .dwattr $C$DW$125, DW_AT_low_pc(0x00)
    2532                            .dwattr $C$DW$125, DW_AT_name("esmGroup1Notification")
    2533                            .dwattr $C$DW$125, DW_AT_TI_call
    2534                    
    2535 000001c0 EBFFFFFE!         BL        esmGroup1Notification ; [DPU_4_PIPE1] |1021| 
    2536                            ; CALL OCCURS {esmGroup1Notification }  ; [] |1021| 
    2537                            .dwpsn  file "../hcg/source/HL_esm.c",line 1022,column 5,is_stmt,isa 2
    2538 000001c4 EAFFFFFE!         B         ||$C$L19||            ; [DPU_4_PIPE1] |1022| 
    2539                            ; BRANCH OCCURS {||$C$L19||}     ; [] |1022| 
    2540                    ;* --------------------------------------------------------------------------*
    2541 000001c8           ||$C$L16||:    
    2542                            .dwpsn  file "../hcg/source/HL_esm.c",line 1023,column 10,is_stmt,isa 2
    2543 000001c8 E59D8000          LDR       V5, [SP, #0]          ; [DPU_4_PIPE0] |1023| 
    2544 000001cc E3580040          CMP       V5, #64               ; [DPU_4_PIPE0] |1023| 
    2545 000001d0 3AFFFFFE!         BCC       ||$C$L17||            ; [DPU_4_PIPE1] |1023| 
    2546                            ; BRANCHCC OCCURS {||$C$L17||}   ; [] |1023| 
    2547                    ;* --------------------------------------------------------------------------*
    2548 000001d4 E59D8000          LDR       V5, [SP, #0]          ; [DPU_4_PIPE0] |1023| 
    2549 000001d8 E3580060          CMP       V5, #96               ; [DPU_4_PIPE0] |1023| 
    2550 000001dc 2AFFFFFE!         BCS       ||$C$L17||            ; [DPU_4_PIPE1] |1023| 
    2551                            ; BRANCHCC OCCURS {||$C$L17||}   ; [] |1023| 
    2552                    ;* --------------------------------------------------------------------------*
    2553                            .dwpsn  file "../hcg/source/HL_esm.c",line 1025,column 9,is_stmt,isa 2
    2554 000001e0 E59D8000          LDR       V5, [SP, #0]          ; [DPU_4_PIPE0] |1025| 
    2555 000001e4 E59FA0B8          LDR       V7, $C$CON39          ; [DPU_4_PIPE0] |1025| 
    2556 000001e8 E3A09001          MOV       V6, #1                ; [DPU_4_PIPE0] |1025| 
    2557 000001ec E2488040          SUB       V5, V5, #64           ; [DPU_4_PIPE0] |1025| 
    2558 000001f0 E1A08819          MOV       V5, V6, LSL V5        ; [DPU_4_PIPE0] |1025| 
    2559 000001f4 E58A8000          STR       V5, [V7, #0]          ; [DPU_4_PIPE0] |1025| 
    2560                            .dwpsn  file "../hcg/source/HL_esm.c",line 1026,column 9,is_stmt,isa 2
    2561 000001f8 E59D8000          LDR       V5, [SP, #0]          ; [DPU_4_PIPE0] |1026| 
    2562 000001fc E59F0098          LDR       A1, $C$CON37          ; [DPU_4_PIPE0] |1026| 
    2563 00000200 E2481020          SUB       A2, V5, #32           ; [DPU_4_PIPE0] |1026| 
    2564                    $C$DW$126       .dwtag  DW_TAG_TI_branch
    2565                            .dwattr $C$DW$126, DW_AT_low_pc(0x00)
    2566                            .dwattr $C$DW$126, DW_AT_name("esmGroup1Notification")
    2567                            .dwattr $C$DW$126, DW_AT_TI_call
    2568                    
    2569 00000204 EBFFFFFE!         BL        esmGroup1Notification ; [DPU_4_PIPE1] |1026| 
    2570                            ; CALL OCCURS {esmGroup1Notification }  ; [] |1026| 
    2571                            .dwpsn  file "../hcg/source/HL_esm.c",line 1027,column 5,is_stmt,isa 2
    2572 00000208 EAFFFFFE!         B         ||$C$L19||            ; [DPU_4_PIPE1] |1027| 
    2573                            ; BRANCH OCCURS {||$C$L19||}     ; [] |1027| 
    2574                    ;* --------------------------------------------------------------------------*
    2575 0000020c           ||$C$L17||:    
    2576                            .dwpsn  file "../hcg/source/HL_esm.c",line 1028,column 10,is_stmt,isa 2
    2577 0000020c E59D8000          LDR       V5, [SP, #0]          ; [DPU_4_PIPE0] |1028| 
    2578 00000210 E3580080          CMP       V5, #128              ; [DPU_4_PIPE0] |1028| 
    2579 00000214 3AFFFFFE!         BCC       ||$C$L18||            ; [DPU_4_PIPE1] |1028| 
    2580                            ; BRANCHCC OCCURS {||$C$L18||}   ; [] |1028| 
    2581                    ;* --------------------------------------------------------------------------*
    2582 00000218 E59D8000          LDR       V5, [SP, #0]          ; [DPU_4_PIPE0] |1028| 
    2583 0000021c E35800A0          CMP       V5, #160              ; [DPU_4_PIPE0] |1028| 
    2584 00000220 2AFFFFFE!         BCS       ||$C$L18||            ; [DPU_4_PIPE1] |1028| 
    2585                            ; BRANCHCC OCCURS {||$C$L18||}   ; [] |1028| 
TI ARM Assembler PC v16.9.0 Thu Feb 16 13:27:09 2017

Tools Copyright (c) 1996-2015 Texas Instruments Incorporated
C:\Users\bob\AppData\Local\Temp\1063210                              PAGE   48

    2586                    ;* --------------------------------------------------------------------------*
    2587                            .dwpsn  file "../hcg/source/HL_esm.c",line 1030,column 9,is_stmt,isa 2
    2588 00000224 E59D8000          LDR       V5, [SP, #0]          ; [DPU_4_PIPE0] |1030| 
    2589 00000228 E59FA074          LDR       V7, $C$CON39          ; [DPU_4_PIPE0] |1030| 
    2590 0000022c E3A09001          MOV       V6, #1                ; [DPU_4_PIPE0] |1030| 
    2591 00000230 E2488040          SUB       V5, V5, #64           ; [DPU_4_PIPE0] |1030| 
    2592 00000234 E1A08819          MOV       V5, V6, LSL V5        ; [DPU_4_PIPE0] |1030| 
    2593 00000238 E58A8000          STR       V5, [V7, #0]          ; [DPU_4_PIPE0] |1030| 
    2594                            .dwpsn  file "../hcg/source/HL_esm.c",line 1031,column 9,is_stmt,isa 2
    2595 0000023c E59D8000          LDR       V5, [SP, #0]          ; [DPU_4_PIPE0] |1031| 
    2596 00000240 E59F0054          LDR       A1, $C$CON37          ; [DPU_4_PIPE0] |1031| 
    2597 00000244 E2481060          SUB       A2, V5, #96           ; [DPU_4_PIPE0] |1031| 
    2598                    $C$DW$127       .dwtag  DW_TAG_TI_branch
    2599                            .dwattr $C$DW$127, DW_AT_low_pc(0x00)
    2600                            .dwattr $C$DW$127, DW_AT_name("esmGroup1Notification")
    2601                            .dwattr $C$DW$127, DW_AT_TI_call
    2602                    
    2603 00000248 EBFFFFFE!         BL        esmGroup1Notification ; [DPU_4_PIPE1] |1031| 
    2604                            ; CALL OCCURS {esmGroup1Notification }  ; [] |1031| 
    2605                            .dwpsn  file "../hcg/source/HL_esm.c",line 1032,column 5,is_stmt,isa 2
    2606 0000024c EAFFFFFE!         B         ||$C$L19||            ; [DPU_4_PIPE1] |1032| 
    2607                            ; BRANCH OCCURS {||$C$L19||}     ; [] |1032| 
    2608                    ;* --------------------------------------------------------------------------*
    2609 00000250           ||$C$L18||:    
    2610                            .dwpsn  file "../hcg/source/HL_esm.c",line 1035,column 9,is_stmt,isa 2
    2611 00000250 E59F9050          LDR       V6, $C$CON40          ; [DPU_4_PIPE0] |1035| 
    2612 00000254 E3E08000          MVN       V5, #0                ; [DPU_4_PIPE0] |1035| 
    2613 00000258 E5898000          STR       V5, [V6, #0]          ; [DPU_4_PIPE0] |1035| 
    2614                            .dwpsn  file "../hcg/source/HL_esm.c",line 1036,column 9,is_stmt,isa 2
    2615 0000025c E59F9040          LDR       V6, $C$CON39          ; [DPU_4_PIPE0] |1036| 
    2616 00000260 E3E08000          MVN       V5, #0                ; [DPU_4_PIPE0] |1036| 
    2617 00000264 E5898000          STR       V5, [V6, #0]          ; [DPU_4_PIPE0] |1036| 
    2618                            .dwpsn  file "../hcg/source/HL_esm.c",line 1037,column 9,is_stmt,isa 2
    2619 00000268 E59F9028          LDR       V6, $C$CON36          ; [DPU_4_PIPE0] |1037| 
    2620 0000026c E3E08000          MVN       V5, #0                ; [DPU_4_PIPE0] |1037| 
    2621 00000270 E5898000          STR       V5, [V6, #0]          ; [DPU_4_PIPE0] |1037| 
    2622                            .dwpsn  file "../hcg/source/HL_esm.c",line 1042,column 1,is_stmt,isa 2
    2623                    ;* --------------------------------------------------------------------------*
    2624 00000274           ||$C$L19||:    
    2625 00000274 E28DD008          ADD       SP, SP, #8            ; [DPU_4_PIPE0] 
    2626                            .dwcfi  cfa_offset, 96
    2627 00000278 ECBD0B10          VLDMIA    SP!, {D0-D7}          ; [DPU_4_PIPE0] 
    2628                            .dwcfi  cfa_offset, 32
    2629                            .dwcfi  restore_reg, 79
    2630                            .dwcfi  restore_reg, 78
    2631                            .dwcfi  restore_reg, 77
    2632                            .dwcfi  restore_reg, 76
    2633                            .dwcfi  restore_reg, 75
    2634                            .dwcfi  restore_reg, 74
    2635                            .dwcfi  restore_reg, 73
    2636                            .dwcfi  restore_reg, 72
    2637                            .dwcfi  restore_reg, 71
    2638                            .dwcfi  restore_reg, 70
    2639                            .dwcfi  restore_reg, 69
    2640                            .dwcfi  restore_reg, 68
TI ARM Assembler PC v16.9.0 Thu Feb 16 13:27:09 2017

Tools Copyright (c) 1996-2015 Texas Instruments Incorporated
C:\Users\bob\AppData\Local\Temp\1063210                              PAGE   49

    2641                            .dwcfi  restore_reg, 67
    2642                            .dwcfi  restore_reg, 66
    2643                            .dwcfi  restore_reg, 65
    2644                            .dwcfi  restore_reg, 64
    2645 0000027c E8BD1000          LDMFD     SP!, {V9}             ; [DPU_4_PIPE0] 
    2646                            .dwcfi  cfa_offset, 28
    2647 00000280 EEE1CA10          VMSR      FPSCR, V9             ; [DPU_4_PIPE0] 
    2648 00000284 E8BD1000          LDMFD     SP!, {V9}             ; [DPU_4_PIPE0] 
    2649                            .dwcfi  cfa_offset, 24
    2650 00000288 EEE8CA10          VMSR      FPEXC, V9             ; [DPU_4_PIPE0] 
    2651 0000028c E8BD500F          LDMFD     SP!, {A1, A2, A3, A4, V9, LR} ; [DPU_4_PIPE0] 
    2652                            .dwcfi  cfa_offset, 0
    2653                            .dwcfi  restore_reg, 14
    2654                            .dwcfi  restore_reg, 12
    2655                            .dwcfi  restore_reg, 3
    2656                            .dwcfi  restore_reg, 2
    2657                            .dwcfi  restore_reg, 1
    2658                            .dwcfi  restore_reg, 0
    2659                    $C$DW$128       .dwtag  DW_TAG_TI_branch
    2660                            .dwattr $C$DW$128, DW_AT_low_pc(0x00)
    2661                            .dwattr $C$DW$128, DW_AT_TI_return
    2662                    
    2663 00000290 E25EF004          SUBS      PC, LR, #4            ; [DPU_4_PIPE1] 
    2664                            ; BRANCH OCCURS                  ; [] 
    2665                            .dwattr $C$DW$123, DW_AT_TI_end_file("../hcg/source/HL_esm.c")
    2666                            .dwattr $C$DW$123, DW_AT_TI_end_line(0x412)
    2667                            .dwattr $C$DW$123, DW_AT_TI_end_column(0x01)
    2668                            .dwendentry
    2669                            .dwendtag $C$DW$123
    2670                    
    2671                    ;******************************************************************************
    2672                    ;* CONSTANT TABLE                                                             *
    2673                    ;******************************************************************************
    2674 00000748                   .sect   ".text"
    2675                            .align  4
    2676 00000748 FFFFF504  ||$C$CON1||:    .bits   -2812,32
    2677                            .align  4
    2678 0000074c FFFFF544  ||$C$CON2||:    .bits   -2748,32
    2679                            .align  4
    2680 00000750 FFFFF584  ||$C$CON3||:    .bits   -2684,32
    2681                            .align  4
    2682 00000754 FFFFF50C  ||$C$CON4||:    .bits   -2804,32
    2683                            .align  4
    2684 00000758 FFFFF54C  ||$C$CON5||:    .bits   -2740,32
    2685                            .align  4
    2686 0000075c FFFFF58C  ||$C$CON6||:    .bits   -2676,32
    2687                            .align  4
    2688 00000760 FFFFF518  ||$C$CON7||:    .bits   -2792,32
    2689                            .align  4
    2690 00000764 FFFFF51C  ||$C$CON8||:    .bits   -2788,32
    2691                            .align  4
    2692 00000768 FFFFF53C  ||$C$CON9||:    .bits   -2756,32
    2693                            .align  4
    2694 0000076c FFFFF520  ||$C$CON10||:   .bits   -2784,32
    2695                            .align  4
TI ARM Assembler PC v16.9.0 Thu Feb 16 13:27:09 2017

Tools Copyright (c) 1996-2015 Texas Instruments Incorporated
C:\Users\bob\AppData\Local\Temp\1063210                              PAGE   50

    2696 00000770 FFFFF558  ||$C$CON11||:   .bits   -2728,32
    2697                            .align  4
    2698 00000774 FFFFF55C  ||$C$CON12||:   .bits   -2724,32
    2699                            .align  4
    2700 00000778 FFFFF560  ||$C$CON13||:   .bits   -2720,32
    2701                            .align  4
    2702 0000077c FFFFF598  ||$C$CON14||:   .bits   -2664,32
    2703                            .align  4
    2704 00000780 FFFFF59C  ||$C$CON15||:   .bits   -2660,32
    2705                            .align  4
    2706 00000784 FFFFF5A0  ||$C$CON16||:   .bits   -2656,32
    2707                            .align  4
    2708 00000788 FFFFF534  ||$C$CON17||:   .bits   -2764,32
    2709                            .align  4
    2710 0000078c FFFFF524  ||$C$CON18||:   .bits   -2780,32
    2711                            .align  4
    2712 00000790 FFFFF538  ||$C$CON19||:   .bits   -2760,32
    2713                            .align  4
    2714 00000794 FFFFF514  ||$C$CON20||:   .bits   -2796,32
    2715                            .align  4
    2716 00000798 FFFFF554  ||$C$CON21||:   .bits   -2732,32
    2717                            .align  4
    2718 0000079c FFFFF594  ||$C$CON22||:   .bits   -2668,32
    2719                            .align  4
    2720 000007a0 FFFFF510  ||$C$CON23||:   .bits   -2800,32
    2721                            .align  4
    2722 000007a4 FFFFF550  ||$C$CON24||:   .bits   -2736,32
    2723                            .align  4
    2724 000007a8 FFFFF590  ||$C$CON25||:   .bits   -2672,32
    2725                            .align  4
    2726 000007ac FFFFF500  ||$C$CON26||:   .bits   -2816,32
    2727                            .align  4
    2728 000007b0 FFFFF540  ||$C$CON27||:   .bits   -2752,32
    2729                            .align  4
    2730 000007b4 FFFFF580  ||$C$CON28||:   .bits   -2688,32
    2731                            .align  4
    2732 000007b8 FFFFF508  ||$C$CON29||:   .bits   -2808,32
    2733                            .align  4
    2734 000007bc 8DE60C58  ||$C$CON30||:   .bits   -1914303400,32
    2735                            .align  4
    2736 000007c0 FFFFF548  ||$C$CON31||:   .bits   -2744,32
    2737                            .align  4
    2738 000007c4 000E03C0  ||$C$CON32||:   .bits   918464,32
    2739                            .align  4
    2740 000007c8 FFFFF588  ||$C$CON33||:   .bits   -2680,32
    2741                            .align  4
    2742 000007cc 0007FE00  ||$C$CON34||:   .bits   523776,32
    2743                    ;******************************************************************************
    2744                    ;* CONSTANT TABLE                                                             *
    2745                    ;******************************************************************************
    2746 00000294                   .sect   ".text:retain"
    2747                            .align  4
    2748 00000294 FFFFF528  ||$C$CON35||:   .bits   -2776,32
    2749                            .align  4
    2750 00000298 FFFFF518  ||$C$CON36||:   .bits   -2792,32
TI ARM Assembler PC v16.9.0 Thu Feb 16 13:27:09 2017

Tools Copyright (c) 1996-2015 Texas Instruments Incorporated
C:\Users\bob\AppData\Local\Temp\1063210                              PAGE   51

    2751                            .align  4
    2752 0000029c FFFFF500  ||$C$CON37||:   .bits   -2816,32
    2753                            .align  4
    2754 000002a0 FFFFF51C  ||$C$CON38||:   .bits   -2788,32
    2755                            .align  4
    2756 000002a4 FFFFF558  ||$C$CON39||:   .bits   -2728,32
    2757                            .align  4
    2758 000002a8 FFFFF598  ||$C$CON40||:   .bits   -2664,32
    2759                            .align  4
    2760 000002ac FFFFF55C  ||$C$CON41||:   .bits   -2724,32
    2761                            .align  4
    2762 000002b0 FFFFF52C  ||$C$CON42||:   .bits   -2772,32
    2763                    ;*****************************************************************************
    2764                    ;* UNDEFINED EXTERNAL REFERENCES                                             *
    2765                    ;*****************************************************************************
    2766                            .global esmGroup1Notification
    2767                            .global esmGroup2Notification
    2768                    
    2769                    ;******************************************************************************
    2770                    ;* BUILD ATTRIBUTES                                                           *
    2771                    ;******************************************************************************
    2772                            .battr "aeabi", Tag_File, 1, Tag_ABI_PCS_wchar_t(2)
    2773                            .battr "aeabi", Tag_File, 1, Tag_ABI_FP_rounding(0)
    2774                            .battr "aeabi", Tag_File, 1, Tag_ABI_FP_denormal(0)
    2775                            .battr "aeabi", Tag_File, 1, Tag_ABI_FP_exceptions(0)
    2776                            .battr "aeabi", Tag_File, 1, Tag_ABI_FP_number_model(1)
    2777                            .battr "aeabi", Tag_File, 1, Tag_ABI_enum_size(1)
    2778                            .battr "aeabi", Tag_File, 1, Tag_ABI_optimization_goals(5)
    2779                            .battr "aeabi", Tag_File, 1, Tag_ABI_FP_optimization_goals(0)
    2780                            .battr "TI", Tag_File, 1, Tag_Bitfield_layout(2)
    2781                            .battr "aeabi", Tag_File, 1, Tag_ABI_VFP_args(3)
    2782                            .battr "TI", Tag_File, 1, Tag_FP_interface(1)
    2783                    
    2784                    ;******************************************************************************
    2785                    ;* TYPE INFORMATION                                                           *
    2786                    ;******************************************************************************
    2787                    $C$DW$T$2       .dwtag  DW_TAG_unspecified_type
    2788                            .dwattr $C$DW$T$2, DW_AT_name("void")
    2789                    
    2790                    
    2791                    $C$DW$T$34      .dwtag  DW_TAG_subroutine_type
    2792                            .dwattr $C$DW$T$34, DW_AT_language(DW_LANG_C)
    2793                            .dwendtag $C$DW$T$34
    2794                    
    2795                    $C$DW$T$35      .dwtag  DW_TAG_pointer_type
    2796                            .dwattr $C$DW$T$35, DW_AT_type(*$C$DW$T$34)
    2797                            .dwattr $C$DW$T$35, DW_AT_address_class(0x20)
    2798                    
    2799                    $C$DW$T$36      .dwtag  DW_TAG_typedef
    2800                            .dwattr $C$DW$T$36, DW_AT_name("t_isrFuncPTR")
    2801                            .dwattr $C$DW$T$36, DW_AT_type(*$C$DW$T$35)
    2802                            .dwattr $C$DW$T$36, DW_AT_language(DW_LANG_C)
    2803                            .dwattr $C$DW$T$36, DW_AT_decl_file("C:/Users/bob/Documents/Projects/induct_forge/RM57Lx_test/
    2804                            .dwattr $C$DW$T$36, DW_AT_decl_line(0x40)
    2805                            .dwattr $C$DW$T$36, DW_AT_decl_column(0x10)
TI ARM Assembler PC v16.9.0 Thu Feb 16 13:27:09 2017

Tools Copyright (c) 1996-2015 Texas Instruments Incorporated
C:\Users\bob\AppData\Local\Temp\1063210                              PAGE   52

    2806                    
    2807                    $C$DW$T$4       .dwtag  DW_TAG_base_type
    2808                            .dwattr $C$DW$T$4, DW_AT_encoding(DW_ATE_boolean)
    2809                            .dwattr $C$DW$T$4, DW_AT_name("bool")
    2810                            .dwattr $C$DW$T$4, DW_AT_byte_size(0x01)
    2811                    
    2812                    $C$DW$T$5       .dwtag  DW_TAG_base_type
    2813                            .dwattr $C$DW$T$5, DW_AT_encoding(DW_ATE_signed_char)
    2814                            .dwattr $C$DW$T$5, DW_AT_name("signed char")
    2815                            .dwattr $C$DW$T$5, DW_AT_byte_size(0x01)
    2816                    
    2817                    $C$DW$T$48      .dwtag  DW_TAG_typedef
    2818                            .dwattr $C$DW$T$48, DW_AT_name("int8_t")
    2819                            .dwattr $C$DW$T$48, DW_AT_type(*$C$DW$T$5)
    2820                            .dwattr $C$DW$T$48, DW_AT_language(DW_LANG_C)
    2821                            .dwattr $C$DW$T$48, DW_AT_decl_file("C:/ti/ccsv7/tools/compiler/ti-cgt-arm_16.9.0.LTS/include/
    2822                            .dwattr $C$DW$T$48, DW_AT_decl_line(0x2a)
    2823                            .dwattr $C$DW$T$48, DW_AT_decl_column(0x1d)
    2824                    
    2825                    $C$DW$T$49      .dwtag  DW_TAG_typedef
    2826                            .dwattr $C$DW$T$49, DW_AT_name("int_least8_t")
    2827                            .dwattr $C$DW$T$49, DW_AT_type(*$C$DW$T$48)
    2828                            .dwattr $C$DW$T$49, DW_AT_language(DW_LANG_C)
    2829                            .dwattr $C$DW$T$49, DW_AT_decl_file("C:/ti/ccsv7/tools/compiler/ti-cgt-arm_16.9.0.LTS/include/
    2830                            .dwattr $C$DW$T$49, DW_AT_decl_line(0x37)
    2831                            .dwattr $C$DW$T$49, DW_AT_decl_column(0x17)
    2832                    
    2833                    $C$DW$T$50      .dwtag  DW_TAG_typedef
    2834                            .dwattr $C$DW$T$50, DW_AT_name("sint8")
    2835                            .dwattr $C$DW$T$50, DW_AT_type(*$C$DW$T$48)
    2836                            .dwattr $C$DW$T$50, DW_AT_language(DW_LANG_C)
    2837                            .dwattr $C$DW$T$50, DW_AT_decl_file("C:\Users\bob\Documents\Projects\induct_forge\RM57Lx_test\
    2838                            .dwattr $C$DW$T$50, DW_AT_decl_line(0x68)
    2839                            .dwattr $C$DW$T$50, DW_AT_decl_column(0x10)
    2840                    
    2841                    $C$DW$T$6       .dwtag  DW_TAG_base_type
    2842                            .dwattr $C$DW$T$6, DW_AT_encoding(DW_ATE_unsigned_char)
    2843                            .dwattr $C$DW$T$6, DW_AT_name("unsigned char")
    2844                            .dwattr $C$DW$T$6, DW_AT_byte_size(0x01)
    2845                    
    2846                    $C$DW$T$51      .dwtag  DW_TAG_typedef
    2847                            .dwattr $C$DW$T$51, DW_AT_name("uint8_t")
    2848                            .dwattr $C$DW$T$51, DW_AT_type(*$C$DW$T$6)
    2849                            .dwattr $C$DW$T$51, DW_AT_language(DW_LANG_C)
    2850                            .dwattr $C$DW$T$51, DW_AT_decl_file("C:/ti/ccsv7/tools/compiler/ti-cgt-arm_16.9.0.LTS/include/
    2851                            .dwattr $C$DW$T$51, DW_AT_decl_line(0x2b)
    2852                            .dwattr $C$DW$T$51, DW_AT_decl_column(0x1c)
    2853                    
    2854                    $C$DW$T$52      .dwtag  DW_TAG_typedef
    2855                            .dwattr $C$DW$T$52, DW_AT_name("uint8")
    2856                            .dwattr $C$DW$T$52, DW_AT_type(*$C$DW$T$51)
    2857                            .dwattr $C$DW$T$52, DW_AT_language(DW_LANG_C)
    2858                            .dwattr $C$DW$T$52, DW_AT_decl_file("C:\Users\bob\Documents\Projects\induct_forge\RM57Lx_test\
    2859                            .dwattr $C$DW$T$52, DW_AT_decl_line(0x4b)
    2860                            .dwattr $C$DW$T$52, DW_AT_decl_column(0x11)
TI ARM Assembler PC v16.9.0 Thu Feb 16 13:27:09 2017

Tools Copyright (c) 1996-2015 Texas Instruments Incorporated
C:\Users\bob\AppData\Local\Temp\1063210                              PAGE   53

    2861                    
    2862                    $C$DW$T$53      .dwtag  DW_TAG_typedef
    2863                            .dwattr $C$DW$T$53, DW_AT_name("uint_least8_t")
    2864                            .dwattr $C$DW$T$53, DW_AT_type(*$C$DW$T$51)
    2865                            .dwattr $C$DW$T$53, DW_AT_language(DW_LANG_C)
    2866                            .dwattr $C$DW$T$53, DW_AT_decl_file("C:/ti/ccsv7/tools/compiler/ti-cgt-arm_16.9.0.LTS/include/
    2867                            .dwattr $C$DW$T$53, DW_AT_decl_line(0x38)
    2868                            .dwattr $C$DW$T$53, DW_AT_decl_column(0x16)
    2869                    
    2870                    $C$DW$T$7       .dwtag  DW_TAG_base_type
    2871                            .dwattr $C$DW$T$7, DW_AT_encoding(DW_ATE_signed_char)
    2872                            .dwattr $C$DW$T$7, DW_AT_name("wchar_t")
    2873                            .dwattr $C$DW$T$7, DW_AT_byte_size(0x02)
    2874                    
    2875                    $C$DW$T$8       .dwtag  DW_TAG_base_type
    2876                            .dwattr $C$DW$T$8, DW_AT_encoding(DW_ATE_signed)
    2877                            .dwattr $C$DW$T$8, DW_AT_name("short")
    2878                            .dwattr $C$DW$T$8, DW_AT_byte_size(0x02)
    2879                    
    2880                    $C$DW$T$54      .dwtag  DW_TAG_typedef
    2881                            .dwattr $C$DW$T$54, DW_AT_name("int16_t")
    2882                            .dwattr $C$DW$T$54, DW_AT_type(*$C$DW$T$8)
    2883                            .dwattr $C$DW$T$54, DW_AT_language(DW_LANG_C)
    2884                            .dwattr $C$DW$T$54, DW_AT_decl_file("C:/ti/ccsv7/tools/compiler/ti-cgt-arm_16.9.0.LTS/include/
    2885                            .dwattr $C$DW$T$54, DW_AT_decl_line(0x2c)
    2886                            .dwattr $C$DW$T$54, DW_AT_decl_column(0x1d)
    2887                    
    2888                    $C$DW$T$55      .dwtag  DW_TAG_typedef
    2889                            .dwattr $C$DW$T$55, DW_AT_name("int_least16_t")
    2890                            .dwattr $C$DW$T$55, DW_AT_type(*$C$DW$T$54)
    2891                            .dwattr $C$DW$T$55, DW_AT_language(DW_LANG_C)
    2892                            .dwattr $C$DW$T$55, DW_AT_decl_file("C:/ti/ccsv7/tools/compiler/ti-cgt-arm_16.9.0.LTS/include/
    2893                            .dwattr $C$DW$T$55, DW_AT_decl_line(0x3a)
    2894                            .dwattr $C$DW$T$55, DW_AT_decl_column(0x17)
    2895                    
    2896                    $C$DW$T$56      .dwtag  DW_TAG_typedef
    2897                            .dwattr $C$DW$T$56, DW_AT_name("sint16")
    2898                            .dwattr $C$DW$T$56, DW_AT_type(*$C$DW$T$54)
    2899                            .dwattr $C$DW$T$56, DW_AT_language(DW_LANG_C)
    2900                            .dwattr $C$DW$T$56, DW_AT_decl_file("C:\Users\bob\Documents\Projects\induct_forge\RM57Lx_test\
    2901                            .dwattr $C$DW$T$56, DW_AT_decl_line(0x63)
    2902                            .dwattr $C$DW$T$56, DW_AT_decl_column(0x11)
    2903                    
    2904                    $C$DW$T$9       .dwtag  DW_TAG_base_type
    2905                            .dwattr $C$DW$T$9, DW_AT_encoding(DW_ATE_unsigned)
    2906                            .dwattr $C$DW$T$9, DW_AT_name("unsigned short")
    2907                            .dwattr $C$DW$T$9, DW_AT_byte_size(0x02)
    2908                    
    2909                    $C$DW$T$57      .dwtag  DW_TAG_typedef
    2910                            .dwattr $C$DW$T$57, DW_AT_name("uint16_t")
    2911                            .dwattr $C$DW$T$57, DW_AT_type(*$C$DW$T$9)
    2912                            .dwattr $C$DW$T$57, DW_AT_language(DW_LANG_C)
    2913                            .dwattr $C$DW$T$57, DW_AT_decl_file("C:/ti/ccsv7/tools/compiler/ti-cgt-arm_16.9.0.LTS/include/
    2914                            .dwattr $C$DW$T$57, DW_AT_decl_line(0x2d)
    2915                            .dwattr $C$DW$T$57, DW_AT_decl_column(0x1c)
TI ARM Assembler PC v16.9.0 Thu Feb 16 13:27:09 2017

Tools Copyright (c) 1996-2015 Texas Instruments Incorporated
C:\Users\bob\AppData\Local\Temp\1063210                              PAGE   54

    2916                    
    2917                    $C$DW$T$58      .dwtag  DW_TAG_typedef
    2918                            .dwattr $C$DW$T$58, DW_AT_name("uint16")
    2919                            .dwattr $C$DW$T$58, DW_AT_type(*$C$DW$T$57)
    2920                            .dwattr $C$DW$T$58, DW_AT_language(DW_LANG_C)
    2921                            .dwattr $C$DW$T$58, DW_AT_decl_file("C:\Users\bob\Documents\Projects\induct_forge\RM57Lx_test\
    2922                            .dwattr $C$DW$T$58, DW_AT_decl_line(0x46)
    2923                            .dwattr $C$DW$T$58, DW_AT_decl_column(0x12)
    2924                    
    2925                    $C$DW$T$59      .dwtag  DW_TAG_typedef
    2926                            .dwattr $C$DW$T$59, DW_AT_name("uint_least16_t")
    2927                            .dwattr $C$DW$T$59, DW_AT_type(*$C$DW$T$57)
    2928                            .dwattr $C$DW$T$59, DW_AT_language(DW_LANG_C)
    2929                            .dwattr $C$DW$T$59, DW_AT_decl_file("C:/ti/ccsv7/tools/compiler/ti-cgt-arm_16.9.0.LTS/include/
    2930                            .dwattr $C$DW$T$59, DW_AT_decl_line(0x3b)
    2931                            .dwattr $C$DW$T$59, DW_AT_decl_column(0x16)
    2932                    
    2933                    $C$DW$T$10      .dwtag  DW_TAG_base_type
    2934                            .dwattr $C$DW$T$10, DW_AT_encoding(DW_ATE_signed)
    2935                            .dwattr $C$DW$T$10, DW_AT_name("int")
    2936                            .dwattr $C$DW$T$10, DW_AT_byte_size(0x04)
    2937                    
    2938                    $C$DW$T$60      .dwtag  DW_TAG_typedef
    2939                            .dwattr $C$DW$T$60, DW_AT_name("int32_t")
    2940                            .dwattr $C$DW$T$60, DW_AT_type(*$C$DW$T$10)
    2941                            .dwattr $C$DW$T$60, DW_AT_language(DW_LANG_C)
    2942                            .dwattr $C$DW$T$60, DW_AT_decl_file("C:/ti/ccsv7/tools/compiler/ti-cgt-arm_16.9.0.LTS/include/
    2943                            .dwattr $C$DW$T$60, DW_AT_decl_line(0x2e)
    2944                            .dwattr $C$DW$T$60, DW_AT_decl_column(0x1d)
    2945                    
    2946                    $C$DW$T$61      .dwtag  DW_TAG_typedef
    2947                            .dwattr $C$DW$T$61, DW_AT_name("int_fast16_t")
    2948                            .dwattr $C$DW$T$61, DW_AT_type(*$C$DW$T$60)
    2949                            .dwattr $C$DW$T$61, DW_AT_language(DW_LANG_C)
    2950                            .dwattr $C$DW$T$61, DW_AT_decl_file("C:/ti/ccsv7/tools/compiler/ti-cgt-arm_16.9.0.LTS/include/
    2951                            .dwattr $C$DW$T$61, DW_AT_decl_line(0x47)
    2952                            .dwattr $C$DW$T$61, DW_AT_decl_column(0x17)
    2953                    
    2954                    $C$DW$T$62      .dwtag  DW_TAG_typedef
    2955                            .dwattr $C$DW$T$62, DW_AT_name("int_fast32_t")
    2956                            .dwattr $C$DW$T$62, DW_AT_type(*$C$DW$T$60)
    2957                            .dwattr $C$DW$T$62, DW_AT_language(DW_LANG_C)
    2958                            .dwattr $C$DW$T$62, DW_AT_decl_file("C:/ti/ccsv7/tools/compiler/ti-cgt-arm_16.9.0.LTS/include/
    2959                            .dwattr $C$DW$T$62, DW_AT_decl_line(0x4a)
    2960                            .dwattr $C$DW$T$62, DW_AT_decl_column(0x17)
    2961                    
    2962                    $C$DW$T$63      .dwtag  DW_TAG_typedef
    2963                            .dwattr $C$DW$T$63, DW_AT_name("int_fast8_t")
    2964                            .dwattr $C$DW$T$63, DW_AT_type(*$C$DW$T$60)
    2965                            .dwattr $C$DW$T$63, DW_AT_language(DW_LANG_C)
    2966                            .dwattr $C$DW$T$63, DW_AT_decl_file("C:/ti/ccsv7/tools/compiler/ti-cgt-arm_16.9.0.LTS/include/
    2967                            .dwattr $C$DW$T$63, DW_AT_decl_line(0x45)
    2968                            .dwattr $C$DW$T$63, DW_AT_decl_column(0x17)
    2969                    
    2970                    $C$DW$T$64      .dwtag  DW_TAG_typedef
TI ARM Assembler PC v16.9.0 Thu Feb 16 13:27:09 2017

Tools Copyright (c) 1996-2015 Texas Instruments Incorporated
C:\Users\bob\AppData\Local\Temp\1063210                              PAGE   55

    2971                            .dwattr $C$DW$T$64, DW_AT_name("int_least32_t")
    2972                            .dwattr $C$DW$T$64, DW_AT_type(*$C$DW$T$60)
    2973                            .dwattr $C$DW$T$64, DW_AT_language(DW_LANG_C)
    2974                            .dwattr $C$DW$T$64, DW_AT_decl_file("C:/ti/ccsv7/tools/compiler/ti-cgt-arm_16.9.0.LTS/include/
    2975                            .dwattr $C$DW$T$64, DW_AT_decl_line(0x3c)
    2976                            .dwattr $C$DW$T$64, DW_AT_decl_column(0x17)
    2977                    
    2978                    $C$DW$T$65      .dwtag  DW_TAG_typedef
    2979                            .dwattr $C$DW$T$65, DW_AT_name("sint32")
    2980                            .dwattr $C$DW$T$65, DW_AT_type(*$C$DW$T$60)
    2981                            .dwattr $C$DW$T$65, DW_AT_language(DW_LANG_C)
    2982                            .dwattr $C$DW$T$65, DW_AT_decl_file("C:\Users\bob\Documents\Projects\induct_forge\RM57Lx_test\
    2983                            .dwattr $C$DW$T$65, DW_AT_decl_line(0x5e)
    2984                            .dwattr $C$DW$T$65, DW_AT_decl_column(0x11)
    2985                    
    2986                    $C$DW$T$66      .dwtag  DW_TAG_typedef
    2987                            .dwattr $C$DW$T$66, DW_AT_name("intptr_t")
    2988                            .dwattr $C$DW$T$66, DW_AT_type(*$C$DW$T$10)
    2989                            .dwattr $C$DW$T$66, DW_AT_language(DW_LANG_C)
    2990                            .dwattr $C$DW$T$66, DW_AT_decl_file("C:/ti/ccsv7/tools/compiler/ti-cgt-arm_16.9.0.LTS/include/
    2991                            .dwattr $C$DW$T$66, DW_AT_decl_line(0x52)
    2992                            .dwattr $C$DW$T$66, DW_AT_decl_column(0x1a)
    2993                    
    2994                    $C$DW$T$11      .dwtag  DW_TAG_base_type
    2995                            .dwattr $C$DW$T$11, DW_AT_encoding(DW_ATE_unsigned)
    2996                            .dwattr $C$DW$T$11, DW_AT_name("unsigned int")
    2997                            .dwattr $C$DW$T$11, DW_AT_byte_size(0x04)
    2998                    
    2999                    $C$DW$T$19      .dwtag  DW_TAG_typedef
    3000                            .dwattr $C$DW$T$19, DW_AT_name("uint32_t")
    3001                            .dwattr $C$DW$T$19, DW_AT_type(*$C$DW$T$11)
    3002                            .dwattr $C$DW$T$19, DW_AT_language(DW_LANG_C)
    3003                            .dwattr $C$DW$T$19, DW_AT_decl_file("C:/ti/ccsv7/tools/compiler/ti-cgt-arm_16.9.0.LTS/include/
    3004                            .dwattr $C$DW$T$19, DW_AT_decl_line(0x2f)
    3005                            .dwattr $C$DW$T$19, DW_AT_decl_column(0x1c)
    3006                    
    3007                    $C$DW$T$20      .dwtag  DW_TAG_typedef
    3008                            .dwattr $C$DW$T$20, DW_AT_name("uint32")
    3009                            .dwattr $C$DW$T$20, DW_AT_type(*$C$DW$T$19)
    3010                            .dwattr $C$DW$T$20, DW_AT_language(DW_LANG_C)
    3011                            .dwattr $C$DW$T$20, DW_AT_decl_file("C:\Users\bob\Documents\Projects\induct_forge\RM57Lx_test\
    3012                            .dwattr $C$DW$T$20, DW_AT_decl_line(0x41)
    3013                            .dwattr $C$DW$T$20, DW_AT_decl_column(0x12)
    3014                    
    3015                    
    3016                    $C$DW$T$21      .dwtag  DW_TAG_array_type
    3017                            .dwattr $C$DW$T$21, DW_AT_type(*$C$DW$T$20)
    3018                            .dwattr $C$DW$T$21, DW_AT_language(DW_LANG_C)
    3019                            .dwattr $C$DW$T$21, DW_AT_byte_size(0x0c)
    3020                    $C$DW$129       .dwtag  DW_TAG_subrange_type
    3021                            .dwattr $C$DW$129, DW_AT_upper_bound(0x02)
    3022                    
    3023                            .dwendtag $C$DW$T$21
    3024                    
    3025                    
TI ARM Assembler PC v16.9.0 Thu Feb 16 13:27:09 2017

Tools Copyright (c) 1996-2015 Texas Instruments Incorporated
C:\Users\bob\AppData\Local\Temp\1063210                              PAGE   56

    3026                    $C$DW$T$22      .dwtag  DW_TAG_array_type
    3027                            .dwattr $C$DW$T$22, DW_AT_type(*$C$DW$T$20)
    3028                            .dwattr $C$DW$T$22, DW_AT_language(DW_LANG_C)
    3029                            .dwattr $C$DW$T$22, DW_AT_byte_size(0x1c)
    3030                    $C$DW$130       .dwtag  DW_TAG_subrange_type
    3031                            .dwattr $C$DW$130, DW_AT_upper_bound(0x06)
    3032                    
    3033                            .dwendtag $C$DW$T$22
    3034                    
    3035                    
    3036                    $C$DW$T$25      .dwtag  DW_TAG_array_type
    3037                            .dwattr $C$DW$T$25, DW_AT_type(*$C$DW$T$20)
    3038                            .dwattr $C$DW$T$25, DW_AT_language(DW_LANG_C)
    3039                            .dwattr $C$DW$T$25, DW_AT_byte_size(0xec)
    3040                    $C$DW$131       .dwtag  DW_TAG_subrange_type
    3041                            .dwattr $C$DW$131, DW_AT_upper_bound(0x3a)
