TI ARM Assembler PC v16.9.0 Thu Feb 16 13:27:10 2017

Tools Copyright (c) 1996-2015 Texas Instruments Incorporated
C:\Users\bob\AppData\Local\Temp\1678410                              PAGE    1

       1                    ;******************************************************************************
       2                    ;* TI ARM C/C++ Codegen                                        PC v16.9.0.LTS *
       3                    ;* Date/Time created: Thu Feb 16 13:27:09 2017                                *
       4                    ;******************************************************************************
       5                            .compiler_opts --abi=eabi --arm_vmrs_si_workaround=off --code_state=32 --diag_wrap=off --embed
       6 00000000                   .state32
       7                    
       8                    $C$DW$CU        .dwtag  DW_TAG_compile_unit
       9                            .dwattr $C$DW$CU, DW_AT_name("../hcg/source/HL_notification.c")
      10                            .dwattr $C$DW$CU, DW_AT_producer("TI TI ARM C/C++ Codegen PC v16.9.0.LTS Copyright (c) 1996-20
      11                            .dwattr $C$DW$CU, DW_AT_TI_version(0x01)
      12                            .dwattr $C$DW$CU, DW_AT_comp_dir("C:\Users\bob\Documents\Projects\induct_forge\RM57Lx_test\Pro
      13                            .global button_pressed_counter
      14 00000000                   .data
      15                            .align  4
      16                            .elfsym button_pressed_counter,SYM_SIZE(4)
      17 00000000           button_pressed_counter:
      18 00000000 00000000          .bits   0,32                    ; button_pressed_counter @ 0
      19                    
      20                    $C$DW$1 .dwtag  DW_TAG_variable
      21                            .dwattr $C$DW$1, DW_AT_name("button_pressed_counter")
      22                            .dwattr $C$DW$1, DW_AT_TI_symbol_name("button_pressed_counter")
      23                            .dwattr $C$DW$1, DW_AT_location[DW_OP_addr button_pressed_counter]
      24                            .dwattr $C$DW$1, DW_AT_type(*$C$DW$T$20)
      25                            .dwattr $C$DW$1, DW_AT_external
      26                            .dwattr $C$DW$1, DW_AT_decl_file("../hcg/source/HL_notification.c")
      27                            .dwattr $C$DW$1, DW_AT_decl_line(0x76)
      28                            .dwattr $C$DW$1, DW_AT_decl_column(0x08)
      29                    
      30                            .global button2_pressed_counter
      31 00000004                   .data
      32                            .align  4
      33                            .elfsym button2_pressed_counter,SYM_SIZE(4)
      34 00000004           button2_pressed_counter:
      35 00000004 00000000          .bits   0,32                    ; button2_pressed_counter @ 0
      36                    
      37                    $C$DW$2 .dwtag  DW_TAG_variable
      38                            .dwattr $C$DW$2, DW_AT_name("button2_pressed_counter")
      39                            .dwattr $C$DW$2, DW_AT_TI_symbol_name("button2_pressed_counter")
      40                            .dwattr $C$DW$2, DW_AT_location[DW_OP_addr button2_pressed_counter]
      41                            .dwattr $C$DW$2, DW_AT_type(*$C$DW$T$20)
      42                            .dwattr $C$DW$2, DW_AT_external
      43                            .dwattr $C$DW$2, DW_AT_decl_file("../hcg/source/HL_notification.c")
      44                            .dwattr $C$DW$2, DW_AT_decl_line(0x77)
      45                            .dwattr $C$DW$2, DW_AT_decl_column(0x08)
      46                    
      47                            .global blUSER1_now_pressed
      48 00000008                   .data
      49                            .align  1
      50                            .elfsym blUSER1_now_pressed,SYM_SIZE(1)
      51 00000008           blUSER1_now_pressed:
      52 00000008 00000000          .bits   0,8                     ; blUSER1_now_pressed @ 0
      53                    
      54                    $C$DW$3 .dwtag  DW_TAG_variable
      55                            .dwattr $C$DW$3, DW_AT_name("blUSER1_now_pressed")
TI ARM Assembler PC v16.9.0 Thu Feb 16 13:27:10 2017

Tools Copyright (c) 1996-2015 Texas Instruments Incorporated
C:\Users\bob\AppData\Local\Temp\1678410                              PAGE    2

      56                            .dwattr $C$DW$3, DW_AT_TI_symbol_name("blUSER1_now_pressed")
      57                            .dwattr $C$DW$3, DW_AT_location[DW_OP_addr blUSER1_now_pressed]
      58                            .dwattr $C$DW$3, DW_AT_type(*$C$DW$T$136)
      59                            .dwattr $C$DW$3, DW_AT_external
      60                            .dwattr $C$DW$3, DW_AT_decl_file("../hcg/source/HL_notification.c")
      61                            .dwattr $C$DW$3, DW_AT_decl_line(0x78)
      62                            .dwattr $C$DW$3, DW_AT_decl_column(0x09)
      63                    
      64                            .global blUSER1_was_pressed
      65 00000009                   .data
      66                            .align  1
      67                            .elfsym blUSER1_was_pressed,SYM_SIZE(1)
      68 00000009           blUSER1_was_pressed:
      69 00000008 00000000          .bits   0,8                     ; blUSER1_was_pressed @ 0
      70                    
      71                    $C$DW$4 .dwtag  DW_TAG_variable
      72                            .dwattr $C$DW$4, DW_AT_name("blUSER1_was_pressed")
      73                            .dwattr $C$DW$4, DW_AT_TI_symbol_name("blUSER1_was_pressed")
      74                            .dwattr $C$DW$4, DW_AT_location[DW_OP_addr blUSER1_was_pressed]
      75                            .dwattr $C$DW$4, DW_AT_type(*$C$DW$T$136)
      76                            .dwattr $C$DW$4, DW_AT_external
      77                            .dwattr $C$DW$4, DW_AT_decl_file("../hcg/source/HL_notification.c")
      78                            .dwattr $C$DW$4, DW_AT_decl_line(0x79)
      79                            .dwattr $C$DW$4, DW_AT_decl_column(0x09)
      80                    
      81                            .global blUSER2_now_pressed
      82 0000000a                   .data
      83                            .align  1
      84                            .elfsym blUSER2_now_pressed,SYM_SIZE(1)
      85 0000000a           blUSER2_now_pressed:
      86 00000008 00000000          .bits   0,8                     ; blUSER2_now_pressed @ 0
      87                    
      88                    $C$DW$5 .dwtag  DW_TAG_variable
      89                            .dwattr $C$DW$5, DW_AT_name("blUSER2_now_pressed")
      90                            .dwattr $C$DW$5, DW_AT_TI_symbol_name("blUSER2_now_pressed")
      91                            .dwattr $C$DW$5, DW_AT_location[DW_OP_addr blUSER2_now_pressed]
      92                            .dwattr $C$DW$5, DW_AT_type(*$C$DW$T$136)
      93                            .dwattr $C$DW$5, DW_AT_external
      94                            .dwattr $C$DW$5, DW_AT_decl_file("../hcg/source/HL_notification.c")
      95                            .dwattr $C$DW$5, DW_AT_decl_line(0x7a)
      96                            .dwattr $C$DW$5, DW_AT_decl_column(0x09)
      97                    
      98                            .global blUSER2_was_pressed
      99 0000000b                   .data
     100                            .align  1
     101                            .elfsym blUSER2_was_pressed,SYM_SIZE(1)
     102 0000000b           blUSER2_was_pressed:
     103 00000008 00000000          .bits   0,8                     ; blUSER2_was_pressed @ 0
     104                    
     105                    $C$DW$6 .dwtag  DW_TAG_variable
     106                            .dwattr $C$DW$6, DW_AT_name("blUSER2_was_pressed")
     107                            .dwattr $C$DW$6, DW_AT_TI_symbol_name("blUSER2_was_pressed")
     108                            .dwattr $C$DW$6, DW_AT_location[DW_OP_addr blUSER2_was_pressed]
     109                            .dwattr $C$DW$6, DW_AT_type(*$C$DW$T$136)
     110                            .dwattr $C$DW$6, DW_AT_external
TI ARM Assembler PC v16.9.0 Thu Feb 16 13:27:10 2017

Tools Copyright (c) 1996-2015 Texas Instruments Incorporated
C:\Users\bob\AppData\Local\Temp\1678410                              PAGE    3

     111                            .dwattr $C$DW$6, DW_AT_decl_file("../hcg/source/HL_notification.c")
     112                            .dwattr $C$DW$6, DW_AT_decl_line(0x7b)
     113                            .dwattr $C$DW$6, DW_AT_decl_column(0x09)
     114                    
     115                            .global debounce_counter_1
     116 0000000c                   .data
     117                            .align  4
     118                            .elfsym debounce_counter_1,SYM_SIZE(4)
     119 0000000c           debounce_counter_1:
     120 0000000c 00000004          .bits   4,32                    ; debounce_counter_1 @ 0
     121                    
     122                    $C$DW$7 .dwtag  DW_TAG_variable
     123                            .dwattr $C$DW$7, DW_AT_name("debounce_counter_1")
     124                            .dwattr $C$DW$7, DW_AT_TI_symbol_name("debounce_counter_1")
     125                            .dwattr $C$DW$7, DW_AT_location[DW_OP_addr debounce_counter_1]
     126                            .dwattr $C$DW$7, DW_AT_type(*$C$DW$T$20)
     127                            .dwattr $C$DW$7, DW_AT_external
     128                            .dwattr $C$DW$7, DW_AT_decl_file("../hcg/source/HL_notification.c")
     129                            .dwattr $C$DW$7, DW_AT_decl_line(0x7c)
     130                            .dwattr $C$DW$7, DW_AT_decl_column(0x08)
     131                    
     132                            .global debounce_counter_0
     133 00000010                   .data
     134                            .align  4
     135                            .elfsym debounce_counter_0,SYM_SIZE(4)
     136 00000010           debounce_counter_0:
     137 00000010 00000004          .bits   4,32                    ; debounce_counter_0 @ 0
     138                    
     139                    $C$DW$8 .dwtag  DW_TAG_variable
     140                            .dwattr $C$DW$8, DW_AT_name("debounce_counter_0")
     141                            .dwattr $C$DW$8, DW_AT_TI_symbol_name("debounce_counter_0")
     142                            .dwattr $C$DW$8, DW_AT_location[DW_OP_addr debounce_counter_0]
     143                            .dwattr $C$DW$8, DW_AT_type(*$C$DW$T$20)
     144                            .dwattr $C$DW$8, DW_AT_external
     145                            .dwattr $C$DW$8, DW_AT_decl_file("../hcg/source/HL_notification.c")
     146                            .dwattr $C$DW$8, DW_AT_decl_line(0x7d)
     147                            .dwattr $C$DW$8, DW_AT_decl_column(0x08)
     148                    
     149                            .global u8PotStringBuf
     150                            .common u8PotStringBuf,100,1
     151                    $C$DW$9 .dwtag  DW_TAG_variable
     152                            .dwattr $C$DW$9, DW_AT_name("u8PotStringBuf")
     153                            .dwattr $C$DW$9, DW_AT_TI_symbol_name("u8PotStringBuf")
     154                            .dwattr $C$DW$9, DW_AT_location[DW_OP_addr u8PotStringBuf]
     155                            .dwattr $C$DW$9, DW_AT_type(*$C$DW$T$103)
     156                            .dwattr $C$DW$9, DW_AT_external
     157                            .dwattr $C$DW$9, DW_AT_decl_file("../hcg/source/HL_notification.c")
     158                            .dwattr $C$DW$9, DW_AT_decl_line(0x7e)
     159                            .dwattr $C$DW$9, DW_AT_decl_column(0x07)
     160                    
     161                    ;       C:\ti\ccsv7\tools\compiler\ti-cgt-arm_16.9.0.LTS\bin\armacpia.exe -@C:\\Users\\bob\\AppData\\L
     162 00000000                   .sect   ".text"
     163                            .clink
     164                            .armfunc esmGroup1Notification
     165 00000000                   .state32
TI ARM Assembler PC v16.9.0 Thu Feb 16 13:27:10 2017

Tools Copyright (c) 1996-2015 Texas Instruments Incorporated
C:\Users\bob\AppData\Local\Temp\1678410                              PAGE    4

     166                            .weak   esmGroup1Notification
     167                    
     168                    $C$DW$10        .dwtag  DW_TAG_subprogram
     169                            .dwattr $C$DW$10, DW_AT_name("esmGroup1Notification")
     170                            .dwattr $C$DW$10, DW_AT_low_pc(esmGroup1Notification)
     171                            .dwattr $C$DW$10, DW_AT_high_pc(0x00)
     172                            .dwattr $C$DW$10, DW_AT_TI_symbol_name("esmGroup1Notification")
     173                            .dwattr $C$DW$10, DW_AT_external
     174                            .dwattr $C$DW$10, DW_AT_TI_begin_file("../hcg/source/HL_notification.c")
     175                            .dwattr $C$DW$10, DW_AT_TI_begin_line(0x44)
     176                            .dwattr $C$DW$10, DW_AT_TI_begin_column(0x06)
     177                            .dwattr $C$DW$10, DW_AT_decl_file("../hcg/source/HL_notification.c")
     178                            .dwattr $C$DW$10, DW_AT_decl_line(0x44)
     179                            .dwattr $C$DW$10, DW_AT_decl_column(0x06)
     180                            .dwattr $C$DW$10, DW_AT_TI_max_frame_size(0x08)
     181                            .dwpsn  file "../hcg/source/HL_notification.c",line 69,column 1,is_stmt,address esmGroup1Notif
     182                    
     183                            .dwfde $C$DW$CIE, esmGroup1Notification
     184                    $C$DW$11        .dwtag  DW_TAG_formal_parameter
     185                            .dwattr $C$DW$11, DW_AT_name("esm")
     186                            .dwattr $C$DW$11, DW_AT_TI_symbol_name("esm")
     187                            .dwattr $C$DW$11, DW_AT_type(*$C$DW$T$81)
     188                            .dwattr $C$DW$11, DW_AT_location[DW_OP_reg0]
     189                    
     190                    $C$DW$12        .dwtag  DW_TAG_formal_parameter
     191                            .dwattr $C$DW$12, DW_AT_name("channel")
     192                            .dwattr $C$DW$12, DW_AT_TI_symbol_name("channel")
     193                            .dwattr $C$DW$12, DW_AT_type(*$C$DW$T$20)
     194                            .dwattr $C$DW$12, DW_AT_location[DW_OP_reg1]
     195                    
     196                    
     197                    ;*****************************************************************************
     198                    ;* FUNCTION NAME: esmGroup1Notification                                      *
     199                    ;*                                                                           *
     200                    ;*   Regs Modified     : SP                                                  *
     201                    ;*   Regs Used         : A1,A2,SP,LR                                         *
     202                    ;*   Local Frame Size  : 0 Args + 8 Auto + 0 Save = 8 byte                   *
     203                    ;*****************************************************************************
     204 00000000           esmGroup1Notification:
     205                    ;* --------------------------------------------------------------------------*
     206                            .dwcfi  cfa_offset, 0
     207 00000000 E24DD008          SUB       SP, SP, #8            ; [DPU_4_PIPE0] 
     208                            .dwcfi  cfa_offset, 8
     209                    $C$DW$13        .dwtag  DW_TAG_variable
     210                            .dwattr $C$DW$13, DW_AT_name("esm")
     211                            .dwattr $C$DW$13, DW_AT_TI_symbol_name("esm")
     212                            .dwattr $C$DW$13, DW_AT_type(*$C$DW$T$81)
     213                            .dwattr $C$DW$13, DW_AT_location[DW_OP_breg13 0]
     214                    
     215                    $C$DW$14        .dwtag  DW_TAG_variable
     216                            .dwattr $C$DW$14, DW_AT_name("channel")
     217                            .dwattr $C$DW$14, DW_AT_TI_symbol_name("channel")
     218                            .dwattr $C$DW$14, DW_AT_type(*$C$DW$T$20)
     219                            .dwattr $C$DW$14, DW_AT_location[DW_OP_breg13 4]
     220                    
TI ARM Assembler PC v16.9.0 Thu Feb 16 13:27:10 2017

Tools Copyright (c) 1996-2015 Texas Instruments Incorporated
C:\Users\bob\AppData\Local\Temp\1678410                              PAGE    5

     221 00000004 E58D1004          STR       A2, [SP, #4]          ; [DPU_4_PIPE0] |69| 
     222 00000008 E58D0000          STR       A1, [SP, #0]          ; [DPU_4_PIPE0] |69| 
     223                            .dwpsn  file "../hcg/source/HL_notification.c",line 73,column 1,is_stmt,isa 2
     224 0000000c E28DD008          ADD       SP, SP, #8            ; [DPU_4_PIPE0] 
     225                            .dwcfi  cfa_offset, 0
     226                    $C$DW$15        .dwtag  DW_TAG_TI_branch
     227                            .dwattr $C$DW$15, DW_AT_low_pc(0x00)
     228                            .dwattr $C$DW$15, DW_AT_TI_return
     229                    
     230 00000010 E12FFF1E          BX        LR                    ; [DPU_4_PIPE1] 
     231                            ; BRANCH OCCURS                  ; [] 
     232                            .dwattr $C$DW$10, DW_AT_TI_end_file("../hcg/source/HL_notification.c")
     233                            .dwattr $C$DW$10, DW_AT_TI_end_line(0x49)
     234                            .dwattr $C$DW$10, DW_AT_TI_end_column(0x01)
     235                            .dwendentry
     236                            .dwendtag $C$DW$10
     237                    
     238 00000014                   .sect   ".text"
     239                            .clink
     240                            .armfunc esmGroup2Notification
     241 00000014                   .state32
     242                            .weak   esmGroup2Notification
     243                    
     244                    $C$DW$16        .dwtag  DW_TAG_subprogram
     245                            .dwattr $C$DW$16, DW_AT_name("esmGroup2Notification")
     246                            .dwattr $C$DW$16, DW_AT_low_pc(esmGroup2Notification)
     247                            .dwattr $C$DW$16, DW_AT_high_pc(0x00)
     248                            .dwattr $C$DW$16, DW_AT_TI_symbol_name("esmGroup2Notification")
     249                            .dwattr $C$DW$16, DW_AT_external
     250                            .dwattr $C$DW$16, DW_AT_TI_begin_file("../hcg/source/HL_notification.c")
     251                            .dwattr $C$DW$16, DW_AT_TI_begin_line(0x4e)
     252                            .dwattr $C$DW$16, DW_AT_TI_begin_column(0x06)
     253                            .dwattr $C$DW$16, DW_AT_decl_file("../hcg/source/HL_notification.c")
     254                            .dwattr $C$DW$16, DW_AT_decl_line(0x4e)
     255                            .dwattr $C$DW$16, DW_AT_decl_column(0x06)
     256                            .dwattr $C$DW$16, DW_AT_TI_max_frame_size(0x08)
     257                            .dwpsn  file "../hcg/source/HL_notification.c",line 79,column 1,is_stmt,address esmGroup2Notif
     258                    
     259                            .dwfde $C$DW$CIE, esmGroup2Notification
     260                    $C$DW$17        .dwtag  DW_TAG_formal_parameter
     261                            .dwattr $C$DW$17, DW_AT_name("esm")
     262                            .dwattr $C$DW$17, DW_AT_TI_symbol_name("esm")
     263                            .dwattr $C$DW$17, DW_AT_type(*$C$DW$T$81)
     264                            .dwattr $C$DW$17, DW_AT_location[DW_OP_reg0]
     265                    
     266                    $C$DW$18        .dwtag  DW_TAG_formal_parameter
     267                            .dwattr $C$DW$18, DW_AT_name("channel")
     268                            .dwattr $C$DW$18, DW_AT_TI_symbol_name("channel")
     269                            .dwattr $C$DW$18, DW_AT_type(*$C$DW$T$20)
     270                            .dwattr $C$DW$18, DW_AT_location[DW_OP_reg1]
     271                    
     272                    
     273                    ;*****************************************************************************
     274                    ;* FUNCTION NAME: esmGroup2Notification                                      *
     275                    ;*                                                                           *
TI ARM Assembler PC v16.9.0 Thu Feb 16 13:27:10 2017

Tools Copyright (c) 1996-2015 Texas Instruments Incorporated
C:\Users\bob\AppData\Local\Temp\1678410                              PAGE    6

     276                    ;*   Regs Modified     : SP                                                  *
     277                    ;*   Regs Used         : A1,A2,SP,LR                                         *
     278                    ;*   Local Frame Size  : 0 Args + 8 Auto + 0 Save = 8 byte                   *
     279                    ;*****************************************************************************
     280 00000014           esmGroup2Notification:
     281                    ;* --------------------------------------------------------------------------*
     282                            .dwcfi  cfa_offset, 0
     283 00000014 E24DD008          SUB       SP, SP, #8            ; [DPU_4_PIPE0] 
     284                            .dwcfi  cfa_offset, 8
     285                    $C$DW$19        .dwtag  DW_TAG_variable
     286                            .dwattr $C$DW$19, DW_AT_name("esm")
     287                            .dwattr $C$DW$19, DW_AT_TI_symbol_name("esm")
     288                            .dwattr $C$DW$19, DW_AT_type(*$C$DW$T$81)
     289                            .dwattr $C$DW$19, DW_AT_location[DW_OP_breg13 0]
     290                    
     291                    $C$DW$20        .dwtag  DW_TAG_variable
     292                            .dwattr $C$DW$20, DW_AT_name("channel")
     293                            .dwattr $C$DW$20, DW_AT_TI_symbol_name("channel")
     294                            .dwattr $C$DW$20, DW_AT_type(*$C$DW$T$20)
     295                            .dwattr $C$DW$20, DW_AT_location[DW_OP_breg13 4]
     296                    
     297 00000018 E58D1004          STR       A2, [SP, #4]          ; [DPU_4_PIPE0] |79| 
     298 0000001c E58D0000          STR       A1, [SP, #0]          ; [DPU_4_PIPE0] |79| 
     299                            .dwpsn  file "../hcg/source/HL_notification.c",line 83,column 1,is_stmt,isa 2
     300 00000020 E28DD008          ADD       SP, SP, #8            ; [DPU_4_PIPE0] 
     301                            .dwcfi  cfa_offset, 0
     302                    $C$DW$21        .dwtag  DW_TAG_TI_branch
     303                            .dwattr $C$DW$21, DW_AT_low_pc(0x00)
     304                            .dwattr $C$DW$21, DW_AT_TI_return
     305                    
     306 00000024 E12FFF1E          BX        LR                    ; [DPU_4_PIPE1] 
     307                            ; BRANCH OCCURS                  ; [] 
     308                            .dwattr $C$DW$16, DW_AT_TI_end_file("../hcg/source/HL_notification.c")
     309                            .dwattr $C$DW$16, DW_AT_TI_end_line(0x53)
     310                            .dwattr $C$DW$16, DW_AT_TI_end_column(0x01)
     311                            .dwendentry
     312                            .dwendtag $C$DW$16
     313                    
     314 00000028                   .sect   ".text"
     315                            .clink
     316                            .armfunc esmGroup3Notification
     317 00000028                   .state32
     318                            .weak   esmGroup3Notification
     319                    
     320                    $C$DW$22        .dwtag  DW_TAG_subprogram
     321                            .dwattr $C$DW$22, DW_AT_name("esmGroup3Notification")
     322                            .dwattr $C$DW$22, DW_AT_low_pc(esmGroup3Notification)
     323                            .dwattr $C$DW$22, DW_AT_high_pc(0x00)
     324                            .dwattr $C$DW$22, DW_AT_TI_symbol_name("esmGroup3Notification")
     325                            .dwattr $C$DW$22, DW_AT_external
     326                            .dwattr $C$DW$22, DW_AT_TI_begin_file("../hcg/source/HL_notification.c")
     327                            .dwattr $C$DW$22, DW_AT_TI_begin_line(0x58)
     328                            .dwattr $C$DW$22, DW_AT_TI_begin_column(0x06)
     329                            .dwattr $C$DW$22, DW_AT_decl_file("../hcg/source/HL_notification.c")
     330                            .dwattr $C$DW$22, DW_AT_decl_line(0x58)
TI ARM Assembler PC v16.9.0 Thu Feb 16 13:27:10 2017

Tools Copyright (c) 1996-2015 Texas Instruments Incorporated
C:\Users\bob\AppData\Local\Temp\1678410                              PAGE    7

     331                            .dwattr $C$DW$22, DW_AT_decl_column(0x06)
     332                            .dwattr $C$DW$22, DW_AT_TI_max_frame_size(0x08)
     333                            .dwpsn  file "../hcg/source/HL_notification.c",line 89,column 1,is_stmt,address esmGroup3Notif
     334                    
     335                            .dwfde $C$DW$CIE, esmGroup3Notification
     336                    $C$DW$23        .dwtag  DW_TAG_formal_parameter
     337                            .dwattr $C$DW$23, DW_AT_name("esm")
     338                            .dwattr $C$DW$23, DW_AT_TI_symbol_name("esm")
     339                            .dwattr $C$DW$23, DW_AT_type(*$C$DW$T$81)
     340                            .dwattr $C$DW$23, DW_AT_location[DW_OP_reg0]
     341                    
     342                    $C$DW$24        .dwtag  DW_TAG_formal_parameter
     343                            .dwattr $C$DW$24, DW_AT_name("channel")
     344                            .dwattr $C$DW$24, DW_AT_TI_symbol_name("channel")
     345                            .dwattr $C$DW$24, DW_AT_type(*$C$DW$T$20)
     346                            .dwattr $C$DW$24, DW_AT_location[DW_OP_reg1]
     347                    
     348                    
     349                    ;*****************************************************************************
     350                    ;* FUNCTION NAME: esmGroup3Notification                                      *
     351                    ;*                                                                           *
     352                    ;*   Regs Modified     : SP                                                  *
     353                    ;*   Regs Used         : A1,A2,SP,LR                                         *
     354                    ;*   Local Frame Size  : 0 Args + 8 Auto + 0 Save = 8 byte                   *
     355                    ;*****************************************************************************
     356 00000028           esmGroup3Notification:
     357                    ;* --------------------------------------------------------------------------*
     358                            .dwcfi  cfa_offset, 0
     359 00000028 E24DD008          SUB       SP, SP, #8            ; [DPU_4_PIPE0] 
     360                            .dwcfi  cfa_offset, 8
     361                    $C$DW$25        .dwtag  DW_TAG_variable
     362                            .dwattr $C$DW$25, DW_AT_name("esm")
     363                            .dwattr $C$DW$25, DW_AT_TI_symbol_name("esm")
     364                            .dwattr $C$DW$25, DW_AT_type(*$C$DW$T$81)
     365                            .dwattr $C$DW$25, DW_AT_location[DW_OP_breg13 0]
     366                    
     367                    $C$DW$26        .dwtag  DW_TAG_variable
     368                            .dwattr $C$DW$26, DW_AT_name("channel")
     369                            .dwattr $C$DW$26, DW_AT_TI_symbol_name("channel")
     370                            .dwattr $C$DW$26, DW_AT_type(*$C$DW$T$20)
     371                            .dwattr $C$DW$26, DW_AT_location[DW_OP_breg13 4]
     372                    
     373 0000002c E58D1004          STR       A2, [SP, #4]          ; [DPU_4_PIPE0] |89| 
     374 00000030 E58D0000          STR       A1, [SP, #0]          ; [DPU_4_PIPE0] |89| 
     375                    ;* --------------------------------------------------------------------------*
     376                    ;*   BEGIN LOOP ||$C$L1||
     377                    ;*
     378                    ;*   Loop source line                : 93
     379                    ;*   Loop closing brace source line  : 95
     380                    ;*   Known Minimum Trip Count        : 1
     381                    ;*   Known Maximum Trip Count        : 4294967295
     382                    ;*   Known Max Trip Count Factor     : 1
     383                    ;* --------------------------------------------------------------------------*
     384 00000034           ||$C$L1||:    
     385                            .dwpsn  file "../hcg/source/HL_notification.c",line 95,column 5,is_stmt,isa 2
TI ARM Assembler PC v16.9.0 Thu Feb 16 13:27:10 2017

Tools Copyright (c) 1996-2015 Texas Instruments Incorporated
C:\Users\bob\AppData\Local\Temp\1678410                              PAGE    8

     386 00000034 EAFFFFFE!         B         ||$C$L1||             ; [DPU_4_PIPE1] |95| 
     387                            ; BRANCH OCCURS {||$C$L1||}      ; [] |95| 
     388                    ;* --------------------------------------------------------------------------*
     389                            .dwattr $C$DW$22, DW_AT_TI_end_file("../hcg/source/HL_notification.c")
     390                            .dwattr $C$DW$22, DW_AT_TI_end_line(0x62)
     391                            .dwattr $C$DW$22, DW_AT_TI_end_column(0x01)
     392                            .dwendentry
     393                            .dwendtag $C$DW$22
     394                    
     395 00000038                   .sect   ".text"
     396                            .clink
     397                            .armfunc dmaGroupANotification
     398 00000038                   .state32
     399                            .weak   dmaGroupANotification
     400                    
     401                    $C$DW$27        .dwtag  DW_TAG_subprogram
     402                            .dwattr $C$DW$27, DW_AT_name("dmaGroupANotification")
     403                            .dwattr $C$DW$27, DW_AT_low_pc(dmaGroupANotification)
     404                            .dwattr $C$DW$27, DW_AT_high_pc(0x00)
     405                            .dwattr $C$DW$27, DW_AT_TI_symbol_name("dmaGroupANotification")
     406                            .dwattr $C$DW$27, DW_AT_external
     407                            .dwattr $C$DW$27, DW_AT_TI_begin_file("../hcg/source/HL_notification.c")
     408                            .dwattr $C$DW$27, DW_AT_TI_begin_line(0x68)
     409                            .dwattr $C$DW$27, DW_AT_TI_begin_column(0x06)
     410                            .dwattr $C$DW$27, DW_AT_decl_file("../hcg/source/HL_notification.c")
     411                            .dwattr $C$DW$27, DW_AT_decl_line(0x68)
     412                            .dwattr $C$DW$27, DW_AT_decl_column(0x06)
     413                            .dwattr $C$DW$27, DW_AT_TI_max_frame_size(0x08)
     414                            .dwpsn  file "../hcg/source/HL_notification.c",line 105,column 1,is_stmt,address dmaGroupANoti
     415                    
     416                            .dwfde $C$DW$CIE, dmaGroupANotification
     417                    $C$DW$28        .dwtag  DW_TAG_formal_parameter
     418                            .dwattr $C$DW$28, DW_AT_name("inttype")
     419                            .dwattr $C$DW$28, DW_AT_TI_symbol_name("inttype")
     420                            .dwattr $C$DW$28, DW_AT_type(*$C$DW$T$84)
     421                            .dwattr $C$DW$28, DW_AT_location[DW_OP_reg0]
     422                    
     423                    $C$DW$29        .dwtag  DW_TAG_formal_parameter
     424                            .dwattr $C$DW$29, DW_AT_name("channel")
     425                            .dwattr $C$DW$29, DW_AT_TI_symbol_name("channel")
     426                            .dwattr $C$DW$29, DW_AT_type(*$C$DW$T$20)
     427                            .dwattr $C$DW$29, DW_AT_location[DW_OP_reg1]
     428                    
     429                    
     430                    ;*****************************************************************************
     431                    ;* FUNCTION NAME: dmaGroupANotification                                      *
     432                    ;*                                                                           *
     433                    ;*   Regs Modified     : SP                                                  *
     434                    ;*   Regs Used         : A1,A2,SP,LR                                         *
     435                    ;*   Local Frame Size  : 0 Args + 8 Auto + 0 Save = 8 byte                   *
     436                    ;*****************************************************************************
     437 00000038           dmaGroupANotification:
     438                    ;* --------------------------------------------------------------------------*
     439                            .dwcfi  cfa_offset, 0
     440 00000038 E24DD008          SUB       SP, SP, #8            ; [DPU_4_PIPE0] 
TI ARM Assembler PC v16.9.0 Thu Feb 16 13:27:10 2017

Tools Copyright (c) 1996-2015 Texas Instruments Incorporated
C:\Users\bob\AppData\Local\Temp\1678410                              PAGE    9

     441                            .dwcfi  cfa_offset, 8
     442                    $C$DW$30        .dwtag  DW_TAG_variable
     443                            .dwattr $C$DW$30, DW_AT_name("channel")
     444                            .dwattr $C$DW$30, DW_AT_TI_symbol_name("channel")
     445                            .dwattr $C$DW$30, DW_AT_type(*$C$DW$T$20)
     446                            .dwattr $C$DW$30, DW_AT_location[DW_OP_breg13 0]
     447                    
     448                    $C$DW$31        .dwtag  DW_TAG_variable
     449                            .dwattr $C$DW$31, DW_AT_name("inttype")
     450                            .dwattr $C$DW$31, DW_AT_TI_symbol_name("inttype")
     451                            .dwattr $C$DW$31, DW_AT_type(*$C$DW$T$84)
     452                            .dwattr $C$DW$31, DW_AT_location[DW_OP_breg13 4]
     453                    
     454 0000003c E58D1000          STR       A2, [SP, #0]          ; [DPU_4_PIPE0] |105| 
     455 00000040 E5CD0004          STRB      A1, [SP, #4]          ; [DPU_4_PIPE0] |105| 
     456                            .dwpsn  file "../hcg/source/HL_notification.c",line 109,column 1,is_stmt,isa 2
     457 00000044 E28DD008          ADD       SP, SP, #8            ; [DPU_4_PIPE0] 
     458                            .dwcfi  cfa_offset, 0
     459                    $C$DW$32        .dwtag  DW_TAG_TI_branch
     460                            .dwattr $C$DW$32, DW_AT_low_pc(0x00)
     461                            .dwattr $C$DW$32, DW_AT_TI_return
     462                    
     463 00000048 E12FFF1E          BX        LR                    ; [DPU_4_PIPE1] 
     464                            ; BRANCH OCCURS                  ; [] 
     465                            .dwattr $C$DW$27, DW_AT_TI_end_file("../hcg/source/HL_notification.c")
     466                            .dwattr $C$DW$27, DW_AT_TI_end_line(0x6d)
     467                            .dwattr $C$DW$27, DW_AT_TI_end_column(0x01)
     468                            .dwendentry
     469                            .dwendtag $C$DW$27
     470                    
     471 0000004c                   .sect   ".text"
     472                            .clink
     473                            .armfunc adcNotification
     474 0000004c                   .state32
     475                            .weak   adcNotification
     476                    
     477                    $C$DW$33        .dwtag  DW_TAG_subprogram
     478                            .dwattr $C$DW$33, DW_AT_name("adcNotification")
     479                            .dwattr $C$DW$33, DW_AT_low_pc(adcNotification)
     480                            .dwattr $C$DW$33, DW_AT_high_pc(0x00)
     481                            .dwattr $C$DW$33, DW_AT_TI_symbol_name("adcNotification")
     482                            .dwattr $C$DW$33, DW_AT_external
     483                            .dwattr $C$DW$33, DW_AT_TI_begin_file("../hcg/source/HL_notification.c")
     484                            .dwattr $C$DW$33, DW_AT_TI_begin_line(0xe8)
     485                            .dwattr $C$DW$33, DW_AT_TI_begin_column(0x06)
     486                            .dwattr $C$DW$33, DW_AT_decl_file("../hcg/source/HL_notification.c")
     487                            .dwattr $C$DW$33, DW_AT_decl_line(0xe8)
     488                            .dwattr $C$DW$33, DW_AT_decl_column(0x06)
     489                            .dwattr $C$DW$33, DW_AT_TI_max_frame_size(0x08)
     490                            .dwpsn  file "../hcg/source/HL_notification.c",line 233,column 1,is_stmt,address adcNotificati
     491                    
     492                            .dwfde $C$DW$CIE, adcNotification
     493                    $C$DW$34        .dwtag  DW_TAG_formal_parameter
     494                            .dwattr $C$DW$34, DW_AT_name("adc")
     495                            .dwattr $C$DW$34, DW_AT_TI_symbol_name("adc")
TI ARM Assembler PC v16.9.0 Thu Feb 16 13:27:10 2017

Tools Copyright (c) 1996-2015 Texas Instruments Incorporated
C:\Users\bob\AppData\Local\Temp\1678410                              PAGE   10

     496                            .dwattr $C$DW$34, DW_AT_type(*$C$DW$T$88)
     497                            .dwattr $C$DW$34, DW_AT_location[DW_OP_reg0]
     498                    
     499                    $C$DW$35        .dwtag  DW_TAG_formal_parameter
     500                            .dwattr $C$DW$35, DW_AT_name("group")
     501                            .dwattr $C$DW$35, DW_AT_TI_symbol_name("group")
     502                            .dwattr $C$DW$35, DW_AT_type(*$C$DW$T$20)
     503                            .dwattr $C$DW$35, DW_AT_location[DW_OP_reg1]
     504                    
     505                    
     506                    ;*****************************************************************************
     507                    ;* FUNCTION NAME: adcNotification                                            *
     508                    ;*                                                                           *
     509                    ;*   Regs Modified     : SP                                                  *
     510                    ;*   Regs Used         : A1,A2,SP,LR                                         *
     511                    ;*   Local Frame Size  : 0 Args + 8 Auto + 0 Save = 8 byte                   *
     512                    ;*****************************************************************************
     513 0000004c           adcNotification:
     514                    ;* --------------------------------------------------------------------------*
     515                            .dwcfi  cfa_offset, 0
     516 0000004c E24DD008          SUB       SP, SP, #8            ; [DPU_4_PIPE0] 
     517                            .dwcfi  cfa_offset, 8
     518                    $C$DW$36        .dwtag  DW_TAG_variable
     519                            .dwattr $C$DW$36, DW_AT_name("adc")
     520                            .dwattr $C$DW$36, DW_AT_TI_symbol_name("adc")
     521                            .dwattr $C$DW$36, DW_AT_type(*$C$DW$T$88)
     522                            .dwattr $C$DW$36, DW_AT_location[DW_OP_breg13 0]
     523                    
     524                    $C$DW$37        .dwtag  DW_TAG_variable
     525                            .dwattr $C$DW$37, DW_AT_name("group")
     526                            .dwattr $C$DW$37, DW_AT_TI_symbol_name("group")
     527                            .dwattr $C$DW$37, DW_AT_type(*$C$DW$T$20)
     528                            .dwattr $C$DW$37, DW_AT_location[DW_OP_breg13 4]
     529                    
     530 00000050 E58D1004          STR       A2, [SP, #4]          ; [DPU_4_PIPE0] |233| 
     531 00000054 E58D0000          STR       A1, [SP, #0]          ; [DPU_4_PIPE0] |233| 
     532                            .dwpsn  file "../hcg/source/HL_notification.c",line 237,column 1,is_stmt,isa 2
     533 00000058 E28DD008          ADD       SP, SP, #8            ; [DPU_4_PIPE0] 
     534                            .dwcfi  cfa_offset, 0
     535                    $C$DW$38        .dwtag  DW_TAG_TI_branch
     536                            .dwattr $C$DW$38, DW_AT_low_pc(0x00)
     537                            .dwattr $C$DW$38, DW_AT_TI_return
     538                    
     539 0000005c E12FFF1E          BX        LR                    ; [DPU_4_PIPE1] 
     540                            ; BRANCH OCCURS                  ; [] 
     541                            .dwattr $C$DW$33, DW_AT_TI_end_file("../hcg/source/HL_notification.c")
     542                            .dwattr $C$DW$33, DW_AT_TI_end_line(0xed)
     543                            .dwattr $C$DW$33, DW_AT_TI_end_column(0x01)
     544                            .dwendentry
     545                            .dwendtag $C$DW$33
     546                    
     547 00000060                   .sect   ".text"
     548                            .clink
     549                            .armfunc gioNotification
     550 00000060                   .state32
TI ARM Assembler PC v16.9.0 Thu Feb 16 13:27:10 2017

Tools Copyright (c) 1996-2015 Texas Instruments Incorporated
C:\Users\bob\AppData\Local\Temp\1678410                              PAGE   11

     551                            .weak   gioNotification
     552                    
     553                    $C$DW$39        .dwtag  DW_TAG_subprogram
     554                            .dwattr $C$DW$39, DW_AT_name("gioNotification")
     555                            .dwattr $C$DW$39, DW_AT_low_pc(gioNotification)
     556                            .dwattr $C$DW$39, DW_AT_high_pc(0x00)
     557                            .dwattr $C$DW$39, DW_AT_TI_symbol_name("gioNotification")
     558                            .dwattr $C$DW$39, DW_AT_external
     559                            .dwattr $C$DW$39, DW_AT_TI_begin_file("../hcg/source/HL_notification.c")
     560                            .dwattr $C$DW$39, DW_AT_TI_begin_line(0xf2)
     561                            .dwattr $C$DW$39, DW_AT_TI_begin_column(0x06)
     562                            .dwattr $C$DW$39, DW_AT_decl_file("../hcg/source/HL_notification.c")
     563                            .dwattr $C$DW$39, DW_AT_decl_line(0xf2)
     564                            .dwattr $C$DW$39, DW_AT_decl_column(0x06)
     565                            .dwattr $C$DW$39, DW_AT_TI_max_frame_size(0x08)
     566                            .dwpsn  file "../hcg/source/HL_notification.c",line 243,column 1,is_stmt,address gioNotificati
     567                    
     568                            .dwfde $C$DW$CIE, gioNotification
     569                    $C$DW$40        .dwtag  DW_TAG_formal_parameter
     570                            .dwattr $C$DW$40, DW_AT_name("port")
     571                            .dwattr $C$DW$40, DW_AT_TI_symbol_name("port")
     572                            .dwattr $C$DW$40, DW_AT_type(*$C$DW$T$92)
     573                            .dwattr $C$DW$40, DW_AT_location[DW_OP_reg0]
     574                    
     575                    $C$DW$41        .dwtag  DW_TAG_formal_parameter
     576                            .dwattr $C$DW$41, DW_AT_name("bit")
     577                            .dwattr $C$DW$41, DW_AT_TI_symbol_name("bit")
     578                            .dwattr $C$DW$41, DW_AT_type(*$C$DW$T$20)
     579                            .dwattr $C$DW$41, DW_AT_location[DW_OP_reg1]
     580                    
     581                    
     582                    ;*****************************************************************************
     583                    ;* FUNCTION NAME: gioNotification                                            *
     584                    ;*                                                                           *
     585                    ;*   Regs Modified     : SP                                                  *
     586                    ;*   Regs Used         : A1,A2,SP,LR                                         *
     587                    ;*   Local Frame Size  : 0 Args + 8 Auto + 0 Save = 8 byte                   *
     588                    ;*****************************************************************************
     589 00000060           gioNotification:
     590                    ;* --------------------------------------------------------------------------*
     591                            .dwcfi  cfa_offset, 0
     592 00000060 E24DD008          SUB       SP, SP, #8            ; [DPU_4_PIPE0] 
     593                            .dwcfi  cfa_offset, 8
     594                    $C$DW$42        .dwtag  DW_TAG_variable
     595                            .dwattr $C$DW$42, DW_AT_name("port")
     596                            .dwattr $C$DW$42, DW_AT_TI_symbol_name("port")
     597                            .dwattr $C$DW$42, DW_AT_type(*$C$DW$T$92)
     598                            .dwattr $C$DW$42, DW_AT_location[DW_OP_breg13 0]
     599                    
     600                    $C$DW$43        .dwtag  DW_TAG_variable
     601                            .dwattr $C$DW$43, DW_AT_name("bit")
     602                            .dwattr $C$DW$43, DW_AT_TI_symbol_name("bit")
     603                            .dwattr $C$DW$43, DW_AT_type(*$C$DW$T$20)
     604                            .dwattr $C$DW$43, DW_AT_location[DW_OP_breg13 4]
     605                    
TI ARM Assembler PC v16.9.0 Thu Feb 16 13:27:10 2017

Tools Copyright (c) 1996-2015 Texas Instruments Incorporated
C:\Users\bob\AppData\Local\Temp\1678410                              PAGE   12

     606 00000064 E58D1004          STR       A2, [SP, #4]          ; [DPU_4_PIPE0] |243| 
     607 00000068 E58D0000          STR       A1, [SP, #0]          ; [DPU_4_PIPE0] |243| 
     608                            .dwpsn  file "../hcg/source/HL_notification.c",line 247,column 1,is_stmt,isa 2
     609 0000006c E28DD008          ADD       SP, SP, #8            ; [DPU_4_PIPE0] 
     610                            .dwcfi  cfa_offset, 0
     611                    $C$DW$44        .dwtag  DW_TAG_TI_branch
     612                            .dwattr $C$DW$44, DW_AT_low_pc(0x00)
     613                            .dwattr $C$DW$44, DW_AT_TI_return
     614                    
     615 00000070 E12FFF1E          BX        LR                    ; [DPU_4_PIPE1] 
     616                            ; BRANCH OCCURS                  ; [] 
     617                            .dwattr $C$DW$39, DW_AT_TI_end_file("../hcg/source/HL_notification.c")
     618                            .dwattr $C$DW$39, DW_AT_TI_end_line(0xf7)
     619                            .dwattr $C$DW$39, DW_AT_TI_end_column(0x01)
     620                            .dwendentry
     621                            .dwendtag $C$DW$39
     622                    
     623 00000074                   .sect   ".text"
     624                            .clink
     625                            .armfunc sciNotification
     626 00000074                   .state32
     627                            .weak   sciNotification
     628                    
     629                    $C$DW$45        .dwtag  DW_TAG_subprogram
     630                            .dwattr $C$DW$45, DW_AT_name("sciNotification")
     631                            .dwattr $C$DW$45, DW_AT_low_pc(sciNotification)
     632                            .dwattr $C$DW$45, DW_AT_high_pc(0x00)
     633                            .dwattr $C$DW$45, DW_AT_TI_symbol_name("sciNotification")
     634                            .dwattr $C$DW$45, DW_AT_external
     635                            .dwattr $C$DW$45, DW_AT_TI_begin_file("../hcg/source/HL_notification.c")
     636                            .dwattr $C$DW$45, DW_AT_TI_begin_line(0xfd)
     637                            .dwattr $C$DW$45, DW_AT_TI_begin_column(0x06)
     638                            .dwattr $C$DW$45, DW_AT_decl_file("../hcg/source/HL_notification.c")
     639                            .dwattr $C$DW$45, DW_AT_decl_line(0xfd)
     640                            .dwattr $C$DW$45, DW_AT_decl_column(0x06)
     641                            .dwattr $C$DW$45, DW_AT_TI_max_frame_size(0x08)
     642                            .dwpsn  file "../hcg/source/HL_notification.c",line 254,column 1,is_stmt,address sciNotificati
     643                    
     644                            .dwfde $C$DW$CIE, sciNotification
     645                    $C$DW$46        .dwtag  DW_TAG_formal_parameter
     646                            .dwattr $C$DW$46, DW_AT_name("sci")
     647                            .dwattr $C$DW$46, DW_AT_TI_symbol_name("sci")
     648                            .dwattr $C$DW$46, DW_AT_type(*$C$DW$T$96)
     649                            .dwattr $C$DW$46, DW_AT_location[DW_OP_reg0]
     650                    
     651                    $C$DW$47        .dwtag  DW_TAG_formal_parameter
     652                            .dwattr $C$DW$47, DW_AT_name("flags")
     653                            .dwattr $C$DW$47, DW_AT_TI_symbol_name("flags")
     654                            .dwattr $C$DW$47, DW_AT_type(*$C$DW$T$20)
     655                            .dwattr $C$DW$47, DW_AT_location[DW_OP_reg1]
     656                    
     657                    
     658                    ;*****************************************************************************
     659                    ;* FUNCTION NAME: sciNotification                                            *
     660                    ;*                                                                           *
TI ARM Assembler PC v16.9.0 Thu Feb 16 13:27:10 2017

Tools Copyright (c) 1996-2015 Texas Instruments Incorporated
C:\Users\bob\AppData\Local\Temp\1678410                              PAGE   13

     661                    ;*   Regs Modified     : SP                                                  *
     662                    ;*   Regs Used         : A1,A2,SP,LR                                         *
     663                    ;*   Local Frame Size  : 0 Args + 8 Auto + 0 Save = 8 byte                   *
     664                    ;*****************************************************************************
     665 00000074           sciNotification:
     666                    ;* --------------------------------------------------------------------------*
     667                            .dwcfi  cfa_offset, 0
     668 00000074 E24DD008          SUB       SP, SP, #8            ; [DPU_4_PIPE0] 
     669                            .dwcfi  cfa_offset, 8
     670                    $C$DW$48        .dwtag  DW_TAG_variable
     671                            .dwattr $C$DW$48, DW_AT_name("sci")
     672                            .dwattr $C$DW$48, DW_AT_TI_symbol_name("sci")
     673                            .dwattr $C$DW$48, DW_AT_type(*$C$DW$T$96)
     674                            .dwattr $C$DW$48, DW_AT_location[DW_OP_breg13 0]
     675                    
     676                    $C$DW$49        .dwtag  DW_TAG_variable
     677                            .dwattr $C$DW$49, DW_AT_name("flags")
     678                            .dwattr $C$DW$49, DW_AT_TI_symbol_name("flags")
     679                            .dwattr $C$DW$49, DW_AT_type(*$C$DW$T$20)
     680                            .dwattr $C$DW$49, DW_AT_location[DW_OP_breg13 4]
     681                    
     682 00000078 E58D1004          STR       A2, [SP, #4]          ; [DPU_4_PIPE0] |254| 
     683 0000007c E58D0000          STR       A1, [SP, #0]          ; [DPU_4_PIPE0] |254| 
     684                            .dwpsn  file "../hcg/source/HL_notification.c",line 258,column 1,is_stmt,isa 2
     685 00000080 E28DD008          ADD       SP, SP, #8            ; [DPU_4_PIPE0] 
     686                            .dwcfi  cfa_offset, 0
     687                    $C$DW$50        .dwtag  DW_TAG_TI_branch
     688                            .dwattr $C$DW$50, DW_AT_low_pc(0x00)
     689                            .dwattr $C$DW$50, DW_AT_TI_return
     690                    
     691 00000084 E12FFF1E          BX        LR                    ; [DPU_4_PIPE1] 
     692                            ; BRANCH OCCURS                  ; [] 
     693                            .dwattr $C$DW$45, DW_AT_TI_end_file("../hcg/source/HL_notification.c")
     694                            .dwattr $C$DW$45, DW_AT_TI_end_line(0x102)
     695                            .dwattr $C$DW$45, DW_AT_TI_end_column(0x01)
     696                            .dwendentry
     697                            .dwendtag $C$DW$45
     698                    
     699 00000088                   .sect   ".text"
     700                            .clink
     701                            .armfunc epcCAMFullNotification
     702 00000088                   .state32
     703                            .weak   epcCAMFullNotification
     704                    
     705                    $C$DW$51        .dwtag  DW_TAG_subprogram
     706                            .dwattr $C$DW$51, DW_AT_name("epcCAMFullNotification")
     707                            .dwattr $C$DW$51, DW_AT_low_pc(epcCAMFullNotification)
     708                            .dwattr $C$DW$51, DW_AT_high_pc(0x00)
     709                            .dwattr $C$DW$51, DW_AT_TI_symbol_name("epcCAMFullNotification")
     710                            .dwattr $C$DW$51, DW_AT_external
     711                            .dwattr $C$DW$51, DW_AT_TI_begin_file("../hcg/source/HL_notification.c")
     712                            .dwattr $C$DW$51, DW_AT_TI_begin_line(0x119)
     713                            .dwattr $C$DW$51, DW_AT_TI_begin_column(0x06)
     714                            .dwattr $C$DW$51, DW_AT_decl_file("../hcg/source/HL_notification.c")
     715                            .dwattr $C$DW$51, DW_AT_decl_line(0x119)
TI ARM Assembler PC v16.9.0 Thu Feb 16 13:27:10 2017

Tools Copyright (c) 1996-2015 Texas Instruments Incorporated
C:\Users\bob\AppData\Local\Temp\1678410                              PAGE   14

     716                            .dwattr $C$DW$51, DW_AT_decl_column(0x06)
     717                            .dwattr $C$DW$51, DW_AT_TI_max_frame_size(0x00)
     718                            .dwpsn  file "../hcg/source/HL_notification.c",line 282,column 1,is_stmt,address epcCAMFullNot
     719                    
     720                            .dwfde $C$DW$CIE, epcCAMFullNotification
     721                    
     722                    ;*****************************************************************************
     723                    ;* FUNCTION NAME: epcCAMFullNotification                                     *
     724                    ;*                                                                           *
     725                    ;*   Regs Modified     :                                                     *
     726                    ;*   Regs Used         : LR                                                  *
     727                    ;*   Local Frame Size  : 0 Args + 0 Auto + 0 Save = 0 byte                   *
     728                    ;*****************************************************************************
     729 00000088           epcCAMFullNotification:
     730                    ;* --------------------------------------------------------------------------*
     731                            .dwcfi  cfa_offset, 0
     732                            .dwpsn  file "../hcg/source/HL_notification.c",line 286,column 1,is_stmt,isa 2
     733                    $C$DW$52        .dwtag  DW_TAG_TI_branch
     734                            .dwattr $C$DW$52, DW_AT_low_pc(0x00)
     735                            .dwattr $C$DW$52, DW_AT_TI_return
     736                    
     737 00000088 E12FFF1E          BX        LR                    ; [DPU_4_PIPE1] 
     738                            ; BRANCH OCCURS                  ; [] 
     739                            .dwattr $C$DW$51, DW_AT_TI_end_file("../hcg/source/HL_notification.c")
     740                            .dwattr $C$DW$51, DW_AT_TI_end_line(0x11e)
     741                            .dwattr $C$DW$51, DW_AT_TI_end_column(0x01)
     742                            .dwendentry
     743                            .dwendtag $C$DW$51
     744                    
     745 0000008c                   .sect   ".text"
     746                            .clink
     747                            .armfunc epcFIFOFullNotification
     748 0000008c                   .state32
     749                            .weak   epcFIFOFullNotification
     750                    
     751                    $C$DW$53        .dwtag  DW_TAG_subprogram
     752                            .dwattr $C$DW$53, DW_AT_name("epcFIFOFullNotification")
     753                            .dwattr $C$DW$53, DW_AT_low_pc(epcFIFOFullNotification)
     754                            .dwattr $C$DW$53, DW_AT_high_pc(0x00)
     755                            .dwattr $C$DW$53, DW_AT_TI_symbol_name("epcFIFOFullNotification")
     756                            .dwattr $C$DW$53, DW_AT_external
     757                            .dwattr $C$DW$53, DW_AT_TI_begin_file("../hcg/source/HL_notification.c")
     758                            .dwattr $C$DW$53, DW_AT_TI_begin_line(0x120)
     759                            .dwattr $C$DW$53, DW_AT_TI_begin_column(0x06)
     760                            .dwattr $C$DW$53, DW_AT_decl_file("../hcg/source/HL_notification.c")
     761                            .dwattr $C$DW$53, DW_AT_decl_line(0x120)
     762                            .dwattr $C$DW$53, DW_AT_decl_column(0x06)
     763                            .dwattr $C$DW$53, DW_AT_TI_max_frame_size(0x08)
     764                            .dwpsn  file "../hcg/source/HL_notification.c",line 289,column 1,is_stmt,address epcFIFOFullNo
     765                    
     766                            .dwfde $C$DW$CIE, epcFIFOFullNotification
     767                    $C$DW$54        .dwtag  DW_TAG_formal_parameter
     768                            .dwattr $C$DW$54, DW_AT_name("epcFIFOStatus")
     769                            .dwattr $C$DW$54, DW_AT_TI_symbol_name("epcFIFOStatus")
     770                            .dwattr $C$DW$54, DW_AT_type(*$C$DW$T$20)
TI ARM Assembler PC v16.9.0 Thu Feb 16 13:27:10 2017

Tools Copyright (c) 1996-2015 Texas Instruments Incorporated
C:\Users\bob\AppData\Local\Temp\1678410                              PAGE   15

     771                            .dwattr $C$DW$54, DW_AT_location[DW_OP_reg0]
     772                    
     773                    
     774                    ;*****************************************************************************
     775                    ;* FUNCTION NAME: epcFIFOFullNotification                                    *
     776                    ;*                                                                           *
     777                    ;*   Regs Modified     : SP                                                  *
     778                    ;*   Regs Used         : A1,SP,LR                                            *
     779                    ;*   Local Frame Size  : 0 Args + 4 Auto + 0 Save = 4 byte                   *
     780                    ;*****************************************************************************
     781 0000008c           epcFIFOFullNotification:
     782                    ;* --------------------------------------------------------------------------*
     783                            .dwcfi  cfa_offset, 0
     784 0000008c E24DD008          SUB       SP, SP, #8            ; [DPU_4_PIPE0] 
     785                            .dwcfi  cfa_offset, 8
     786                    $C$DW$55        .dwtag  DW_TAG_variable
     787                            .dwattr $C$DW$55, DW_AT_name("epcFIFOStatus")
     788                            .dwattr $C$DW$55, DW_AT_TI_symbol_name("epcFIFOStatus")
     789                            .dwattr $C$DW$55, DW_AT_type(*$C$DW$T$20)
     790                            .dwattr $C$DW$55, DW_AT_location[DW_OP_breg13 0]
     791                    
     792 00000090 E58D0000          STR       A1, [SP, #0]          ; [DPU_4_PIPE0] |289| 
     793                            .dwpsn  file "../hcg/source/HL_notification.c",line 293,column 1,is_stmt,isa 2
     794 00000094 E28DD008          ADD       SP, SP, #8            ; [DPU_4_PIPE0] 
     795                            .dwcfi  cfa_offset, 0
     796                    $C$DW$56        .dwtag  DW_TAG_TI_branch
     797                            .dwattr $C$DW$56, DW_AT_low_pc(0x00)
     798                            .dwattr $C$DW$56, DW_AT_TI_return
     799                    
     800 00000098 E12FFF1E          BX        LR                    ; [DPU_4_PIPE1] 
     801                            ; BRANCH OCCURS                  ; [] 
     802                            .dwattr $C$DW$53, DW_AT_TI_end_file("../hcg/source/HL_notification.c")
     803                            .dwattr $C$DW$53, DW_AT_TI_end_line(0x125)
     804                            .dwattr $C$DW$53, DW_AT_TI_end_column(0x01)
     805                            .dwendentry
     806                            .dwendtag $C$DW$53
     807                    
     808                    
     809                    ;******************************************************************************
     810                    ;* BUILD ATTRIBUTES                                                           *
     811                    ;******************************************************************************
     812                            .battr "aeabi", Tag_File, 1, Tag_ABI_PCS_wchar_t(2)
     813                            .battr "aeabi", Tag_File, 1, Tag_ABI_FP_rounding(0)
     814                            .battr "aeabi", Tag_File, 1, Tag_ABI_FP_denormal(0)
     815                            .battr "aeabi", Tag_File, 1, Tag_ABI_FP_exceptions(0)
     816                            .battr "aeabi", Tag_File, 1, Tag_ABI_FP_number_model(1)
     817                            .battr "aeabi", Tag_File, 1, Tag_ABI_enum_size(1)
     818                            .battr "aeabi", Tag_File, 1, Tag_ABI_optimization_goals(5)
     819                            .battr "aeabi", Tag_File, 1, Tag_ABI_FP_optimization_goals(0)
     820                            .battr "TI", Tag_File, 1, Tag_Bitfield_layout(2)
     821                            .battr "aeabi", Tag_File, 1, Tag_ABI_VFP_args(3)
     822                            .battr "TI", Tag_File, 1, Tag_FP_interface(1)
     823                    
     824                    ;******************************************************************************
     825                    ;* TYPE INFORMATION                                                           *
TI ARM Assembler PC v16.9.0 Thu Feb 16 13:27:10 2017

Tools Copyright (c) 1996-2015 Texas Instruments Incorporated
C:\Users\bob\AppData\Local\Temp\1678410                              PAGE   16

     826                    ;******************************************************************************
     827                    
     828                    $C$DW$T$21      .dwtag  DW_TAG_structure_type
     829                            .dwattr $C$DW$T$21, DW_AT_byte_size(0x20)
     830                    $C$DW$57        .dwtag  DW_TAG_member
     831                            .dwattr $C$DW$57, DW_AT_type(*$C$DW$T$20)
     832                            .dwattr $C$DW$57, DW_AT_name("BUF0")
     833                            .dwattr $C$DW$57, DW_AT_TI_symbol_name("BUF0")
     834                            .dwattr $C$DW$57, DW_AT_data_member_location[DW_OP_plus_uconst 0x0]
     835                            .dwattr $C$DW$57, DW_AT_accessibility(DW_ACCESS_public)
     836                            .dwattr $C$DW$57, DW_AT_decl_file("C:\Users\bob\Documents\Projects\induct_forge\RM57Lx_test\Pr
     837                            .dwattr $C$DW$57, DW_AT_decl_line(0x64)
     838                            .dwattr $C$DW$57, DW_AT_decl_column(0x10)
     839                    
     840                    $C$DW$58        .dwtag  DW_TAG_member
     841                            .dwattr $C$DW$58, DW_AT_type(*$C$DW$T$20)
     842                            .dwattr $C$DW$58, DW_AT_name("BUF1")
     843                            .dwattr $C$DW$58, DW_AT_TI_symbol_name("BUF1")
     844                            .dwattr $C$DW$58, DW_AT_data_member_location[DW_OP_plus_uconst 0x4]
     845                            .dwattr $C$DW$58, DW_AT_accessibility(DW_ACCESS_public)
     846                            .dwattr $C$DW$58, DW_AT_decl_file("C:\Users\bob\Documents\Projects\induct_forge\RM57Lx_test\Pr
     847                            .dwattr $C$DW$58, DW_AT_decl_line(0x65)
     848                            .dwattr $C$DW$58, DW_AT_decl_column(0x10)
     849                    
     850                    $C$DW$59        .dwtag  DW_TAG_member
     851                            .dwattr $C$DW$59, DW_AT_type(*$C$DW$T$20)
     852                            .dwattr $C$DW$59, DW_AT_name("BUF2")
     853                            .dwattr $C$DW$59, DW_AT_TI_symbol_name("BUF2")
     854                            .dwattr $C$DW$59, DW_AT_data_member_location[DW_OP_plus_uconst 0x8]
     855                            .dwattr $C$DW$59, DW_AT_accessibility(DW_ACCESS_public)
     856                            .dwattr $C$DW$59, DW_AT_decl_file("C:\Users\bob\Documents\Projects\induct_forge\RM57Lx_test\Pr
     857                            .dwattr $C$DW$59, DW_AT_decl_line(0x66)
     858                            .dwattr $C$DW$59, DW_AT_decl_column(0x10)
     859                    
     860                    $C$DW$60        .dwtag  DW_TAG_member
     861                            .dwattr $C$DW$60, DW_AT_type(*$C$DW$T$20)
     862                            .dwattr $C$DW$60, DW_AT_name("BUF3")
     863                            .dwattr $C$DW$60, DW_AT_TI_symbol_name("BUF3")
     864                            .dwattr $C$DW$60, DW_AT_data_member_location[DW_OP_plus_uconst 0xc]
     865                            .dwattr $C$DW$60, DW_AT_accessibility(DW_ACCESS_public)
     866                            .dwattr $C$DW$60, DW_AT_decl_file("C:\Users\bob\Documents\Projects\induct_forge\RM57Lx_test\Pr
     867                            .dwattr $C$DW$60, DW_AT_decl_line(0x67)
     868                            .dwattr $C$DW$60, DW_AT_decl_column(0x10)
     869                    
     870                    $C$DW$61        .dwtag  DW_TAG_member
     871                            .dwattr $C$DW$61, DW_AT_type(*$C$DW$T$20)
     872                            .dwattr $C$DW$61, DW_AT_name("BUF4")
     873                            .dwattr $C$DW$61, DW_AT_TI_symbol_name("BUF4")
     874                            .dwattr $C$DW$61, DW_AT_data_member_location[DW_OP_plus_uconst 0x10]
     875                            .dwattr $C$DW$61, DW_AT_accessibility(DW_ACCESS_public)
     876                            .dwattr $C$DW$61, DW_AT_decl_file("C:\Users\bob\Documents\Projects\induct_forge\RM57Lx_test\Pr
     877                            .dwattr $C$DW$61, DW_AT_decl_line(0x68)
     878                            .dwattr $C$DW$61, DW_AT_decl_column(0x10)
     879                    
     880                    $C$DW$62        .dwtag  DW_TAG_member
TI ARM Assembler PC v16.9.0 Thu Feb 16 13:27:10 2017

Tools Copyright (c) 1996-2015 Texas Instruments Incorporated
C:\Users\bob\AppData\Local\Temp\1678410                              PAGE   17

     881                            .dwattr $C$DW$62, DW_AT_type(*$C$DW$T$20)
     882                            .dwattr $C$DW$62, DW_AT_name("BUF5")
     883                            .dwattr $C$DW$62, DW_AT_TI_symbol_name("BUF5")
     884                            .dwattr $C$DW$62, DW_AT_data_member_location[DW_OP_plus_uconst 0x14]
     885                            .dwattr $C$DW$62, DW_AT_accessibility(DW_ACCESS_public)
     886                            .dwattr $C$DW$62, DW_AT_decl_file("C:\Users\bob\Documents\Projects\induct_forge\RM57Lx_test\Pr
     887                            .dwattr $C$DW$62, DW_AT_decl_line(0x69)
     888                            .dwattr $C$DW$62, DW_AT_decl_column(0x10)
     889                    
     890                    $C$DW$63        .dwtag  DW_TAG_member
     891                            .dwattr $C$DW$63, DW_AT_type(*$C$DW$T$20)
     892                            .dwattr $C$DW$63, DW_AT_name("BUF6")
     893                            .dwattr $C$DW$63, DW_AT_TI_symbol_name("BUF6")
     894                            .dwattr $C$DW$63, DW_AT_data_member_location[DW_OP_plus_uconst 0x18]
     895                            .dwattr $C$DW$63, DW_AT_accessibility(DW_ACCESS_public)
     896                            .dwattr $C$DW$63, DW_AT_decl_file("C:\Users\bob\Documents\Projects\induct_forge\RM57Lx_test\Pr
     897                            .dwattr $C$DW$63, DW_AT_decl_line(0x6a)
     898                            .dwattr $C$DW$63, DW_AT_decl_column(0x10)
     899                    
     900                    $C$DW$64        .dwtag  DW_TAG_member
     901                            .dwattr $C$DW$64, DW_AT_type(*$C$DW$T$20)
     902                            .dwattr $C$DW$64, DW_AT_name("BUF7")
     903                            .dwattr $C$DW$64, DW_AT_TI_symbol_name("BUF7")
     904                            .dwattr $C$DW$64, DW_AT_data_member_location[DW_OP_plus_uconst 0x1c]
     905                            .dwattr $C$DW$64, DW_AT_accessibility(DW_ACCESS_public)
     906                            .dwattr $C$DW$64, DW_AT_decl_file("C:\Users\bob\Documents\Projects\induct_forge\RM57Lx_test\Pr
     907                            .dwattr $C$DW$64, DW_AT_decl_line(0x6b)
     908                            .dwattr $C$DW$64, DW_AT_decl_column(0x10)
     909                    
     910                            .dwattr $C$DW$T$21, DW_AT_decl_file("C:\Users\bob\Documents\Projects\induct_forge\RM57Lx_test\
     911                            .dwattr $C$DW$T$21, DW_AT_decl_line(0x63)
     912                            .dwattr $C$DW$T$21, DW_AT_decl_column(0x05)
     913                            .dwendtag $C$DW$T$21
     914                    
     915                    
     916                    $C$DW$T$38      .dwtag  DW_TAG_array_type
     917                            .dwattr $C$DW$T$38, DW_AT_type(*$C$DW$T$21)
     918                            .dwattr $C$DW$T$38, DW_AT_language(DW_LANG_C)
     919                            .dwattr $C$DW$T$38, DW_AT_byte_size(0x60)
     920                    $C$DW$65        .dwtag  DW_TAG_subrange_type
     921                            .dwattr $C$DW$65, DW_AT_upper_bound(0x02)
     922                    
     923                            .dwendtag $C$DW$T$38
     924                    
     925                    
     926                    $C$DW$T$23      .dwtag  DW_TAG_structure_type
     927                            .dwattr $C$DW$T$23, DW_AT_byte_size(0x20)
     928                    $C$DW$66        .dwtag  DW_TAG_member
     929                            .dwattr $C$DW$66, DW_AT_type(*$C$DW$T$20)
     930                            .dwattr $C$DW$66, DW_AT_name("FRCx")
     931                            .dwattr $C$DW$66, DW_AT_TI_symbol_name("FRCx")
     932                            .dwattr $C$DW$66, DW_AT_data_member_location[DW_OP_plus_uconst 0x0]
     933                            .dwattr $C$DW$66, DW_AT_accessibility(DW_ACCESS_public)
     934                            .dwattr $C$DW$66, DW_AT_decl_file("C:\Users\bob\Documents\Projects\induct_forge\RM57Lx_test\Pr
     935                            .dwattr $C$DW$66, DW_AT_decl_line(0x4e)
TI ARM Assembler PC v16.9.0 Thu Feb 16 13:27:10 2017

Tools Copyright (c) 1996-2015 Texas Instruments Incorporated
C:\Users\bob\AppData\Local\Temp\1678410                              PAGE   18

     936                            .dwattr $C$DW$66, DW_AT_decl_column(0x10)
     937                    
     938                    $C$DW$67        .dwtag  DW_TAG_member
     939                            .dwattr $C$DW$67, DW_AT_type(*$C$DW$T$20)
     940                            .dwattr $C$DW$67, DW_AT_name("UCx")
     941                            .dwattr $C$DW$67, DW_AT_TI_symbol_name("UCx")
     942                            .dwattr $C$DW$67, DW_AT_data_member_location[DW_OP_plus_uconst 0x4]
     943                            .dwattr $C$DW$67, DW_AT_accessibility(DW_ACCESS_public)
     944                            .dwattr $C$DW$67, DW_AT_decl_file("C:\Users\bob\Documents\Projects\induct_forge\RM57Lx_test\Pr
     945                            .dwattr $C$DW$67, DW_AT_decl_line(0x4f)
     946                            .dwattr $C$DW$67, DW_AT_decl_column(0x10)
     947                    
     948                    $C$DW$68        .dwtag  DW_TAG_member
     949                            .dwattr $C$DW$68, DW_AT_type(*$C$DW$T$20)
     950                            .dwattr $C$DW$68, DW_AT_name("CPUCx")
     951                            .dwattr $C$DW$68, DW_AT_TI_symbol_name("CPUCx")
     952                            .dwattr $C$DW$68, DW_AT_data_member_location[DW_OP_plus_uconst 0x8]
     953                            .dwattr $C$DW$68, DW_AT_accessibility(DW_ACCESS_public)
     954                            .dwattr $C$DW$68, DW_AT_decl_file("C:\Users\bob\Documents\Projects\induct_forge\RM57Lx_test\Pr
     955                            .dwattr $C$DW$68, DW_AT_decl_line(0x50)
     956                            .dwattr $C$DW$68, DW_AT_decl_column(0x10)
     957                    
     958                    $C$DW$69        .dwtag  DW_TAG_member
     959                            .dwattr $C$DW$69, DW_AT_type(*$C$DW$T$20)
     960                            .dwattr $C$DW$69, DW_AT_name("rsvd1")
     961                            .dwattr $C$DW$69, DW_AT_TI_symbol_name("rsvd1")
     962                            .dwattr $C$DW$69, DW_AT_data_member_location[DW_OP_plus_uconst 0xc]
     963                            .dwattr $C$DW$69, DW_AT_accessibility(DW_ACCESS_public)
     964                            .dwattr $C$DW$69, DW_AT_decl_file("C:\Users\bob\Documents\Projects\induct_forge\RM57Lx_test\Pr
     965                            .dwattr $C$DW$69, DW_AT_decl_line(0x51)
     966                            .dwattr $C$DW$69, DW_AT_decl_column(0x12)
     967                    
     968                    $C$DW$70        .dwtag  DW_TAG_member
     969                            .dwattr $C$DW$70, DW_AT_type(*$C$DW$T$20)
     970                            .dwattr $C$DW$70, DW_AT_name("CAFRCx")
     971                            .dwattr $C$DW$70, DW_AT_TI_symbol_name("CAFRCx")
     972                            .dwattr $C$DW$70, DW_AT_data_member_location[DW_OP_plus_uconst 0x10]
     973                            .dwattr $C$DW$70, DW_AT_accessibility(DW_ACCESS_public)
     974                            .dwattr $C$DW$70, DW_AT_decl_file("C:\Users\bob\Documents\Projects\induct_forge\RM57Lx_test\Pr
     975                            .dwattr $C$DW$70, DW_AT_decl_line(0x52)
     976                            .dwattr $C$DW$70, DW_AT_decl_column(0x10)
     977                    
     978                    $C$DW$71        .dwtag  DW_TAG_member
     979                            .dwattr $C$DW$71, DW_AT_type(*$C$DW$T$20)
     980                            .dwattr $C$DW$71, DW_AT_name("CAUCx")
     981                            .dwattr $C$DW$71, DW_AT_TI_symbol_name("CAUCx")
     982                            .dwattr $C$DW$71, DW_AT_data_member_location[DW_OP_plus_uconst 0x14]
     983                            .dwattr $C$DW$71, DW_AT_accessibility(DW_ACCESS_public)
     984                            .dwattr $C$DW$71, DW_AT_decl_file("C:\Users\bob\Documents\Projects\induct_forge\RM57Lx_test\Pr
     985                            .dwattr $C$DW$71, DW_AT_decl_line(0x53)
     986                            .dwattr $C$DW$71, DW_AT_decl_column(0x10)
     987                    
     988                    $C$DW$72        .dwtag  DW_TAG_member
     989                            .dwattr $C$DW$72, DW_AT_type(*$C$DW$T$22)
     990                            .dwattr $C$DW$72, DW_AT_name("rsvd2")
TI ARM Assembler PC v16.9.0 Thu Feb 16 13:27:10 2017

Tools Copyright (c) 1996-2015 Texas Instruments Incorporated
C:\Users\bob\AppData\Local\Temp\1678410                              PAGE   19

     991                            .dwattr $C$DW$72, DW_AT_TI_symbol_name("rsvd2")
     992                            .dwattr $C$DW$72, DW_AT_data_member_location[DW_OP_plus_uconst 0x18]
     993                            .dwattr $C$DW$72, DW_AT_accessibility(DW_ACCESS_public)
     994                            .dwattr $C$DW$72, DW_AT_decl_file("C:\Users\bob\Documents\Projects\induct_forge\RM57Lx_test\Pr
     995                            .dwattr $C$DW$72, DW_AT_decl_line(0x54)
     996                            .dwattr $C$DW$72, DW_AT_decl_column(0x12)
     997                    
     998                            .dwattr $C$DW$T$23, DW_AT_decl_file("C:\Users\bob\Documents\Projects\induct_forge\RM57Lx_test\
     999                            .dwattr $C$DW$T$23, DW_AT_decl_line(0x4d)
    1000                            .dwattr $C$DW$T$23, DW_AT_decl_column(0x05)
    1001                            .dwendtag $C$DW$T$23
    1002                    
    1003                    
    1004                    $C$DW$T$68      .dwtag  DW_TAG_array_type
    1005                            .dwattr $C$DW$T$68, DW_AT_type(*$C$DW$T$23)
    1006                            .dwattr $C$DW$T$68, DW_AT_language(DW_LANG_C)
    1007                            .dwattr $C$DW$T$68, DW_AT_byte_size(0x40)
    1008                    $C$DW$73        .dwtag  DW_TAG_subrange_type
    1009                            .dwattr $C$DW$73, DW_AT_upper_bound(0x01)
    1010                    
    1011                            .dwendtag $C$DW$T$68
    1012                    
    1013                    
    1014                    $C$DW$T$24      .dwtag  DW_TAG_structure_type
    1015                            .dwattr $C$DW$T$24, DW_AT_byte_size(0x08)
    1016                    $C$DW$74        .dwtag  DW_TAG_member
    1017                            .dwattr $C$DW$74, DW_AT_type(*$C$DW$T$20)
    1018                            .dwattr $C$DW$74, DW_AT_name("COMPx")
    1019                            .dwattr $C$DW$74, DW_AT_TI_symbol_name("COMPx")
    1020                            .dwattr $C$DW$74, DW_AT_data_member_location[DW_OP_plus_uconst 0x0]
    1021                            .dwattr $C$DW$74, DW_AT_accessibility(DW_ACCESS_public)
    1022                            .dwattr $C$DW$74, DW_AT_decl_file("C:\Users\bob\Documents\Projects\induct_forge\RM57Lx_test\Pr
    1023                            .dwattr $C$DW$74, DW_AT_decl_line(0x5a)
    1024                            .dwattr $C$DW$74, DW_AT_decl_column(0x10)
    1025                    
    1026                    $C$DW$75        .dwtag  DW_TAG_member
    1027                            .dwattr $C$DW$75, DW_AT_type(*$C$DW$T$20)
    1028                            .dwattr $C$DW$75, DW_AT_name("UDCPx")
    1029                            .dwattr $C$DW$75, DW_AT_TI_symbol_name("UDCPx")
    1030                            .dwattr $C$DW$75, DW_AT_data_member_location[DW_OP_plus_uconst 0x4]
    1031                            .dwattr $C$DW$75, DW_AT_accessibility(DW_ACCESS_public)
    1032                            .dwattr $C$DW$75, DW_AT_decl_file("C:\Users\bob\Documents\Projects\induct_forge\RM57Lx_test\Pr
    1033                            .dwattr $C$DW$75, DW_AT_decl_line(0x5b)
    1034                            .dwattr $C$DW$75, DW_AT_decl_column(0x10)
    1035                    
    1036                            .dwattr $C$DW$T$24, DW_AT_decl_file("C:\Users\bob\Documents\Projects\induct_forge\RM57Lx_test\
    1037                            .dwattr $C$DW$T$24, DW_AT_decl_line(0x59)
    1038                            .dwattr $C$DW$T$24, DW_AT_decl_column(0x05)
    1039                            .dwendtag $C$DW$T$24
    1040                    
    1041                    
    1042                    $C$DW$T$69      .dwtag  DW_TAG_array_type
    1043                            .dwattr $C$DW$T$69, DW_AT_type(*$C$DW$T$24)
    1044                            .dwattr $C$DW$T$69, DW_AT_language(DW_LANG_C)
    1045                            .dwattr $C$DW$T$69, DW_AT_byte_size(0x20)
TI ARM Assembler PC v16.9.0 Thu Feb 16 13:27:10 2017

Tools Copyright (c) 1996-2015 Texas Instruments Incorporated
C:\Users\bob\AppData\Local\Temp\1678410                              PAGE   20

    1046                    $C$DW$76        .dwtag  DW_TAG_subrange_type
    1047                            .dwattr $C$DW$76, DW_AT_upper_bound(0x03)
    1048                    
    1049                            .dwendtag $C$DW$T$69
    1050                    
    1051                    
    1052                    $C$DW$T$25      .dwtag  DW_TAG_structure_type
    1053                            .dwattr $C$DW$T$25, DW_AT_byte_size(0x08)
    1054                    $C$DW$77        .dwtag  DW_TAG_member
    1055                            .dwattr $C$DW$77, DW_AT_type(*$C$DW$T$20)
    1056                            .dwattr $C$DW$77, DW_AT_name("STARTADD")
    1057                            .dwattr $C$DW$77, DW_AT_TI_symbol_name("STARTADD")
    1058                            .dwattr $C$DW$77, DW_AT_data_member_location[DW_OP_plus_uconst 0x0]
    1059                            .dwattr $C$DW$77, DW_AT_accessibility(DW_ACCESS_public)
    1060                            .dwattr $C$DW$77, DW_AT_decl_file("C:\Users\bob\Documents\Projects\induct_forge\RM57Lx_test\Pr
    1061                            .dwattr $C$DW$77, DW_AT_decl_line(0xa6)
    1062                            .dwattr $C$DW$77, DW_AT_decl_column(0x0d)
    1063                    
    1064                    $C$DW$78        .dwtag  DW_TAG_member
    1065                            .dwattr $C$DW$78, DW_AT_type(*$C$DW$T$20)
    1066                            .dwattr $C$DW$78, DW_AT_name("ENDADD")
    1067                            .dwattr $C$DW$78, DW_AT_TI_symbol_name("ENDADD")
    1068                            .dwattr $C$DW$78, DW_AT_data_member_location[DW_OP_plus_uconst 0x4]
    1069                            .dwattr $C$DW$78, DW_AT_accessibility(DW_ACCESS_public)
    1070                            .dwattr $C$DW$78, DW_AT_decl_file("C:\Users\bob\Documents\Projects\induct_forge\RM57Lx_test\Pr
    1071                            .dwattr $C$DW$78, DW_AT_decl_line(0xa7)
    1072                            .dwattr $C$DW$78, DW_AT_decl_column(0x0d)
    1073                    
    1074                            .dwattr $C$DW$T$25, DW_AT_decl_file("C:\Users\bob\Documents\Projects\induct_forge\RM57Lx_test\
    1075                            .dwattr $C$DW$T$25, DW_AT_decl_line(0xa5)
    1076                            .dwattr $C$DW$T$25, DW_AT_decl_column(0x05)
    1077                            .dwendtag $C$DW$T$25
    1078                    
    1079                    
    1080                    $C$DW$T$52      .dwtag  DW_TAG_array_type
    1081                            .dwattr $C$DW$T$52, DW_AT_type(*$C$DW$T$25)
    1082                            .dwattr $C$DW$T$52, DW_AT_language(DW_LANG_C)
    1083                            .dwattr $C$DW$T$52, DW_AT_byte_size(0x20)
    1084                    $C$DW$79        .dwtag  DW_TAG_subrange_type
    1085                            .dwattr $C$DW$79, DW_AT_upper_bound(0x03)
    1086                    
    1087                            .dwendtag $C$DW$T$52
    1088                    
    1089                    
    1090                    $C$DW$T$26      .dwtag  DW_TAG_structure_type
    1091                            .dwattr $C$DW$T$26, DW_AT_byte_size(0x08)
    1092                    $C$DW$80        .dwtag  DW_TAG_member
    1093                            .dwattr $C$DW$80, DW_AT_type(*$C$DW$T$20)
    1094                            .dwattr $C$DW$80, DW_AT_name("STARTADD")
    1095                            .dwattr $C$DW$80, DW_AT_TI_symbol_name("STARTADD")
    1096                            .dwattr $C$DW$80, DW_AT_data_member_location[DW_OP_plus_uconst 0x0]
    1097                            .dwattr $C$DW$80, DW_AT_accessibility(DW_ACCESS_public)
    1098                            .dwattr $C$DW$80, DW_AT_decl_file("C:\Users\bob\Documents\Projects\induct_forge\RM57Lx_test\Pr
    1099                            .dwattr $C$DW$80, DW_AT_decl_line(0xaf)
    1100                            .dwattr $C$DW$80, DW_AT_decl_column(0x0d)
TI ARM Assembler PC v16.9.0 Thu Feb 16 13:27:10 2017

Tools Copyright (c) 1996-2015 Texas Instruments Incorporated
C:\Users\bob\AppData\Local\Temp\1678410                              PAGE   21

    1101                    
    1102                    $C$DW$81        .dwtag  DW_TAG_member
    1103                            .dwattr $C$DW$81, DW_AT_type(*$C$DW$T$20)
    1104                            .dwattr $C$DW$81, DW_AT_name("ENDADD")
    1105                            .dwattr $C$DW$81, DW_AT_TI_symbol_name("ENDADD")
    1106                            .dwattr $C$DW$81, DW_AT_data_member_location[DW_OP_plus_uconst 0x4]
    1107                            .dwattr $C$DW$81, DW_AT_accessibility(DW_ACCESS_public)
    1108                            .dwattr $C$DW$81, DW_AT_decl_file("C:\Users\bob\Documents\Projects\induct_forge\RM57Lx_test\Pr
    1109                            .dwattr $C$DW$81, DW_AT_decl_line(0xb0)
    1110                            .dwattr $C$DW$81, DW_AT_decl_column(0x0d)
    1111                    
    1112                            .dwattr $C$DW$T$26, DW_AT_decl_file("C:\Users\bob\Documents\Projects\induct_forge\RM57Lx_test\
    1113                            .dwattr $C$DW$T$26, DW_AT_decl_line(0xae)
    1114                            .dwattr $C$DW$T$26, DW_AT_decl_column(0x05)
    1115                            .dwendtag $C$DW$T$26
    1116                    
    1117                    
    1118                    $C$DW$T$53      .dwtag  DW_TAG_array_type
    1119                            .dwattr $C$DW$T$53, DW_AT_type(*$C$DW$T$26)
    1120                            .dwattr $C$DW$T$53, DW_AT_language(DW_LANG_C)
    1121                            .dwattr $C$DW$T$53, DW_AT_byte_size(0x20)
    1122                    $C$DW$82        .dwtag  DW_TAG_subrange_type
    1123                            .dwattr $C$DW$82, DW_AT_upper_bound(0x03)
    1124                    
    1125                            .dwendtag $C$DW$T$53
    1126                    
    1127                    
    1128                    $C$DW$T$27      .dwtag  DW_TAG_structure_type
    1129                            .dwattr $C$DW$T$27, DW_AT_byte_size(0x20)
    1130                    $C$DW$83        .dwtag  DW_TAG_member
    1131                            .dwattr $C$DW$83, DW_AT_type(*$C$DW$T$20)
    1132                            .dwattr $C$DW$83, DW_AT_name("ISADDR")
    1133                            .dwattr $C$DW$83, DW_AT_TI_symbol_name("ISADDR")
    1134                            .dwattr $C$DW$83, DW_AT_data_member_location[DW_OP_plus_uconst 0x0]
    1135                            .dwattr $C$DW$83, DW_AT_accessibility(DW_ACCESS_public)
    1136                            .dwattr $C$DW$83, DW_AT_decl_file("C:\Users\bob\Documents\Projects\induct_forge\RM57Lx_test\Pr
    1137                            .dwattr $C$DW$83, DW_AT_decl_line(0xc7)
    1138                            .dwattr $C$DW$83, DW_AT_decl_column(0x0e)
    1139                    
    1140                    $C$DW$84        .dwtag  DW_TAG_member
    1141                            .dwattr $C$DW$84, DW_AT_type(*$C$DW$T$20)
    1142                            .dwattr $C$DW$84, DW_AT_name("IDADDR")
    1143                            .dwattr $C$DW$84, DW_AT_TI_symbol_name("IDADDR")
    1144                            .dwattr $C$DW$84, DW_AT_data_member_location[DW_OP_plus_uconst 0x4]
    1145                            .dwattr $C$DW$84, DW_AT_accessibility(DW_ACCESS_public)
    1146                            .dwattr $C$DW$84, DW_AT_decl_file("C:\Users\bob\Documents\Projects\induct_forge\RM57Lx_test\Pr
    1147                            .dwattr $C$DW$84, DW_AT_decl_line(0xc8)
    1148                            .dwattr $C$DW$84, DW_AT_decl_column(0x0e)
    1149                    
    1150                    $C$DW$85        .dwtag  DW_TAG_member
    1151                            .dwattr $C$DW$85, DW_AT_type(*$C$DW$T$20)
    1152                            .dwattr $C$DW$85, DW_AT_name("ITCOUNT")
    1153                            .dwattr $C$DW$85, DW_AT_TI_symbol_name("ITCOUNT")
    1154                            .dwattr $C$DW$85, DW_AT_data_member_location[DW_OP_plus_uconst 0x8]
    1155                            .dwattr $C$DW$85, DW_AT_accessibility(DW_ACCESS_public)
TI ARM Assembler PC v16.9.0 Thu Feb 16 13:27:10 2017

Tools Copyright (c) 1996-2015 Texas Instruments Incorporated
C:\Users\bob\AppData\Local\Temp\1678410                              PAGE   22

    1156                            .dwattr $C$DW$85, DW_AT_decl_file("C:\Users\bob\Documents\Projects\induct_forge\RM57Lx_test\Pr
    1157                            .dwattr $C$DW$85, DW_AT_decl_line(0xc9)
    1158                            .dwattr $C$DW$85, DW_AT_decl_column(0x0e)
    1159                    
    1160                    $C$DW$86        .dwtag  DW_TAG_member
    1161                            .dwattr $C$DW$86, DW_AT_type(*$C$DW$T$20)
    1162                            .dwattr $C$DW$86, DW_AT_name("rsvd1")
    1163                            .dwattr $C$DW$86, DW_AT_TI_symbol_name("rsvd1")
    1164                            .dwattr $C$DW$86, DW_AT_data_member_location[DW_OP_plus_uconst 0xc]
    1165                            .dwattr $C$DW$86, DW_AT_accessibility(DW_ACCESS_public)
    1166                            .dwattr $C$DW$86, DW_AT_decl_file("C:\Users\bob\Documents\Projects\induct_forge\RM57Lx_test\Pr
    1167                            .dwattr $C$DW$86, DW_AT_decl_line(0xca)
    1168                            .dwattr $C$DW$86, DW_AT_decl_column(0x0f)
    1169                    
    1170                    $C$DW$87        .dwtag  DW_TAG_member
    1171                            .dwattr $C$DW$87, DW_AT_type(*$C$DW$T$20)
    1172                            .dwattr $C$DW$87, DW_AT_name("CHCTRL")
    1173                            .dwattr $C$DW$87, DW_AT_TI_symbol_name("CHCTRL")
    1174                            .dwattr $C$DW$87, DW_AT_data_member_location[DW_OP_plus_uconst 0x10]
    1175                            .dwattr $C$DW$87, DW_AT_accessibility(DW_ACCESS_public)
    1176                            .dwattr $C$DW$87, DW_AT_decl_file("C:\Users\bob\Documents\Projects\induct_forge\RM57Lx_test\Pr
    1177                            .dwattr $C$DW$87, DW_AT_decl_line(0xcb)
    1178                            .dwattr $C$DW$87, DW_AT_decl_column(0x0e)
    1179                    
    1180                    $C$DW$88        .dwtag  DW_TAG_member
    1181                            .dwattr $C$DW$88, DW_AT_type(*$C$DW$T$20)
    1182                            .dwattr $C$DW$88, DW_AT_name("EIOFF")
    1183                            .dwattr $C$DW$88, DW_AT_TI_symbol_name("EIOFF")
    1184                            .dwattr $C$DW$88, DW_AT_data_member_location[DW_OP_plus_uconst 0x14]
    1185                            .dwattr $C$DW$88, DW_AT_accessibility(DW_ACCESS_public)
    1186                            .dwattr $C$DW$88, DW_AT_decl_file("C:\Users\bob\Documents\Projects\induct_forge\RM57Lx_test\Pr
    1187                            .dwattr $C$DW$88, DW_AT_decl_line(0xcc)
    1188                            .dwattr $C$DW$88, DW_AT_decl_column(0x0e)
    1189                    
    1190                    $C$DW$89        .dwtag  DW_TAG_member
    1191                            .dwattr $C$DW$89, DW_AT_type(*$C$DW$T$20)
    1192                            .dwattr $C$DW$89, DW_AT_name("FIOFF")
    1193                            .dwattr $C$DW$89, DW_AT_TI_symbol_name("FIOFF")
    1194                            .dwattr $C$DW$89, DW_AT_data_member_location[DW_OP_plus_uconst 0x18]
    1195                            .dwattr $C$DW$89, DW_AT_accessibility(DW_ACCESS_public)
    1196                            .dwattr $C$DW$89, DW_AT_decl_file("C:\Users\bob\Documents\Projects\induct_forge\RM57Lx_test\Pr
    1197                            .dwattr $C$DW$89, DW_AT_decl_line(0xcd)
    1198                            .dwattr $C$DW$89, DW_AT_decl_column(0x0e)
    1199                    
    1200                    $C$DW$90        .dwtag  DW_TAG_member
    1201                            .dwattr $C$DW$90, DW_AT_type(*$C$DW$T$20)
    1202                            .dwattr $C$DW$90, DW_AT_name("rsvd2")
    1203                            .dwattr $C$DW$90, DW_AT_TI_symbol_name("rsvd2")
    1204                            .dwattr $C$DW$90, DW_AT_data_member_location[DW_OP_plus_uconst 0x1c]
    1205                            .dwattr $C$DW$90, DW_AT_accessibility(DW_ACCESS_public)
    1206                            .dwattr $C$DW$90, DW_AT_decl_file("C:\Users\bob\Documents\Projects\induct_forge\RM57Lx_test\Pr
    1207                            .dwattr $C$DW$90, DW_AT_decl_line(0xce)
    1208                            .dwattr $C$DW$90, DW_AT_decl_column(0x0f)
    1209                    
    1210                            .dwattr $C$DW$T$27, DW_AT_decl_file("C:\Users\bob\Documents\Projects\induct_forge\RM57Lx_test\
TI ARM Assembler PC v16.9.0 Thu Feb 16 13:27:10 2017

Tools Copyright (c) 1996-2015 Texas Instruments Incorporated
C:\Users\bob\AppData\Local\Temp\1678410                              PAGE   23

    1211                            .dwattr $C$DW$T$27, DW_AT_decl_line(0xc6)
    1212                            .dwattr $C$DW$T$27, DW_AT_decl_column(0x06)
    1213                            .dwendtag $C$DW$T$27
    1214                    
    1215                    
    1216                    $C$DW$T$31      .dwtag  DW_TAG_array_type
    1217                            .dwattr $C$DW$T$31, DW_AT_type(*$C$DW$T$27)
    1218                            .dwattr $C$DW$T$31, DW_AT_language(DW_LANG_C)
    1219                            .dwattr $C$DW$T$31, DW_AT_byte_size(0x400)
    1220                    $C$DW$91        .dwtag  DW_TAG_subrange_type
    1221                            .dwattr $C$DW$91, DW_AT_upper_bound(0x1f)
    1222                    
    1223                            .dwendtag $C$DW$T$31
    1224                    
    1225                    
    1226                    $C$DW$T$29      .dwtag  DW_TAG_structure_type
    1227                            .dwattr $C$DW$T$29, DW_AT_byte_size(0x400)
    1228                    $C$DW$92        .dwtag  DW_TAG_member
    1229                            .dwattr $C$DW$92, DW_AT_type(*$C$DW$T$28)
    1230                            .dwattr $C$DW$92, DW_AT_name("res")
    1231                            .dwattr $C$DW$92, DW_AT_TI_symbol_name("res")
    1232                            .dwattr $C$DW$92, DW_AT_data_member_location[DW_OP_plus_uconst 0x0]
    1233                            .dwattr $C$DW$92, DW_AT_accessibility(DW_ACCESS_public)
    1234                            .dwattr $C$DW$92, DW_AT_decl_file("C:\Users\bob\Documents\Projects\induct_forge\RM57Lx_test\Pr
    1235                            .dwattr $C$DW$92, DW_AT_decl_line(0xd3)
    1236                            .dwattr $C$DW$92, DW_AT_decl_column(0x0f)
    1237                    
    1238                            .dwattr $C$DW$T$29, DW_AT_decl_file("C:\Users\bob\Documents\Projects\induct_forge\RM57Lx_test\
    1239                            .dwattr $C$DW$T$29, DW_AT_decl_line(0xd2)
    1240                            .dwattr $C$DW$T$29, DW_AT_decl_column(0x06)
    1241                            .dwendtag $C$DW$T$29
    1242                    
    1243                    
    1244                    $C$DW$T$30      .dwtag  DW_TAG_structure_type
    1245                            .dwattr $C$DW$T$30, DW_AT_byte_size(0x10)
    1246                    $C$DW$93        .dwtag  DW_TAG_member
    1247                            .dwattr $C$DW$93, DW_AT_type(*$C$DW$T$20)
    1248                            .dwattr $C$DW$93, DW_AT_name("CSADDR")
    1249                            .dwattr $C$DW$93, DW_AT_TI_symbol_name("CSADDR")
    1250                            .dwattr $C$DW$93, DW_AT_data_member_location[DW_OP_plus_uconst 0x0]
    1251                            .dwattr $C$DW$93, DW_AT_accessibility(DW_ACCESS_public)
    1252                            .dwattr $C$DW$93, DW_AT_decl_file("C:\Users\bob\Documents\Projects\induct_forge\RM57Lx_test\Pr
    1253                            .dwattr $C$DW$93, DW_AT_decl_line(0xd8)
    1254                            .dwattr $C$DW$93, DW_AT_decl_column(0x0e)
    1255                    
    1256                    $C$DW$94        .dwtag  DW_TAG_member
    1257                            .dwattr $C$DW$94, DW_AT_type(*$C$DW$T$20)
    1258                            .dwattr $C$DW$94, DW_AT_name("CDADDR")
    1259                            .dwattr $C$DW$94, DW_AT_TI_symbol_name("CDADDR")
    1260                            .dwattr $C$DW$94, DW_AT_data_member_location[DW_OP_plus_uconst 0x4]
    1261                            .dwattr $C$DW$94, DW_AT_accessibility(DW_ACCESS_public)
    1262                            .dwattr $C$DW$94, DW_AT_decl_file("C:\Users\bob\Documents\Projects\induct_forge\RM57Lx_test\Pr
    1263                            .dwattr $C$DW$94, DW_AT_decl_line(0xd9)
    1264                            .dwattr $C$DW$94, DW_AT_decl_column(0x0e)
    1265                    
TI ARM Assembler PC v16.9.0 Thu Feb 16 13:27:10 2017

Tools Copyright (c) 1996-2015 Texas Instruments Incorporated
C:\Users\bob\AppData\Local\Temp\1678410                              PAGE   24

    1266                    $C$DW$95        .dwtag  DW_TAG_member
    1267                            .dwattr $C$DW$95, DW_AT_type(*$C$DW$T$20)
    1268                            .dwattr $C$DW$95, DW_AT_name("CTCOUNT")
    1269                            .dwattr $C$DW$95, DW_AT_TI_symbol_name("CTCOUNT")
    1270                            .dwattr $C$DW$95, DW_AT_data_member_location[DW_OP_plus_uconst 0x8]
    1271                            .dwattr $C$DW$95, DW_AT_accessibility(DW_ACCESS_public)
    1272                            .dwattr $C$DW$95, DW_AT_decl_file("C:\Users\bob\Documents\Projects\induct_forge\RM57Lx_test\Pr
    1273                            .dwattr $C$DW$95, DW_AT_decl_line(0xda)
    1274                            .dwattr $C$DW$95, DW_AT_decl_column(0x0e)
    1275                    
    1276                    $C$DW$96        .dwtag  DW_TAG_member
    1277                            .dwattr $C$DW$96, DW_AT_type(*$C$DW$T$20)
    1278                            .dwattr $C$DW$96, DW_AT_name("rsvd3")
    1279                            .dwattr $C$DW$96, DW_AT_TI_symbol_name("rsvd3")
    1280                            .dwattr $C$DW$96, DW_AT_data_member_location[DW_OP_plus_uconst 0xc]
    1281                            .dwattr $C$DW$96, DW_AT_accessibility(DW_ACCESS_public)
    1282                            .dwattr $C$DW$96, DW_AT_decl_file("C:\Users\bob\Documents\Projects\induct_forge\RM57Lx_test\Pr
    1283                            .dwattr $C$DW$96, DW_AT_decl_line(0xdb)
    1284                            .dwattr $C$DW$96, DW_AT_decl_column(0x0f)
    1285                    
    1286                            .dwattr $C$DW$T$30, DW_AT_decl_file("C:\Users\bob\Documents\Projects\induct_forge\RM57Lx_test\
    1287                            .dwattr $C$DW$T$30, DW_AT_decl_line(0xd7)
    1288                            .dwattr $C$DW$T$30, DW_AT_decl_column(0x06)
    1289                            .dwendtag $C$DW$T$30
    1290                    
    1291                    
    1292                    $C$DW$T$32      .dwtag  DW_TAG_array_type
    1293                            .dwattr $C$DW$T$32, DW_AT_type(*$C$DW$T$30)
    1294                            .dwattr $C$DW$T$32, DW_AT_language(DW_LANG_C)
    1295                            .dwattr $C$DW$T$32, DW_AT_byte_size(0x200)
    1296                    $C$DW$97        .dwtag  DW_TAG_subrange_type
    1297                            .dwattr $C$DW$97, DW_AT_upper_bound(0x1f)
    1298                    
    1299                            .dwendtag $C$DW$T$32
    1300                    
    1301                    
    1302                    $C$DW$T$33      .dwtag  DW_TAG_structure_type
    1303                            .dwattr $C$DW$T$33, DW_AT_byte_size(0xa00)
    1304                    $C$DW$98        .dwtag  DW_TAG_member
    1305                            .dwattr $C$DW$98, DW_AT_type(*$C$DW$T$31)
    1306                            .dwattr $C$DW$98, DW_AT_name("PCP")
    1307                            .dwattr $C$DW$98, DW_AT_TI_symbol_name("PCP")
    1308                            .dwattr $C$DW$98, DW_AT_data_member_location[DW_OP_plus_uconst 0x0]
    1309                            .dwattr $C$DW$98, DW_AT_accessibility(DW_ACCESS_public)
    1310                            .dwattr $C$DW$98, DW_AT_decl_file("C:\Users\bob\Documents\Projects\induct_forge\RM57Lx_test\Pr
    1311                            .dwattr $C$DW$98, DW_AT_decl_line(0xcf)
    1312                            .dwattr $C$DW$98, DW_AT_decl_column(0x07)
    1313                    
    1314                    $C$DW$99        .dwtag  DW_TAG_member
    1315                            .dwattr $C$DW$99, DW_AT_type(*$C$DW$T$29)
    1316                            .dwattr $C$DW$99, DW_AT_name("RESERVED")
    1317                            .dwattr $C$DW$99, DW_AT_TI_symbol_name("RESERVED")
    1318                            .dwattr $C$DW$99, DW_AT_data_member_location[DW_OP_plus_uconst 0x400]
    1319                            .dwattr $C$DW$99, DW_AT_accessibility(DW_ACCESS_public)
    1320                            .dwattr $C$DW$99, DW_AT_decl_file("C:\Users\bob\Documents\Projects\induct_forge\RM57Lx_test\Pr
TI ARM Assembler PC v16.9.0 Thu Feb 16 13:27:10 2017

Tools Copyright (c) 1996-2015 Texas Instruments Incorporated
C:\Users\bob\AppData\Local\Temp\1678410                              PAGE   25

    1321                            .dwattr $C$DW$99, DW_AT_decl_line(0xd4)
    1322                            .dwattr $C$DW$99, DW_AT_decl_column(0x08)
    1323                    
    1324                    $C$DW$100       .dwtag  DW_TAG_member
    1325                            .dwattr $C$DW$100, DW_AT_type(*$C$DW$T$32)
    1326                            .dwattr $C$DW$100, DW_AT_name("WCP")
    1327                            .dwattr $C$DW$100, DW_AT_TI_symbol_name("WCP")
    1328                            .dwattr $C$DW$100, DW_AT_data_member_location[DW_OP_plus_uconst 0x800]
    1329                            .dwattr $C$DW$100, DW_AT_accessibility(DW_ACCESS_public)
    1330                            .dwattr $C$DW$100, DW_AT_decl_file("C:\Users\bob\Documents\Projects\induct_forge\RM57Lx_test\P
    1331                            .dwattr $C$DW$100, DW_AT_decl_line(0xdc)
    1332                            .dwattr $C$DW$100, DW_AT_decl_column(0x07)
    1333                    
    1334                            .dwattr $C$DW$T$33, DW_AT_decl_file("C:\Users\bob\Documents\Projects\induct_forge\RM57Lx_test\
    1335                            .dwattr $C$DW$T$33, DW_AT_decl_line(0xc4)
    1336                            .dwattr $C$DW$T$33, DW_AT_decl_column(0x01)
    1337                            .dwendtag $C$DW$T$33
    1338                    
    1339                    $C$DW$T$75      .dwtag  DW_TAG_volatile_type
    1340                            .dwattr $C$DW$T$75, DW_AT_type(*$C$DW$T$33)
    1341                    
    1342                    $C$DW$T$76      .dwtag  DW_TAG_typedef
    1343                            .dwattr $C$DW$T$76, DW_AT_name("dmaRAMBASE_t")
    1344                            .dwattr $C$DW$T$76, DW_AT_type(*$C$DW$T$75)
    1345                            .dwattr $C$DW$T$76, DW_AT_language(DW_LANG_C)
    1346                            .dwattr $C$DW$T$76, DW_AT_decl_file("C:\Users\bob\Documents\Projects\induct_forge\RM57Lx_test\
    1347                            .dwattr $C$DW$T$76, DW_AT_decl_line(0xde)
    1348                            .dwattr $C$DW$T$76, DW_AT_decl_column(0x03)
    1349                    
    1350                    
    1351                    $C$DW$T$35      .dwtag  DW_TAG_structure_type
    1352                            .dwattr $C$DW$T$35, DW_AT_byte_size(0x18)
    1353                    $C$DW$101       .dwtag  DW_TAG_member
    1354                            .dwattr $C$DW$101, DW_AT_type(*$C$DW$T$10)
    1355                            .dwattr $C$DW$101, DW_AT_name("fd")
    1356                            .dwattr $C$DW$101, DW_AT_TI_symbol_name("fd")
    1357                            .dwattr $C$DW$101, DW_AT_data_member_location[DW_OP_plus_uconst 0x0]
    1358                            .dwattr $C$DW$101, DW_AT_accessibility(DW_ACCESS_public)
    1359                            .dwattr $C$DW$101, DW_AT_decl_file("C:/ti/ccsv7/tools/compiler/ti-cgt-arm_16.9.0.LTS/include/s
    1360                            .dwattr $C$DW$101, DW_AT_decl_line(0x5c)
    1361                            .dwattr $C$DW$101, DW_AT_decl_column(0x0b)
    1362                    
    1363                    $C$DW$102       .dwtag  DW_TAG_member
    1364                            .dwattr $C$DW$102, DW_AT_type(*$C$DW$T$34)
    1365                            .dwattr $C$DW$102, DW_AT_name("buf")
    1366                            .dwattr $C$DW$102, DW_AT_TI_symbol_name("buf")
    1367                            .dwattr $C$DW$102, DW_AT_data_member_location[DW_OP_plus_uconst 0x4]
    1368                            .dwattr $C$DW$102, DW_AT_accessibility(DW_ACCESS_public)
    1369                            .dwattr $C$DW$102, DW_AT_decl_file("C:/ti/ccsv7/tools/compiler/ti-cgt-arm_16.9.0.LTS/include/s
    1370                            .dwattr $C$DW$102, DW_AT_decl_line(0x5d)
    1371                            .dwattr $C$DW$102, DW_AT_decl_column(0x16)
    1372                    
    1373                    $C$DW$103       .dwtag  DW_TAG_member
    1374                            .dwattr $C$DW$103, DW_AT_type(*$C$DW$T$34)
    1375                            .dwattr $C$DW$103, DW_AT_name("pos")
TI ARM Assembler PC v16.9.0 Thu Feb 16 13:27:10 2017

Tools Copyright (c) 1996-2015 Texas Instruments Incorporated
C:\Users\bob\AppData\Local\Temp\1678410                              PAGE   26

    1376                            .dwattr $C$DW$103, DW_AT_TI_symbol_name("pos")
    1377                            .dwattr $C$DW$103, DW_AT_data_member_location[DW_OP_plus_uconst 0x8]
    1378                            .dwattr $C$DW$103, DW_AT_accessibility(DW_ACCESS_public)
    1379                            .dwattr $C$DW$103, DW_AT_decl_file("C:/ti/ccsv7/tools/compiler/ti-cgt-arm_16.9.0.LTS/include/s
    1380                            .dwattr $C$DW$103, DW_AT_decl_line(0x5e)
    1381                            .dwattr $C$DW$103, DW_AT_decl_column(0x16)
    1382                    
    1383                    $C$DW$104       .dwtag  DW_TAG_member
    1384                            .dwattr $C$DW$104, DW_AT_type(*$C$DW$T$34)
    1385                            .dwattr $C$DW$104, DW_AT_name("bufend")
    1386                            .dwattr $C$DW$104, DW_AT_TI_symbol_name("bufend")
    1387                            .dwattr $C$DW$104, DW_AT_data_member_location[DW_OP_plus_uconst 0xc]
    1388                            .dwattr $C$DW$104, DW_AT_accessibility(DW_ACCESS_public)
    1389                            .dwattr $C$DW$104, DW_AT_decl_file("C:/ti/ccsv7/tools/compiler/ti-cgt-arm_16.9.0.LTS/include/s
    1390                            .dwattr $C$DW$104, DW_AT_decl_line(0x5f)
    1391                            .dwattr $C$DW$104, DW_AT_decl_column(0x16)
    1392                    
    1393                    $C$DW$105       .dwtag  DW_TAG_member
    1394                            .dwattr $C$DW$105, DW_AT_type(*$C$DW$T$34)
    1395                            .dwattr $C$DW$105, DW_AT_name("buff_stop")
    1396                            .dwattr $C$DW$105, DW_AT_TI_symbol_name("buff_stop")
    1397                            .dwattr $C$DW$105, DW_AT_data_member_location[DW_OP_plus_uconst 0x10]
    1398                            .dwattr $C$DW$105, DW_AT_accessibility(DW_ACCESS_public)
    1399                            .dwattr $C$DW$105, DW_AT_decl_file("C:/ti/ccsv7/tools/compiler/ti-cgt-arm_16.9.0.LTS/include/s
    1400                            .dwattr $C$DW$105, DW_AT_decl_line(0x60)
    1401                            .dwattr $C$DW$105, DW_AT_decl_column(0x16)
    1402                    
    1403                    $C$DW$106       .dwtag  DW_TAG_member
    1404                            .dwattr $C$DW$106, DW_AT_type(*$C$DW$T$11)
    1405                            .dwattr $C$DW$106, DW_AT_name("flags")
    1406                            .dwattr $C$DW$106, DW_AT_TI_symbol_name("flags")
    1407                            .dwattr $C$DW$106, DW_AT_data_member_location[DW_OP_plus_uconst 0x14]
    1408                            .dwattr $C$DW$106, DW_AT_accessibility(DW_ACCESS_public)
    1409                            .dwattr $C$DW$106, DW_AT_decl_file("C:/ti/ccsv7/tools/compiler/ti-cgt-arm_16.9.0.LTS/include/s
    1410                            .dwattr $C$DW$106, DW_AT_decl_line(0x61)
    1411                            .dwattr $C$DW$106, DW_AT_decl_column(0x16)
    1412                    
    1413                            .dwattr $C$DW$T$35, DW_AT_decl_file("C:/ti/ccsv7/tools/compiler/ti-cgt-arm_16.9.0.LTS/include/
    1414                            .dwattr $C$DW$T$35, DW_AT_decl_line(0x5b)
    1415                            .dwattr $C$DW$T$35, DW_AT_decl_column(0x10)
    1416                            .dwendtag $C$DW$T$35
    1417                    
    1418                    $C$DW$T$77      .dwtag  DW_TAG_typedef
    1419                            .dwattr $C$DW$T$77, DW_AT_name("FILE")
    1420                            .dwattr $C$DW$T$77, DW_AT_type(*$C$DW$T$35)
    1421                            .dwattr $C$DW$T$77, DW_AT_language(DW_LANG_C)
    1422                            .dwattr $C$DW$T$77, DW_AT_decl_file("C:/ti/ccsv7/tools/compiler/ti-cgt-arm_16.9.0.LTS/include/
    1423                            .dwattr $C$DW$T$77, DW_AT_decl_line(0x62)
    1424                            .dwattr $C$DW$T$77, DW_AT_decl_column(0x03)
    1425                    
    1426                    
    1427                    $C$DW$T$78      .dwtag  DW_TAG_enumeration_type
    1428                            .dwattr $C$DW$T$78, DW_AT_name("CAMIndex")
    1429                            .dwattr $C$DW$T$78, DW_AT_byte_size(0x01)
    1430                    $C$DW$107       .dwtag  DW_TAG_enumerator
TI ARM Assembler PC v16.9.0 Thu Feb 16 13:27:10 2017

Tools Copyright (c) 1996-2015 Texas Instruments Incorporated
C:\Users\bob\AppData\Local\Temp\1678410                              PAGE   27

    1431                            .dwattr $C$DW$107, DW_AT_name("CAMIndex_0")
    1432                            .dwattr $C$DW$107, DW_AT_const_value(0x00)
    1433                            .dwattr $C$DW$107, DW_AT_decl_file("C:/Users/bob/Documents/Projects/induct_forge/RM57Lx_test/P
    1434                            .dwattr $C$DW$107, DW_AT_decl_line(0x40)
    1435                            .dwattr $C$DW$107, DW_AT_decl_column(0x02)
    1436                    
    1437                    $C$DW$108       .dwtag  DW_TAG_enumerator
    1438                            .dwattr $C$DW$108, DW_AT_name("CAMIndex_1")
    1439                            .dwattr $C$DW$108, DW_AT_const_value(0x01)
    1440                            .dwattr $C$DW$108, DW_AT_decl_file("C:/Users/bob/Documents/Projects/induct_forge/RM57Lx_test/P
    1441                            .dwattr $C$DW$108, DW_AT_decl_line(0x41)
    1442                            .dwattr $C$DW$108, DW_AT_decl_column(0x02)
    1443                    
    1444                    $C$DW$109       .dwtag  DW_TAG_enumerator
    1445                            .dwattr $C$DW$109, DW_AT_name("CAMIndex_2")
    1446                            .dwattr $C$DW$109, DW_AT_const_value(0x02)
    1447                            .dwattr $C$DW$109, DW_AT_decl_file("C:/Users/bob/Documents/Projects/induct_forge/RM57Lx_test/P
    1448                            .dwattr $C$DW$109, DW_AT_decl_line(0x42)
    1449                            .dwattr $C$DW$109, DW_AT_decl_column(0x02)
    1450                    
    1451                    $C$DW$110       .dwtag  DW_TAG_enumerator
    1452                            .dwattr $C$DW$110, DW_AT_name("CAMIndex_3")
    1453                            .dwattr $C$DW$110, DW_AT_const_value(0x03)
    1454                            .dwattr $C$DW$110, DW_AT_decl_file("C:/Users/bob/Documents/Projects/induct_forge/RM57Lx_test/P
    1455                            .dwattr $C$DW$110, DW_AT_decl_line(0x43)
    1456                            .dwattr $C$DW$110, DW_AT_decl_column(0x02)
    1457                    
    1458                    $C$DW$111       .dwtag  DW_TAG_enumerator
    1459                            .dwattr $C$DW$111, DW_AT_name("CAMIndex_4")
    1460                            .dwattr $C$DW$111, DW_AT_const_value(0x04)
    1461                            .dwattr $C$DW$111, DW_AT_decl_file("C:/Users/bob/Documents/Projects/induct_forge/RM57Lx_test/P
    1462                            .dwattr $C$DW$111, DW_AT_decl_line(0x44)
    1463                            .dwattr $C$DW$111, DW_AT_decl_column(0x02)
    1464                    
    1465                    $C$DW$112       .dwtag  DW_TAG_enumerator
    1466                            .dwattr $C$DW$112, DW_AT_name("CAMIndex_5")
    1467                            .dwattr $C$DW$112, DW_AT_const_value(0x05)
    1468                            .dwattr $C$DW$112, DW_AT_decl_file("C:/Users/bob/Documents/Projects/induct_forge/RM57Lx_test/P
    1469                            .dwattr $C$DW$112, DW_AT_decl_line(0x45)
    1470                            .dwattr $C$DW$112, DW_AT_decl_column(0x02)
    1471                    
    1472                    $C$DW$113       .dwtag  DW_TAG_enumerator
    1473                            .dwattr $C$DW$113, DW_AT_name("CAMIndex_6")
    1474                            .dwattr $C$DW$113, DW_AT_const_value(0x06)
    1475                            .dwattr $C$DW$113, DW_AT_decl_file("C:/Users/bob/Documents/Projects/induct_forge/RM57Lx_test/P
    1476                            .dwattr $C$DW$113, DW_AT_decl_line(0x46)
    1477                            .dwattr $C$DW$113, DW_AT_decl_column(0x02)
    1478                    
    1479                    $C$DW$114       .dwtag  DW_TAG_enumerator
    1480                            .dwattr $C$DW$114, DW_AT_name("CAMIndex_7")
    1481                            .dwattr $C$DW$114, DW_AT_const_value(0x07)
    1482                            .dwattr $C$DW$114, DW_AT_decl_file("C:/Users/bob/Documents/Projects/induct_forge/RM57Lx_test/P
    1483                            .dwattr $C$DW$114, DW_AT_decl_line(0x47)
    1484                            .dwattr $C$DW$114, DW_AT_decl_column(0x02)
    1485                    
TI ARM Assembler PC v16.9.0 Thu Feb 16 13:27:10 2017

Tools Copyright (c) 1996-2015 Texas Instruments Incorporated
C:\Users\bob\AppData\Local\Temp\1678410                              PAGE   28

    1486                    $C$DW$115       .dwtag  DW_TAG_enumerator
    1487                            .dwattr $C$DW$115, DW_AT_name("CAMIndex_8")
    1488                            .dwattr $C$DW$115, DW_AT_const_value(0x08)
    1489                            .dwattr $C$DW$115, DW_AT_decl_file("C:/Users/bob/Documents/Projects/induct_forge/RM57Lx_test/P
    1490                            .dwattr $C$DW$115, DW_AT_decl_line(0x48)
    1491                            .dwattr $C$DW$115, DW_AT_decl_column(0x02)
    1492                    
    1493                    $C$DW$116       .dwtag  DW_TAG_enumerator
    1494                            .dwattr $C$DW$116, DW_AT_name("CAMIndex_9")
    1495                            .dwattr $C$DW$116, DW_AT_const_value(0x09)
    1496                            .dwattr $C$DW$116, DW_AT_decl_file("C:/Users/bob/Documents/Projects/induct_forge/RM57Lx_test/P
    1497                            .dwattr $C$DW$116, DW_AT_decl_line(0x49)
    1498                            .dwattr $C$DW$116, DW_AT_decl_column(0x02)
    1499                    
    1500                    $C$DW$117       .dwtag  DW_TAG_enumerator
    1501                            .dwattr $C$DW$117, DW_AT_name("CAMIndex_10")
    1502                            .dwattr $C$DW$117, DW_AT_const_value(0x0a)
    1503                            .dwattr $C$DW$117, DW_AT_decl_file("C:/Users/bob/Documents/Projects/induct_forge/RM57Lx_test/P
    1504                            .dwattr $C$DW$117, DW_AT_decl_line(0x4a)
    1505                            .dwattr $C$DW$117, DW_AT_decl_column(0x02)
    1506                    
    1507                    $C$DW$118       .dwtag  DW_TAG_enumerator
    1508                            .dwattr $C$DW$118, DW_AT_name("CAMIndex_11")
    1509                            .dwattr $C$DW$118, DW_AT_const_value(0x0b)
    1510                            .dwattr $C$DW$118, DW_AT_decl_file("C:/Users/bob/Documents/Projects/induct_forge/RM57Lx_test/P
    1511                            .dwattr $C$DW$118, DW_AT_decl_line(0x4b)
    1512                            .dwattr $C$DW$118, DW_AT_decl_column(0x02)
    1513                    
    1514                    $C$DW$119       .dwtag  DW_TAG_enumerator
    1515                            .dwattr $C$DW$119, DW_AT_name("CAMIndex_12")
    1516                            .dwattr $C$DW$119, DW_AT_const_value(0x0c)
    1517                            .dwattr $C$DW$119, DW_AT_decl_file("C:/Users/bob/Documents/Projects/induct_forge/RM57Lx_test/P
    1518                            .dwattr $C$DW$119, DW_AT_decl_line(0x4c)
    1519                            .dwattr $C$DW$119, DW_AT_decl_column(0x02)
    1520                    
    1521                    $C$DW$120       .dwtag  DW_TAG_enumerator
    1522                            .dwattr $C$DW$120, DW_AT_name("CAMIndex_13")
    1523                            .dwattr $C$DW$120, DW_AT_const_value(0x0d)
    1524                            .dwattr $C$DW$120, DW_AT_decl_file("C:/Users/bob/Documents/Projects/induct_forge/RM57Lx_test/P
    1525                            .dwattr $C$DW$120, DW_AT_decl_line(0x4d)
    1526                            .dwattr $C$DW$120, DW_AT_decl_column(0x02)
    1527                    
    1528                    $C$DW$121       .dwtag  DW_TAG_enumerator
    1529                            .dwattr $C$DW$121, DW_AT_name("CAMIndex_14")
    1530                            .dwattr $C$DW$121, DW_AT_const_value(0x0e)
    1531                            .dwattr $C$DW$121, DW_AT_decl_file("C:/Users/bob/Documents/Projects/induct_forge/RM57Lx_test/P
    1532                            .dwattr $C$DW$121, DW_AT_decl_line(0x4e)
    1533                            .dwattr $C$DW$121, DW_AT_decl_column(0x02)
    1534                    
    1535                    $C$DW$122       .dwtag  DW_TAG_enumerator
    1536                            .dwattr $C$DW$122, DW_AT_name("CAMIndex_15")
    1537                            .dwattr $C$DW$122, DW_AT_const_value(0x0f)
    1538                            .dwattr $C$DW$122, DW_AT_decl_file("C:/Users/bob/Documents/Projects/induct_forge/RM57Lx_test/P
    1539                            .dwattr $C$DW$122, DW_AT_decl_line(0x4f)
    1540                            .dwattr $C$DW$122, DW_AT_decl_column(0x02)
TI ARM Assembler PC v16.9.0 Thu Feb 16 13:27:10 2017

Tools Copyright (c) 1996-2015 Texas Instruments Incorporated
C:\Users\bob\AppData\Local\Temp\1678410                              PAGE   29

    1541                    
    1542                    $C$DW$123       .dwtag  DW_TAG_enumerator
    1543                            .dwattr $C$DW$123, DW_AT_name("CAMIndex_16")
    1544                            .dwattr $C$DW$123, DW_AT_const_value(0x10)
    1545                            .dwattr $C$DW$123, DW_AT_decl_file("C:/Users/bob/Documents/Projects/induct_forge/RM57Lx_test/P
    1546                            .dwattr $C$DW$123, DW_AT_decl_line(0x50)
    1547                            .dwattr $C$DW$123, DW_AT_decl_column(0x02)
    1548                    
    1549                    $C$DW$124       .dwtag  DW_TAG_enumerator
    1550                            .dwattr $C$DW$124, DW_AT_name("CAMIndex_17")
    1551                            .dwattr $C$DW$124, DW_AT_const_value(0x11)
    1552                            .dwattr $C$DW$124, DW_AT_decl_file("C:/Users/bob/Documents/Projects/induct_forge/RM57Lx_test/P
    1553                            .dwattr $C$DW$124, DW_AT_decl_line(0x51)
    1554                            .dwattr $C$DW$124, DW_AT_decl_column(0x02)
    1555                    
    1556                    $C$DW$125       .dwtag  DW_TAG_enumerator
    1557                            .dwattr $C$DW$125, DW_AT_name("CAMIndex_18")
    1558                            .dwattr $C$DW$125, DW_AT_const_value(0x12)
    1559                            .dwattr $C$DW$125, DW_AT_decl_file("C:/Users/bob/Documents/Projects/induct_forge/RM57Lx_test/P
    1560                            .dwattr $C$DW$125, DW_AT_decl_line(0x52)
    1561                            .dwattr $C$DW$125, DW_AT_decl_column(0x02)
    1562                    
    1563                    $C$DW$126       .dwtag  DW_TAG_enumerator
    1564                            .dwattr $C$DW$126, DW_AT_name("CAMIndex_19")
    1565                            .dwattr $C$DW$126, DW_AT_const_value(0x13)
    1566                            .dwattr $C$DW$126, DW_AT_decl_file("C:/Users/bob/Documents/Projects/induct_forge/RM57Lx_test/P
    1567                            .dwattr $C$DW$126, DW_AT_decl_line(0x53)
    1568                            .dwattr $C$DW$126, DW_AT_decl_column(0x02)
    1569                    
    1570                    $C$DW$127       .dwtag  DW_TAG_enumerator
    1571                            .dwattr $C$DW$127, DW_AT_name("CAMIndex_20")
    1572                            .dwattr $C$DW$127, DW_AT_const_value(0x14)
    1573                            .dwattr $C$DW$127, DW_AT_decl_file("C:/Users/bob/Documents/Projects/induct_forge/RM57Lx_test/P
    1574                            .dwattr $C$DW$127, DW_AT_decl_line(0x54)
    1575                            .dwattr $C$DW$127, DW_AT_decl_column(0x02)
    1576                    
    1577                    $C$DW$128       .dwtag  DW_TAG_enumerator
    1578                            .dwattr $C$DW$128, DW_AT_name("CAMIndex_21")
    1579                            .dwattr $C$DW$128, DW_AT_const_value(0x15)
    1580                            .dwattr $C$DW$128, DW_AT_decl_file("C:/Users/bob/Documents/Projects/induct_forge/RM57Lx_test/P
    1581                            .dwattr $C$DW$128, DW_AT_decl_line(0x55)
    1582                            .dwattr $C$DW$128, DW_AT_decl_column(0x02)
    1583                    
    1584                    $C$DW$129       .dwtag  DW_TAG_enumerator
    1585                            .dwattr $C$DW$129, DW_AT_name("CAMIndex_22")
    1586                            .dwattr $C$DW$129, DW_AT_const_value(0x16)
    1587                            .dwattr $C$DW$129, DW_AT_decl_file("C:/Users/bob/Documents/Projects/induct_forge/RM57Lx_test/P
    1588                            .dwattr $C$DW$129, DW_AT_decl_line(0x56)
    1589                            .dwattr $C$DW$129, DW_AT_decl_column(0x02)
    1590                    
    1591                    $C$DW$130       .dwtag  DW_TAG_enumerator
    1592                            .dwattr $C$DW$130, DW_AT_name("CAMIndex_23")
    1593                            .dwattr $C$DW$130, DW_AT_const_value(0x17)
    1594                            .dwattr $C$DW$130, DW_AT_decl_file("C:/Users/bob/Documents/Projects/induct_forge/RM57Lx_test/P
    1595                            .dwattr $C$DW$130, DW_AT_decl_line(0x57)
TI ARM Assembler PC v16.9.0 Thu Feb 16 13:27:10 2017

Tools Copyright (c) 1996-2015 Texas Instruments Incorporated
C:\Users\bob\AppData\Local\Temp\1678410                              PAGE   30

    1596                            .dwattr $C$DW$130, DW_AT_decl_column(0x02)
    1597                    
    1598                    $C$DW$131       .dwtag  DW_TAG_enumerator
    1599                            .dwattr $C$DW$131, DW_AT_name("CAMIndex_24")
    1600                            .dwattr $C$DW$131, DW_AT_const_value(0x18)
    1601                            .dwattr $C$DW$131, DW_AT_decl_file("C:/Users/bob/Documents/Projects/induct_forge/RM57Lx_test/P
    1602                            .dwattr $C$DW$131, DW_AT_decl_line(0x58)
    1603                            .dwattr $C$DW$131, DW_AT_decl_column(0x02)
    1604                    
    1605                    $C$DW$132       .dwtag  DW_TAG_enumerator
    1606                            .dwattr $C$DW$132, DW_AT_name("CAMIndex_25")
    1607                            .dwattr $C$DW$132, DW_AT_const_value(0x19)
    1608                            .dwattr $C$DW$132, DW_AT_decl_file("C:/Users/bob/Documents/Projects/induct_forge/RM57Lx_test/P
    1609                            .dwattr $C$DW$132, DW_AT_decl_line(0x59)
    1610                            .dwattr $C$DW$132, DW_AT_decl_column(0x02)
    1611                    
    1612                    $C$DW$133       .dwtag  DW_TAG_enumerator
    1613                            .dwattr $C$DW$133, DW_AT_name("CAMIndex_26")
    1614                            .dwattr $C$DW$133, DW_AT_const_value(0x1a)
    1615                            .dwattr $C$DW$133, DW_AT_decl_file("C:/Users/bob/Documents/Projects/induct_forge/RM57Lx_test/P
    1616                            .dwattr $C$DW$133, DW_AT_decl_line(0x5a)
    1617                            .dwattr $C$DW$133, DW_AT_decl_column(0x02)
    1618                    
    1619                    $C$DW$134       .dwtag  DW_TAG_enumerator
    1620                            .dwattr $C$DW$134, DW_AT_name("CAMIndex_27")
    1621                            .dwattr $C$DW$134, DW_AT_const_value(0x1b)
    1622                            .dwattr $C$DW$134, DW_AT_decl_file("C:/Users/bob/Documents/Projects/induct_forge/RM57Lx_test/P
    1623                            .dwattr $C$DW$134, DW_AT_decl_line(0x5b)
    1624                            .dwattr $C$DW$134, DW_AT_decl_column(0x02)
    1625                    
    1626                    $C$DW$135       .dwtag  DW_TAG_enumerator
    1627                            .dwattr $C$DW$135, DW_AT_name("CAMIndex_28")
    1628                            .dwattr $C$DW$135, DW_AT_const_value(0x1c)
    1629                            .dwattr $C$DW$135, DW_AT_decl_file("C:/Users/bob/Documents/Projects/induct_forge/RM57Lx_test/P
    1630                            .dwattr $C$DW$135, DW_AT_decl_line(0x5c)
    1631                            .dwattr $C$DW$135, DW_AT_decl_column(0x02)
    1632                    
    1633                    $C$DW$136       .dwtag  DW_TAG_enumerator
    1634                            .dwattr $C$DW$136, DW_AT_name("CAMIndex_29")
    1635                            .dwattr $C$DW$136, DW_AT_const_value(0x1d)
    1636                            .dwattr $C$DW$136, DW_AT_decl_file("C:/Users/bob/Documents/Projects/induct_forge/RM57Lx_test/P
    1637                            .dwattr $C$DW$136, DW_AT_decl_line(0x5d)
    1638                            .dwattr $C$DW$136, DW_AT_decl_column(0x02)
    1639                    
    1640                    $C$DW$137       .dwtag  DW_TAG_enumerator
    1641                            .dwattr $C$DW$137, DW_AT_name("CAMIndex_30")
    1642                            .dwattr $C$DW$137, DW_AT_const_value(0x1e)
    1643                            .dwattr $C$DW$137, DW_AT_decl_file("C:/Users/bob/Documents/Projects/induct_forge/RM57Lx_test/P
    1644                            .dwattr $C$DW$137, DW_AT_decl_line(0x5e)
    1645                            .dwattr $C$DW$137, DW_AT_decl_column(0x02)
    1646                    
    1647                    $C$DW$138       .dwtag  DW_TAG_enumerator
    1648                            .dwattr $C$DW$138, DW_AT_name("CAMIndex_31")
    1649                            .dwattr $C$DW$138, DW_AT_const_value(0x1f)
    1650                            .dwattr $C$DW$138, DW_AT_decl_file("C:/Users/bob/Documents/Projects/induct_forge/RM57Lx_test/P
TI ARM Assembler PC v16.9.0 Thu Feb 16 13:27:10 2017

Tools Copyright (c) 1996-2015 Texas Instruments Incorporated
C:\Users\bob\AppData\Local\Temp\1678410                              PAGE   31

    1651                            .dwattr $C$DW$138, DW_AT_decl_line(0x5f)
    1652                            .dwattr $C$DW$138, DW_AT_decl_column(0x02)
    1653                    
    1654                            .dwattr $C$DW$T$78, DW_AT_decl_file("C:/Users/bob/Documents/Projects/induct_forge/RM57Lx_test/
    1655                            .dwattr $C$DW$T$78, DW_AT_decl_line(0x3e)
    1656                            .dwattr $C$DW$T$78, DW_AT_decl_column(0x06)
    1657                            .dwendtag $C$DW$T$78
    1658                    
    1659                    $C$DW$T$2       .dwtag  DW_TAG_unspecified_type
    1660                            .dwattr $C$DW$T$2, DW_AT_name("void")
    1661                    
    1662                    $C$DW$T$3       .dwtag  DW_TAG_pointer_type
    1663                            .dwattr $C$DW$T$3, DW_AT_type(*$C$DW$T$2)
    1664                            .dwattr $C$DW$T$3, DW_AT_address_class(0x20)
    1665                    
    1666                    $C$DW$T$4       .dwtag  DW_TAG_base_type
    1667                            .dwattr $C$DW$T$4, DW_AT_encoding(DW_ATE_boolean)
    1668                            .dwattr $C$DW$T$4, DW_AT_name("bool")
    1669                            .dwattr $C$DW$T$4, DW_AT_byte_size(0x01)
    1670                    
    1671                    $C$DW$T$5       .dwtag  DW_TAG_base_type
    1672                            .dwattr $C$DW$T$5, DW_AT_encoding(DW_ATE_signed_char)
    1673                            .dwattr $C$DW$T$5, DW_AT_name("signed char")
    1674                            .dwattr $C$DW$T$5, DW_AT_byte_size(0x01)
    1675                    
    1676                    $C$DW$T$100     .dwtag  DW_TAG_typedef
    1677                            .dwattr $C$DW$T$100, DW_AT_name("int8_t")
    1678                            .dwattr $C$DW$T$100, DW_AT_type(*$C$DW$T$5)
    1679                            .dwattr $C$DW$T$100, DW_AT_language(DW_LANG_C)
    1680                            .dwattr $C$DW$T$100, DW_AT_decl_file("C:/ti/ccsv7/tools/compiler/ti-cgt-arm_16.9.0.LTS/include
    1681                            .dwattr $C$DW$T$100, DW_AT_decl_line(0x2a)
    1682                            .dwattr $C$DW$T$100, DW_AT_decl_column(0x1d)
    1683                    
    1684                    $C$DW$T$101     .dwtag  DW_TAG_typedef
    1685                            .dwattr $C$DW$T$101, DW_AT_name("int_least8_t")
    1686                            .dwattr $C$DW$T$101, DW_AT_type(*$C$DW$T$100)
    1687                            .dwattr $C$DW$T$101, DW_AT_language(DW_LANG_C)
    1688                            .dwattr $C$DW$T$101, DW_AT_decl_file("C:/ti/ccsv7/tools/compiler/ti-cgt-arm_16.9.0.LTS/include
    1689                            .dwattr $C$DW$T$101, DW_AT_decl_line(0x37)
    1690                            .dwattr $C$DW$T$101, DW_AT_decl_column(0x17)
    1691                    
    1692                    $C$DW$T$102     .dwtag  DW_TAG_typedef
    1693                            .dwattr $C$DW$T$102, DW_AT_name("sint8")
    1694                            .dwattr $C$DW$T$102, DW_AT_type(*$C$DW$T$100)
    1695                            .dwattr $C$DW$T$102, DW_AT_language(DW_LANG_C)
    1696                            .dwattr $C$DW$T$102, DW_AT_decl_file("C:\Users\bob\Documents\Projects\induct_forge\RM57Lx_test
    1697                            .dwattr $C$DW$T$102, DW_AT_decl_line(0x68)
    1698                            .dwattr $C$DW$T$102, DW_AT_decl_column(0x10)
    1699                    
    1700                    $C$DW$T$6       .dwtag  DW_TAG_base_type
    1701                            .dwattr $C$DW$T$6, DW_AT_encoding(DW_ATE_unsigned_char)
    1702                            .dwattr $C$DW$T$6, DW_AT_name("unsigned char")
    1703                            .dwattr $C$DW$T$6, DW_AT_byte_size(0x01)
    1704                    
    1705                    $C$DW$T$34      .dwtag  DW_TAG_pointer_type
TI ARM Assembler PC v16.9.0 Thu Feb 16 13:27:10 2017

Tools Copyright (c) 1996-2015 Texas Instruments Incorporated
C:\Users\bob\AppData\Local\Temp\1678410                              PAGE   32

    1706                            .dwattr $C$DW$T$34, DW_AT_type(*$C$DW$T$6)
    1707                            .dwattr $C$DW$T$34, DW_AT_address_class(0x20)
    1708                    
    1709                    $C$DW$T$46      .dwtag  DW_TAG_typedef
    1710                            .dwattr $C$DW$T$46, DW_AT_name("uint8_t")
    1711                            .dwattr $C$DW$T$46, DW_AT_type(*$C$DW$T$6)
    1712                            .dwattr $C$DW$T$46, DW_AT_language(DW_LANG_C)
    1713                            .dwattr $C$DW$T$46, DW_AT_decl_file("C:/ti/ccsv7/tools/compiler/ti-cgt-arm_16.9.0.LTS/include/
    1714                            .dwattr $C$DW$T$46, DW_AT_decl_line(0x2b)
    1715                            .dwattr $C$DW$T$46, DW_AT_decl_column(0x1c)
    1716                    
    1717                    $C$DW$T$47      .dwtag  DW_TAG_typedef
    1718                            .dwattr $C$DW$T$47, DW_AT_name("uint8")
    1719                            .dwattr $C$DW$T$47, DW_AT_type(*$C$DW$T$46)
    1720                            .dwattr $C$DW$T$47, DW_AT_language(DW_LANG_C)
    1721                            .dwattr $C$DW$T$47, DW_AT_decl_file("C:\Users\bob\Documents\Projects\induct_forge\RM57Lx_test\
    1722                            .dwattr $C$DW$T$47, DW_AT_decl_line(0x4b)
    1723                            .dwattr $C$DW$T$47, DW_AT_decl_column(0x11)
    1724                    
    1725                    
    1726                    $C$DW$T$103     .dwtag  DW_TAG_array_type
    1727                            .dwattr $C$DW$T$103, DW_AT_type(*$C$DW$T$47)
    1728                            .dwattr $C$DW$T$103, DW_AT_language(DW_LANG_C)
    1729                            .dwattr $C$DW$T$103, DW_AT_byte_size(0x64)
    1730                    $C$DW$139       .dwtag  DW_TAG_subrange_type
    1731                            .dwattr $C$DW$139, DW_AT_upper_bound(0x63)
    1732                    
    1733                            .dwendtag $C$DW$T$103
    1734                    
    1735                    $C$DW$T$104     .dwtag  DW_TAG_typedef
    1736                            .dwattr $C$DW$T$104, DW_AT_name("uint_least8_t")
    1737                            .dwattr $C$DW$T$104, DW_AT_type(*$C$DW$T$46)
    1738                            .dwattr $C$DW$T$104, DW_AT_language(DW_LANG_C)
    1739                            .dwattr $C$DW$T$104, DW_AT_decl_file("C:/ti/ccsv7/tools/compiler/ti-cgt-arm_16.9.0.LTS/include
    1740                            .dwattr $C$DW$T$104, DW_AT_decl_line(0x38)
    1741                            .dwattr $C$DW$T$104, DW_AT_decl_column(0x16)
    1742                    
    1743                    $C$DW$T$7       .dwtag  DW_TAG_base_type
    1744                            .dwattr $C$DW$T$7, DW_AT_encoding(DW_ATE_signed_char)
    1745                            .dwattr $C$DW$T$7, DW_AT_name("wchar_t")
    1746                            .dwattr $C$DW$T$7, DW_AT_byte_size(0x02)
    1747                    
    1748                    $C$DW$T$8       .dwtag  DW_TAG_base_type
    1749                            .dwattr $C$DW$T$8, DW_AT_encoding(DW_ATE_signed)
    1750                            .dwattr $C$DW$T$8, DW_AT_name("short")
    1751                            .dwattr $C$DW$T$8, DW_AT_byte_size(0x02)
    1752                    
    1753                    $C$DW$T$105     .dwtag  DW_TAG_typedef
    1754                            .dwattr $C$DW$T$105, DW_AT_name("int16_t")
    1755                            .dwattr $C$DW$T$105, DW_AT_type(*$C$DW$T$8)
    1756                            .dwattr $C$DW$T$105, DW_AT_language(DW_LANG_C)
    1757                            .dwattr $C$DW$T$105, DW_AT_decl_file("C:/ti/ccsv7/tools/compiler/ti-cgt-arm_16.9.0.LTS/include
    1758                            .dwattr $C$DW$T$105, DW_AT_decl_line(0x2c)
    1759                            .dwattr $C$DW$T$105, DW_AT_decl_column(0x1d)
    1760                    
TI ARM Assembler PC v16.9.0 Thu Feb 16 13:27:10 2017

Tools Copyright (c) 1996-2015 Texas Instruments Incorporated
C:\Users\bob\AppData\Local\Temp\1678410                              PAGE   33

    1761                    $C$DW$T$106     .dwtag  DW_TAG_typedef
    1762                            .dwattr $C$DW$T$106, DW_AT_name("int_least16_t")
    1763                            .dwattr $C$DW$T$106, DW_AT_type(*$C$DW$T$105)
    1764                            .dwattr $C$DW$T$106, DW_AT_language(DW_LANG_C)
    1765                            .dwattr $C$DW$T$106, DW_AT_decl_file("C:/ti/ccsv7/tools/compiler/ti-cgt-arm_16.9.0.LTS/include
    1766                            .dwattr $C$DW$T$106, DW_AT_decl_line(0x3a)
    1767                            .dwattr $C$DW$T$106, DW_AT_decl_column(0x17)
    1768                    
    1769                    $C$DW$T$107     .dwtag  DW_TAG_typedef
    1770                            .dwattr $C$DW$T$107, DW_AT_name("sint16")
    1771                            .dwattr $C$DW$T$107, DW_AT_type(*$C$DW$T$105)
    1772                            .dwattr $C$DW$T$107, DW_AT_language(DW_LANG_C)
    1773                            .dwattr $C$DW$T$107, DW_AT_decl_file("C:\Users\bob\Documents\Projects\induct_forge\RM57Lx_test
    1774                            .dwattr $C$DW$T$107, DW_AT_decl_line(0x63)
    1775                            .dwattr $C$DW$T$107, DW_AT_decl_column(0x11)
    1776                    
    1777                    $C$DW$T$9       .dwtag  DW_TAG_base_type
    1778                            .dwattr $C$DW$T$9, DW_AT_encoding(DW_ATE_unsigned)
    1779                            .dwattr $C$DW$T$9, DW_AT_name("unsigned short")
    1780                            .dwattr $C$DW$T$9, DW_AT_byte_size(0x02)
    1781                    
    1782                    $C$DW$T$40      .dwtag  DW_TAG_typedef
    1783                            .dwattr $C$DW$T$40, DW_AT_name("uint16_t")
    1784                            .dwattr $C$DW$T$40, DW_AT_type(*$C$DW$T$9)
    1785                            .dwattr $C$DW$T$40, DW_AT_language(DW_LANG_C)
    1786                            .dwattr $C$DW$T$40, DW_AT_decl_file("C:/ti/ccsv7/tools/compiler/ti-cgt-arm_16.9.0.LTS/include/
    1787                            .dwattr $C$DW$T$40, DW_AT_decl_line(0x2d)
    1788                            .dwattr $C$DW$T$40, DW_AT_decl_column(0x1c)
    1789                    
    1790                    $C$DW$T$41      .dwtag  DW_TAG_typedef
    1791                            .dwattr $C$DW$T$41, DW_AT_name("uint16")
    1792                            .dwattr $C$DW$T$41, DW_AT_type(*$C$DW$T$40)
    1793                            .dwattr $C$DW$T$41, DW_AT_language(DW_LANG_C)
    1794                            .dwattr $C$DW$T$41, DW_AT_decl_file("C:\Users\bob\Documents\Projects\induct_forge\RM57Lx_test\
    1795                            .dwattr $C$DW$T$41, DW_AT_decl_line(0x46)
    1796                            .dwattr $C$DW$T$41, DW_AT_decl_column(0x12)
    1797                    
    1798                    $C$DW$T$108     .dwtag  DW_TAG_typedef
    1799                            .dwattr $C$DW$T$108, DW_AT_name("uint_least16_t")
    1800                            .dwattr $C$DW$T$108, DW_AT_type(*$C$DW$T$40)
    1801                            .dwattr $C$DW$T$108, DW_AT_language(DW_LANG_C)
    1802                            .dwattr $C$DW$T$108, DW_AT_decl_file("C:/ti/ccsv7/tools/compiler/ti-cgt-arm_16.9.0.LTS/include
    1803                            .dwattr $C$DW$T$108, DW_AT_decl_line(0x3b)
    1804                            .dwattr $C$DW$T$108, DW_AT_decl_column(0x16)
    1805                    
    1806                    $C$DW$T$10      .dwtag  DW_TAG_base_type
    1807                            .dwattr $C$DW$T$10, DW_AT_encoding(DW_ATE_signed)
    1808                            .dwattr $C$DW$T$10, DW_AT_name("int")
    1809                            .dwattr $C$DW$T$10, DW_AT_byte_size(0x04)
    1810                    
    1811                    $C$DW$T$109     .dwtag  DW_TAG_typedef
    1812                            .dwattr $C$DW$T$109, DW_AT_name("int32_t")
    1813                            .dwattr $C$DW$T$109, DW_AT_type(*$C$DW$T$10)
    1814                            .dwattr $C$DW$T$109, DW_AT_language(DW_LANG_C)
    1815                            .dwattr $C$DW$T$109, DW_AT_decl_file("C:/ti/ccsv7/tools/compiler/ti-cgt-arm_16.9.0.LTS/include
TI ARM Assembler PC v16.9.0 Thu Feb 16 13:27:10 2017

Tools Copyright (c) 1996-2015 Texas Instruments Incorporated
C:\Users\bob\AppData\Local\Temp\1678410                              PAGE   34

    1816                            .dwattr $C$DW$T$109, DW_AT_decl_line(0x2e)
    1817                            .dwattr $C$DW$T$109, DW_AT_decl_column(0x1d)
    1818                    
    1819                    $C$DW$T$110     .dwtag  DW_TAG_typedef
    1820                            .dwattr $C$DW$T$110, DW_AT_name("int_fast16_t")
    1821                            .dwattr $C$DW$T$110, DW_AT_type(*$C$DW$T$109)
    1822                            .dwattr $C$DW$T$110, DW_AT_language(DW_LANG_C)
    1823                            .dwattr $C$DW$T$110, DW_AT_decl_file("C:/ti/ccsv7/tools/compiler/ti-cgt-arm_16.9.0.LTS/include
    1824                            .dwattr $C$DW$T$110, DW_AT_decl_line(0x47)
    1825                            .dwattr $C$DW$T$110, DW_AT_decl_column(0x17)
    1826                    
    1827                    $C$DW$T$111     .dwtag  DW_TAG_typedef
    1828                            .dwattr $C$DW$T$111, DW_AT_name("int_fast32_t")
    1829                            .dwattr $C$DW$T$111, DW_AT_type(*$C$DW$T$109)
    1830                            .dwattr $C$DW$T$111, DW_AT_language(DW_LANG_C)
    1831                            .dwattr $C$DW$T$111, DW_AT_decl_file("C:/ti/ccsv7/tools/compiler/ti-cgt-arm_16.9.0.LTS/include
    1832                            .dwattr $C$DW$T$111, DW_AT_decl_line(0x4a)
    1833                            .dwattr $C$DW$T$111, DW_AT_decl_column(0x17)
    1834                    
    1835                    $C$DW$T$112     .dwtag  DW_TAG_typedef
    1836                            .dwattr $C$DW$T$112, DW_AT_name("int_fast8_t")
    1837                            .dwattr $C$DW$T$112, DW_AT_type(*$C$DW$T$109)
    1838                            .dwattr $C$DW$T$112, DW_AT_language(DW_LANG_C)
    1839                            .dwattr $C$DW$T$112, DW_AT_decl_file("C:/ti/ccsv7/tools/compiler/ti-cgt-arm_16.9.0.LTS/include
    1840                            .dwattr $C$DW$T$112, DW_AT_decl_line(0x45)
    1841                            .dwattr $C$DW$T$112, DW_AT_decl_column(0x17)
    1842                    
    1843                    $C$DW$T$113     .dwtag  DW_TAG_typedef
    1844                            .dwattr $C$DW$T$113, DW_AT_name("int_least32_t")
    1845                            .dwattr $C$DW$T$113, DW_AT_type(*$C$DW$T$109)
    1846                            .dwattr $C$DW$T$113, DW_AT_language(DW_LANG_C)
    1847                            .dwattr $C$DW$T$113, DW_AT_decl_file("C:/ti/ccsv7/tools/compiler/ti-cgt-arm_16.9.0.LTS/include
    1848                            .dwattr $C$DW$T$113, DW_AT_decl_line(0x3c)
    1849                            .dwattr $C$DW$T$113, DW_AT_decl_column(0x17)
    1850                    
    1851                    $C$DW$T$114     .dwtag  DW_TAG_typedef
    1852                            .dwattr $C$DW$T$114, DW_AT_name("sint32")
    1853                            .dwattr $C$DW$T$114, DW_AT_type(*$C$DW$T$109)
    1854                            .dwattr $C$DW$T$114, DW_AT_language(DW_LANG_C)
    1855                            .dwattr $C$DW$T$114, DW_AT_decl_file("C:\Users\bob\Documents\Projects\induct_forge\RM57Lx_test
    1856                            .dwattr $C$DW$T$114, DW_AT_decl_line(0x5e)
    1857                            .dwattr $C$DW$T$114, DW_AT_decl_column(0x11)
    1858                    
    1859                    $C$DW$T$115     .dwtag  DW_TAG_typedef
    1860                            .dwattr $C$DW$T$115, DW_AT_name("intptr_t")
    1861                            .dwattr $C$DW$T$115, DW_AT_type(*$C$DW$T$10)
    1862                            .dwattr $C$DW$T$115, DW_AT_language(DW_LANG_C)
    1863                            .dwattr $C$DW$T$115, DW_AT_decl_file("C:/ti/ccsv7/tools/compiler/ti-cgt-arm_16.9.0.LTS/include
    1864                            .dwattr $C$DW$T$115, DW_AT_decl_line(0x52)
    1865                            .dwattr $C$DW$T$115, DW_AT_decl_column(0x1a)
    1866                    
    1867                    $C$DW$T$11      .dwtag  DW_TAG_base_type
    1868                            .dwattr $C$DW$T$11, DW_AT_encoding(DW_ATE_unsigned)
    1869                            .dwattr $C$DW$T$11, DW_AT_name("unsigned int")
    1870                            .dwattr $C$DW$T$11, DW_AT_byte_size(0x04)
TI ARM Assembler PC v16.9.0 Thu Feb 16 13:27:10 2017

Tools Copyright (c) 1996-2015 Texas Instruments Incorporated
C:\Users\bob\AppData\Local\Temp\1678410                              PAGE   35

    1871                    
    1872                    $C$DW$T$116     .dwtag  DW_TAG_typedef
    1873                            .dwattr $C$DW$T$116, DW_AT_name("size_t")
    1874                            .dwattr $C$DW$T$116, DW_AT_type(*$C$DW$T$11)
    1875                            .dwattr $C$DW$T$116, DW_AT_language(DW_LANG_C)
    1876                            .dwattr $C$DW$T$116, DW_AT_decl_file("C:/ti/ccsv7/tools/compiler/ti-cgt-arm_16.9.0.LTS/include
    1877                            .dwattr $C$DW$T$116, DW_AT_decl_line(0x58)
    1878                            .dwattr $C$DW$T$116, DW_AT_decl_column(0x19)
    1879                    
    1880                    $C$DW$T$19      .dwtag  DW_TAG_typedef
    1881                            .dwattr $C$DW$T$19, DW_AT_name("uint32_t")
    1882                            .dwattr $C$DW$T$19, DW_AT_type(*$C$DW$T$11)
    1883                            .dwattr $C$DW$T$19, DW_AT_language(DW_LANG_C)
    1884                            .dwattr $C$DW$T$19, DW_AT_decl_file("C:/ti/ccsv7/tools/compiler/ti-cgt-arm_16.9.0.LTS/include/
    1885                            .dwattr $C$DW$T$19, DW_AT_decl_line(0x2f)
    1886                            .dwattr $C$DW$T$19, DW_AT_decl_column(0x1c)
    1887                    
    1888                    $C$DW$T$20      .dwtag  DW_TAG_typedef
    1889                            .dwattr $C$DW$T$20, DW_AT_name("uint32")
    1890                            .dwattr $C$DW$T$20, DW_AT_type(*$C$DW$T$19)
    1891                            .dwattr $C$DW$T$20, DW_AT_language(DW_LANG_C)
    1892                            .dwattr $C$DW$T$20, DW_AT_decl_file("C:\Users\bob\Documents\Projects\induct_forge\RM57Lx_test\
    1893                            .dwattr $C$DW$T$20, DW_AT_decl_line(0x41)
    1894                            .dwattr $C$DW$T$20, DW_AT_decl_column(0x12)
    1895                    
    1896                    
    1897                    $C$DW$T$22      .dwtag  DW_TAG_array_type
    1898                            .dwattr $C$DW$T$22, DW_AT_type(*$C$DW$T$20)
    1899                            .dwattr $C$DW$T$22, DW_AT_language(DW_LANG_C)
    1900                            .dwattr $C$DW$T$22, DW_AT_byte_size(0x08)
    1901                    $C$DW$140       .dwtag  DW_TAG_subrange_type
    1902                            .dwattr $C$DW$140, DW_AT_upper_bound(0x01)
    1903                    
    1904                            .dwendtag $C$DW$T$22
    1905                    
    1906                    
    1907                    $C$DW$T$28      .dwtag  DW_TAG_array_type
    1908                            .dwattr $C$DW$T$28, DW_AT_type(*$C$DW$T$20)
    1909                            .dwattr $C$DW$T$28, DW_AT_language(DW_LANG_C)
    1910                            .dwattr $C$DW$T$28, DW_AT_byte_size(0x400)
    1911                    $C$DW$141       .dwtag  DW_TAG_subrange_type
    1912                            .dwattr $C$DW$141, DW_AT_upper_bound(0xff)
    1913                    
    1914                            .dwendtag $C$DW$T$28
    1915                    
    1916                    
    1917                    $C$DW$T$37      .dwtag  DW_TAG_array_type
    1918                            .dwattr $C$DW$T$37, DW_AT_type(*$C$DW$T$20)
    1919                            .dwattr $C$DW$T$37, DW_AT_language(DW_LANG_C)
    1920                            .dwattr $C$DW$T$37, DW_AT_byte_size(0x0c)
    1921                    $C$DW$142       .dwtag  DW_TAG_subrange_type
    1922                            .dwattr $C$DW$142, DW_AT_upper_bound(0x02)
    1923                    
    1924                            .dwendtag $C$DW$T$37
    1925                    
TI ARM Assembler PC v16.9.0 Thu Feb 16 13:27:10 2017

Tools Copyright (c) 1996-2015 Texas Instruments Incorporated
C:\Users\bob\AppData\Local\Temp\1678410                              PAGE   36

    1926                    
    1927                    $C$DW$T$50      .dwtag  DW_TAG_array_type
    1928                            .dwattr $C$DW$T$50, DW_AT_type(*$C$DW$T$20)
    1929                            .dwattr $C$DW$T$50, DW_AT_language(DW_LANG_C)
    1930                            .dwattr $C$DW$T$50, DW_AT_byte_size(0x20)
    1931                    $C$DW$143       .dwtag  DW_TAG_subrange_type
    1932                            .dwattr $C$DW$143, DW_AT_upper_bound(0x07)
    1933                    
    1934                            .dwendtag $C$DW$T$50
    1935                    
    1936                    
    1937                    $C$DW$T$51      .dwtag  DW_TAG_array_type
    1938                            .dwattr $C$DW$T$51, DW_AT_type(*$C$DW$T$20)
    1939                            .dwattr $C$DW$T$51, DW_AT_language(DW_LANG_C)
    1940                            .dwattr $C$DW$T$51, DW_AT_byte_size(0x10)
    1941                    $C$DW$144       .dwtag  DW_TAG_subrange_type
    1942                            .dwattr $C$DW$144, DW_AT_upper_bound(0x03)
    1943                    
    1944                            .dwendtag $C$DW$T$51
    1945                    
    1946                    
    1947                    $C$DW$T$54      .dwtag  DW_TAG_array_type
    1948                            .dwattr $C$DW$T$54, DW_AT_type(*$C$DW$T$20)
    1949                            .dwattr $C$DW$T$54, DW_AT_language(DW_LANG_C)
    1950                            .dwattr $C$DW$T$54, DW_AT_byte_size(0x28)
    1951                    $C$DW$145       .dwtag  DW_TAG_subrange_type
    1952                            .dwattr $C$DW$145, DW_AT_upper_bound(0x09)
    1953                    
    1954                            .dwendtag $C$DW$T$54
    1955                    
    1956                    
    1957                    $C$DW$T$55      .dwtag  DW_TAG_array_type
    1958                            .dwattr $C$DW$T$55, DW_AT_type(*$C$DW$T$20)
    1959                            .dwattr $C$DW$T$55, DW_AT_language(DW_LANG_C)
    1960                            .dwattr $C$DW$T$55, DW_AT_byte_size(0xe8)
    1961                    $C$DW$146       .dwtag  DW_TAG_subrange_type
    1962                            .dwattr $C$DW$146, DW_AT_upper_bound(0x39)
    1963                    
    1964                            .dwendtag $C$DW$T$55
    1965                    
    1966                    
    1967                    $C$DW$T$56      .dwtag  DW_TAG_array_type
    1968                            .dwattr $C$DW$T$56, DW_AT_type(*$C$DW$T$20)
    1969                            .dwattr $C$DW$T$56, DW_AT_language(DW_LANG_C)
    1970                            .dwattr $C$DW$T$56, DW_AT_byte_size(0x80)
    1971                    $C$DW$147       .dwtag  DW_TAG_subrange_type
    1972                            .dwattr $C$DW$147, DW_AT_upper_bound(0x1f)
    1973                    
    1974                            .dwendtag $C$DW$T$56
    1975                    
    1976                    
    1977                    $C$DW$T$59      .dwtag  DW_TAG_array_type
    1978                            .dwattr $C$DW$T$59, DW_AT_type(*$C$DW$T$20)
    1979                            .dwattr $C$DW$T$59, DW_AT_language(DW_LANG_C)
    1980                            .dwattr $C$DW$T$59, DW_AT_byte_size(0x78)
TI ARM Assembler PC v16.9.0 Thu Feb 16 13:27:10 2017

Tools Copyright (c) 1996-2015 Texas Instruments Incorporated
C:\Users\bob\AppData\Local\Temp\1678410                              PAGE   37

    1981                    $C$DW$148       .dwtag  DW_TAG_subrange_type
    1982                            .dwattr $C$DW$148, DW_AT_upper_bound(0x1d)
    1983                    
    1984                            .dwendtag $C$DW$T$59
    1985                    
    1986                    
    1987                    $C$DW$T$60      .dwtag  DW_TAG_array_type
    1988                            .dwattr $C$DW$T$60, DW_AT_type(*$C$DW$T$20)
    1989                            .dwattr $C$DW$T$60, DW_AT_language(DW_LANG_C)
    1990                            .dwattr $C$DW$T$60, DW_AT_byte_size(0xe0)
    1991                    $C$DW$149       .dwtag  DW_TAG_subrange_type
    1992                            .dwattr $C$DW$149, DW_AT_upper_bound(0x37)
    1993                    
    1994                            .dwendtag $C$DW$T$60
    1995                    
    1996                    
    1997                    $C$DW$T$62      .dwtag  DW_TAG_array_type
    1998                            .dwattr $C$DW$T$62, DW_AT_type(*$C$DW$T$20)
    1999                            .dwattr $C$DW$T$62, DW_AT_language(DW_LANG_C)
    2000                            .dwattr $C$DW$T$62, DW_AT_byte_size(0x1c)
    2001                    $C$DW$150       .dwtag  DW_TAG_subrange_type
    2002                            .dwattr $C$DW$150, DW_AT_upper_bound(0x06)
    2003                    
    2004                            .dwendtag $C$DW$T$62
    2005                    
    2006                    
    2007                    $C$DW$T$72      .dwtag  DW_TAG_array_type
    2008                            .dwattr $C$DW$T$72, DW_AT_type(*$C$DW$T$20)
    2009                            .dwattr $C$DW$T$72, DW_AT_language(DW_LANG_C)
    2010                            .dwattr $C$DW$T$72, DW_AT_byte_size(0x30)
    2011                    $C$DW$151       .dwtag  DW_TAG_subrange_type
    2012                            .dwattr $C$DW$151, DW_AT_upper_bound(0x0b)
    2013                    
    2014                            .dwendtag $C$DW$T$72
    2015                    
    2016                    $C$DW$T$117     .dwtag  DW_TAG_typedef
    2017                            .dwattr $C$DW$T$117, DW_AT_name("uint_fast16_t")
    2018                            .dwattr $C$DW$T$117, DW_AT_type(*$C$DW$T$19)
    2019                            .dwattr $C$DW$T$117, DW_AT_language(DW_LANG_C)
    2020                            .dwattr $C$DW$T$117, DW_AT_decl_file("C:/ti/ccsv7/tools/compiler/ti-cgt-arm_16.9.0.LTS/include
    2021                            .dwattr $C$DW$T$117, DW_AT_decl_line(0x48)
    2022                            .dwattr $C$DW$T$117, DW_AT_decl_column(0x16)
    2023                    
    2024                    $C$DW$T$118     .dwtag  DW_TAG_typedef
    2025                            .dwattr $C$DW$T$118, DW_AT_name("uint_fast32_t")
    2026                            .dwattr $C$DW$T$118, DW_AT_type(*$C$DW$T$19)
    2027                            .dwattr $C$DW$T$118, DW_AT_language(DW_LANG_C)
    2028                            .dwattr $C$DW$T$118, DW_AT_decl_file("C:/ti/ccsv7/tools/compiler/ti-cgt-arm_16.9.0.LTS/include
    2029                            .dwattr $C$DW$T$118, DW_AT_decl_line(0x4b)
    2030                            .dwattr $C$DW$T$118, DW_AT_decl_column(0x16)
    2031                    
    2032                    $C$DW$T$119     .dwtag  DW_TAG_typedef
    2033                            .dwattr $C$DW$T$119, DW_AT_name("uint_fast8_t")
    2034                            .dwattr $C$DW$T$119, DW_AT_type(*$C$DW$T$19)
    2035                            .dwattr $C$DW$T$119, DW_AT_language(DW_LANG_C)
TI ARM Assembler PC v16.9.0 Thu Feb 16 13:27:10 2017

Tools Copyright (c) 1996-2015 Texas Instruments Incorporated
C:\Users\bob\AppData\Local\Temp\1678410                              PAGE   38

    2036                            .dwattr $C$DW$T$119, DW_AT_decl_file("C:/ti/ccsv7/tools/compiler/ti-cgt-arm_16.9.0.LTS/include
    2037                            .dwattr $C$DW$T$119, DW_AT_decl_line(0x46)
    2038                            .dwattr $C$DW$T$119, DW_AT_decl_column(0x16)
    2039                    
    2040                    $C$DW$T$120     .dwtag  DW_TAG_typedef
    2041                            .dwattr $C$DW$T$120, DW_AT_name("uint_least32_t")
    2042                            .dwattr $C$DW$T$120, DW_AT_type(*$C$DW$T$19)
    2043                            .dwattr $C$DW$T$120, DW_AT_language(DW_LANG_C)
    2044                            .dwattr $C$DW$T$120, DW_AT_decl_file("C:/ti/ccsv7/tools/compiler/ti-cgt-arm_16.9.0.LTS/include
    2045                            .dwattr $C$DW$T$120, DW_AT_decl_line(0x3d)
    2046                            .dwattr $C$DW$T$120, DW_AT_decl_column(0x16)
    2047                    
    2048                    $C$DW$T$121     .dwtag  DW_TAG_typedef
    2049                            .dwattr $C$DW$T$121, DW_AT_name("uintptr_t")
    2050                            .dwattr $C$DW$T$121, DW_AT_type(*$C$DW$T$11)
    2051                            .dwattr $C$DW$T$121, DW_AT_language(DW_LANG_C)
    2052                            .dwattr $C$DW$T$121, DW_AT_decl_file("C:/ti/ccsv7/tools/compiler/ti-cgt-arm_16.9.0.LTS/include
    2053                            .dwattr $C$DW$T$121, DW_AT_decl_line(0x53)
    2054                            .dwattr $C$DW$T$121, DW_AT_decl_column(0x1a)
    2055                    
    2056                    $C$DW$T$12      .dwtag  DW_TAG_base_type
    2057                            .dwattr $C$DW$T$12, DW_AT_encoding(DW_ATE_signed)
    2058                            .dwattr $C$DW$T$12, DW_AT_name("long")
    2059                            .dwattr $C$DW$T$12, DW_AT_byte_size(0x04)
    2060                    
    2061                    $C$DW$T$122     .dwtag  DW_TAG_typedef
    2062                            .dwattr $C$DW$T$122, DW_AT_name("fpos_t")
    2063                            .dwattr $C$DW$T$122, DW_AT_type(*$C$DW$T$12)
    2064                            .dwattr $C$DW$T$122, DW_AT_language(DW_LANG_C)
    2065                            .dwattr $C$DW$T$122, DW_AT_decl_file("C:/ti/ccsv7/tools/compiler/ti-cgt-arm_16.9.0.LTS/include
    2066                            .dwattr $C$DW$T$122, DW_AT_decl_line(0x6e)
    2067                            .dwattr $C$DW$T$122, DW_AT_decl_column(0x0e)
    2068                    
    2069                    $C$DW$T$13      .dwtag  DW_TAG_base_type
    2070                            .dwattr $C$DW$T$13, DW_AT_encoding(DW_ATE_unsigned)
    2071                            .dwattr $C$DW$T$13, DW_AT_name("unsigned long")
    2072                            .dwattr $C$DW$T$13, DW_AT_byte_size(0x04)
    2073                    
    2074                    $C$DW$T$14      .dwtag  DW_TAG_base_type
    2075                            .dwattr $C$DW$T$14, DW_AT_encoding(DW_ATE_signed)
    2076                            .dwattr $C$DW$T$14, DW_AT_name("long long")
    2077                            .dwattr $C$DW$T$14, DW_AT_byte_size(0x08)
    2078                    
    2079                    $C$DW$T$123     .dwtag  DW_TAG_typedef
    2080                            .dwattr $C$DW$T$123, DW_AT_name("int64_t")
    2081                            .dwattr $C$DW$T$123, DW_AT_type(*$C$DW$T$14)
    2082                            .dwattr $C$DW$T$123, DW_AT_language(DW_LANG_C)
    2083                            .dwattr $C$DW$T$123, DW_AT_decl_file("C:/ti/ccsv7/tools/compiler/ti-cgt-arm_16.9.0.LTS/include
    2084                            .dwattr $C$DW$T$123, DW_AT_decl_line(0x32)
    2085                            .dwattr $C$DW$T$123, DW_AT_decl_column(0x21)
    2086                    
    2087                    $C$DW$T$124     .dwtag  DW_TAG_typedef
    2088                            .dwattr $C$DW$T$124, DW_AT_name("int_fast64_t")
    2089                            .dwattr $C$DW$T$124, DW_AT_type(*$C$DW$T$123)
    2090                            .dwattr $C$DW$T$124, DW_AT_language(DW_LANG_C)
TI ARM Assembler PC v16.9.0 Thu Feb 16 13:27:10 2017

Tools Copyright (c) 1996-2015 Texas Instruments Incorporated
C:\Users\bob\AppData\Local\Temp\1678410                              PAGE   39

    2091                            .dwattr $C$DW$T$124, DW_AT_decl_file("C:/ti/ccsv7/tools/compiler/ti-cgt-arm_16.9.0.LTS/include
    2092                            .dwattr $C$DW$T$124, DW_AT_decl_line(0x4e)
    2093                            .dwattr $C$DW$T$124, DW_AT_decl_column(0x17)
    2094                    
    2095                    $C$DW$T$125     .dwtag  DW_TAG_typedef
    2096                            .dwattr $C$DW$T$125, DW_AT_name("int_least64_t")
    2097                            .dwattr $C$DW$T$125, DW_AT_type(*$C$DW$T$123)
    2098                            .dwattr $C$DW$T$125, DW_AT_language(DW_LANG_C)
    2099                            .dwattr $C$DW$T$125, DW_AT_decl_file("C:/ti/ccsv7/tools/compiler/ti-cgt-arm_16.9.0.LTS/include
    2100                            .dwattr $C$DW$T$125, DW_AT_decl_line(0x40)
    2101                            .dwattr $C$DW$T$125, DW_AT_decl_column(0x17)
    2102                    
    2103                    $C$DW$T$126     .dwtag  DW_TAG_typedef
    2104                            .dwattr $C$DW$T$126, DW_AT_name("sint64")
    2105                            .dwattr $C$DW$T$126, DW_AT_type(*$C$DW$T$123)
    2106                            .dwattr $C$DW$T$126, DW_AT_language(DW_LANG_C)
    2107                            .dwattr $C$DW$T$126, DW_AT_decl_file("C:\Users\bob\Documents\Projects\induct_forge\RM57Lx_test
    2108                            .dwattr $C$DW$T$126, DW_AT_decl_line(0x59)
    2109                            .dwattr $C$DW$T$126, DW_AT_decl_column(0x11)
    2110                    
    2111                    $C$DW$T$127     .dwtag  DW_TAG_typedef
    2112                            .dwattr $C$DW$T$127, DW_AT_name("intmax_t")
    2113                            .dwattr $C$DW$T$127, DW_AT_type(*$C$DW$T$14)
    2114                            .dwattr $C$DW$T$127, DW_AT_language(DW_LANG_C)
    2115                            .dwattr $C$DW$T$127, DW_AT_decl_file("C:/ti/ccsv7/tools/compiler/ti-cgt-arm_16.9.0.LTS/include
    2116                            .dwattr $C$DW$T$127, DW_AT_decl_line(0x56)
    2117                            .dwattr $C$DW$T$127, DW_AT_decl_column(0x20)
    2118                    
    2119                    $C$DW$T$15      .dwtag  DW_TAG_base_type
    2120                            .dwattr $C$DW$T$15, DW_AT_encoding(DW_ATE_unsigned)
    2121                            .dwattr $C$DW$T$15, DW_AT_name("unsigned long long")
    2122                            .dwattr $C$DW$T$15, DW_AT_byte_size(0x08)
    2123                    
    2124                    $C$DW$T$128     .dwtag  DW_TAG_typedef
    2125                            .dwattr $C$DW$T$128, DW_AT_name("uint64_t")
    2126                            .dwattr $C$DW$T$128, DW_AT_type(*$C$DW$T$15)
    2127                            .dwattr $C$DW$T$128, DW_AT_language(DW_LANG_C)
    2128                            .dwattr $C$DW$T$128, DW_AT_decl_file("C:/ti/ccsv7/tools/compiler/ti-cgt-arm_16.9.0.LTS/include
    2129                            .dwattr $C$DW$T$128, DW_AT_decl_line(0x33)
    2130                            .dwattr $C$DW$T$128, DW_AT_decl_column(0x20)
    2131                    
    2132                    $C$DW$T$129     .dwtag  DW_TAG_typedef
    2133                            .dwattr $C$DW$T$129, DW_AT_name("uint64")
    2134                            .dwattr $C$DW$T$129, DW_AT_type(*$C$DW$T$128)
    2135                            .dwattr $C$DW$T$129, DW_AT_language(DW_LANG_C)
    2136                            .dwattr $C$DW$T$129, DW_AT_decl_file("C:\Users\bob\Documents\Projects\induct_forge\RM57Lx_test
    2137                            .dwattr $C$DW$T$129, DW_AT_decl_line(0x3c)
    2138                            .dwattr $C$DW$T$129, DW_AT_decl_column(0x12)
    2139                    
    2140                    $C$DW$T$130     .dwtag  DW_TAG_typedef
    2141                            .dwattr $C$DW$T$130, DW_AT_name("uint_fast64_t")
    2142                            .dwattr $C$DW$T$130, DW_AT_type(*$C$DW$T$128)
    2143                            .dwattr $C$DW$T$130, DW_AT_language(DW_LANG_C)
    2144                            .dwattr $C$DW$T$130, DW_AT_decl_file("C:/ti/ccsv7/tools/compiler/ti-cgt-arm_16.9.0.LTS/include
    2145                            .dwattr $C$DW$T$130, DW_AT_decl_line(0x4f)
TI ARM Assembler PC v16.9.0 Thu Feb 16 13:27:10 2017

Tools Copyright (c) 1996-2015 Texas Instruments Incorporated
C:\Users\bob\AppData\Local\Temp\1678410                              PAGE   40

    2146                            .dwattr $C$DW$T$130, DW_AT_decl_column(0x16)
    2147                    
    2148                    $C$DW$T$131     .dwtag  DW_TAG_typedef
    2149                            .dwattr $C$DW$T$131, DW_AT_name("uint_least64_t")
    2150                            .dwattr $C$DW$T$131, DW_AT_type(*$C$DW$T$128)
    2151                            .dwattr $C$DW$T$131, DW_AT_language(DW_LANG_C)
    2152                            .dwattr $C$DW$T$131, DW_AT_decl_file("C:/ti/ccsv7/tools/compiler/ti-cgt-arm_16.9.0.LTS/include
    2153                            .dwattr $C$DW$T$131, DW_AT_decl_line(0x41)
    2154                            .dwattr $C$DW$T$131, DW_AT_decl_column(0x16)
    2155                    
    2156                    $C$DW$T$132     .dwtag  DW_TAG_typedef
    2157                            .dwattr $C$DW$T$132, DW_AT_name("uintmax_t")
    2158                            .dwattr $C$DW$T$132, DW_AT_type(*$C$DW$T$15)
    2159                            .dwattr $C$DW$T$132, DW_AT_language(DW_LANG_C)
    2160                            .dwattr $C$DW$T$132, DW_AT_decl_file("C:/ti/ccsv7/tools/compiler/ti-cgt-arm_16.9.0.LTS/include
    2161                            .dwattr $C$DW$T$132, DW_AT_decl_line(0x57)
    2162                            .dwattr $C$DW$T$132, DW_AT_decl_column(0x20)
    2163                    
    2164                    $C$DW$T$16      .dwtag  DW_TAG_base_type
    2165                            .dwattr $C$DW$T$16, DW_AT_encoding(DW_ATE_float)
    2166                            .dwattr $C$DW$T$16, DW_AT_name("float")
    2167                            .dwattr $C$DW$T$16, DW_AT_byte_size(0x04)
    2168                    
    2169                    $C$DW$T$133     .dwtag  DW_TAG_typedef
    2170                            .dwattr $C$DW$T$133, DW_AT_name("float32")
    2171                            .dwattr $C$DW$T$133, DW_AT_type(*$C$DW$T$16)
    2172                            .dwattr $C$DW$T$133, DW_AT_language(DW_LANG_C)
    2173                            .dwattr $C$DW$T$133, DW_AT_decl_file("C:\Users\bob\Documents\Projects\induct_forge\RM57Lx_test
    2174                            .dwattr $C$DW$T$133, DW_AT_decl_line(0x6d)
    2175                            .dwattr $C$DW$T$133, DW_AT_decl_column(0x0f)
    2176                    
    2177                    $C$DW$T$17      .dwtag  DW_TAG_base_type
    2178                            .dwattr $C$DW$T$17, DW_AT_encoding(DW_ATE_float)
    2179                            .dwattr $C$DW$T$17, DW_AT_name("double")
    2180                            .dwattr $C$DW$T$17, DW_AT_byte_size(0x08)
    2181                    
    2182                    $C$DW$T$134     .dwtag  DW_TAG_typedef
    2183                            .dwattr $C$DW$T$134, DW_AT_name("float64")
    2184                            .dwattr $C$DW$T$134, DW_AT_type(*$C$DW$T$17)
    2185                            .dwattr $C$DW$T$134, DW_AT_language(DW_LANG_C)
    2186                            .dwattr $C$DW$T$134, DW_AT_decl_file("C:\Users\bob\Documents\Projects\induct_forge\RM57Lx_test
    2187                            .dwattr $C$DW$T$134, DW_AT_decl_line(0x72)
    2188                            .dwattr $C$DW$T$134, DW_AT_decl_column(0x10)
    2189                    
    2190                    $C$DW$T$18      .dwtag  DW_TAG_base_type
    2191                            .dwattr $C$DW$T$18, DW_AT_encoding(DW_ATE_float)
    2192                            .dwattr $C$DW$T$18, DW_AT_name("long double")
    2193                            .dwattr $C$DW$T$18, DW_AT_byte_size(0x08)
    2194                    
    2195                    $C$DW$T$135     .dwtag  DW_TAG_base_type
    2196                            .dwattr $C$DW$T$135, DW_AT_encoding(DW_ATE_unsigned_char)
    2197                            .dwattr $C$DW$T$135, DW_AT_name("unsigned char")
    2198                            .dwattr $C$DW$T$135, DW_AT_byte_size(0x01)
    2199                    
    2200                    $C$DW$T$136     .dwtag  DW_TAG_typedef
TI ARM Assembler PC v16.9.0 Thu Feb 16 13:27:10 2017

Tools Copyright (c) 1996-2015 Texas Instruments Incorporated
C:\Users\bob\AppData\Local\Temp\1678410                              PAGE   41

    2201                            .dwattr $C$DW$T$136, DW_AT_name("boolean")
    2202                            .dwattr $C$DW$T$136, DW_AT_type(*$C$DW$T$135)
    2203                            .dwattr $C$DW$T$136, DW_AT_language(DW_LANG_C)
    2204                            .dwattr $C$DW$T$136, DW_AT_decl_file("C:\Users\bob\Documents\Projects\induct_forge\RM57Lx_test
    2205                            .dwattr $C$DW$T$136, DW_AT_decl_line(0x53)
    2206                            .dwattr $C$DW$T$136, DW_AT_decl_column(0x0f)
    2207                    
    2208                    $C$DW$T$137     .dwtag  DW_TAG_typedef
    2209                            .dwattr $C$DW$T$137, DW_AT_name("tBoolean")
    2210                            .dwattr $C$DW$T$137, DW_AT_type(*$C$DW$T$136)
    2211                            .dwattr $C$DW$T$137, DW_AT_language(DW_LANG_C)
    2212                            .dwattr $C$DW$T$137, DW_AT_decl_file("C:\Users\bob\Documents\Projects\induct_forge\RM57Lx_test
    2213                            .dwattr $C$DW$T$137, DW_AT_decl_line(0x40)
    2214                            .dwattr $C$DW$T$137, DW_AT_decl_column(0x11)
    2215                    
    2216                    
    2217                    $C$DW$T$36      .dwtag  DW_TAG_structure_type
    2218                            .dwattr $C$DW$T$36, DW_AT_name("__va_list")
    2219                            .dwattr $C$DW$T$36, DW_AT_byte_size(0x04)
    2220                    $C$DW$152       .dwtag  DW_TAG_member
    2221                            .dwattr $C$DW$152, DW_AT_type(*$C$DW$T$3)
    2222                            .dwattr $C$DW$152, DW_AT_name("__ap")
    2223                            .dwattr $C$DW$152, DW_AT_TI_symbol_name("__ap")
    2224                            .dwattr $C$DW$152, DW_AT_data_member_location[DW_OP_plus_uconst 0x0]
    2225                            .dwattr $C$DW$152, DW_AT_accessibility(DW_ACCESS_public)
    2226                            .dwattr $C$DW$152, DW_AT_decl_file("C:/ti/ccsv7/tools/compiler/ti-cgt-arm_16.9.0.LTS/include/s
    2227                            .dwattr $C$DW$152, DW_AT_decl_line(0x38)
    2228                            .dwattr $C$DW$152, DW_AT_decl_column(0x0c)
    2229                    
    2230                            .dwattr $C$DW$T$36, DW_AT_decl_file("C:/ti/ccsv7/tools/compiler/ti-cgt-arm_16.9.0.LTS/include/
    2231                            .dwattr $C$DW$T$36, DW_AT_decl_line(0x37)
    2232                            .dwattr $C$DW$T$36, DW_AT_decl_column(0x10)
    2233                            .dwendtag $C$DW$T$36
    2234                    
    2235                    $C$DW$T$138     .dwtag  DW_TAG_typedef
    2236                            .dwattr $C$DW$T$138, DW_AT_name("va_list")
    2237                            .dwattr $C$DW$T$138, DW_AT_type(*$C$DW$T$36)
    2238                            .dwattr $C$DW$T$138, DW_AT_language(DW_LANG_C)
    2239                            .dwattr $C$DW$T$138, DW_AT_decl_file("C:/ti/ccsv7/tools/compiler/ti-cgt-arm_16.9.0.LTS/include
    2240                            .dwattr $C$DW$T$138, DW_AT_decl_line(0x39)
    2241                            .dwattr $C$DW$T$138, DW_AT_decl_column(0x03)
    2242                    
    2243                    
    2244                    $C$DW$T$139     .dwtag  DW_TAG_enumeration_type
    2245                            .dwattr $C$DW$T$139, DW_AT_name("_button_EVENT")
    2246                            .dwattr $C$DW$T$139, DW_AT_byte_size(0x01)
    2247                    $C$DW$153       .dwtag  DW_TAG_enumerator
    2248                            .dwattr $C$DW$153, DW_AT_name("NONE")
    2249                            .dwattr $C$DW$153, DW_AT_const_value(0x00)
    2250                            .dwattr $C$DW$153, DW_AT_decl_file("C:/Users/bob/Documents/Projects/induct_forge/RM57Lx_test/P
    2251                            .dwattr $C$DW$153, DW_AT_decl_line(0x12)
    2252                            .dwattr $C$DW$153, DW_AT_decl_column(0x02)
    2253                    
    2254                    $C$DW$154       .dwtag  DW_TAG_enumerator
    2255                            .dwattr $C$DW$154, DW_AT_name("SHORT_PRESS")
TI ARM Assembler PC v16.9.0 Thu Feb 16 13:27:10 2017

Tools Copyright (c) 1996-2015 Texas Instruments Incorporated
C:\Users\bob\AppData\Local\Temp\1678410                              PAGE   42

    2256                            .dwattr $C$DW$154, DW_AT_const_value(0x01)
    2257                            .dwattr $C$DW$154, DW_AT_decl_file("C:/Users/bob/Documents/Projects/induct_forge/RM57Lx_test/P
    2258                            .dwattr $C$DW$154, DW_AT_decl_line(0x13)
    2259                            .dwattr $C$DW$154, DW_AT_decl_column(0x02)
    2260                    
    2261                            .dwattr $C$DW$T$139, DW_AT_decl_file("C:/Users/bob/Documents/Projects/induct_forge/RM57Lx_test
    2262                            .dwattr $C$DW$T$139, DW_AT_decl_line(0x10)
    2263                            .dwattr $C$DW$T$139, DW_AT_decl_column(0x0e)
    2264                            .dwendtag $C$DW$T$139
    2265                    
    2266                    $C$DW$T$140     .dwtag  DW_TAG_typedef
    2267                            .dwattr $C$DW$T$140, DW_AT_name("button")
    2268                            .dwattr $C$DW$T$140, DW_AT_type(*$C$DW$T$139)
    2269                            .dwattr $C$DW$T$140, DW_AT_language(DW_LANG_C)
    2270                            .dwattr $C$DW$T$140, DW_AT_decl_file("C:/Users/bob/Documents/Projects/induct_forge/RM57Lx_test
    2271                            .dwattr $C$DW$T$140, DW_AT_decl_line(0x14)
    2272                            .dwattr $C$DW$T$140, DW_AT_decl_column(0x02)
    2273                    
    2274                    
    2275                    $C$DW$T$141     .dwtag  DW_TAG_enumeration_type
    2276                            .dwattr $C$DW$T$141, DW_AT_name("adc1HwTriggerSource")
    2277                            .dwattr $C$DW$T$141, DW_AT_byte_size(0x01)
    2278                    $C$DW$155       .dwtag  DW_TAG_enumerator
    2279                            .dwattr $C$DW$155, DW_AT_name("ADC1_EVENT")
    2280                            .dwattr $C$DW$155, DW_AT_const_value(0x00)
    2281                            .dwattr $C$DW$155, DW_AT_decl_file("C:/Users/bob/Documents/Projects/induct_forge/RM57Lx_test/P
    2282                            .dwattr $C$DW$155, DW_AT_decl_line(0x8b)
    2283                            .dwattr $C$DW$155, DW_AT_decl_column(0x02)
    2284                    
    2285                    $C$DW$156       .dwtag  DW_TAG_enumerator
    2286                            .dwattr $C$DW$156, DW_AT_name("ADC1_HET1_8")
    2287                            .dwattr $C$DW$156, DW_AT_const_value(0x01)
    2288                            .dwattr $C$DW$156, DW_AT_decl_file("C:/Users/bob/Documents/Projects/induct_forge/RM57Lx_test/P
    2289                            .dwattr $C$DW$156, DW_AT_decl_line(0x8c)
    2290                            .dwattr $C$DW$156, DW_AT_decl_column(0x02)
    2291                    
    2292                    $C$DW$157       .dwtag  DW_TAG_enumerator
    2293                            .dwattr $C$DW$157, DW_AT_name("ADC1_HET1_10")
    2294                            .dwattr $C$DW$157, DW_AT_const_value(0x02)
    2295                            .dwattr $C$DW$157, DW_AT_decl_file("C:/Users/bob/Documents/Projects/induct_forge/RM57Lx_test/P
    2296                            .dwattr $C$DW$157, DW_AT_decl_line(0x8d)
    2297                            .dwattr $C$DW$157, DW_AT_decl_column(0x02)
    2298                    
    2299                    $C$DW$158       .dwtag  DW_TAG_enumerator
    2300                            .dwattr $C$DW$158, DW_AT_name("ADC1_RTI_COMP0")
    2301                            .dwattr $C$DW$158, DW_AT_const_value(0x03)
    2302                            .dwattr $C$DW$158, DW_AT_decl_file("C:/Users/bob/Documents/Projects/induct_forge/RM57Lx_test/P
    2303                            .dwattr $C$DW$158, DW_AT_decl_line(0x8e)
    2304                            .dwattr $C$DW$158, DW_AT_decl_column(0x02)
    2305                    
    2306                    $C$DW$159       .dwtag  DW_TAG_enumerator
    2307                            .dwattr $C$DW$159, DW_AT_name("ADC1_HET1_12")
    2308                            .dwattr $C$DW$159, DW_AT_const_value(0x04)
    2309                            .dwattr $C$DW$159, DW_AT_decl_file("C:/Users/bob/Documents/Projects/induct_forge/RM57Lx_test/P
    2310                            .dwattr $C$DW$159, DW_AT_decl_line(0x8f)
TI ARM Assembler PC v16.9.0 Thu Feb 16 13:27:10 2017

Tools Copyright (c) 1996-2015 Texas Instruments Incorporated
C:\Users\bob\AppData\Local\Temp\1678410                              PAGE   43

    2311                            .dwattr $C$DW$159, DW_AT_decl_column(0x02)
    2312                    
    2313                    $C$DW$160       .dwtag  DW_TAG_enumerator
    2314                            .dwattr $C$DW$160, DW_AT_name("ADC1_HET1_14")
    2315                            .dwattr $C$DW$160, DW_AT_const_value(0x05)
    2316                            .dwattr $C$DW$160, DW_AT_decl_file("C:/Users/bob/Documents/Projects/induct_forge/RM57Lx_test/P
    2317                            .dwattr $C$DW$160, DW_AT_decl_line(0x90)
    2318                            .dwattr $C$DW$160, DW_AT_decl_column(0x02)
    2319                    
    2320                    $C$DW$161       .dwtag  DW_TAG_enumerator
    2321                            .dwattr $C$DW$161, DW_AT_name("ADC1_GIOB0")
    2322                            .dwattr $C$DW$161, DW_AT_const_value(0x06)
    2323                            .dwattr $C$DW$161, DW_AT_decl_file("C:/Users/bob/Documents/Projects/induct_forge/RM57Lx_test/P
    2324                            .dwattr $C$DW$161, DW_AT_decl_line(0x91)
    2325                            .dwattr $C$DW$161, DW_AT_decl_column(0x02)
    2326                    
    2327                    $C$DW$162       .dwtag  DW_TAG_enumerator
    2328                            .dwattr $C$DW$162, DW_AT_name("ADC1_GIOB1")
    2329                            .dwattr $C$DW$162, DW_AT_const_value(0x07)
    2330                            .dwattr $C$DW$162, DW_AT_decl_file("C:/Users/bob/Documents/Projects/induct_forge/RM57Lx_test/P
    2331                            .dwattr $C$DW$162, DW_AT_decl_line(0x92)
    2332                            .dwattr $C$DW$162, DW_AT_decl_column(0x02)
    2333                    
    2334                    $C$DW$163       .dwtag  DW_TAG_enumerator
    2335                            .dwattr $C$DW$163, DW_AT_name("ADC1_HET2_5")
    2336                            .dwattr $C$DW$163, DW_AT_const_value(0x01)
    2337                            .dwattr $C$DW$163, DW_AT_decl_file("C:/Users/bob/Documents/Projects/induct_forge/RM57Lx_test/P
    2338                            .dwattr $C$DW$163, DW_AT_decl_line(0x94)
    2339                            .dwattr $C$DW$163, DW_AT_decl_column(0x02)
    2340                    
    2341                    $C$DW$164       .dwtag  DW_TAG_enumerator
    2342                            .dwattr $C$DW$164, DW_AT_name("ADC1_HET1_27")
    2343                            .dwattr $C$DW$164, DW_AT_const_value(0x02)
    2344                            .dwattr $C$DW$164, DW_AT_decl_file("C:/Users/bob/Documents/Projects/induct_forge/RM57Lx_test/P
    2345                            .dwattr $C$DW$164, DW_AT_decl_line(0x95)
    2346                            .dwattr $C$DW$164, DW_AT_decl_column(0x02)
    2347                    
    2348                    $C$DW$165       .dwtag  DW_TAG_enumerator
    2349                            .dwattr $C$DW$165, DW_AT_name("ADC1_HET1_17")
    2350                            .dwattr $C$DW$165, DW_AT_const_value(0x04)
    2351                            .dwattr $C$DW$165, DW_AT_decl_file("C:/Users/bob/Documents/Projects/induct_forge/RM57Lx_test/P
    2352                            .dwattr $C$DW$165, DW_AT_decl_line(0x96)
    2353                            .dwattr $C$DW$165, DW_AT_decl_column(0x02)
    2354                    
    2355                    $C$DW$166       .dwtag  DW_TAG_enumerator
    2356                            .dwattr $C$DW$166, DW_AT_name("ADC1_HET1_19")
    2357                            .dwattr $C$DW$166, DW_AT_const_value(0x05)
    2358                            .dwattr $C$DW$166, DW_AT_decl_file("C:/Users/bob/Documents/Projects/induct_forge/RM57Lx_test/P
    2359                            .dwattr $C$DW$166, DW_AT_decl_line(0x97)
    2360                            .dwattr $C$DW$166, DW_AT_decl_column(0x02)
    2361                    
    2362                    $C$DW$167       .dwtag  DW_TAG_enumerator
    2363                            .dwattr $C$DW$167, DW_AT_name("ADC1_HET1_11")
    2364                            .dwattr $C$DW$167, DW_AT_const_value(0x06)
    2365                            .dwattr $C$DW$167, DW_AT_decl_file("C:/Users/bob/Documents/Projects/induct_forge/RM57Lx_test/P
TI ARM Assembler PC v16.9.0 Thu Feb 16 13:27:10 2017

Tools Copyright (c) 1996-2015 Texas Instruments Incorporated
C:\Users\bob\AppData\Local\Temp\1678410                              PAGE   44

    2366                            .dwattr $C$DW$167, DW_AT_decl_line(0x98)
    2367                            .dwattr $C$DW$167, DW_AT_decl_column(0x02)
    2368                    
    2369                    $C$DW$168       .dwtag  DW_TAG_enumerator
    2370                            .dwattr $C$DW$168, DW_AT_name("ADC1_HET2_13")
    2371                            .dwattr $C$DW$168, DW_AT_const_value(0x07)
    2372                            .dwattr $C$DW$168, DW_AT_decl_file("C:/Users/bob/Documents/Projects/induct_forge/RM57Lx_test/P
    2373                            .dwattr $C$DW$168, DW_AT_decl_line(0x99)
    2374                            .dwattr $C$DW$168, DW_AT_decl_column(0x02)
    2375                    
    2376                    $C$DW$169       .dwtag  DW_TAG_enumerator
    2377                            .dwattr $C$DW$169, DW_AT_name("ADC1_EPWM_B")
    2378                            .dwattr $C$DW$169, DW_AT_const_value(0x01)
    2379                            .dwattr $C$DW$169, DW_AT_decl_file("C:/Users/bob/Documents/Projects/induct_forge/RM57Lx_test/P
    2380                            .dwattr $C$DW$169, DW_AT_decl_line(0x9b)
    2381                            .dwattr $C$DW$169, DW_AT_decl_column(0x02)
    2382                    
    2383                    $C$DW$170       .dwtag  DW_TAG_enumerator
    2384                            .dwattr $C$DW$170, DW_AT_name("ADC1_EPWM_A1")
    2385                            .dwattr $C$DW$170, DW_AT_const_value(0x03)
    2386                            .dwattr $C$DW$170, DW_AT_decl_file("C:/Users/bob/Documents/Projects/induct_forge/RM57Lx_test/P
    2387                            .dwattr $C$DW$170, DW_AT_decl_line(0x9c)
    2388                            .dwattr $C$DW$170, DW_AT_decl_column(0x02)
    2389                    
    2390                    $C$DW$171       .dwtag  DW_TAG_enumerator
    2391                            .dwattr $C$DW$171, DW_AT_name("ADC1_HET2_1")
    2392                            .dwattr $C$DW$171, DW_AT_const_value(0x05)
    2393                            .dwattr $C$DW$171, DW_AT_decl_file("C:/Users/bob/Documents/Projects/induct_forge/RM57Lx_test/P
    2394                            .dwattr $C$DW$171, DW_AT_decl_line(0x9d)
    2395                            .dwattr $C$DW$171, DW_AT_decl_column(0x02)
    2396                    
    2397                    $C$DW$172       .dwtag  DW_TAG_enumerator
    2398                            .dwattr $C$DW$172, DW_AT_name("ADC1_EPWM_A2")
    2399                            .dwattr $C$DW$172, DW_AT_const_value(0x06)
    2400                            .dwattr $C$DW$172, DW_AT_decl_file("C:/Users/bob/Documents/Projects/induct_forge/RM57Lx_test/P
    2401                            .dwattr $C$DW$172, DW_AT_decl_line(0x9e)
    2402                            .dwattr $C$DW$172, DW_AT_decl_column(0x02)
    2403                    
    2404                    $C$DW$173       .dwtag  DW_TAG_enumerator
    2405                            .dwattr $C$DW$173, DW_AT_name("ADC1_EPWM_AB")
    2406                            .dwattr $C$DW$173, DW_AT_const_value(0x07)
    2407                            .dwattr $C$DW$173, DW_AT_decl_file("C:/Users/bob/Documents/Projects/induct_forge/RM57Lx_test/P
    2408                            .dwattr $C$DW$173, DW_AT_decl_line(0x9f)
    2409                            .dwattr $C$DW$173, DW_AT_decl_column(0x02)
    2410                    
    2411                            .dwattr $C$DW$T$141, DW_AT_decl_file("C:/Users/bob/Documents/Projects/induct_forge/RM57Lx_test
    2412                            .dwattr $C$DW$T$141, DW_AT_decl_line(0x89)
    2413                            .dwattr $C$DW$T$141, DW_AT_decl_column(0x06)
    2414                            .dwendtag $C$DW$T$141
    2415                    
    2416                    
    2417                    $C$DW$T$142     .dwtag  DW_TAG_enumeration_type
    2418                            .dwattr $C$DW$T$142, DW_AT_name("adc2HwTriggerSource")
    2419                            .dwattr $C$DW$T$142, DW_AT_byte_size(0x01)
    2420                    $C$DW$174       .dwtag  DW_TAG_enumerator
TI ARM Assembler PC v16.9.0 Thu Feb 16 13:27:10 2017

Tools Copyright (c) 1996-2015 Texas Instruments Incorporated
C:\Users\bob\AppData\Local\Temp\1678410                              PAGE   45

    2421                            .dwattr $C$DW$174, DW_AT_name("ADC2_EVENT")
    2422                            .dwattr $C$DW$174, DW_AT_const_value(0x00)
    2423                            .dwattr $C$DW$174, DW_AT_decl_file("C:/Users/bob/Documents/Projects/induct_forge/RM57Lx_test/P
    2424                            .dwattr $C$DW$174, DW_AT_decl_line(0xaa)
    2425                            .dwattr $C$DW$174, DW_AT_decl_column(0x02)
    2426                    
    2427                    $C$DW$175       .dwtag  DW_TAG_enumerator
    2428                            .dwattr $C$DW$175, DW_AT_name("ADC2_HET1_8")
    2429                            .dwattr $C$DW$175, DW_AT_const_value(0x01)
    2430                            .dwattr $C$DW$175, DW_AT_decl_file("C:/Users/bob/Documents/Projects/induct_forge/RM57Lx_test/P
    2431                            .dwattr $C$DW$175, DW_AT_decl_line(0xab)
    2432                            .dwattr $C$DW$175, DW_AT_decl_column(0x02)
    2433                    
    2434                    $C$DW$176       .dwtag  DW_TAG_enumerator
    2435                            .dwattr $C$DW$176, DW_AT_name("ADC2_HET1_10")
    2436                            .dwattr $C$DW$176, DW_AT_const_value(0x02)
    2437                            .dwattr $C$DW$176, DW_AT_decl_file("C:/Users/bob/Documents/Projects/induct_forge/RM57Lx_test/P
    2438                            .dwattr $C$DW$176, DW_AT_decl_line(0xac)
    2439                            .dwattr $C$DW$176, DW_AT_decl_column(0x02)
    2440                    
    2441                    $C$DW$177       .dwtag  DW_TAG_enumerator
    2442                            .dwattr $C$DW$177, DW_AT_name("ADC2_RTI_COMP0")
    2443                            .dwattr $C$DW$177, DW_AT_const_value(0x03)
    2444                            .dwattr $C$DW$177, DW_AT_decl_file("C:/Users/bob/Documents/Projects/induct_forge/RM57Lx_test/P
    2445                            .dwattr $C$DW$177, DW_AT_decl_line(0xad)
    2446                            .dwattr $C$DW$177, DW_AT_decl_column(0x02)
    2447                    
    2448                    $C$DW$178       .dwtag  DW_TAG_enumerator
    2449                            .dwattr $C$DW$178, DW_AT_name("ADC2_HET1_12")
    2450                            .dwattr $C$DW$178, DW_AT_const_value(0x04)
    2451                            .dwattr $C$DW$178, DW_AT_decl_file("C:/Users/bob/Documents/Projects/induct_forge/RM57Lx_test/P
    2452                            .dwattr $C$DW$178, DW_AT_decl_line(0xae)
    2453                            .dwattr $C$DW$178, DW_AT_decl_column(0x02)
    2454                    
    2455                    $C$DW$179       .dwtag  DW_TAG_enumerator
    2456                            .dwattr $C$DW$179, DW_AT_name("ADC2_HET1_14")
    2457                            .dwattr $C$DW$179, DW_AT_const_value(0x05)
    2458                            .dwattr $C$DW$179, DW_AT_decl_file("C:/Users/bob/Documents/Projects/induct_forge/RM57Lx_test/P
    2459                            .dwattr $C$DW$179, DW_AT_decl_line(0xaf)
    2460                            .dwattr $C$DW$179, DW_AT_decl_column(0x02)
    2461                    
    2462                    $C$DW$180       .dwtag  DW_TAG_enumerator
    2463                            .dwattr $C$DW$180, DW_AT_name("ADC2_GIOB0")
    2464                            .dwattr $C$DW$180, DW_AT_const_value(0x06)
    2465                            .dwattr $C$DW$180, DW_AT_decl_file("C:/Users/bob/Documents/Projects/induct_forge/RM57Lx_test/P
    2466                            .dwattr $C$DW$180, DW_AT_decl_line(0xb0)
    2467                            .dwattr $C$DW$180, DW_AT_decl_column(0x02)
    2468                    
    2469                    $C$DW$181       .dwtag  DW_TAG_enumerator
    2470                            .dwattr $C$DW$181, DW_AT_name("ADC2_GIOB1")
    2471                            .dwattr $C$DW$181, DW_AT_const_value(0x07)
    2472                            .dwattr $C$DW$181, DW_AT_decl_file("C:/Users/bob/Documents/Projects/induct_forge/RM57Lx_test/P
    2473                            .dwattr $C$DW$181, DW_AT_decl_line(0xb1)
    2474                            .dwattr $C$DW$181, DW_AT_decl_column(0x02)
    2475                    
TI ARM Assembler PC v16.9.0 Thu Feb 16 13:27:10 2017

Tools Copyright (c) 1996-2015 Texas Instruments Incorporated
C:\Users\bob\AppData\Local\Temp\1678410                              PAGE   46

    2476                    $C$DW$182       .dwtag  DW_TAG_enumerator
    2477                            .dwattr $C$DW$182, DW_AT_name("ADC2_HET2_5")
    2478                            .dwattr $C$DW$182, DW_AT_const_value(0x01)
    2479                            .dwattr $C$DW$182, DW_AT_decl_file("C:/Users/bob/Documents/Projects/induct_forge/RM57Lx_test/P
    2480                            .dwattr $C$DW$182, DW_AT_decl_line(0xb2)
    2481                            .dwattr $C$DW$182, DW_AT_decl_column(0x02)
    2482                    
    2483                    $C$DW$183       .dwtag  DW_TAG_enumerator
    2484                            .dwattr $C$DW$183, DW_AT_name("ADC2_HET1_27")
    2485                            .dwattr $C$DW$183, DW_AT_const_value(0x02)
    2486                            .dwattr $C$DW$183, DW_AT_decl_file("C:/Users/bob/Documents/Projects/induct_forge/RM57Lx_test/P
    2487                            .dwattr $C$DW$183, DW_AT_decl_line(0xb3)
    2488                            .dwattr $C$DW$183, DW_AT_decl_column(0x02)
    2489                    
    2490                    $C$DW$184       .dwtag  DW_TAG_enumerator
    2491                            .dwattr $C$DW$184, DW_AT_name("ADC2_HET1_17")
    2492                            .dwattr $C$DW$184, DW_AT_const_value(0x04)
    2493                            .dwattr $C$DW$184, DW_AT_decl_file("C:/Users/bob/Documents/Projects/induct_forge/RM57Lx_test/P
    2494                            .dwattr $C$DW$184, DW_AT_decl_line(0xb4)
    2495                            .dwattr $C$DW$184, DW_AT_decl_column(0x02)
    2496                    
    2497                    $C$DW$185       .dwtag  DW_TAG_enumerator
    2498                            .dwattr $C$DW$185, DW_AT_name("ADC2_HET1_19")
    2499                            .dwattr $C$DW$185, DW_AT_const_value(0x05)
    2500                            .dwattr $C$DW$185, DW_AT_decl_file("C:/Users/bob/Documents/Projects/induct_forge/RM57Lx_test/P
    2501                            .dwattr $C$DW$185, DW_AT_decl_line(0xb5)
    2502                            .dwattr $C$DW$185, DW_AT_decl_column(0x02)
    2503                    
    2504                    $C$DW$186       .dwtag  DW_TAG_enumerator
    2505                            .dwattr $C$DW$186, DW_AT_name("ADC2_HET1_11")
    2506                            .dwattr $C$DW$186, DW_AT_const_value(0x06)
    2507                            .dwattr $C$DW$186, DW_AT_decl_file("C:/Users/bob/Documents/Projects/induct_forge/RM57Lx_test/P
    2508                            .dwattr $C$DW$186, DW_AT_decl_line(0xb6)
    2509                            .dwattr $C$DW$186, DW_AT_decl_column(0x02)
    2510                    
    2511                    $C$DW$187       .dwtag  DW_TAG_enumerator
    2512                            .dwattr $C$DW$187, DW_AT_name("ADC2_HET2_13")
    2513                            .dwattr $C$DW$187, DW_AT_const_value(0x07)
    2514                            .dwattr $C$DW$187, DW_AT_decl_file("C:/Users/bob/Documents/Projects/induct_forge/RM57Lx_test/P
    2515                            .dwattr $C$DW$187, DW_AT_decl_line(0xb7)
    2516                            .dwattr $C$DW$187, DW_AT_decl_column(0x02)
    2517                    
    2518                    $C$DW$188       .dwtag  DW_TAG_enumerator
    2519                            .dwattr $C$DW$188, DW_AT_name("ADC2_EPWM_B")
    2520                            .dwattr $C$DW$188, DW_AT_const_value(0x01)
    2521                            .dwattr $C$DW$188, DW_AT_decl_file("C:/Users/bob/Documents/Projects/induct_forge/RM57Lx_test/P
    2522                            .dwattr $C$DW$188, DW_AT_decl_line(0xb9)
    2523                            .dwattr $C$DW$188, DW_AT_decl_column(0x02)
    2524                    
    2525                    $C$DW$189       .dwtag  DW_TAG_enumerator
    2526                            .dwattr $C$DW$189, DW_AT_name("ADC2_EPWM_A1")
    2527                            .dwattr $C$DW$189, DW_AT_const_value(0x03)
    2528                            .dwattr $C$DW$189, DW_AT_decl_file("C:/Users/bob/Documents/Projects/induct_forge/RM57Lx_test/P
    2529                            .dwattr $C$DW$189, DW_AT_decl_line(0xba)
    2530                            .dwattr $C$DW$189, DW_AT_decl_column(0x02)
TI ARM Assembler PC v16.9.0 Thu Feb 16 13:27:10 2017

Tools Copyright (c) 1996-2015 Texas Instruments Incorporated
C:\Users\bob\AppData\Local\Temp\1678410                              PAGE   47

    2531                    
    2532                    $C$DW$190       .dwtag  DW_TAG_enumerator
    2533                            .dwattr $C$DW$190, DW_AT_name("ADC2_HET2_1")
    2534                            .dwattr $C$DW$190, DW_AT_const_value(0x05)
    2535                            .dwattr $C$DW$190, DW_AT_decl_file("C:/Users/bob/Documents/Projects/induct_forge/RM57Lx_test/P
    2536                            .dwattr $C$DW$190, DW_AT_decl_line(0xbb)
    2537                            .dwattr $C$DW$190, DW_AT_decl_column(0x02)
    2538                    
    2539                    $C$DW$191       .dwtag  DW_TAG_enumerator
    2540                            .dwattr $C$DW$191, DW_AT_name("ADC2_EPWM_A2")
    2541                            .dwattr $C$DW$191, DW_AT_const_value(0x06)
    2542                            .dwattr $C$DW$191, DW_AT_decl_file("C:/Users/bob/Documents/Projects/induct_forge/RM57Lx_test/P
    2543                            .dwattr $C$DW$191, DW_AT_decl_line(0xbc)
    2544                            .dwattr $C$DW$191, DW_AT_decl_column(0x02)
    2545                    
    2546                    $C$DW$192       .dwtag  DW_TAG_enumerator
    2547                            .dwattr $C$DW$192, DW_AT_name("ADC2_EPWM_AB")
    2548                            .dwattr $C$DW$192, DW_AT_const_value(0x07)
    2549                            .dwattr $C$DW$192, DW_AT_decl_file("C:/Users/bob/Documents/Projects/induct_forge/RM57Lx_test/P
    2550                            .dwattr $C$DW$192, DW_AT_decl_line(0xbd)
    2551                            .dwattr $C$DW$192, DW_AT_decl_column(0x02)
    2552                    
    2553                            .dwattr $C$DW$T$142, DW_AT_decl_file("C:/Users/bob/Documents/Projects/induct_forge/RM57Lx_test
    2554                            .dwattr $C$DW$T$142, DW_AT_decl_line(0xa8)
    2555                            .dwattr $C$DW$T$142, DW_AT_decl_column(0x06)
    2556                            .dwendtag $C$DW$T$142
    2557                    
    2558                    
    2559                    $C$DW$T$39      .dwtag  DW_TAG_structure_type
    2560                            .dwattr $C$DW$T$39, DW_AT_name("adcBase")
    2561                            .dwattr $C$DW$T$39, DW_AT_byte_size(0x1b4)
    2562                    $C$DW$193       .dwtag  DW_TAG_member
    2563                            .dwattr $C$DW$193, DW_AT_type(*$C$DW$T$20)
    2564                            .dwattr $C$DW$193, DW_AT_name("RSTCR")
    2565                            .dwattr $C$DW$193, DW_AT_TI_symbol_name("RSTCR")
    2566                            .dwattr $C$DW$193, DW_AT_data_member_location[DW_OP_plus_uconst 0x0]
    2567                            .dwattr $C$DW$193, DW_AT_accessibility(DW_ACCESS_public)
    2568                            .dwattr $C$DW$193, DW_AT_decl_file("C:\Users\bob\Documents\Projects\induct_forge\RM57Lx_test\P
    2569                            .dwattr $C$DW$193, DW_AT_decl_line(0x48)
    2570                            .dwattr $C$DW$193, DW_AT_decl_column(0x0c)
    2571                    
    2572                    $C$DW$194       .dwtag  DW_TAG_member
    2573                            .dwattr $C$DW$194, DW_AT_type(*$C$DW$T$20)
    2574                            .dwattr $C$DW$194, DW_AT_name("OPMODECR")
    2575                            .dwattr $C$DW$194, DW_AT_TI_symbol_name("OPMODECR")
    2576                            .dwattr $C$DW$194, DW_AT_data_member_location[DW_OP_plus_uconst 0x4]
    2577                            .dwattr $C$DW$194, DW_AT_accessibility(DW_ACCESS_public)
    2578                            .dwattr $C$DW$194, DW_AT_decl_file("C:\Users\bob\Documents\Projects\induct_forge\RM57Lx_test\P
    2579                            .dwattr $C$DW$194, DW_AT_decl_line(0x49)
    2580                            .dwattr $C$DW$194, DW_AT_decl_column(0x0c)
    2581                    
    2582                    $C$DW$195       .dwtag  DW_TAG_member
    2583                            .dwattr $C$DW$195, DW_AT_type(*$C$DW$T$20)
    2584                            .dwattr $C$DW$195, DW_AT_name("CLOCKCR")
    2585                            .dwattr $C$DW$195, DW_AT_TI_symbol_name("CLOCKCR")
TI ARM Assembler PC v16.9.0 Thu Feb 16 13:27:10 2017

Tools Copyright (c) 1996-2015 Texas Instruments Incorporated
C:\Users\bob\AppData\Local\Temp\1678410                              PAGE   48

    2586                            .dwattr $C$DW$195, DW_AT_data_member_location[DW_OP_plus_uconst 0x8]
    2587                            .dwattr $C$DW$195, DW_AT_accessibility(DW_ACCESS_public)
    2588                            .dwattr $C$DW$195, DW_AT_decl_file("C:\Users\bob\Documents\Projects\induct_forge\RM57Lx_test\P
    2589                            .dwattr $C$DW$195, DW_AT_decl_line(0x4a)
    2590                            .dwattr $C$DW$195, DW_AT_decl_column(0x0c)
    2591                    
    2592                    $C$DW$196       .dwtag  DW_TAG_member
    2593                            .dwattr $C$DW$196, DW_AT_type(*$C$DW$T$20)
    2594                            .dwattr $C$DW$196, DW_AT_name("CALCR")
    2595                            .dwattr $C$DW$196, DW_AT_TI_symbol_name("CALCR")
    2596                            .dwattr $C$DW$196, DW_AT_data_member_location[DW_OP_plus_uconst 0xc]
    2597                            .dwattr $C$DW$196, DW_AT_accessibility(DW_ACCESS_public)
    2598                            .dwattr $C$DW$196, DW_AT_decl_file("C:\Users\bob\Documents\Projects\induct_forge\RM57Lx_test\P
    2599                            .dwattr $C$DW$196, DW_AT_decl_line(0x4b)
    2600                            .dwattr $C$DW$196, DW_AT_decl_column(0x0c)
    2601                    
    2602                    $C$DW$197       .dwtag  DW_TAG_member
    2603                            .dwattr $C$DW$197, DW_AT_type(*$C$DW$T$37)
    2604                            .dwattr $C$DW$197, DW_AT_name("GxMODECR")
    2605                            .dwattr $C$DW$197, DW_AT_TI_symbol_name("GxMODECR")
    2606                            .dwattr $C$DW$197, DW_AT_data_member_location[DW_OP_plus_uconst 0x10]
    2607                            .dwattr $C$DW$197, DW_AT_accessibility(DW_ACCESS_public)
    2608                            .dwattr $C$DW$197, DW_AT_decl_file("C:\Users\bob\Documents\Projects\induct_forge\RM57Lx_test\P
    2609                            .dwattr $C$DW$197, DW_AT_decl_line(0x4c)
    2610                            .dwattr $C$DW$197, DW_AT_decl_column(0x0c)
    2611                    
    2612                    $C$DW$198       .dwtag  DW_TAG_member
    2613                            .dwattr $C$DW$198, DW_AT_type(*$C$DW$T$20)
    2614                            .dwattr $C$DW$198, DW_AT_name("EVSRC")
    2615                            .dwattr $C$DW$198, DW_AT_TI_symbol_name("EVSRC")
    2616                            .dwattr $C$DW$198, DW_AT_data_member_location[DW_OP_plus_uconst 0x1c]
    2617                            .dwattr $C$DW$198, DW_AT_accessibility(DW_ACCESS_public)
    2618                            .dwattr $C$DW$198, DW_AT_decl_file("C:\Users\bob\Documents\Projects\induct_forge\RM57Lx_test\P
    2619                            .dwattr $C$DW$198, DW_AT_decl_line(0x4d)
    2620                            .dwattr $C$DW$198, DW_AT_decl_column(0x0c)
    2621                    
    2622                    $C$DW$199       .dwtag  DW_TAG_member
    2623                            .dwattr $C$DW$199, DW_AT_type(*$C$DW$T$20)
    2624                            .dwattr $C$DW$199, DW_AT_name("G1SRC")
    2625                            .dwattr $C$DW$199, DW_AT_TI_symbol_name("G1SRC")
    2626                            .dwattr $C$DW$199, DW_AT_data_member_location[DW_OP_plus_uconst 0x20]
    2627                            .dwattr $C$DW$199, DW_AT_accessibility(DW_ACCESS_public)
    2628                            .dwattr $C$DW$199, DW_AT_decl_file("C:\Users\bob\Documents\Projects\induct_forge\RM57Lx_test\P
    2629                            .dwattr $C$DW$199, DW_AT_decl_line(0x4e)
    2630                            .dwattr $C$DW$199, DW_AT_decl_column(0x0c)
    2631                    
    2632                    $C$DW$200       .dwtag  DW_TAG_member
    2633                            .dwattr $C$DW$200, DW_AT_type(*$C$DW$T$20)
    2634                            .dwattr $C$DW$200, DW_AT_name("G2SRC")
    2635                            .dwattr $C$DW$200, DW_AT_TI_symbol_name("G2SRC")
    2636                            .dwattr $C$DW$200, DW_AT_data_member_location[DW_OP_plus_uconst 0x24]
    2637                            .dwattr $C$DW$200, DW_AT_accessibility(DW_ACCESS_public)
    2638                            .dwattr $C$DW$200, DW_AT_decl_file("C:\Users\bob\Documents\Projects\induct_forge\RM57Lx_test\P
    2639                            .dwattr $C$DW$200, DW_AT_decl_line(0x4f)
    2640                            .dwattr $C$DW$200, DW_AT_decl_column(0x0c)
TI ARM Assembler PC v16.9.0 Thu Feb 16 13:27:10 2017

Tools Copyright (c) 1996-2015 Texas Instruments Incorporated
C:\Users\bob\AppData\Local\Temp\1678410                              PAGE   49

    2641                    
    2642                    $C$DW$201       .dwtag  DW_TAG_member
    2643                            .dwattr $C$DW$201, DW_AT_type(*$C$DW$T$37)
    2644                            .dwattr $C$DW$201, DW_AT_name("GxINTENA")
    2645                            .dwattr $C$DW$201, DW_AT_TI_symbol_name("GxINTENA")
    2646                            .dwattr $C$DW$201, DW_AT_data_member_location[DW_OP_plus_uconst 0x28]
    2647                            .dwattr $C$DW$201, DW_AT_accessibility(DW_ACCESS_public)
    2648                            .dwattr $C$DW$201, DW_AT_decl_file("C:\Users\bob\Documents\Projects\induct_forge\RM57Lx_test\P
    2649                            .dwattr $C$DW$201, DW_AT_decl_line(0x50)
    2650                            .dwattr $C$DW$201, DW_AT_decl_column(0x0c)
    2651                    
    2652                    $C$DW$202       .dwtag  DW_TAG_member
    2653                            .dwattr $C$DW$202, DW_AT_type(*$C$DW$T$37)
    2654                            .dwattr $C$DW$202, DW_AT_name("GxINTFLG")
    2655                            .dwattr $C$DW$202, DW_AT_TI_symbol_name("GxINTFLG")
    2656                            .dwattr $C$DW$202, DW_AT_data_member_location[DW_OP_plus_uconst 0x34]
    2657                            .dwattr $C$DW$202, DW_AT_accessibility(DW_ACCESS_public)
    2658                            .dwattr $C$DW$202, DW_AT_decl_file("C:\Users\bob\Documents\Projects\induct_forge\RM57Lx_test\P
    2659                            .dwattr $C$DW$202, DW_AT_decl_line(0x51)
    2660                            .dwattr $C$DW$202, DW_AT_decl_column(0x0c)
    2661                    
    2662                    $C$DW$203       .dwtag  DW_TAG_member
    2663                            .dwattr $C$DW$203, DW_AT_type(*$C$DW$T$37)
    2664                            .dwattr $C$DW$203, DW_AT_name("GxINTCR")
    2665                            .dwattr $C$DW$203, DW_AT_TI_symbol_name("GxINTCR")
    2666                            .dwattr $C$DW$203, DW_AT_data_member_location[DW_OP_plus_uconst 0x40]
    2667                            .dwattr $C$DW$203, DW_AT_accessibility(DW_ACCESS_public)
    2668                            .dwattr $C$DW$203, DW_AT_decl_file("C:\Users\bob\Documents\Projects\induct_forge\RM57Lx_test\P
    2669                            .dwattr $C$DW$203, DW_AT_decl_line(0x52)
    2670                            .dwattr $C$DW$203, DW_AT_decl_column(0x0c)
    2671                    
    2672                    $C$DW$204       .dwtag  DW_TAG_member
    2673                            .dwattr $C$DW$204, DW_AT_type(*$C$DW$T$20)
    2674                            .dwattr $C$DW$204, DW_AT_name("EVDMACR")
    2675                            .dwattr $C$DW$204, DW_AT_TI_symbol_name("EVDMACR")
    2676                            .dwattr $C$DW$204, DW_AT_data_member_location[DW_OP_plus_uconst 0x4c]
    2677                            .dwattr $C$DW$204, DW_AT_accessibility(DW_ACCESS_public)
    2678                            .dwattr $C$DW$204, DW_AT_decl_file("C:\Users\bob\Documents\Projects\induct_forge\RM57Lx_test\P
    2679                            .dwattr $C$DW$204, DW_AT_decl_line(0x53)
    2680                            .dwattr $C$DW$204, DW_AT_decl_column(0x0c)
    2681                    
    2682                    $C$DW$205       .dwtag  DW_TAG_member
    2683                            .dwattr $C$DW$205, DW_AT_type(*$C$DW$T$20)
    2684                            .dwattr $C$DW$205, DW_AT_name("G1DMACR")
    2685                            .dwattr $C$DW$205, DW_AT_TI_symbol_name("G1DMACR")
    2686                            .dwattr $C$DW$205, DW_AT_data_member_location[DW_OP_plus_uconst 0x50]
    2687                            .dwattr $C$DW$205, DW_AT_accessibility(DW_ACCESS_public)
    2688                            .dwattr $C$DW$205, DW_AT_decl_file("C:\Users\bob\Documents\Projects\induct_forge\RM57Lx_test\P
    2689                            .dwattr $C$DW$205, DW_AT_decl_line(0x54)
    2690                            .dwattr $C$DW$205, DW_AT_decl_column(0x0c)
    2691                    
    2692                    $C$DW$206       .dwtag  DW_TAG_member
    2693                            .dwattr $C$DW$206, DW_AT_type(*$C$DW$T$20)
    2694                            .dwattr $C$DW$206, DW_AT_name("G2DMACR")
    2695                            .dwattr $C$DW$206, DW_AT_TI_symbol_name("G2DMACR")
TI ARM Assembler PC v16.9.0 Thu Feb 16 13:27:10 2017

Tools Copyright (c) 1996-2015 Texas Instruments Incorporated
C:\Users\bob\AppData\Local\Temp\1678410                              PAGE   50

    2696                            .dwattr $C$DW$206, DW_AT_data_member_location[DW_OP_plus_uconst 0x54]
    2697                            .dwattr $C$DW$206, DW_AT_accessibility(DW_ACCESS_public)
    2698                            .dwattr $C$DW$206, DW_AT_decl_file("C:\Users\bob\Documents\Projects\induct_forge\RM57Lx_test\P
    2699                            .dwattr $C$DW$206, DW_AT_decl_line(0x55)
    2700                            .dwattr $C$DW$206, DW_AT_decl_column(0x0c)
    2701                    
    2702                    $C$DW$207       .dwtag  DW_TAG_member
    2703                            .dwattr $C$DW$207, DW_AT_type(*$C$DW$T$20)
    2704                            .dwattr $C$DW$207, DW_AT_name("BNDCR")
    2705                            .dwattr $C$DW$207, DW_AT_TI_symbol_name("BNDCR")
    2706                            .dwattr $C$DW$207, DW_AT_data_member_location[DW_OP_plus_uconst 0x58]
    2707                            .dwattr $C$DW$207, DW_AT_accessibility(DW_ACCESS_public)
    2708                            .dwattr $C$DW$207, DW_AT_decl_file("C:\Users\bob\Documents\Projects\induct_forge\RM57Lx_test\P
    2709                            .dwattr $C$DW$207, DW_AT_decl_line(0x56)
    2710                            .dwattr $C$DW$207, DW_AT_decl_column(0x0c)
    2711                    
    2712                    $C$DW$208       .dwtag  DW_TAG_member
    2713                            .dwattr $C$DW$208, DW_AT_type(*$C$DW$T$20)
    2714                            .dwattr $C$DW$208, DW_AT_name("BNDEND")
    2715                            .dwattr $C$DW$208, DW_AT_TI_symbol_name("BNDEND")
    2716                            .dwattr $C$DW$208, DW_AT_data_member_location[DW_OP_plus_uconst 0x5c]
    2717                            .dwattr $C$DW$208, DW_AT_accessibility(DW_ACCESS_public)
    2718                            .dwattr $C$DW$208, DW_AT_decl_file("C:\Users\bob\Documents\Projects\induct_forge\RM57Lx_test\P
    2719                            .dwattr $C$DW$208, DW_AT_decl_line(0x57)
    2720                            .dwattr $C$DW$208, DW_AT_decl_column(0x0c)
    2721                    
    2722                    $C$DW$209       .dwtag  DW_TAG_member
    2723                            .dwattr $C$DW$209, DW_AT_type(*$C$DW$T$20)
    2724                            .dwattr $C$DW$209, DW_AT_name("EVSAMP")
    2725                            .dwattr $C$DW$209, DW_AT_TI_symbol_name("EVSAMP")
    2726                            .dwattr $C$DW$209, DW_AT_data_member_location[DW_OP_plus_uconst 0x60]
    2727                            .dwattr $C$DW$209, DW_AT_accessibility(DW_ACCESS_public)
    2728                            .dwattr $C$DW$209, DW_AT_decl_file("C:\Users\bob\Documents\Projects\induct_forge\RM57Lx_test\P
    2729                            .dwattr $C$DW$209, DW_AT_decl_line(0x58)
    2730                            .dwattr $C$DW$209, DW_AT_decl_column(0x0c)
    2731                    
    2732                    $C$DW$210       .dwtag  DW_TAG_member
    2733                            .dwattr $C$DW$210, DW_AT_type(*$C$DW$T$20)
    2734                            .dwattr $C$DW$210, DW_AT_name("G1SAMP")
    2735                            .dwattr $C$DW$210, DW_AT_TI_symbol_name("G1SAMP")
    2736                            .dwattr $C$DW$210, DW_AT_data_member_location[DW_OP_plus_uconst 0x64]
    2737                            .dwattr $C$DW$210, DW_AT_accessibility(DW_ACCESS_public)
    2738                            .dwattr $C$DW$210, DW_AT_decl_file("C:\Users\bob\Documents\Projects\induct_forge\RM57Lx_test\P
    2739                            .dwattr $C$DW$210, DW_AT_decl_line(0x59)
    2740                            .dwattr $C$DW$210, DW_AT_decl_column(0x0c)
    2741                    
    2742                    $C$DW$211       .dwtag  DW_TAG_member
    2743                            .dwattr $C$DW$211, DW_AT_type(*$C$DW$T$20)
    2744                            .dwattr $C$DW$211, DW_AT_name("G2SAMP")
    2745                            .dwattr $C$DW$211, DW_AT_TI_symbol_name("G2SAMP")
    2746                            .dwattr $C$DW$211, DW_AT_data_member_location[DW_OP_plus_uconst 0x68]
    2747                            .dwattr $C$DW$211, DW_AT_accessibility(DW_ACCESS_public)
    2748                            .dwattr $C$DW$211, DW_AT_decl_file("C:\Users\bob\Documents\Projects\induct_forge\RM57Lx_test\P
    2749                            .dwattr $C$DW$211, DW_AT_decl_line(0x5a)
    2750                            .dwattr $C$DW$211, DW_AT_decl_column(0x0c)
TI ARM Assembler PC v16.9.0 Thu Feb 16 13:27:10 2017

Tools Copyright (c) 1996-2015 Texas Instruments Incorporated
C:\Users\bob\AppData\Local\Temp\1678410                              PAGE   51

    2751                    
    2752                    $C$DW$212       .dwtag  DW_TAG_member
    2753                            .dwattr $C$DW$212, DW_AT_type(*$C$DW$T$20)
    2754                            .dwattr $C$DW$212, DW_AT_name("EVSR")
    2755                            .dwattr $C$DW$212, DW_AT_TI_symbol_name("EVSR")
    2756                            .dwattr $C$DW$212, DW_AT_data_member_location[DW_OP_plus_uconst 0x6c]
    2757                            .dwattr $C$DW$212, DW_AT_accessibility(DW_ACCESS_public)
    2758                            .dwattr $C$DW$212, DW_AT_decl_file("C:\Users\bob\Documents\Projects\induct_forge\RM57Lx_test\P
    2759                            .dwattr $C$DW$212, DW_AT_decl_line(0x5b)
    2760                            .dwattr $C$DW$212, DW_AT_decl_column(0x0c)
    2761                    
    2762                    $C$DW$213       .dwtag  DW_TAG_member
    2763                            .dwattr $C$DW$213, DW_AT_type(*$C$DW$T$20)
    2764                            .dwattr $C$DW$213, DW_AT_name("G1SR")
    2765                            .dwattr $C$DW$213, DW_AT_TI_symbol_name("G1SR")
    2766                            .dwattr $C$DW$213, DW_AT_data_member_location[DW_OP_plus_uconst 0x70]
    2767                            .dwattr $C$DW$213, DW_AT_accessibility(DW_ACCESS_public)
    2768                            .dwattr $C$DW$213, DW_AT_decl_file("C:\Users\bob\Documents\Projects\induct_forge\RM57Lx_test\P
    2769                            .dwattr $C$DW$213, DW_AT_decl_line(0x5c)
    2770                            .dwattr $C$DW$213, DW_AT_decl_column(0x0c)
    2771                    
    2772                    $C$DW$214       .dwtag  DW_TAG_member
    2773                            .dwattr $C$DW$214, DW_AT_type(*$C$DW$T$20)
    2774                            .dwattr $C$DW$214, DW_AT_name("G2SR")
    2775                            .dwattr $C$DW$214, DW_AT_TI_symbol_name("G2SR")
    2776                            .dwattr $C$DW$214, DW_AT_data_member_location[DW_OP_plus_uconst 0x74]
    2777                            .dwattr $C$DW$214, DW_AT_accessibility(DW_ACCESS_public)
    2778                            .dwattr $C$DW$214, DW_AT_decl_file("C:\Users\bob\Documents\Projects\induct_forge\RM57Lx_test\P
    2779                            .dwattr $C$DW$214, DW_AT_decl_line(0x5d)
    2780                            .dwattr $C$DW$214, DW_AT_decl_column(0x0c)
    2781                    
    2782                    $C$DW$215       .dwtag  DW_TAG_member
    2783                            .dwattr $C$DW$215, DW_AT_type(*$C$DW$T$37)
    2784                            .dwattr $C$DW$215, DW_AT_name("GxSEL")
    2785                            .dwattr $C$DW$215, DW_AT_TI_symbol_name("GxSEL")
    2786                            .dwattr $C$DW$215, DW_AT_data_member_location[DW_OP_plus_uconst 0x78]
    2787                            .dwattr $C$DW$215, DW_AT_accessibility(DW_ACCESS_public)
    2788                            .dwattr $C$DW$215, DW_AT_decl_file("C:\Users\bob\Documents\Projects\induct_forge\RM57Lx_test\P
    2789                            .dwattr $C$DW$215, DW_AT_decl_line(0x5e)
    2790                            .dwattr $C$DW$215, DW_AT_decl_column(0x0c)
    2791                    
    2792                    $C$DW$216       .dwtag  DW_TAG_member
    2793                            .dwattr $C$DW$216, DW_AT_type(*$C$DW$T$20)
    2794                            .dwattr $C$DW$216, DW_AT_name("CALR")
    2795                            .dwattr $C$DW$216, DW_AT_TI_symbol_name("CALR")
    2796                            .dwattr $C$DW$216, DW_AT_data_member_location[DW_OP_plus_uconst 0x84]
    2797                            .dwattr $C$DW$216, DW_AT_accessibility(DW_ACCESS_public)
    2798                            .dwattr $C$DW$216, DW_AT_decl_file("C:\Users\bob\Documents\Projects\induct_forge\RM57Lx_test\P
    2799                            .dwattr $C$DW$216, DW_AT_decl_line(0x5f)
    2800                            .dwattr $C$DW$216, DW_AT_decl_column(0x0c)
    2801                    
    2802                    $C$DW$217       .dwtag  DW_TAG_member
    2803                            .dwattr $C$DW$217, DW_AT_type(*$C$DW$T$20)
    2804                            .dwattr $C$DW$217, DW_AT_name("SMSTATE")
    2805                            .dwattr $C$DW$217, DW_AT_TI_symbol_name("SMSTATE")
TI ARM Assembler PC v16.9.0 Thu Feb 16 13:27:10 2017

Tools Copyright (c) 1996-2015 Texas Instruments Incorporated
C:\Users\bob\AppData\Local\Temp\1678410                              PAGE   52

    2806                            .dwattr $C$DW$217, DW_AT_data_member_location[DW_OP_plus_uconst 0x88]
    2807                            .dwattr $C$DW$217, DW_AT_accessibility(DW_ACCESS_public)
    2808                            .dwattr $C$DW$217, DW_AT_decl_file("C:\Users\bob\Documents\Projects\induct_forge\RM57Lx_test\P
    2809                            .dwattr $C$DW$217, DW_AT_decl_line(0x60)
    2810                            .dwattr $C$DW$217, DW_AT_decl_column(0x0c)
    2811                    
    2812                    $C$DW$218       .dwtag  DW_TAG_member
    2813                            .dwattr $C$DW$218, DW_AT_type(*$C$DW$T$20)
    2814                            .dwattr $C$DW$218, DW_AT_name("LASTCONV")
    2815                            .dwattr $C$DW$218, DW_AT_TI_symbol_name("LASTCONV")
    2816                            .dwattr $C$DW$218, DW_AT_data_member_location[DW_OP_plus_uconst 0x8c]
    2817                            .dwattr $C$DW$218, DW_AT_accessibility(DW_ACCESS_public)
    2818                            .dwattr $C$DW$218, DW_AT_decl_file("C:\Users\bob\Documents\Projects\induct_forge\RM57Lx_test\P
    2819                            .dwattr $C$DW$218, DW_AT_decl_line(0x61)
    2820                            .dwattr $C$DW$218, DW_AT_decl_column(0x0c)
    2821                    
    2822                    $C$DW$219       .dwtag  DW_TAG_member
    2823                            .dwattr $C$DW$219, DW_AT_type(*$C$DW$T$38)
    2824                            .dwattr $C$DW$219, DW_AT_name("GxBUF")
    2825                            .dwattr $C$DW$219, DW_AT_TI_symbol_name("GxBUF")
    2826                            .dwattr $C$DW$219, DW_AT_data_member_location[DW_OP_plus_uconst 0x90]
    2827                            .dwattr $C$DW$219, DW_AT_accessibility(DW_ACCESS_public)
    2828                            .dwattr $C$DW$219, DW_AT_decl_file("C:\Users\bob\Documents\Projects\induct_forge\RM57Lx_test\P
    2829                            .dwattr $C$DW$219, DW_AT_decl_line(0x6c)
    2830                            .dwattr $C$DW$219, DW_AT_decl_column(0x07)
    2831                    
    2832                    $C$DW$220       .dwtag  DW_TAG_member
    2833                            .dwattr $C$DW$220, DW_AT_type(*$C$DW$T$20)
    2834                            .dwattr $C$DW$220, DW_AT_name("EVEMUBUFFER")
    2835                            .dwattr $C$DW$220, DW_AT_TI_symbol_name("EVEMUBUFFER")
    2836                            .dwattr $C$DW$220, DW_AT_data_member_location[DW_OP_plus_uconst 0xf0]
    2837                            .dwattr $C$DW$220, DW_AT_accessibility(DW_ACCESS_public)
    2838                            .dwattr $C$DW$220, DW_AT_decl_file("C:\Users\bob\Documents\Projects\induct_forge\RM57Lx_test\P
    2839                            .dwattr $C$DW$220, DW_AT_decl_line(0x6d)
    2840                            .dwattr $C$DW$220, DW_AT_decl_column(0x0c)
    2841                    
    2842                    $C$DW$221       .dwtag  DW_TAG_member
    2843                            .dwattr $C$DW$221, DW_AT_type(*$C$DW$T$20)
    2844                            .dwattr $C$DW$221, DW_AT_name("G1EMUBUFFER")
    2845                            .dwattr $C$DW$221, DW_AT_TI_symbol_name("G1EMUBUFFER")
    2846                            .dwattr $C$DW$221, DW_AT_data_member_location[DW_OP_plus_uconst 0xf4]
    2847                            .dwattr $C$DW$221, DW_AT_accessibility(DW_ACCESS_public)
    2848                            .dwattr $C$DW$221, DW_AT_decl_file("C:\Users\bob\Documents\Projects\induct_forge\RM57Lx_test\P
    2849                            .dwattr $C$DW$221, DW_AT_decl_line(0x6e)
    2850                            .dwattr $C$DW$221, DW_AT_decl_column(0x0c)
    2851                    
    2852                    $C$DW$222       .dwtag  DW_TAG_member
    2853                            .dwattr $C$DW$222, DW_AT_type(*$C$DW$T$20)
    2854                            .dwattr $C$DW$222, DW_AT_name("G2EMUBUFFER")
    2855                            .dwattr $C$DW$222, DW_AT_TI_symbol_name("G2EMUBUFFER")
    2856                            .dwattr $C$DW$222, DW_AT_data_member_location[DW_OP_plus_uconst 0xf8]
    2857                            .dwattr $C$DW$222, DW_AT_accessibility(DW_ACCESS_public)
    2858                            .dwattr $C$DW$222, DW_AT_decl_file("C:\Users\bob\Documents\Projects\induct_forge\RM57Lx_test\P
    2859                            .dwattr $C$DW$222, DW_AT_decl_line(0x6f)
    2860                            .dwattr $C$DW$222, DW_AT_decl_column(0x0c)
TI ARM Assembler PC v16.9.0 Thu Feb 16 13:27:10 2017

Tools Copyright (c) 1996-2015 Texas Instruments Incorporated
C:\Users\bob\AppData\Local\Temp\1678410                              PAGE   53

    2861                    
    2862                    $C$DW$223       .dwtag  DW_TAG_member
    2863                            .dwattr $C$DW$223, DW_AT_type(*$C$DW$T$20)
    2864                            .dwattr $C$DW$223, DW_AT_name("EVTDIR")
    2865                            .dwattr $C$DW$223, DW_AT_TI_symbol_name("EVTDIR")
    2866                            .dwattr $C$DW$223, DW_AT_data_member_location[DW_OP_plus_uconst 0xfc]
    2867                            .dwattr $C$DW$223, DW_AT_accessibility(DW_ACCESS_public)
    2868                            .dwattr $C$DW$223, DW_AT_decl_file("C:\Users\bob\Documents\Projects\induct_forge\RM57Lx_test\P
    2869                            .dwattr $C$DW$223, DW_AT_decl_line(0x70)
    2870                            .dwattr $C$DW$223, DW_AT_decl_column(0x0c)
    2871                    
    2872                    $C$DW$224       .dwtag  DW_TAG_member
    2873                            .dwattr $C$DW$224, DW_AT_type(*$C$DW$T$20)
    2874                            .dwattr $C$DW$224, DW_AT_name("EVTOUT")
    2875                            .dwattr $C$DW$224, DW_AT_TI_symbol_name("EVTOUT")
    2876                            .dwattr $C$DW$224, DW_AT_data_member_location[DW_OP_plus_uconst 0x100]
    2877                            .dwattr $C$DW$224, DW_AT_accessibility(DW_ACCESS_public)
    2878                            .dwattr $C$DW$224, DW_AT_decl_file("C:\Users\bob\Documents\Projects\induct_forge\RM57Lx_test\P
    2879                            .dwattr $C$DW$224, DW_AT_decl_line(0x71)
    2880                            .dwattr $C$DW$224, DW_AT_decl_column(0x0c)
    2881                    
    2882                    $C$DW$225       .dwtag  DW_TAG_member
    2883                            .dwattr $C$DW$225, DW_AT_type(*$C$DW$T$20)
    2884                            .dwattr $C$DW$225, DW_AT_name("EVTIN")
    2885                            .dwattr $C$DW$225, DW_AT_TI_symbol_name("EVTIN")
    2886                            .dwattr $C$DW$225, DW_AT_data_member_location[DW_OP_plus_uconst 0x104]
    2887                            .dwattr $C$DW$225, DW_AT_accessibility(DW_ACCESS_public)
    2888                            .dwattr $C$DW$225, DW_AT_decl_file("C:\Users\bob\Documents\Projects\induct_forge\RM57Lx_test\P
    2889                            .dwattr $C$DW$225, DW_AT_decl_line(0x72)
    2890                            .dwattr $C$DW$225, DW_AT_decl_column(0x0c)
    2891                    
    2892                    $C$DW$226       .dwtag  DW_TAG_member
    2893                            .dwattr $C$DW$226, DW_AT_type(*$C$DW$T$20)
    2894                            .dwattr $C$DW$226, DW_AT_name("EVTSET")
    2895                            .dwattr $C$DW$226, DW_AT_TI_symbol_name("EVTSET")
    2896                            .dwattr $C$DW$226, DW_AT_data_member_location[DW_OP_plus_uconst 0x108]
    2897                            .dwattr $C$DW$226, DW_AT_accessibility(DW_ACCESS_public)
    2898                            .dwattr $C$DW$226, DW_AT_decl_file("C:\Users\bob\Documents\Projects\induct_forge\RM57Lx_test\P
    2899                            .dwattr $C$DW$226, DW_AT_decl_line(0x73)
    2900                            .dwattr $C$DW$226, DW_AT_decl_column(0x0c)
    2901                    
    2902                    $C$DW$227       .dwtag  DW_TAG_member
    2903                            .dwattr $C$DW$227, DW_AT_type(*$C$DW$T$20)
    2904                            .dwattr $C$DW$227, DW_AT_name("EVTCLR")
    2905                            .dwattr $C$DW$227, DW_AT_TI_symbol_name("EVTCLR")
    2906                            .dwattr $C$DW$227, DW_AT_data_member_location[DW_OP_plus_uconst 0x10c]
    2907                            .dwattr $C$DW$227, DW_AT_accessibility(DW_ACCESS_public)
    2908                            .dwattr $C$DW$227, DW_AT_decl_file("C:\Users\bob\Documents\Projects\induct_forge\RM57Lx_test\P
    2909                            .dwattr $C$DW$227, DW_AT_decl_line(0x74)
    2910                            .dwattr $C$DW$227, DW_AT_decl_column(0x0c)
    2911                    
    2912                    $C$DW$228       .dwtag  DW_TAG_member
    2913                            .dwattr $C$DW$228, DW_AT_type(*$C$DW$T$20)
    2914                            .dwattr $C$DW$228, DW_AT_name("EVTPDR")
    2915                            .dwattr $C$DW$228, DW_AT_TI_symbol_name("EVTPDR")
TI ARM Assembler PC v16.9.0 Thu Feb 16 13:27:10 2017

Tools Copyright (c) 1996-2015 Texas Instruments Incorporated
C:\Users\bob\AppData\Local\Temp\1678410                              PAGE   54

    2916                            .dwattr $C$DW$228, DW_AT_data_member_location[DW_OP_plus_uconst 0x110]
    2917                            .dwattr $C$DW$228, DW_AT_accessibility(DW_ACCESS_public)
    2918                            .dwattr $C$DW$228, DW_AT_decl_file("C:\Users\bob\Documents\Projects\induct_forge\RM57Lx_test\P
    2919                            .dwattr $C$DW$228, DW_AT_decl_line(0x75)
    2920                            .dwattr $C$DW$228, DW_AT_decl_column(0x0c)
    2921                    
    2922                    $C$DW$229       .dwtag  DW_TAG_member
    2923                            .dwattr $C$DW$229, DW_AT_type(*$C$DW$T$20)
    2924                            .dwattr $C$DW$229, DW_AT_name("EVTDIS")
    2925                            .dwattr $C$DW$229, DW_AT_TI_symbol_name("EVTDIS")
    2926                            .dwattr $C$DW$229, DW_AT_data_member_location[DW_OP_plus_uconst 0x114]
    2927                            .dwattr $C$DW$229, DW_AT_accessibility(DW_ACCESS_public)
    2928                            .dwattr $C$DW$229, DW_AT_decl_file("C:\Users\bob\Documents\Projects\induct_forge\RM57Lx_test\P
    2929                            .dwattr $C$DW$229, DW_AT_decl_line(0x76)
    2930                            .dwattr $C$DW$229, DW_AT_decl_column(0x0c)
    2931                    
    2932                    $C$DW$230       .dwtag  DW_TAG_member
    2933                            .dwattr $C$DW$230, DW_AT_type(*$C$DW$T$20)
    2934                            .dwattr $C$DW$230, DW_AT_name("EVTPSEL")
    2935                            .dwattr $C$DW$230, DW_AT_TI_symbol_name("EVTPSEL")
    2936                            .dwattr $C$DW$230, DW_AT_data_member_location[DW_OP_plus_uconst 0x118]
    2937                            .dwattr $C$DW$230, DW_AT_accessibility(DW_ACCESS_public)
    2938                            .dwattr $C$DW$230, DW_AT_decl_file("C:\Users\bob\Documents\Projects\induct_forge\RM57Lx_test\P
    2939                            .dwattr $C$DW$230, DW_AT_decl_line(0x77)
    2940                            .dwattr $C$DW$230, DW_AT_decl_column(0x0c)
    2941                    
    2942                    $C$DW$231       .dwtag  DW_TAG_member
    2943                            .dwattr $C$DW$231, DW_AT_type(*$C$DW$T$20)
    2944                            .dwattr $C$DW$231, DW_AT_name("EVSAMPDISEN")
    2945                            .dwattr $C$DW$231, DW_AT_TI_symbol_name("EVSAMPDISEN")
    2946                            .dwattr $C$DW$231, DW_AT_data_member_location[DW_OP_plus_uconst 0x11c]
    2947                            .dwattr $C$DW$231, DW_AT_accessibility(DW_ACCESS_public)
    2948                            .dwattr $C$DW$231, DW_AT_decl_file("C:\Users\bob\Documents\Projects\induct_forge\RM57Lx_test\P
    2949                            .dwattr $C$DW$231, DW_AT_decl_line(0x78)
    2950                            .dwattr $C$DW$231, DW_AT_decl_column(0x0c)
    2951                    
    2952                    $C$DW$232       .dwtag  DW_TAG_member
    2953                            .dwattr $C$DW$232, DW_AT_type(*$C$DW$T$20)
    2954                            .dwattr $C$DW$232, DW_AT_name("G1SAMPDISEN")
    2955                            .dwattr $C$DW$232, DW_AT_TI_symbol_name("G1SAMPDISEN")
    2956                            .dwattr $C$DW$232, DW_AT_data_member_location[DW_OP_plus_uconst 0x120]
    2957                            .dwattr $C$DW$232, DW_AT_accessibility(DW_ACCESS_public)
    2958                            .dwattr $C$DW$232, DW_AT_decl_file("C:\Users\bob\Documents\Projects\induct_forge\RM57Lx_test\P
    2959                            .dwattr $C$DW$232, DW_AT_decl_line(0x79)
    2960                            .dwattr $C$DW$232, DW_AT_decl_column(0x0c)
    2961                    
    2962                    $C$DW$233       .dwtag  DW_TAG_member
    2963                            .dwattr $C$DW$233, DW_AT_type(*$C$DW$T$20)
    2964                            .dwattr $C$DW$233, DW_AT_name("G2SAMPDISEN")
    2965                            .dwattr $C$DW$233, DW_AT_TI_symbol_name("G2SAMPDISEN")
    2966                            .dwattr $C$DW$233, DW_AT_data_member_location[DW_OP_plus_uconst 0x124]
    2967                            .dwattr $C$DW$233, DW_AT_accessibility(DW_ACCESS_public)
    2968                            .dwattr $C$DW$233, DW_AT_decl_file("C:\Users\bob\Documents\Projects\induct_forge\RM57Lx_test\P
    2969                            .dwattr $C$DW$233, DW_AT_decl_line(0x7a)
    2970                            .dwattr $C$DW$233, DW_AT_decl_column(0x0c)
TI ARM Assembler PC v16.9.0 Thu Feb 16 13:27:10 2017

Tools Copyright (c) 1996-2015 Texas Instruments Incorporated
C:\Users\bob\AppData\Local\Temp\1678410                              PAGE   55

    2971                    
    2972                    $C$DW$234       .dwtag  DW_TAG_member
    2973                            .dwattr $C$DW$234, DW_AT_type(*$C$DW$T$20)
    2974                            .dwattr $C$DW$234, DW_AT_name("MAGINTCR1")
    2975                            .dwattr $C$DW$234, DW_AT_TI_symbol_name("MAGINTCR1")
    2976                            .dwattr $C$DW$234, DW_AT_data_member_location[DW_OP_plus_uconst 0x128]
    2977                            .dwattr $C$DW$234, DW_AT_accessibility(DW_ACCESS_public)
    2978                            .dwattr $C$DW$234, DW_AT_decl_file("C:\Users\bob\Documents\Projects\induct_forge\RM57Lx_test\P
    2979                            .dwattr $C$DW$234, DW_AT_decl_line(0x7b)
    2980                            .dwattr $C$DW$234, DW_AT_decl_column(0x0c)
    2981                    
    2982                    $C$DW$235       .dwtag  DW_TAG_member
    2983                            .dwattr $C$DW$235, DW_AT_type(*$C$DW$T$20)
    2984                            .dwattr $C$DW$235, DW_AT_name("MAGINT1MASK")
    2985                            .dwattr $C$DW$235, DW_AT_TI_symbol_name("MAGINT1MASK")
    2986                            .dwattr $C$DW$235, DW_AT_data_member_location[DW_OP_plus_uconst 0x12c]
    2987                            .dwattr $C$DW$235, DW_AT_accessibility(DW_ACCESS_public)
    2988                            .dwattr $C$DW$235, DW_AT_decl_file("C:\Users\bob\Documents\Projects\induct_forge\RM57Lx_test\P
    2989                            .dwattr $C$DW$235, DW_AT_decl_line(0x7c)
    2990                            .dwattr $C$DW$235, DW_AT_decl_column(0x0c)
    2991                    
    2992                    $C$DW$236       .dwtag  DW_TAG_member
    2993                            .dwattr $C$DW$236, DW_AT_type(*$C$DW$T$20)
    2994                            .dwattr $C$DW$236, DW_AT_name("MAGINTCR2")
    2995                            .dwattr $C$DW$236, DW_AT_TI_symbol_name("MAGINTCR2")
    2996                            .dwattr $C$DW$236, DW_AT_data_member_location[DW_OP_plus_uconst 0x130]
    2997                            .dwattr $C$DW$236, DW_AT_accessibility(DW_ACCESS_public)
    2998                            .dwattr $C$DW$236, DW_AT_decl_file("C:\Users\bob\Documents\Projects\induct_forge\RM57Lx_test\P
    2999                            .dwattr $C$DW$236, DW_AT_decl_line(0x7d)
    3000                            .dwattr $C$DW$236, DW_AT_decl_column(0x0c)
    3001                    
    3002                    $C$DW$237       .dwtag  DW_TAG_member
    3003                            .dwattr $C$DW$237, DW_AT_type(*$C$DW$T$20)
    3004                            .dwattr $C$DW$237, DW_AT_name("MAGINT2MASK")
    3005                            .dwattr $C$DW$237, DW_AT_TI_symbol_name("MAGINT2MASK")
    3006                            .dwattr $C$DW$237, DW_AT_data_member_location[DW_OP_plus_uconst 0x134]
    3007                            .dwattr $C$DW$237, DW_AT_accessibility(DW_ACCESS_public)
    3008                            .dwattr $C$DW$237, DW_AT_decl_file("C:\Users\bob\Documents\Projects\induct_forge\RM57Lx_test\P
    3009                            .dwattr $C$DW$237, DW_AT_decl_line(0x7e)
    3010                            .dwattr $C$DW$237, DW_AT_decl_column(0x0c)
    3011                    
    3012                    $C$DW$238       .dwtag  DW_TAG_member
    3013                            .dwattr $C$DW$238, DW_AT_type(*$C$DW$T$20)
    3014                            .dwattr $C$DW$238, DW_AT_name("MAGINTCR3")
    3015                            .dwattr $C$DW$238, DW_AT_TI_symbol_name("MAGINTCR3")
    3016                            .dwattr $C$DW$238, DW_AT_data_member_location[DW_OP_plus_uconst 0x138]
    3017                            .dwattr $C$DW$238, DW_AT_accessibility(DW_ACCESS_public)
    3018                            .dwattr $C$DW$238, DW_AT_decl_file("C:\Users\bob\Documents\Projects\induct_forge\RM57Lx_test\P
    3019                            .dwattr $C$DW$238, DW_AT_decl_line(0x7f)
    3020                            .dwattr $C$DW$238, DW_AT_decl_column(0x0c)
    3021                    
    3022                    $C$DW$239       .dwtag  DW_TAG_member
    3023                            .dwattr $C$DW$239, DW_AT_type(*$C$DW$T$20)
    3024                            .dwattr $C$DW$239, DW_AT_name("MAGINT3MASK")
    3025                            .dwattr $C$DW$239, DW_AT_TI_symbol_name("MAGINT3MASK")
TI ARM Assembler PC v16.9.0 Thu Feb 16 13:27:10 2017

Tools Copyright (c) 1996-2015 Texas Instruments Incorporated
C:\Users\bob\AppData\Local\Temp\1678410                              PAGE   56

    3026                            .dwattr $C$DW$239, DW_AT_data_member_location[DW_OP_plus_uconst 0x13c]
    3027                            .dwattr $C$DW$239, DW_AT_accessibility(DW_ACCESS_public)
    3028                            .dwattr $C$DW$239, DW_AT_decl_file("C:\Users\bob\Documents\Projects\induct_forge\RM57Lx_test\P
    3029                            .dwattr $C$DW$239, DW_AT_decl_line(0x80)
    3030                            .dwattr $C$DW$239, DW_AT_decl_column(0x0c)
    3031                    
    3032                    $C$DW$240       .dwtag  DW_TAG_member
    3033                            .dwattr $C$DW$240, DW_AT_type(*$C$DW$T$20)
    3034                            .dwattr $C$DW$240, DW_AT_name("rsvd1")
    3035                            .dwattr $C$DW$240, DW_AT_TI_symbol_name("rsvd1")
    3036                            .dwattr $C$DW$240, DW_AT_data_member_location[DW_OP_plus_uconst 0x140]
    3037                            .dwattr $C$DW$240, DW_AT_accessibility(DW_ACCESS_public)
    3038                            .dwattr $C$DW$240, DW_AT_decl_file("C:\Users\bob\Documents\Projects\induct_forge\RM57Lx_test\P
    3039                            .dwattr $C$DW$240, DW_AT_decl_line(0x81)
    3040                            .dwattr $C$DW$240, DW_AT_decl_column(0x0e)
    3041                    
    3042                    $C$DW$241       .dwtag  DW_TAG_member
    3043                            .dwattr $C$DW$241, DW_AT_type(*$C$DW$T$20)
    3044                            .dwattr $C$DW$241, DW_AT_name("rsvd2")
    3045                            .dwattr $C$DW$241, DW_AT_TI_symbol_name("rsvd2")
    3046                            .dwattr $C$DW$241, DW_AT_data_member_location[DW_OP_plus_uconst 0x144]
    3047                            .dwattr $C$DW$241, DW_AT_accessibility(DW_ACCESS_public)
    3048                            .dwattr $C$DW$241, DW_AT_decl_file("C:\Users\bob\Documents\Projects\induct_forge\RM57Lx_test\P
    3049                            .dwattr $C$DW$241, DW_AT_decl_line(0x82)
    3050                            .dwattr $C$DW$241, DW_AT_decl_column(0x0e)
    3051                    
    3052                    $C$DW$242       .dwtag  DW_TAG_member
    3053                            .dwattr $C$DW$242, DW_AT_type(*$C$DW$T$20)
    3054                            .dwattr $C$DW$242, DW_AT_name("rsvd3")
    3055                            .dwattr $C$DW$242, DW_AT_TI_symbol_name("rsvd3")
    3056                            .dwattr $C$DW$242, DW_AT_data_member_location[DW_OP_plus_uconst 0x148]
    3057                            .dwattr $C$DW$242, DW_AT_accessibility(DW_ACCESS_public)
    3058                            .dwattr $C$DW$242, DW_AT_decl_file("C:\Users\bob\Documents\Projects\induct_forge\RM57Lx_test\P
    3059                            .dwattr $C$DW$242, DW_AT_decl_line(0x83)
    3060                            .dwattr $C$DW$242, DW_AT_decl_column(0x0e)
    3061                    
    3062                    $C$DW$243       .dwtag  DW_TAG_member
    3063                            .dwattr $C$DW$243, DW_AT_type(*$C$DW$T$20)
    3064                            .dwattr $C$DW$243, DW_AT_name("rsvd4")
    3065                            .dwattr $C$DW$243, DW_AT_TI_symbol_name("rsvd4")
    3066                            .dwattr $C$DW$243, DW_AT_data_member_location[DW_OP_plus_uconst 0x14c]
    3067                            .dwattr $C$DW$243, DW_AT_accessibility(DW_ACCESS_public)
    3068                            .dwattr $C$DW$243, DW_AT_decl_file("C:\Users\bob\Documents\Projects\induct_forge\RM57Lx_test\P
    3069                            .dwattr $C$DW$243, DW_AT_decl_line(0x84)
    3070                            .dwattr $C$DW$243, DW_AT_decl_column(0x0e)
    3071                    
    3072                    $C$DW$244       .dwtag  DW_TAG_member
    3073                            .dwattr $C$DW$244, DW_AT_type(*$C$DW$T$20)
    3074                            .dwattr $C$DW$244, DW_AT_name("rsvd5")
    3075                            .dwattr $C$DW$244, DW_AT_TI_symbol_name("rsvd5")
    3076                            .dwattr $C$DW$244, DW_AT_data_member_location[DW_OP_plus_uconst 0x150]
    3077                            .dwattr $C$DW$244, DW_AT_accessibility(DW_ACCESS_public)
    3078                            .dwattr $C$DW$244, DW_AT_decl_file("C:\Users\bob\Documents\Projects\induct_forge\RM57Lx_test\P
    3079                            .dwattr $C$DW$244, DW_AT_decl_line(0x85)
    3080                            .dwattr $C$DW$244, DW_AT_decl_column(0x0e)
TI ARM Assembler PC v16.9.0 Thu Feb 16 13:27:10 2017

Tools Copyright (c) 1996-2015 Texas Instruments Incorporated
C:\Users\bob\AppData\Local\Temp\1678410                              PAGE   57

    3081                    
    3082                    $C$DW$245       .dwtag  DW_TAG_member
    3083                            .dwattr $C$DW$245, DW_AT_type(*$C$DW$T$20)
    3084                            .dwattr $C$DW$245, DW_AT_name("rsvd6")
    3085                            .dwattr $C$DW$245, DW_AT_TI_symbol_name("rsvd6")
    3086                            .dwattr $C$DW$245, DW_AT_data_member_location[DW_OP_plus_uconst 0x154]
    3087                            .dwattr $C$DW$245, DW_AT_accessibility(DW_ACCESS_public)
    3088                            .dwattr $C$DW$245, DW_AT_decl_file("C:\Users\bob\Documents\Projects\induct_forge\RM57Lx_test\P
    3089                            .dwattr $C$DW$245, DW_AT_decl_line(0x86)
    3090                            .dwattr $C$DW$245, DW_AT_decl_column(0x0e)
    3091                    
    3092                    $C$DW$246       .dwtag  DW_TAG_member
    3093                            .dwattr $C$DW$246, DW_AT_type(*$C$DW$T$20)
    3094                            .dwattr $C$DW$246, DW_AT_name("MAGTHRINTENASET")
    3095                            .dwattr $C$DW$246, DW_AT_TI_symbol_name("MAGTHRINTENASET")
    3096                            .dwattr $C$DW$246, DW_AT_data_member_location[DW_OP_plus_uconst 0x158]
    3097                            .dwattr $C$DW$246, DW_AT_accessibility(DW_ACCESS_public)
    3098                            .dwattr $C$DW$246, DW_AT_decl_file("C:\Users\bob\Documents\Projects\induct_forge\RM57Lx_test\P
    3099                            .dwattr $C$DW$246, DW_AT_decl_line(0x87)
    3100                            .dwattr $C$DW$246, DW_AT_decl_column(0x0c)
    3101                    
    3102                    $C$DW$247       .dwtag  DW_TAG_member
    3103                            .dwattr $C$DW$247, DW_AT_type(*$C$DW$T$20)
    3104                            .dwattr $C$DW$247, DW_AT_name("MAGTHRINTENACLR")
    3105                            .dwattr $C$DW$247, DW_AT_TI_symbol_name("MAGTHRINTENACLR")
    3106                            .dwattr $C$DW$247, DW_AT_data_member_location[DW_OP_plus_uconst 0x15c]
    3107                            .dwattr $C$DW$247, DW_AT_accessibility(DW_ACCESS_public)
    3108                            .dwattr $C$DW$247, DW_AT_decl_file("C:\Users\bob\Documents\Projects\induct_forge\RM57Lx_test\P
    3109                            .dwattr $C$DW$247, DW_AT_decl_line(0x88)
