TI ARM Assembler PC v16.9.0 Sun Feb 19 22:29:40 2017

Tools Copyright (c) 1996-2015 Texas Instruments Incorporated
C:\Users\bob\AppData\Local\Temp\0957210                              PAGE    1

       1                    ;******************************************************************************
       2                    ;* TI ARM C/C++ Codegen                                        PC v16.9.0.LTS *
       3                    ;* Date/Time created: Sun Feb 19 22:29:40 2017                                *
       4                    ;******************************************************************************
       5                            .compiler_opts --abi=eabi --arm_vmrs_si_workaround=off --code_state=32 --diag_wrap=off --embed
       6 00000000                   .state32
       7                    
       8                    $C$DW$CU        .dwtag  DW_TAG_compile_unit
       9                            .dwattr $C$DW$CU, DW_AT_name("../hcg/source/HL_rti.c")
      10                            .dwattr $C$DW$CU, DW_AT_producer("TI TI ARM C/C++ Codegen PC v16.9.0.LTS Copyright (c) 1996-20
      11                            .dwattr $C$DW$CU, DW_AT_TI_version(0x01)
      12                            .dwattr $C$DW$CU, DW_AT_comp_dir("C:\Users\bob\Documents\Projects\induct_forge\RM57Lx_test\Pro
      13                    
      14                    $C$DW$1 .dwtag  DW_TAG_subprogram
      15                            .dwattr $C$DW$1, DW_AT_name("rtiNotification")
      16                            .dwattr $C$DW$1, DW_AT_TI_symbol_name("rtiNotification")
      17                            .dwattr $C$DW$1, DW_AT_declaration
      18                            .dwattr $C$DW$1, DW_AT_external
      19                            .dwattr $C$DW$1, DW_AT_decl_file("C:/Users/bob/Documents/Projects/induct_forge/RM57Lx_test/Pro
      20                            .dwattr $C$DW$1, DW_AT_decl_line(0x13c)
      21                            .dwattr $C$DW$1, DW_AT_decl_column(0x06)
      22                    $C$DW$2 .dwtag  DW_TAG_formal_parameter
      23                            .dwattr $C$DW$2, DW_AT_type(*$C$DW$T$40)
      24                    
      25                    $C$DW$3 .dwtag  DW_TAG_formal_parameter
      26                            .dwattr $C$DW$3, DW_AT_type(*$C$DW$T$20)
      27                    
      28                            .dwendtag $C$DW$1
      29                    
      30                    ;       C:\ti\ccsv7\tools\compiler\ti-cgt-arm_16.9.0.LTS\bin\armacpia.exe -@C:\\Users\\bob\\AppData\\L
      31 00000000                   .sect   ".text"
      32                            .clink
      33                            .armfunc rtiInit
      34 00000000                   .state32
      35                            .global rtiInit
      36                    
      37                    $C$DW$4 .dwtag  DW_TAG_subprogram
      38                            .dwattr $C$DW$4, DW_AT_name("rtiInit")
      39                            .dwattr $C$DW$4, DW_AT_low_pc(rtiInit)
      40                            .dwattr $C$DW$4, DW_AT_high_pc(0x00)
      41                            .dwattr $C$DW$4, DW_AT_TI_symbol_name("rtiInit")
      42                            .dwattr $C$DW$4, DW_AT_external
      43                            .dwattr $C$DW$4, DW_AT_TI_begin_file("../hcg/source/HL_rti.c")
      44                            .dwattr $C$DW$4, DW_AT_TI_begin_line(0x43)
      45                            .dwattr $C$DW$4, DW_AT_TI_begin_column(0x06)
      46                            .dwattr $C$DW$4, DW_AT_decl_file("../hcg/source/HL_rti.c")
      47                            .dwattr $C$DW$4, DW_AT_decl_line(0x43)
      48                            .dwattr $C$DW$4, DW_AT_decl_column(0x06)
      49                            .dwattr $C$DW$4, DW_AT_TI_max_frame_size(0x00)
      50                            .dwpsn  file "../hcg/source/HL_rti.c",line 68,column 1,is_stmt,address rtiInit,isa 2
      51                    
      52                            .dwfde $C$DW$CIE, rtiInit
      53                    
      54                    ;*****************************************************************************
      55                    ;* FUNCTION NAME: rtiInit                                                    *
TI ARM Assembler PC v16.9.0 Sun Feb 19 22:29:40 2017

Tools Copyright (c) 1996-2015 Texas Instruments Incorporated
C:\Users\bob\AppData\Local\Temp\0957210                              PAGE    2

      56                    ;*                                                                           *
      57                    ;*   Regs Modified     : A1,V9                                               *
      58                    ;*   Regs Used         : A1,V9,LR                                            *
      59                    ;*   Local Frame Size  : 0 Args + 0 Auto + 0 Save = 0 byte                   *
      60                    ;*****************************************************************************
      61 00000000           rtiInit:
      62                    ;* --------------------------------------------------------------------------*
      63                            .dwcfi  cfa_offset, 0
      64                            .dwpsn  file "../hcg/source/HL_rti.c",line 74,column 5,is_stmt,isa 2
      65 00000000 E59F062C          LDR       A1, $C$CON1           ; [DPU_4_PIPE0] |74| 
      66 00000004 E3A0C80A          MOV       V9, #655360           ; [DPU_4_PIPE0] |74| 
      67 00000008 E580C000          STR       V9, [A1, #0]          ; [DPU_4_PIPE0] |74| 
      68                            .dwpsn  file "../hcg/source/HL_rti.c",line 77,column 5,is_stmt,isa 2
      69 0000000c E59F0624          LDR       A1, $C$CON2           ; [DPU_4_PIPE0] |77| 
      70 00000010 E3A0C000          MOV       V9, #0                ; [DPU_4_PIPE0] |77| 
      71 00000014 E580C000          STR       V9, [A1, #0]          ; [DPU_4_PIPE0] |77| 
      72                            .dwpsn  file "../hcg/source/HL_rti.c",line 80,column 5,is_stmt,isa 2
      73 00000018 E59F061C          LDR       A1, $C$CON3           ; [DPU_4_PIPE0] |80| 
      74 0000001c E3A0C000          MOV       V9, #0                ; [DPU_4_PIPE0] |80| 
      75 00000020 E580C000          STR       V9, [A1, #0]          ; [DPU_4_PIPE0] |80| 
      76                            .dwpsn  file "../hcg/source/HL_rti.c",line 83,column 5,is_stmt,isa 2
      77 00000024 E59F0614          LDR       A1, $C$CON4           ; [DPU_4_PIPE0] |83| 
      78 00000028 E3A0CC11          MOV       V9, #4352             ; [DPU_4_PIPE0] |83| 
      79 0000002c E580C000          STR       V9, [A1, #0]          ; [DPU_4_PIPE0] |83| 
      80                            .dwpsn  file "../hcg/source/HL_rti.c",line 86,column 5,is_stmt,isa 2
      81 00000030 E59F060C          LDR       A1, $C$CON5           ; [DPU_4_PIPE0] |86| 
      82 00000034 E3A0C000          MOV       V9, #0                ; [DPU_4_PIPE0] |86| 
      83 00000038 E580C000          STR       V9, [A1, #0]          ; [DPU_4_PIPE0] |86| 
      84                            .dwpsn  file "../hcg/source/HL_rti.c",line 89,column 5,is_stmt,isa 2
      85 0000003c E59F0604          LDR       A1, $C$CON6           ; [DPU_4_PIPE0] |89| 
      86 00000040 E3A0C000          MOV       V9, #0                ; [DPU_4_PIPE0] |89| 
      87 00000044 E580C000          STR       V9, [A1, #0]          ; [DPU_4_PIPE0] |89| 
      88                            .dwpsn  file "../hcg/source/HL_rti.c",line 95,column 5,is_stmt,isa 2
      89 00000048 E59F05FC          LDR       A1, $C$CON7           ; [DPU_4_PIPE0] |95| 
      90 0000004c E3A0C007          MOV       V9, #7                ; [DPU_4_PIPE0] |95| 
      91 00000050 E580C000          STR       V9, [A1, #0]          ; [DPU_4_PIPE0] |95| 
      92                            .dwpsn  file "../hcg/source/HL_rti.c",line 98,column 5,is_stmt,isa 2
      93 00000054 E59F05F4          LDR       A1, $C$CON8           ; [DPU_4_PIPE0] |98| 
      94 00000058 E3A0C000          MOV       V9, #0                ; [DPU_4_PIPE0] |98| 
      95 0000005c E580C000          STR       V9, [A1, #0]          ; [DPU_4_PIPE0] |98| 
      96                            .dwpsn  file "../hcg/source/HL_rti.c",line 101,column 5,is_stmt,isa 2
      97 00000060 E59F05EC          LDR       A1, $C$CON9           ; [DPU_4_PIPE0] |101| 
      98 00000064 E3A0C000          MOV       V9, #0                ; [DPU_4_PIPE0] |101| 
      99 00000068 E580C000          STR       V9, [A1, #0]          ; [DPU_4_PIPE0] |101| 
     100                            .dwpsn  file "../hcg/source/HL_rti.c",line 107,column 5,is_stmt,isa 2
     101 0000006c E59F05E4          LDR       A1, $C$CON10          ; [DPU_4_PIPE0] |107| 
     102 00000070 E3A0C007          MOV       V9, #7                ; [DPU_4_PIPE0] |107| 
     103 00000074 E580C000          STR       V9, [A1, #0]          ; [DPU_4_PIPE0] |107| 
     104                            .dwpsn  file "../hcg/source/HL_rti.c",line 110,column 5,is_stmt,isa 2
     105 00000078 E59F05DC          LDR       A1, $C$CON11          ; [DPU_4_PIPE0] |110| 
     106 0000007c E3A0C032          MOV       V9, #50               ; [DPU_4_PIPE0] |110| 
     107 00000080 E580C000          STR       V9, [A1, #0]          ; [DPU_4_PIPE0] |110| 
     108                            .dwpsn  file "../hcg/source/HL_rti.c",line 113,column 5,is_stmt,isa 2
     109 00000084 E59F05D4          LDR       A1, $C$CON12          ; [DPU_4_PIPE0] |113| 
     110 00000088 E3A0C032          MOV       V9, #50               ; [DPU_4_PIPE0] |113| 
TI ARM Assembler PC v16.9.0 Sun Feb 19 22:29:40 2017

Tools Copyright (c) 1996-2015 Texas Instruments Incorporated
C:\Users\bob\AppData\Local\Temp\0957210                              PAGE    3

     111 0000008c E580C000          STR       V9, [A1, #0]          ; [DPU_4_PIPE0] |113| 
     112                            .dwpsn  file "../hcg/source/HL_rti.c",line 116,column 5,is_stmt,isa 2
     113 00000090 E59F05CC          LDR       A1, $C$CON13          ; [DPU_4_PIPE0] |116| 
     114 00000094 E30CC8E4          MOV       V9, #51428            ; [DPU_4_PIPE0] |116| 
     115 00000098 E580C000          STR       V9, [A1, #0]          ; [DPU_4_PIPE0] |116| 
     116                            .dwpsn  file "../hcg/source/HL_rti.c",line 119,column 5,is_stmt,isa 2
     117 0000009c E59F05C4          LDR       A1, $C$CON14          ; [DPU_4_PIPE0] |119| 
     118 000000a0 E30CC8E4          MOV       V9, #51428            ; [DPU_4_PIPE0] |119| 
     119 000000a4 E580C000          STR       V9, [A1, #0]          ; [DPU_4_PIPE0] |119| 
     120                            .dwpsn  file "../hcg/source/HL_rti.c",line 122,column 5,is_stmt,isa 2
     121 000000a8 E59F05BC          LDR       A1, $C$CON15          ; [DPU_4_PIPE0] |122| 
     122 000000ac E59FC5BC          LDR       V9, $C$CON16          ; [DPU_4_PIPE0] |122| 
     123 000000b0 E580C000          STR       V9, [A1, #0]          ; [DPU_4_PIPE0] |122| 
     124                            .dwpsn  file "../hcg/source/HL_rti.c",line 125,column 5,is_stmt,isa 2
     125 000000b4 E59F05B8          LDR       A1, $C$CON17          ; [DPU_4_PIPE0] |125| 
     126 000000b8 E59FC5B0          LDR       V9, $C$CON16          ; [DPU_4_PIPE0] |125| 
     127 000000bc E580C000          STR       V9, [A1, #0]          ; [DPU_4_PIPE0] |125| 
     128                            .dwpsn  file "../hcg/source/HL_rti.c",line 128,column 5,is_stmt,isa 2
     129 000000c0 E59F05B0          LDR       A1, $C$CON18          ; [DPU_4_PIPE0] |128| 
     130 000000c4 E59FC5B0          LDR       V9, $C$CON19          ; [DPU_4_PIPE0] |128| 
     131 000000c8 E580C000          STR       V9, [A1, #0]          ; [DPU_4_PIPE0] |128| 
     132                            .dwpsn  file "../hcg/source/HL_rti.c",line 131,column 5,is_stmt,isa 2
     133 000000cc E59F05AC          LDR       A1, $C$CON20          ; [DPU_4_PIPE0] |131| 
     134 000000d0 E59FC5A4          LDR       V9, $C$CON19          ; [DPU_4_PIPE0] |131| 
     135 000000d4 E580C000          STR       V9, [A1, #0]          ; [DPU_4_PIPE0] |131| 
     136                            .dwpsn  file "../hcg/source/HL_rti.c",line 134,column 5,is_stmt,isa 2
     137 000000d8 E59F05A4          LDR       A1, $C$CON21          ; [DPU_4_PIPE0] |134| 
     138 000000dc E59FC5A4          LDR       V9, $C$CON22          ; [DPU_4_PIPE0] |134| 
     139 000000e0 E580C000          STR       V9, [A1, #0]          ; [DPU_4_PIPE0] |134| 
     140                            .dwpsn  file "../hcg/source/HL_rti.c",line 137,column 5,is_stmt,isa 2
     141 000000e4 E59F05A0          LDR       A1, $C$CON23          ; [DPU_4_PIPE0] |137| 
     142 000000e8 E59FC5A0          LDR       V9, $C$CON24          ; [DPU_4_PIPE0] |137| 
     143 000000ec E580C000          STR       V9, [A1, #0]          ; [DPU_4_PIPE0] |137| 
     144                            .dwpsn  file "../hcg/source/HL_rti.c",line 146,column 1,is_stmt,isa 2
     145                    $C$DW$5 .dwtag  DW_TAG_TI_branch
     146                            .dwattr $C$DW$5, DW_AT_low_pc(0x00)
     147                            .dwattr $C$DW$5, DW_AT_TI_return
     148                    
     149 000000f0 E12FFF1E          BX        LR                    ; [DPU_4_PIPE1] 
     150                            ; BRANCH OCCURS                  ; [] 
     151                            .dwattr $C$DW$4, DW_AT_TI_end_file("../hcg/source/HL_rti.c")
     152                            .dwattr $C$DW$4, DW_AT_TI_end_line(0x92)
     153                            .dwattr $C$DW$4, DW_AT_TI_end_column(0x01)
     154                            .dwendentry
     155                            .dwendtag $C$DW$4
     156                    
     157 000000f4                   .sect   ".text"
     158                            .clink
     159                            .armfunc rtiStartCounter
     160 000000f4                   .state32
     161                            .global rtiStartCounter
     162                    
     163                    $C$DW$6 .dwtag  DW_TAG_subprogram
     164                            .dwattr $C$DW$6, DW_AT_name("rtiStartCounter")
     165                            .dwattr $C$DW$6, DW_AT_low_pc(rtiStartCounter)
TI ARM Assembler PC v16.9.0 Sun Feb 19 22:29:40 2017

Tools Copyright (c) 1996-2015 Texas Instruments Incorporated
C:\Users\bob\AppData\Local\Temp\0957210                              PAGE    4

     166                            .dwattr $C$DW$6, DW_AT_high_pc(0x00)
     167                            .dwattr $C$DW$6, DW_AT_TI_symbol_name("rtiStartCounter")
     168                            .dwattr $C$DW$6, DW_AT_external
     169                            .dwattr $C$DW$6, DW_AT_TI_begin_file("../hcg/source/HL_rti.c")
     170                            .dwattr $C$DW$6, DW_AT_TI_begin_line(0x9e)
     171                            .dwattr $C$DW$6, DW_AT_TI_begin_column(0x06)
     172                            .dwattr $C$DW$6, DW_AT_decl_file("../hcg/source/HL_rti.c")
     173                            .dwattr $C$DW$6, DW_AT_decl_line(0x9e)
     174                            .dwattr $C$DW$6, DW_AT_decl_column(0x06)
     175                            .dwattr $C$DW$6, DW_AT_TI_max_frame_size(0x08)
     176                            .dwpsn  file "../hcg/source/HL_rti.c",line 159,column 1,is_stmt,address rtiStartCounter,isa 2
     177                    
     178                            .dwfde $C$DW$CIE, rtiStartCounter
     179                    $C$DW$7 .dwtag  DW_TAG_formal_parameter
     180                            .dwattr $C$DW$7, DW_AT_name("rtiREG")
     181                            .dwattr $C$DW$7, DW_AT_TI_symbol_name("rtiREG")
     182                            .dwattr $C$DW$7, DW_AT_type(*$C$DW$T$40)
     183                            .dwattr $C$DW$7, DW_AT_location[DW_OP_reg0]
     184                    
     185                    $C$DW$8 .dwtag  DW_TAG_formal_parameter
     186                            .dwattr $C$DW$8, DW_AT_name("counter")
     187                            .dwattr $C$DW$8, DW_AT_TI_symbol_name("counter")
     188                            .dwattr $C$DW$8, DW_AT_type(*$C$DW$T$20)
     189                            .dwattr $C$DW$8, DW_AT_location[DW_OP_reg1]
     190                    
     191                    
     192                    ;*****************************************************************************
     193                    ;* FUNCTION NAME: rtiStartCounter                                            *
     194                    ;*                                                                           *
     195                    ;*   Regs Modified     : A1,A2,A3,V9,SP                                      *
     196                    ;*   Regs Used         : A1,A2,A3,V9,SP,LR                                   *
     197                    ;*   Local Frame Size  : 0 Args + 8 Auto + 0 Save = 8 byte                   *
     198                    ;*****************************************************************************
     199 000000f4           rtiStartCounter:
     200                    ;* --------------------------------------------------------------------------*
     201                            .dwcfi  cfa_offset, 0
     202 000000f4 E24DD008          SUB       SP, SP, #8            ; [DPU_4_PIPE0] 
     203                            .dwcfi  cfa_offset, 8
     204                    $C$DW$9 .dwtag  DW_TAG_variable
     205                            .dwattr $C$DW$9, DW_AT_name("rtiREG")
     206                            .dwattr $C$DW$9, DW_AT_TI_symbol_name("rtiREG")
     207                            .dwattr $C$DW$9, DW_AT_type(*$C$DW$T$40)
     208                            .dwattr $C$DW$9, DW_AT_location[DW_OP_breg13 0]
     209                    
     210                    $C$DW$10        .dwtag  DW_TAG_variable
     211                            .dwattr $C$DW$10, DW_AT_name("counter")
     212                            .dwattr $C$DW$10, DW_AT_TI_symbol_name("counter")
     213                            .dwattr $C$DW$10, DW_AT_type(*$C$DW$T$20)
     214                            .dwattr $C$DW$10, DW_AT_location[DW_OP_breg13 4]
     215                    
     216 000000f8 E58D1004          STR       A2, [SP, #4]          ; [DPU_4_PIPE0] |159| 
     217 000000fc E58D0000          STR       A1, [SP, #0]          ; [DPU_4_PIPE0] |159| 
     218                            .dwpsn  file "../hcg/source/HL_rti.c",line 163,column 5,is_stmt,isa 2
     219 00000100 E59DC000          LDR       V9, [SP, #0]          ; [DPU_4_PIPE0] |163| 
     220 00000104 E59D0004          LDR       A1, [SP, #4]          ; [DPU_4_PIPE0] |163| 
TI ARM Assembler PC v16.9.0 Sun Feb 19 22:29:40 2017

Tools Copyright (c) 1996-2015 Texas Instruments Incorporated
C:\Users\bob\AppData\Local\Temp\0957210                              PAGE    5

     221 00000108 E3A02001          MOV       A3, #1                ; [DPU_4_PIPE0] |163| 
     222 0000010c E2000003          AND       A1, A1, #3            ; [DPU_4_PIPE0] |163| 
     223 00000110 E59C1000          LDR       A2, [V9, #0]          ; [DPU_4_PIPE0] |163| 
     224 00000114 E1810012          ORR       A1, A2, A3, LSL A1    ; [DPU_4_PIPE0] |163| 
     225 00000118 E58C0000          STR       A1, [V9, #0]          ; [DPU_4_PIPE0] |163| 
     226                            .dwpsn  file "../hcg/source/HL_rti.c",line 171,column 1,is_stmt,isa 2
     227 0000011c E28DD008          ADD       SP, SP, #8            ; [DPU_4_PIPE0] 
     228                            .dwcfi  cfa_offset, 0
     229                    $C$DW$11        .dwtag  DW_TAG_TI_branch
     230                            .dwattr $C$DW$11, DW_AT_low_pc(0x00)
     231                            .dwattr $C$DW$11, DW_AT_TI_return
     232                    
     233 00000120 E12FFF1E          BX        LR                    ; [DPU_4_PIPE1] 
     234                            ; BRANCH OCCURS                  ; [] 
     235                            .dwattr $C$DW$6, DW_AT_TI_end_file("../hcg/source/HL_rti.c")
     236                            .dwattr $C$DW$6, DW_AT_TI_end_line(0xab)
     237                            .dwattr $C$DW$6, DW_AT_TI_end_column(0x01)
     238                            .dwendentry
     239                            .dwendtag $C$DW$6
     240                    
     241 00000124                   .sect   ".text"
     242                            .clink
     243                            .armfunc rtiStopCounter
     244 00000124                   .state32
     245                            .global rtiStopCounter
     246                    
     247                    $C$DW$12        .dwtag  DW_TAG_subprogram
     248                            .dwattr $C$DW$12, DW_AT_name("rtiStopCounter")
     249                            .dwattr $C$DW$12, DW_AT_low_pc(rtiStopCounter)
     250                            .dwattr $C$DW$12, DW_AT_high_pc(0x00)
     251                            .dwattr $C$DW$12, DW_AT_TI_symbol_name("rtiStopCounter")
     252                            .dwattr $C$DW$12, DW_AT_external
     253                            .dwattr $C$DW$12, DW_AT_TI_begin_file("../hcg/source/HL_rti.c")
     254                            .dwattr $C$DW$12, DW_AT_TI_begin_line(0xb6)
     255                            .dwattr $C$DW$12, DW_AT_TI_begin_column(0x06)
     256                            .dwattr $C$DW$12, DW_AT_decl_file("../hcg/source/HL_rti.c")
     257                            .dwattr $C$DW$12, DW_AT_decl_line(0xb6)
     258                            .dwattr $C$DW$12, DW_AT_decl_column(0x06)
     259                            .dwattr $C$DW$12, DW_AT_TI_max_frame_size(0x08)
     260                            .dwpsn  file "../hcg/source/HL_rti.c",line 183,column 1,is_stmt,address rtiStopCounter,isa 2
     261                    
     262                            .dwfde $C$DW$CIE, rtiStopCounter
     263                    $C$DW$13        .dwtag  DW_TAG_formal_parameter
     264                            .dwattr $C$DW$13, DW_AT_name("rtiREG")
     265                            .dwattr $C$DW$13, DW_AT_TI_symbol_name("rtiREG")
     266                            .dwattr $C$DW$13, DW_AT_type(*$C$DW$T$40)
     267                            .dwattr $C$DW$13, DW_AT_location[DW_OP_reg0]
     268                    
     269                    $C$DW$14        .dwtag  DW_TAG_formal_parameter
     270                            .dwattr $C$DW$14, DW_AT_name("counter")
     271                            .dwattr $C$DW$14, DW_AT_TI_symbol_name("counter")
     272                            .dwattr $C$DW$14, DW_AT_type(*$C$DW$T$20)
     273                            .dwattr $C$DW$14, DW_AT_location[DW_OP_reg1]
     274                    
     275                    
TI ARM Assembler PC v16.9.0 Sun Feb 19 22:29:40 2017

Tools Copyright (c) 1996-2015 Texas Instruments Incorporated
C:\Users\bob\AppData\Local\Temp\0957210                              PAGE    6

     276                    ;*****************************************************************************
     277                    ;* FUNCTION NAME: rtiStopCounter                                             *
     278                    ;*                                                                           *
     279                    ;*   Regs Modified     : A1,A2,A3,V9,SP                                      *
     280                    ;*   Regs Used         : A1,A2,A3,V9,SP,LR                                   *
     281                    ;*   Local Frame Size  : 0 Args + 8 Auto + 0 Save = 8 byte                   *
     282                    ;*****************************************************************************
     283 00000124           rtiStopCounter:
     284                    ;* --------------------------------------------------------------------------*
     285                            .dwcfi  cfa_offset, 0
     286 00000124 E24DD008          SUB       SP, SP, #8            ; [DPU_4_PIPE0] 
     287                            .dwcfi  cfa_offset, 8
     288                    $C$DW$15        .dwtag  DW_TAG_variable
     289                            .dwattr $C$DW$15, DW_AT_name("rtiREG")
     290                            .dwattr $C$DW$15, DW_AT_TI_symbol_name("rtiREG")
     291                            .dwattr $C$DW$15, DW_AT_type(*$C$DW$T$40)
     292                            .dwattr $C$DW$15, DW_AT_location[DW_OP_breg13 0]
     293                    
     294                    $C$DW$16        .dwtag  DW_TAG_variable
     295                            .dwattr $C$DW$16, DW_AT_name("counter")
     296                            .dwattr $C$DW$16, DW_AT_TI_symbol_name("counter")
     297                            .dwattr $C$DW$16, DW_AT_type(*$C$DW$T$20)
     298                            .dwattr $C$DW$16, DW_AT_location[DW_OP_breg13 4]
     299                    
     300 00000128 E58D1004          STR       A2, [SP, #4]          ; [DPU_4_PIPE0] |183| 
     301 0000012c E58D0000          STR       A1, [SP, #0]          ; [DPU_4_PIPE0] |183| 
     302                            .dwpsn  file "../hcg/source/HL_rti.c",line 187,column 5,is_stmt,isa 2
     303 00000130 E59DC000          LDR       V9, [SP, #0]          ; [DPU_4_PIPE0] |187| 
     304 00000134 E59D0004          LDR       A1, [SP, #4]          ; [DPU_4_PIPE0] |187| 
     305 00000138 E3A02001          MOV       A3, #1                ; [DPU_4_PIPE0] |187| 
     306 0000013c E2000003          AND       A1, A1, #3            ; [DPU_4_PIPE0] |187| 
     307 00000140 E59C1000          LDR       A2, [V9, #0]          ; [DPU_4_PIPE0] |187| 
     308 00000144 E1C10012          BIC       A1, A2, A3, LSL A1    ; [DPU_4_PIPE0] |187| 
     309 00000148 E58C0000          STR       A1, [V9, #0]          ; [DPU_4_PIPE0] |187| 
     310                            .dwpsn  file "../hcg/source/HL_rti.c",line 195,column 1,is_stmt,isa 2
     311 0000014c E28DD008          ADD       SP, SP, #8            ; [DPU_4_PIPE0] 
     312                            .dwcfi  cfa_offset, 0
     313                    $C$DW$17        .dwtag  DW_TAG_TI_branch
     314                            .dwattr $C$DW$17, DW_AT_low_pc(0x00)
     315                            .dwattr $C$DW$17, DW_AT_TI_return
     316                    
     317 00000150 E12FFF1E          BX        LR                    ; [DPU_4_PIPE1] 
     318                            ; BRANCH OCCURS                  ; [] 
     319                            .dwattr $C$DW$12, DW_AT_TI_end_file("../hcg/source/HL_rti.c")
     320                            .dwattr $C$DW$12, DW_AT_TI_end_line(0xc3)
     321                            .dwattr $C$DW$12, DW_AT_TI_end_column(0x01)
     322                            .dwendentry
     323                            .dwendtag $C$DW$12
     324                    
     325 00000154                   .sect   ".text"
     326                            .clink
     327                            .armfunc rtiResetCounter
     328 00000154                   .state32
     329                            .global rtiResetCounter
     330                    
TI ARM Assembler PC v16.9.0 Sun Feb 19 22:29:40 2017

Tools Copyright (c) 1996-2015 Texas Instruments Incorporated
C:\Users\bob\AppData\Local\Temp\0957210                              PAGE    7

     331                    $C$DW$18        .dwtag  DW_TAG_subprogram
     332                            .dwattr $C$DW$18, DW_AT_name("rtiResetCounter")
     333                            .dwattr $C$DW$18, DW_AT_low_pc(rtiResetCounter)
     334                            .dwattr $C$DW$18, DW_AT_high_pc(0x00)
     335                            .dwattr $C$DW$18, DW_AT_TI_symbol_name("rtiResetCounter")
     336                            .dwattr $C$DW$18, DW_AT_external
     337                            .dwattr $C$DW$18, DW_AT_type(*$C$DW$T$20)
     338                            .dwattr $C$DW$18, DW_AT_TI_begin_file("../hcg/source/HL_rti.c")
     339                            .dwattr $C$DW$18, DW_AT_TI_begin_line(0xd1)
     340                            .dwattr $C$DW$18, DW_AT_TI_begin_column(0x08)
     341                            .dwattr $C$DW$18, DW_AT_decl_file("../hcg/source/HL_rti.c")
     342                            .dwattr $C$DW$18, DW_AT_decl_line(0xd1)
     343                            .dwattr $C$DW$18, DW_AT_decl_column(0x08)
     344                            .dwattr $C$DW$18, DW_AT_TI_max_frame_size(0x10)
     345                            .dwpsn  file "../hcg/source/HL_rti.c",line 210,column 1,is_stmt,address rtiResetCounter,isa 2
     346                    
     347                            .dwfde $C$DW$CIE, rtiResetCounter
     348                    $C$DW$19        .dwtag  DW_TAG_formal_parameter
     349                            .dwattr $C$DW$19, DW_AT_name("rtiREG")
     350                            .dwattr $C$DW$19, DW_AT_TI_symbol_name("rtiREG")
     351                            .dwattr $C$DW$19, DW_AT_type(*$C$DW$T$40)
     352                            .dwattr $C$DW$19, DW_AT_location[DW_OP_reg0]
     353                    
     354                    $C$DW$20        .dwtag  DW_TAG_formal_parameter
     355                            .dwattr $C$DW$20, DW_AT_name("counter")
     356                            .dwattr $C$DW$20, DW_AT_TI_symbol_name("counter")
     357                            .dwattr $C$DW$20, DW_AT_type(*$C$DW$T$20)
     358                            .dwattr $C$DW$20, DW_AT_location[DW_OP_reg1]
     359                    
     360                    
     361                    ;*****************************************************************************
     362                    ;* FUNCTION NAME: rtiResetCounter                                            *
     363                    ;*                                                                           *
     364                    ;*   Regs Modified     : A1,A2,V9,SP,SR                                      *
     365                    ;*   Regs Used         : A1,A2,V9,SP,LR,SR                                   *
     366                    ;*   Local Frame Size  : 0 Args + 12 Auto + 0 Save = 12 byte                 *
     367                    ;*****************************************************************************
     368 00000154           rtiResetCounter:
     369                    ;* --------------------------------------------------------------------------*
     370                            .dwcfi  cfa_offset, 0
     371 00000154 E24DD010          SUB       SP, SP, #16           ; [DPU_4_PIPE0] 
     372                            .dwcfi  cfa_offset, 16
     373                    $C$DW$21        .dwtag  DW_TAG_variable
     374                            .dwattr $C$DW$21, DW_AT_name("rtiREG")
     375                            .dwattr $C$DW$21, DW_AT_TI_symbol_name("rtiREG")
     376                            .dwattr $C$DW$21, DW_AT_type(*$C$DW$T$40)
     377                            .dwattr $C$DW$21, DW_AT_location[DW_OP_breg13 0]
     378                    
     379                    $C$DW$22        .dwtag  DW_TAG_variable
     380                            .dwattr $C$DW$22, DW_AT_name("counter")
     381                            .dwattr $C$DW$22, DW_AT_TI_symbol_name("counter")
     382                            .dwattr $C$DW$22, DW_AT_type(*$C$DW$T$20)
     383                            .dwattr $C$DW$22, DW_AT_location[DW_OP_breg13 4]
     384                    
     385                    $C$DW$23        .dwtag  DW_TAG_variable
TI ARM Assembler PC v16.9.0 Sun Feb 19 22:29:40 2017

Tools Copyright (c) 1996-2015 Texas Instruments Incorporated
C:\Users\bob\AppData\Local\Temp\0957210                              PAGE    8

     386                            .dwattr $C$DW$23, DW_AT_name("success")
     387                            .dwattr $C$DW$23, DW_AT_TI_symbol_name("success")
     388                            .dwattr $C$DW$23, DW_AT_type(*$C$DW$T$20)
     389                            .dwattr $C$DW$23, DW_AT_location[DW_OP_breg13 8]
     390                    
     391 00000158 E58D1004          STR       A2, [SP, #4]          ; [DPU_4_PIPE0] |210| 
     392 0000015c E58D0000          STR       A1, [SP, #0]          ; [DPU_4_PIPE0] |210| 
     393                            .dwpsn  file "../hcg/source/HL_rti.c",line 211,column 20,is_stmt,isa 2
     394 00000160 E3A0C000          MOV       V9, #0                ; [DPU_4_PIPE0] |211| 
     395 00000164 E58DC008          STR       V9, [SP, #8]          ; [DPU_4_PIPE0] |211| 
     396                            .dwpsn  file "../hcg/source/HL_rti.c",line 216,column 5,is_stmt,isa 2
     397 00000168 E59D0000          LDR       A1, [SP, #0]          ; [DPU_4_PIPE0] |216| 
     398 0000016c E59DC004          LDR       V9, [SP, #4]          ; [DPU_4_PIPE0] |216| 
     399 00000170 E3A01001          MOV       A2, #1                ; [DPU_4_PIPE0] |216| 
     400 00000174 E20CC003          AND       V9, V9, #3            ; [DPU_4_PIPE0] |216| 
     401 00000178 E5900000          LDR       A1, [A1, #0]          ; [DPU_4_PIPE0] |216| 
     402 0000017c E1100C11          TST       A1, A2, LSL V9        ; [DPU_4_PIPE0] |216| 
     403 00000180 1AFFFFFE!         BNE       ||$C$L1||             ; [DPU_4_PIPE1] |216| 
     404                            ; BRANCHCC OCCURS {||$C$L1||}    ; [] |216| 
     405                    ;* --------------------------------------------------------------------------*
     406                            .dwpsn  file "../hcg/source/HL_rti.c",line 218,column 9,is_stmt,isa 2
     407 00000184 E59DC004          LDR       V9, [SP, #4]          ; [DPU_4_PIPE0] |218| 
     408 00000188 E59D0000          LDR       A1, [SP, #0]          ; [DPU_4_PIPE0] |218| 
     409 0000018c E080C28C          ADD       V9, A1, V9, LSL #5    ; [DPU_4_PIPE0] |218| 
     410 00000190 E3A00000          MOV       A1, #0                ; [DPU_4_PIPE0] |218| 
     411 00000194 E58C0014          STR       A1, [V9, #20]         ; [DPU_4_PIPE0] |218| 
     412                            .dwpsn  file "../hcg/source/HL_rti.c",line 219,column 9,is_stmt,isa 2
     413 00000198 E59DC004          LDR       V9, [SP, #4]          ; [DPU_4_PIPE0] |219| 
     414 0000019c E59D0000          LDR       A1, [SP, #0]          ; [DPU_4_PIPE0] |219| 
     415 000001a0 E080C28C          ADD       V9, A1, V9, LSL #5    ; [DPU_4_PIPE0] |219| 
     416 000001a4 E3A00000          MOV       A1, #0                ; [DPU_4_PIPE0] |219| 
     417 000001a8 E58C0010          STR       A1, [V9, #16]         ; [DPU_4_PIPE0] |219| 
     418                            .dwpsn  file "../hcg/source/HL_rti.c",line 221,column 9,is_stmt,isa 2
     419 000001ac E3A0C001          MOV       V9, #1                ; [DPU_4_PIPE0] |221| 
     420 000001b0 E58DC008          STR       V9, [SP, #8]          ; [DPU_4_PIPE0] |221| 
     421                    ;* --------------------------------------------------------------------------*
     422 000001b4           ||$C$L1||:    
     423                            .dwpsn  file "../hcg/source/HL_rti.c",line 232,column 5,is_stmt,isa 2
     424 000001b4 E59D0008          LDR       A1, [SP, #8]          ; [DPU_4_PIPE0] |232| 
     425                            .dwpsn  file "../hcg/source/HL_rti.c",line 233,column 1,is_stmt,isa 2
     426 000001b8 E28DD010          ADD       SP, SP, #16           ; [DPU_4_PIPE0] 
     427                            .dwcfi  cfa_offset, 0
     428                    $C$DW$24        .dwtag  DW_TAG_TI_branch
     429                            .dwattr $C$DW$24, DW_AT_low_pc(0x00)
     430                            .dwattr $C$DW$24, DW_AT_TI_return
     431                    
     432 000001bc E12FFF1E          BX        LR                    ; [DPU_4_PIPE1] 
     433                            ; BRANCH OCCURS                  ; [] 
     434                            .dwattr $C$DW$18, DW_AT_TI_end_file("../hcg/source/HL_rti.c")
     435                            .dwattr $C$DW$18, DW_AT_TI_end_line(0xe9)
     436                            .dwattr $C$DW$18, DW_AT_TI_end_column(0x01)
     437                            .dwendentry
     438                            .dwendtag $C$DW$18
     439                    
     440 000001c0                   .sect   ".text"
TI ARM Assembler PC v16.9.0 Sun Feb 19 22:29:40 2017

Tools Copyright (c) 1996-2015 Texas Instruments Incorporated
C:\Users\bob\AppData\Local\Temp\0957210                              PAGE    9

     441                            .clink
     442                            .armfunc rtiSetPeriod
     443 000001c0                   .state32
     444                            .global rtiSetPeriod
     445                    
     446                    $C$DW$25        .dwtag  DW_TAG_subprogram
     447                            .dwattr $C$DW$25, DW_AT_name("rtiSetPeriod")
     448                            .dwattr $C$DW$25, DW_AT_low_pc(rtiSetPeriod)
     449                            .dwattr $C$DW$25, DW_AT_high_pc(0x00)
     450                            .dwattr $C$DW$25, DW_AT_TI_symbol_name("rtiSetPeriod")
     451                            .dwattr $C$DW$25, DW_AT_external
     452                            .dwattr $C$DW$25, DW_AT_TI_begin_file("../hcg/source/HL_rti.c")
     453                            .dwattr $C$DW$25, DW_AT_TI_begin_line(0xf9)
     454                            .dwattr $C$DW$25, DW_AT_TI_begin_column(0x06)
     455                            .dwattr $C$DW$25, DW_AT_decl_file("../hcg/source/HL_rti.c")
     456                            .dwattr $C$DW$25, DW_AT_decl_line(0xf9)
     457                            .dwattr $C$DW$25, DW_AT_decl_column(0x06)
     458                            .dwattr $C$DW$25, DW_AT_TI_max_frame_size(0x10)
     459                            .dwpsn  file "../hcg/source/HL_rti.c",line 250,column 1,is_stmt,address rtiSetPeriod,isa 2
     460                    
     461                            .dwfde $C$DW$CIE, rtiSetPeriod
     462                    $C$DW$26        .dwtag  DW_TAG_formal_parameter
     463                            .dwattr $C$DW$26, DW_AT_name("rtiREG")
     464                            .dwattr $C$DW$26, DW_AT_TI_symbol_name("rtiREG")
     465                            .dwattr $C$DW$26, DW_AT_type(*$C$DW$T$40)
     466                            .dwattr $C$DW$26, DW_AT_location[DW_OP_reg0]
     467                    
     468                    $C$DW$27        .dwtag  DW_TAG_formal_parameter
     469                            .dwattr $C$DW$27, DW_AT_name("compare")
     470                            .dwattr $C$DW$27, DW_AT_TI_symbol_name("compare")
     471                            .dwattr $C$DW$27, DW_AT_type(*$C$DW$T$20)
     472                            .dwattr $C$DW$27, DW_AT_location[DW_OP_reg1]
     473                    
     474                    $C$DW$28        .dwtag  DW_TAG_formal_parameter
     475                            .dwattr $C$DW$28, DW_AT_name("period")
     476                            .dwattr $C$DW$28, DW_AT_TI_symbol_name("period")
     477                            .dwattr $C$DW$28, DW_AT_type(*$C$DW$T$20)
     478                            .dwattr $C$DW$28, DW_AT_location[DW_OP_reg2]
     479                    
     480                    
     481                    ;*****************************************************************************
     482                    ;* FUNCTION NAME: rtiSetPeriod                                               *
     483                    ;*                                                                           *
     484                    ;*   Regs Modified     : A1,V9,SP                                            *
     485                    ;*   Regs Used         : A1,A2,A3,V9,SP,LR                                   *
     486                    ;*   Local Frame Size  : 0 Args + 12 Auto + 0 Save = 12 byte                 *
     487                    ;*****************************************************************************
     488 000001c0           rtiSetPeriod:
     489                    ;* --------------------------------------------------------------------------*
     490                            .dwcfi  cfa_offset, 0
     491 000001c0 E24DD010          SUB       SP, SP, #16           ; [DPU_4_PIPE0] 
     492                            .dwcfi  cfa_offset, 16
     493                    $C$DW$29        .dwtag  DW_TAG_variable
     494                            .dwattr $C$DW$29, DW_AT_name("rtiREG")
     495                            .dwattr $C$DW$29, DW_AT_TI_symbol_name("rtiREG")
TI ARM Assembler PC v16.9.0 Sun Feb 19 22:29:40 2017

Tools Copyright (c) 1996-2015 Texas Instruments Incorporated
C:\Users\bob\AppData\Local\Temp\0957210                              PAGE   10

     496                            .dwattr $C$DW$29, DW_AT_type(*$C$DW$T$40)
     497                            .dwattr $C$DW$29, DW_AT_location[DW_OP_breg13 0]
     498                    
     499                    $C$DW$30        .dwtag  DW_TAG_variable
     500                            .dwattr $C$DW$30, DW_AT_name("compare")
     501                            .dwattr $C$DW$30, DW_AT_TI_symbol_name("compare")
     502                            .dwattr $C$DW$30, DW_AT_type(*$C$DW$T$20)
     503                            .dwattr $C$DW$30, DW_AT_location[DW_OP_breg13 4]
     504                    
     505                    $C$DW$31        .dwtag  DW_TAG_variable
     506                            .dwattr $C$DW$31, DW_AT_name("period")
     507                            .dwattr $C$DW$31, DW_AT_TI_symbol_name("period")
     508                            .dwattr $C$DW$31, DW_AT_type(*$C$DW$T$20)
     509                            .dwattr $C$DW$31, DW_AT_location[DW_OP_breg13 8]
     510                    
     511 000001c4 E58D2008          STR       A3, [SP, #8]          ; [DPU_4_PIPE0] |250| 
     512 000001c8 E58D1004          STR       A2, [SP, #4]          ; [DPU_4_PIPE0] |250| 
     513 000001cc E58D0000          STR       A1, [SP, #0]          ; [DPU_4_PIPE0] |250| 
     514                            .dwpsn  file "../hcg/source/HL_rti.c",line 254,column 5,is_stmt,isa 2
     515 000001d0 E59DC004          LDR       V9, [SP, #4]          ; [DPU_4_PIPE0] |254| 
     516 000001d4 E59D0000          LDR       A1, [SP, #0]          ; [DPU_4_PIPE0] |254| 
     517 000001d8 E080018C          ADD       A1, A1, V9, LSL #3    ; [DPU_4_PIPE0] |254| 
     518 000001dc E59DC008          LDR       V9, [SP, #8]          ; [DPU_4_PIPE0] |254| 
     519 000001e0 E580C054          STR       V9, [A1, #84]         ; [DPU_4_PIPE0] |254| 
     520                            .dwpsn  file "../hcg/source/HL_rti.c",line 264,column 1,is_stmt,isa 2
     521 000001e4 E28DD010          ADD       SP, SP, #16           ; [DPU_4_PIPE0] 
     522                            .dwcfi  cfa_offset, 0
     523                    $C$DW$32        .dwtag  DW_TAG_TI_branch
     524                            .dwattr $C$DW$32, DW_AT_low_pc(0x00)
     525                            .dwattr $C$DW$32, DW_AT_TI_return
     526                    
     527 000001e8 E12FFF1E          BX        LR                    ; [DPU_4_PIPE1] 
     528                            ; BRANCH OCCURS                  ; [] 
     529                            .dwattr $C$DW$25, DW_AT_TI_end_file("../hcg/source/HL_rti.c")
     530                            .dwattr $C$DW$25, DW_AT_TI_end_line(0x108)
     531                            .dwattr $C$DW$25, DW_AT_TI_end_column(0x01)
     532                            .dwendentry
     533                            .dwendtag $C$DW$25
     534                    
     535 000001ec                   .sect   ".text"
     536                            .clink
     537                            .armfunc rtiGetPeriod
     538 000001ec                   .state32
     539                            .global rtiGetPeriod
     540                    
     541                    $C$DW$33        .dwtag  DW_TAG_subprogram
     542                            .dwattr $C$DW$33, DW_AT_name("rtiGetPeriod")
     543                            .dwattr $C$DW$33, DW_AT_low_pc(rtiGetPeriod)
     544                            .dwattr $C$DW$33, DW_AT_high_pc(0x00)
     545                            .dwattr $C$DW$33, DW_AT_TI_symbol_name("rtiGetPeriod")
     546                            .dwattr $C$DW$33, DW_AT_external
     547                            .dwattr $C$DW$33, DW_AT_type(*$C$DW$T$20)
     548                            .dwattr $C$DW$33, DW_AT_TI_begin_file("../hcg/source/HL_rti.c")
     549                            .dwattr $C$DW$33, DW_AT_TI_begin_line(0x118)
     550                            .dwattr $C$DW$33, DW_AT_TI_begin_column(0x08)
TI ARM Assembler PC v16.9.0 Sun Feb 19 22:29:40 2017

Tools Copyright (c) 1996-2015 Texas Instruments Incorporated
C:\Users\bob\AppData\Local\Temp\0957210                              PAGE   11

     551                            .dwattr $C$DW$33, DW_AT_decl_file("../hcg/source/HL_rti.c")
     552                            .dwattr $C$DW$33, DW_AT_decl_line(0x118)
     553                            .dwattr $C$DW$33, DW_AT_decl_column(0x08)
     554                            .dwattr $C$DW$33, DW_AT_TI_max_frame_size(0x10)
     555                            .dwpsn  file "../hcg/source/HL_rti.c",line 281,column 1,is_stmt,address rtiGetPeriod,isa 2
     556                    
     557                            .dwfde $C$DW$CIE, rtiGetPeriod
     558                    $C$DW$34        .dwtag  DW_TAG_formal_parameter
     559                            .dwattr $C$DW$34, DW_AT_name("rtiREG")
     560                            .dwattr $C$DW$34, DW_AT_TI_symbol_name("rtiREG")
     561                            .dwattr $C$DW$34, DW_AT_type(*$C$DW$T$40)
     562                            .dwattr $C$DW$34, DW_AT_location[DW_OP_reg0]
     563                    
     564                    $C$DW$35        .dwtag  DW_TAG_formal_parameter
     565                            .dwattr $C$DW$35, DW_AT_name("compare")
     566                            .dwattr $C$DW$35, DW_AT_TI_symbol_name("compare")
     567                            .dwattr $C$DW$35, DW_AT_type(*$C$DW$T$20)
     568                            .dwattr $C$DW$35, DW_AT_location[DW_OP_reg1]
     569                    
     570                    
     571                    ;*****************************************************************************
     572                    ;* FUNCTION NAME: rtiGetPeriod                                               *
     573                    ;*                                                                           *
     574                    ;*   Regs Modified     : A1,V9,SP                                            *
     575                    ;*   Regs Used         : A1,A2,V9,SP,LR                                      *
     576                    ;*   Local Frame Size  : 0 Args + 12 Auto + 0 Save = 12 byte                 *
     577                    ;*****************************************************************************
     578 000001ec           rtiGetPeriod:
     579                    ;* --------------------------------------------------------------------------*
     580                            .dwcfi  cfa_offset, 0
     581 000001ec E24DD010          SUB       SP, SP, #16           ; [DPU_4_PIPE0] 
     582                            .dwcfi  cfa_offset, 16
     583                    $C$DW$36        .dwtag  DW_TAG_variable
     584                            .dwattr $C$DW$36, DW_AT_name("rtiREG")
     585                            .dwattr $C$DW$36, DW_AT_TI_symbol_name("rtiREG")
     586                            .dwattr $C$DW$36, DW_AT_type(*$C$DW$T$40)
     587                            .dwattr $C$DW$36, DW_AT_location[DW_OP_breg13 0]
     588                    
     589                    $C$DW$37        .dwtag  DW_TAG_variable
     590                            .dwattr $C$DW$37, DW_AT_name("compare")
     591                            .dwattr $C$DW$37, DW_AT_TI_symbol_name("compare")
     592                            .dwattr $C$DW$37, DW_AT_type(*$C$DW$T$20)
     593                            .dwattr $C$DW$37, DW_AT_location[DW_OP_breg13 4]
     594                    
     595                    $C$DW$38        .dwtag  DW_TAG_variable
     596                            .dwattr $C$DW$38, DW_AT_name("period")
     597                            .dwattr $C$DW$38, DW_AT_TI_symbol_name("period")
     598                            .dwattr $C$DW$38, DW_AT_type(*$C$DW$T$20)
     599                            .dwattr $C$DW$38, DW_AT_location[DW_OP_breg13 8]
     600                    
     601 000001f0 E58D1004          STR       A2, [SP, #4]          ; [DPU_4_PIPE0] |281| 
     602 000001f4 E58D0000          STR       A1, [SP, #0]          ; [DPU_4_PIPE0] |281| 
     603                            .dwpsn  file "../hcg/source/HL_rti.c",line 287,column 5,is_stmt,isa 2
     604 000001f8 E59DC004          LDR       V9, [SP, #4]          ; [DPU_4_PIPE0] |287| 
     605 000001fc E59D0000          LDR       A1, [SP, #0]          ; [DPU_4_PIPE0] |287| 
TI ARM Assembler PC v16.9.0 Sun Feb 19 22:29:40 2017

Tools Copyright (c) 1996-2015 Texas Instruments Incorporated
C:\Users\bob\AppData\Local\Temp\0957210                              PAGE   12

     606 00000200 E080C18C          ADD       V9, A1, V9, LSL #3    ; [DPU_4_PIPE0] |287| 
     607 00000204 E59CC054          LDR       V9, [V9, #84]         ; [DPU_4_PIPE0] |287| 
     608 00000208 E58DC008          STR       V9, [SP, #8]          ; [DPU_4_PIPE0] |287| 
     609                            .dwpsn  file "../hcg/source/HL_rti.c",line 295,column 5,is_stmt,isa 2
     610 0000020c E59D0008          LDR       A1, [SP, #8]          ; [DPU_4_PIPE0] |295| 
     611                            .dwpsn  file "../hcg/source/HL_rti.c",line 296,column 1,is_stmt,isa 2
     612 00000210 E28DD010          ADD       SP, SP, #16           ; [DPU_4_PIPE0] 
     613                            .dwcfi  cfa_offset, 0
     614                    $C$DW$39        .dwtag  DW_TAG_TI_branch
     615                            .dwattr $C$DW$39, DW_AT_low_pc(0x00)
     616                            .dwattr $C$DW$39, DW_AT_TI_return
     617                    
     618 00000214 E12FFF1E          BX        LR                    ; [DPU_4_PIPE1] 
     619                            ; BRANCH OCCURS                  ; [] 
     620                            .dwattr $C$DW$33, DW_AT_TI_end_file("../hcg/source/HL_rti.c")
     621                            .dwattr $C$DW$33, DW_AT_TI_end_line(0x128)
     622                            .dwattr $C$DW$33, DW_AT_TI_end_column(0x01)
     623                            .dwendentry
     624                            .dwendtag $C$DW$33
     625                    
     626 00000218                   .sect   ".text"
     627                            .clink
     628                            .armfunc rtiGetCurrentTick
     629 00000218                   .state32
     630                            .global rtiGetCurrentTick
     631                    
     632                    $C$DW$40        .dwtag  DW_TAG_subprogram
     633                            .dwattr $C$DW$40, DW_AT_name("rtiGetCurrentTick")
     634                            .dwattr $C$DW$40, DW_AT_low_pc(rtiGetCurrentTick)
     635                            .dwattr $C$DW$40, DW_AT_high_pc(0x00)
     636                            .dwattr $C$DW$40, DW_AT_TI_symbol_name("rtiGetCurrentTick")
     637                            .dwattr $C$DW$40, DW_AT_external
     638                            .dwattr $C$DW$40, DW_AT_type(*$C$DW$T$20)
     639                            .dwattr $C$DW$40, DW_AT_TI_begin_file("../hcg/source/HL_rti.c")
     640                            .dwattr $C$DW$40, DW_AT_TI_begin_line(0x136)
     641                            .dwattr $C$DW$40, DW_AT_TI_begin_column(0x08)
     642                            .dwattr $C$DW$40, DW_AT_decl_file("../hcg/source/HL_rti.c")
     643                            .dwattr $C$DW$40, DW_AT_decl_line(0x136)
     644                            .dwattr $C$DW$40, DW_AT_decl_column(0x08)
     645                            .dwattr $C$DW$40, DW_AT_TI_max_frame_size(0x20)
     646                            .dwpsn  file "../hcg/source/HL_rti.c",line 311,column 1,is_stmt,address rtiGetCurrentTick,isa 
     647                    
     648                            .dwfde $C$DW$CIE, rtiGetCurrentTick
     649                    $C$DW$41        .dwtag  DW_TAG_formal_parameter
     650                            .dwattr $C$DW$41, DW_AT_name("rtiREG")
     651                            .dwattr $C$DW$41, DW_AT_TI_symbol_name("rtiREG")
     652                            .dwattr $C$DW$41, DW_AT_type(*$C$DW$T$40)
     653                            .dwattr $C$DW$41, DW_AT_location[DW_OP_reg0]
     654                    
     655                    $C$DW$42        .dwtag  DW_TAG_formal_parameter
     656                            .dwattr $C$DW$42, DW_AT_name("compare")
     657                            .dwattr $C$DW$42, DW_AT_TI_symbol_name("compare")
     658                            .dwattr $C$DW$42, DW_AT_type(*$C$DW$T$20)
     659                            .dwattr $C$DW$42, DW_AT_location[DW_OP_reg1]
     660                    
TI ARM Assembler PC v16.9.0 Sun Feb 19 22:29:40 2017

Tools Copyright (c) 1996-2015 Texas Instruments Incorporated
C:\Users\bob\AppData\Local\Temp\0957210                              PAGE   13

     661                    
     662                    ;*****************************************************************************
     663                    ;* FUNCTION NAME: rtiGetCurrentTick                                          *
     664                    ;*                                                                           *
     665                    ;*   Regs Modified     : A1,A2,V9,SP,SR                                      *
     666                    ;*   Regs Used         : A1,A2,V9,SP,LR,SR                                   *
     667                    ;*   Local Frame Size  : 0 Args + 28 Auto + 0 Save = 28 byte                 *
     668                    ;*****************************************************************************
     669 00000218           rtiGetCurrentTick:
     670                    ;* --------------------------------------------------------------------------*
     671                            .dwcfi  cfa_offset, 0
     672 00000218 E24DD020          SUB       SP, SP, #32           ; [DPU_4_PIPE0] 
     673                            .dwcfi  cfa_offset, 32
     674                    $C$DW$43        .dwtag  DW_TAG_variable
     675                            .dwattr $C$DW$43, DW_AT_name("rtiREG")
     676                            .dwattr $C$DW$43, DW_AT_TI_symbol_name("rtiREG")
     677                            .dwattr $C$DW$43, DW_AT_type(*$C$DW$T$40)
     678                            .dwattr $C$DW$43, DW_AT_location[DW_OP_breg13 0]
     679                    
     680                    $C$DW$44        .dwtag  DW_TAG_variable
     681                            .dwattr $C$DW$44, DW_AT_name("compare")
     682                            .dwattr $C$DW$44, DW_AT_TI_symbol_name("compare")
     683                            .dwattr $C$DW$44, DW_AT_type(*$C$DW$T$20)
     684                            .dwattr $C$DW$44, DW_AT_location[DW_OP_breg13 4]
     685                    
     686                    $C$DW$45        .dwtag  DW_TAG_variable
     687                            .dwattr $C$DW$45, DW_AT_name("tick")
     688                            .dwattr $C$DW$45, DW_AT_TI_symbol_name("tick")
     689                            .dwattr $C$DW$45, DW_AT_type(*$C$DW$T$20)
     690                            .dwattr $C$DW$45, DW_AT_location[DW_OP_breg13 8]
     691                    
     692                    $C$DW$46        .dwtag  DW_TAG_variable
     693                            .dwattr $C$DW$46, DW_AT_name("counter")
     694                            .dwattr $C$DW$46, DW_AT_TI_symbol_name("counter")
     695                            .dwattr $C$DW$46, DW_AT_type(*$C$DW$T$20)
     696                            .dwattr $C$DW$46, DW_AT_location[DW_OP_breg13 12]
     697                    
     698                    $C$DW$47        .dwtag  DW_TAG_variable
     699                            .dwattr $C$DW$47, DW_AT_name("RTI_CNT_FRCx")
     700                            .dwattr $C$DW$47, DW_AT_TI_symbol_name("RTI_CNT_FRCx")
     701                            .dwattr $C$DW$47, DW_AT_type(*$C$DW$T$20)
     702                            .dwattr $C$DW$47, DW_AT_location[DW_OP_breg13 16]
     703                    
     704                    $C$DW$48        .dwtag  DW_TAG_variable
     705                            .dwattr $C$DW$48, DW_AT_name("RTI_CMP_COMPx")
     706                            .dwattr $C$DW$48, DW_AT_TI_symbol_name("RTI_CMP_COMPx")
     707                            .dwattr $C$DW$48, DW_AT_type(*$C$DW$T$20)
     708                            .dwattr $C$DW$48, DW_AT_location[DW_OP_breg13 20]
     709                    
     710                    $C$DW$49        .dwtag  DW_TAG_variable
     711                            .dwattr $C$DW$49, DW_AT_name("RTI_CMP_UDCPx")
     712                            .dwattr $C$DW$49, DW_AT_TI_symbol_name("RTI_CMP_UDCPx")
     713                            .dwattr $C$DW$49, DW_AT_type(*$C$DW$T$20)
     714                            .dwattr $C$DW$49, DW_AT_location[DW_OP_breg13 24]
     715                    
TI ARM Assembler PC v16.9.0 Sun Feb 19 22:29:40 2017

Tools Copyright (c) 1996-2015 Texas Instruments Incorporated
C:\Users\bob\AppData\Local\Temp\0957210                              PAGE   14

     716 0000021c E58D1004          STR       A2, [SP, #4]          ; [DPU_4_PIPE0] |311| 
     717 00000220 E58D0000          STR       A1, [SP, #0]          ; [DPU_4_PIPE0] |311| 
     718                            .dwpsn  file "../hcg/source/HL_rti.c",line 313,column 20,is_stmt,isa 2
     719 00000224 E59D0000          LDR       A1, [SP, #0]          ; [DPU_4_PIPE0] |313| 
     720 00000228 E59DC004          LDR       V9, [SP, #4]          ; [DPU_4_PIPE0] |313| 
     721 0000022c E3A01001          MOV       A2, #1                ; [DPU_4_PIPE0] |313| 
     722 00000230 E1A0C10C          MOV       V9, V9, LSL #2        ; [DPU_4_PIPE0] |313| 
     723 00000234 E590000C          LDR       A1, [A1, #12]         ; [DPU_4_PIPE0] |313| 
     724 00000238 E1100C11          TST       A1, A2, LSL V9        ; [DPU_4_PIPE0] |313| 
     725 0000023c 0AFFFFFE!         BEQ       ||$C$L2||             ; [DPU_4_PIPE1] |313| 
     726                            ; BRANCHCC OCCURS {||$C$L2||}    ; [] |313| 
     727                    ;* --------------------------------------------------------------------------*
     728 00000240 E3A0C001          MOV       V9, #1                ; [DPU_4_PIPE0] |313| 
     729 00000244 EAFFFFFE!         B         ||$C$L3||             ; [DPU_4_PIPE1] |313| 
     730                            ; BRANCH OCCURS {||$C$L3||}      ; [] |313| 
     731                    ;* --------------------------------------------------------------------------*
     732 00000248           ||$C$L2||:    
     733 00000248 E3A0C000          MOV       V9, #0                ; [DPU_4_PIPE0] |313| 
     734                    ;* --------------------------------------------------------------------------*
     735 0000024c           ||$C$L3||:    
     736 0000024c E58DC00C          STR       V9, [SP, #12]         ; [DPU_4_PIPE0] |313| 
     737                            .dwpsn  file "../hcg/source/HL_rti.c",line 314,column 22,is_stmt,isa 2
     738 00000250 E59DC00C          LDR       V9, [SP, #12]         ; [DPU_4_PIPE0] |314| 
     739 00000254 E59D0000          LDR       A1, [SP, #0]          ; [DPU_4_PIPE0] |314| 
     740 00000258 E080C28C          ADD       V9, A1, V9, LSL #5    ; [DPU_4_PIPE0] |314| 
     741 0000025c E59CC010          LDR       V9, [V9, #16]         ; [DPU_4_PIPE0] |314| 
     742 00000260 E58DC010          STR       V9, [SP, #16]         ; [DPU_4_PIPE0] |314| 
     743                            .dwpsn  file "../hcg/source/HL_rti.c",line 315,column 23,is_stmt,isa 2
     744 00000264 E59DC004          LDR       V9, [SP, #4]          ; [DPU_4_PIPE0] |315| 
     745 00000268 E59D0000          LDR       A1, [SP, #0]          ; [DPU_4_PIPE0] |315| 
     746 0000026c E080C18C          ADD       V9, A1, V9, LSL #3    ; [DPU_4_PIPE0] |315| 
     747 00000270 E59CC050          LDR       V9, [V9, #80]         ; [DPU_4_PIPE0] |315| 
     748 00000274 E58DC014          STR       V9, [SP, #20]         ; [DPU_4_PIPE0] |315| 
     749                            .dwpsn  file "../hcg/source/HL_rti.c",line 316,column 23,is_stmt,isa 2
     750 00000278 E59DC004          LDR       V9, [SP, #4]          ; [DPU_4_PIPE0] |316| 
     751 0000027c E59D0000          LDR       A1, [SP, #0]          ; [DPU_4_PIPE0] |316| 
     752 00000280 E080C18C          ADD       V9, A1, V9, LSL #3    ; [DPU_4_PIPE0] |316| 
     753 00000284 E59CC054          LDR       V9, [V9, #84]         ; [DPU_4_PIPE0] |316| 
     754 00000288 E58DC018          STR       V9, [SP, #24]         ; [DPU_4_PIPE0] |316| 
     755                            .dwpsn  file "../hcg/source/HL_rti.c",line 321,column 5,is_stmt,isa 2
     756 0000028c E59DC014          LDR       V9, [SP, #20]         ; [DPU_4_PIPE0] |321| 
     757 00000290 E59D0010          LDR       A1, [SP, #16]         ; [DPU_4_PIPE0] |321| 
     758 00000294 E59D1018          LDR       A2, [SP, #24]         ; [DPU_4_PIPE0] |321| 
     759 00000298 E040C00C          SUB       V9, A1, V9            ; [DPU_4_PIPE0] |321| 
     760 0000029c E081C00C          ADD       V9, A2, V9            ; [DPU_4_PIPE0] |321| 
     761 000002a0 E58DC008          STR       V9, [SP, #8]          ; [DPU_4_PIPE0] |321| 
     762                            .dwpsn  file "../hcg/source/HL_rti.c",line 329,column 5,is_stmt,isa 2
     763 000002a4 E59D0008          LDR       A1, [SP, #8]          ; [DPU_4_PIPE0] |329| 
     764                            .dwpsn  file "../hcg/source/HL_rti.c",line 330,column 1,is_stmt,isa 2
     765 000002a8 E28DD020          ADD       SP, SP, #32           ; [DPU_4_PIPE0] 
     766                            .dwcfi  cfa_offset, 0
     767                    $C$DW$50        .dwtag  DW_TAG_TI_branch
     768                            .dwattr $C$DW$50, DW_AT_low_pc(0x00)
     769                            .dwattr $C$DW$50, DW_AT_TI_return
     770                    
TI ARM Assembler PC v16.9.0 Sun Feb 19 22:29:40 2017

Tools Copyright (c) 1996-2015 Texas Instruments Incorporated
C:\Users\bob\AppData\Local\Temp\0957210                              PAGE   15

     771 000002ac E12FFF1E          BX        LR                    ; [DPU_4_PIPE1] 
     772                            ; BRANCH OCCURS                  ; [] 
     773                            .dwattr $C$DW$40, DW_AT_TI_end_file("../hcg/source/HL_rti.c")
     774                            .dwattr $C$DW$40, DW_AT_TI_end_line(0x14a)
     775                            .dwattr $C$DW$40, DW_AT_TI_end_column(0x01)
     776                            .dwendentry
     777                            .dwendtag $C$DW$40
     778                    
     779 000002b0                   .sect   ".text"
     780                            .clink
     781                            .armfunc dwdInit
     782 000002b0                   .state32
     783                            .global dwdInit
     784                    
     785                    $C$DW$51        .dwtag  DW_TAG_subprogram
     786                            .dwattr $C$DW$51, DW_AT_name("dwdInit")
     787                            .dwattr $C$DW$51, DW_AT_low_pc(dwdInit)
     788                            .dwattr $C$DW$51, DW_AT_high_pc(0x00)
     789                            .dwattr $C$DW$51, DW_AT_TI_symbol_name("dwdInit")
     790                            .dwattr $C$DW$51, DW_AT_external
     791                            .dwattr $C$DW$51, DW_AT_TI_begin_file("../hcg/source/HL_rti.c")
     792                            .dwattr $C$DW$51, DW_AT_TI_begin_line(0x156)
     793                            .dwattr $C$DW$51, DW_AT_TI_begin_column(0x06)
     794                            .dwattr $C$DW$51, DW_AT_decl_file("../hcg/source/HL_rti.c")
     795                            .dwattr $C$DW$51, DW_AT_decl_line(0x156)
     796                            .dwattr $C$DW$51, DW_AT_decl_column(0x06)
     797                            .dwattr $C$DW$51, DW_AT_TI_max_frame_size(0x08)
     798                            .dwpsn  file "../hcg/source/HL_rti.c",line 343,column 1,is_stmt,address dwdInit,isa 2
     799                    
     800                            .dwfde $C$DW$CIE, dwdInit
     801                    $C$DW$52        .dwtag  DW_TAG_formal_parameter
     802                            .dwattr $C$DW$52, DW_AT_name("rtiREG")
     803                            .dwattr $C$DW$52, DW_AT_TI_symbol_name("rtiREG")
     804                            .dwattr $C$DW$52, DW_AT_type(*$C$DW$T$40)
     805                            .dwattr $C$DW$52, DW_AT_location[DW_OP_reg0]
     806                    
     807                    $C$DW$53        .dwtag  DW_TAG_formal_parameter
     808                            .dwattr $C$DW$53, DW_AT_name("dwdPreload")
     809                            .dwattr $C$DW$53, DW_AT_TI_symbol_name("dwdPreload")
     810                            .dwattr $C$DW$53, DW_AT_type(*$C$DW$T$48)
     811                            .dwattr $C$DW$53, DW_AT_location[DW_OP_reg1]
     812                    
     813                    
     814                    ;*****************************************************************************
     815                    ;* FUNCTION NAME: dwdInit                                                    *
     816                    ;*                                                                           *
     817                    ;*   Regs Modified     : A1,V9,SP                                            *
     818                    ;*   Regs Used         : A1,A2,V9,SP,LR                                      *
     819                    ;*   Local Frame Size  : 0 Args + 8 Auto + 0 Save = 8 byte                   *
     820                    ;*****************************************************************************
     821 000002b0           dwdInit:
     822                    ;* --------------------------------------------------------------------------*
     823                            .dwcfi  cfa_offset, 0
     824 000002b0 E24DD008          SUB       SP, SP, #8            ; [DPU_4_PIPE0] 
     825                            .dwcfi  cfa_offset, 8
TI ARM Assembler PC v16.9.0 Sun Feb 19 22:29:40 2017

Tools Copyright (c) 1996-2015 Texas Instruments Incorporated
C:\Users\bob\AppData\Local\Temp\0957210                              PAGE   16

     826                    $C$DW$54        .dwtag  DW_TAG_variable
     827                            .dwattr $C$DW$54, DW_AT_name("rtiREG")
     828                            .dwattr $C$DW$54, DW_AT_TI_symbol_name("rtiREG")
     829                            .dwattr $C$DW$54, DW_AT_type(*$C$DW$T$40)
     830                            .dwattr $C$DW$54, DW_AT_location[DW_OP_breg13 0]
     831                    
     832                    $C$DW$55        .dwtag  DW_TAG_variable
     833                            .dwattr $C$DW$55, DW_AT_name("dwdPreload")
     834                            .dwattr $C$DW$55, DW_AT_TI_symbol_name("dwdPreload")
     835                            .dwattr $C$DW$55, DW_AT_type(*$C$DW$T$48)
     836                            .dwattr $C$DW$55, DW_AT_location[DW_OP_breg13 4]
     837                    
     838 000002b4 E1CD10B4          STRH      A2, [SP, #4]          ; [DPU_4_PIPE0] |343| 
     839 000002b8 E58D0000          STR       A1, [SP, #0]          ; [DPU_4_PIPE0] |343| 
     840                            .dwpsn  file "../hcg/source/HL_rti.c",line 348,column 2,is_stmt,isa 2
     841 000002bc E59DC000          LDR       V9, [SP, #0]          ; [DPU_4_PIPE0] |348| 
     842 000002c0 E3A000FF          MOV       A1, #255              ; [DPU_4_PIPE0] |348| 
     843 000002c4 E58C0098          STR       A1, [V9, #152]        ; [DPU_4_PIPE0] |348| 
     844                            .dwpsn  file "../hcg/source/HL_rti.c",line 350,column 2,is_stmt,isa 2
     845 000002c8 E59D0000          LDR       A1, [SP, #0]          ; [DPU_4_PIPE0] |350| 
     846 000002cc E1DDC0B4          LDRH      V9, [SP, #4]          ; [DPU_4_PIPE0] |350| 
     847 000002d0 E580C094          STR       V9, [A1, #148]        ; [DPU_4_PIPE0] |350| 
     848                            .dwpsn  file "../hcg/source/HL_rti.c",line 354,column 1,is_stmt,isa 2
     849 000002d4 E28DD008          ADD       SP, SP, #8            ; [DPU_4_PIPE0] 
     850                            .dwcfi  cfa_offset, 0
     851                    $C$DW$56        .dwtag  DW_TAG_TI_branch
     852                            .dwattr $C$DW$56, DW_AT_low_pc(0x00)
     853                            .dwattr $C$DW$56, DW_AT_TI_return
     854                    
     855 000002d8 E12FFF1E          BX        LR                    ; [DPU_4_PIPE1] 
     856                            ; BRANCH OCCURS                  ; [] 
     857                            .dwattr $C$DW$51, DW_AT_TI_end_file("../hcg/source/HL_rti.c")
     858                            .dwattr $C$DW$51, DW_AT_TI_end_line(0x162)
     859                            .dwattr $C$DW$51, DW_AT_TI_end_column(0x01)
     860                            .dwendentry
     861                            .dwendtag $C$DW$51
     862                    
     863 000002dc                   .sect   ".text"
     864                            .clink
     865                            .armfunc dwwdInit
     866 000002dc                   .state32
     867                            .global dwwdInit
     868                    
     869                    $C$DW$57        .dwtag  DW_TAG_subprogram
     870                            .dwattr $C$DW$57, DW_AT_name("dwwdInit")
     871                            .dwattr $C$DW$57, DW_AT_low_pc(dwwdInit)
     872                            .dwattr $C$DW$57, DW_AT_high_pc(0x00)
     873                            .dwattr $C$DW$57, DW_AT_TI_symbol_name("dwwdInit")
     874                            .dwattr $C$DW$57, DW_AT_external
     875                            .dwattr $C$DW$57, DW_AT_TI_begin_file("../hcg/source/HL_rti.c")
     876                            .dwattr $C$DW$57, DW_AT_TI_begin_line(0x178)
     877                            .dwattr $C$DW$57, DW_AT_TI_begin_column(0x06)
     878                            .dwattr $C$DW$57, DW_AT_decl_file("../hcg/source/HL_rti.c")
     879                            .dwattr $C$DW$57, DW_AT_decl_line(0x178)
     880                            .dwattr $C$DW$57, DW_AT_decl_column(0x06)
TI ARM Assembler PC v16.9.0 Sun Feb 19 22:29:40 2017

Tools Copyright (c) 1996-2015 Texas Instruments Incorporated
C:\Users\bob\AppData\Local\Temp\0957210                              PAGE   17

     881                            .dwattr $C$DW$57, DW_AT_TI_max_frame_size(0x10)
     882                            .dwpsn  file "../hcg/source/HL_rti.c",line 377,column 1,is_stmt,address dwwdInit,isa 2
     883                    
     884                            .dwfde $C$DW$CIE, dwwdInit
     885                    $C$DW$58        .dwtag  DW_TAG_formal_parameter
     886                            .dwattr $C$DW$58, DW_AT_name("rtiREG")
     887                            .dwattr $C$DW$58, DW_AT_TI_symbol_name("rtiREG")
     888                            .dwattr $C$DW$58, DW_AT_type(*$C$DW$T$40)
     889                            .dwattr $C$DW$58, DW_AT_location[DW_OP_reg0]
     890                    
     891                    $C$DW$59        .dwtag  DW_TAG_formal_parameter
     892                            .dwattr $C$DW$59, DW_AT_name("Reaction")
     893                            .dwattr $C$DW$59, DW_AT_TI_symbol_name("Reaction")
     894                            .dwattr $C$DW$59, DW_AT_type(*$C$DW$T$51)
     895                            .dwattr $C$DW$59, DW_AT_location[DW_OP_reg1]
     896                    
     897                    $C$DW$60        .dwtag  DW_TAG_formal_parameter
     898                            .dwattr $C$DW$60, DW_AT_name("dwdPreload")
     899                            .dwattr $C$DW$60, DW_AT_TI_symbol_name("dwdPreload")
     900                            .dwattr $C$DW$60, DW_AT_type(*$C$DW$T$48)
     901                            .dwattr $C$DW$60, DW_AT_location[DW_OP_reg2]
     902                    
     903                    $C$DW$61        .dwtag  DW_TAG_formal_parameter
     904                            .dwattr $C$DW$61, DW_AT_name("Window_Size")
     905                            .dwattr $C$DW$61, DW_AT_TI_symbol_name("Window_Size")
     906                            .dwattr $C$DW$61, DW_AT_type(*$C$DW$T$53)
     907                            .dwattr $C$DW$61, DW_AT_location[DW_OP_reg3]
     908                    
     909                    
     910                    ;*****************************************************************************
     911                    ;* FUNCTION NAME: dwwdInit                                                   *
     912                    ;*                                                                           *
     913                    ;*   Regs Modified     : A1,V9,SP                                            *
     914                    ;*   Regs Used         : A1,A2,A3,A4,V9,SP,LR                                *
     915                    ;*   Local Frame Size  : 0 Args + 12 Auto + 0 Save = 12 byte                 *
     916                    ;*****************************************************************************
     917 000002dc           dwwdInit:
     918                    ;* --------------------------------------------------------------------------*
     919                            .dwcfi  cfa_offset, 0
     920 000002dc E24DD010          SUB       SP, SP, #16           ; [DPU_4_PIPE0] 
     921                            .dwcfi  cfa_offset, 16
     922                    $C$DW$62        .dwtag  DW_TAG_variable
     923                            .dwattr $C$DW$62, DW_AT_name("rtiREG")
     924                            .dwattr $C$DW$62, DW_AT_TI_symbol_name("rtiREG")
     925                            .dwattr $C$DW$62, DW_AT_type(*$C$DW$T$40)
     926                            .dwattr $C$DW$62, DW_AT_location[DW_OP_breg13 0]
     927                    
     928                    $C$DW$63        .dwtag  DW_TAG_variable
     929                            .dwattr $C$DW$63, DW_AT_name("Window_Size")
     930                            .dwattr $C$DW$63, DW_AT_TI_symbol_name("Window_Size")
     931                            .dwattr $C$DW$63, DW_AT_type(*$C$DW$T$53)
     932                            .dwattr $C$DW$63, DW_AT_location[DW_OP_breg13 4]
     933                    
     934                    $C$DW$64        .dwtag  DW_TAG_variable
     935                            .dwattr $C$DW$64, DW_AT_name("dwdPreload")
TI ARM Assembler PC v16.9.0 Sun Feb 19 22:29:40 2017

Tools Copyright (c) 1996-2015 Texas Instruments Incorporated
C:\Users\bob\AppData\Local\Temp\0957210                              PAGE   18

     936                            .dwattr $C$DW$64, DW_AT_TI_symbol_name("dwdPreload")
     937                            .dwattr $C$DW$64, DW_AT_type(*$C$DW$T$48)
     938                            .dwattr $C$DW$64, DW_AT_location[DW_OP_breg13 8]
     939                    
     940                    $C$DW$65        .dwtag  DW_TAG_variable
     941                            .dwattr $C$DW$65, DW_AT_name("Reaction")
     942                            .dwattr $C$DW$65, DW_AT_TI_symbol_name("Reaction")
     943                            .dwattr $C$DW$65, DW_AT_type(*$C$DW$T$51)
     944                            .dwattr $C$DW$65, DW_AT_location[DW_OP_breg13 10]
     945                    
     946 000002e0 E58D3004          STR       A4, [SP, #4]          ; [DPU_4_PIPE0] |377| 
     947 000002e4 E1CD20B8          STRH      A3, [SP, #8]          ; [DPU_4_PIPE0] |377| 
     948 000002e8 E5CD100A          STRB      A2, [SP, #10]         ; [DPU_4_PIPE0] |377| 
     949 000002ec E58D0000          STR       A1, [SP, #0]          ; [DPU_4_PIPE0] |377| 
     950                            .dwpsn  file "../hcg/source/HL_rti.c",line 382,column 2,is_stmt,isa 2
     951 000002f0 E59DC000          LDR       V9, [SP, #0]          ; [DPU_4_PIPE0] |382| 
     952 000002f4 E3A000FF          MOV       A1, #255              ; [DPU_4_PIPE0] |382| 
     953 000002f8 E58C0098          STR       A1, [V9, #152]        ; [DPU_4_PIPE0] |382| 
     954                            .dwpsn  file "../hcg/source/HL_rti.c",line 384,column 5,is_stmt,isa 2
     955 000002fc E59D0000          LDR       A1, [SP, #0]          ; [DPU_4_PIPE0] |384| 
     956 00000300 E59DC004          LDR       V9, [SP, #4]          ; [DPU_4_PIPE0] |384| 
     957 00000304 E580C0A8          STR       V9, [A1, #168]        ; [DPU_4_PIPE0] |384| 
     958                            .dwpsn  file "../hcg/source/HL_rti.c",line 385,column 2,is_stmt,isa 2
     959 00000308 E59D0000          LDR       A1, [SP, #0]          ; [DPU_4_PIPE0] |385| 
     960 0000030c E1DDC0B8          LDRH      V9, [SP, #8]          ; [DPU_4_PIPE0] |385| 
     961 00000310 E580C094          STR       V9, [A1, #148]        ; [DPU_4_PIPE0] |385| 
     962                            .dwpsn  file "../hcg/source/HL_rti.c",line 386,column 2,is_stmt,isa 2
     963 00000314 E59D0000          LDR       A1, [SP, #0]          ; [DPU_4_PIPE0] |386| 
     964 00000318 E5DDC00A          LDRB      V9, [SP, #10]         ; [DPU_4_PIPE0] |386| 
     965 0000031c E580C0A4          STR       V9, [A1, #164]        ; [DPU_4_PIPE0] |386| 
     966                            .dwpsn  file "../hcg/source/HL_rti.c",line 390,column 1,is_stmt,isa 2
     967 00000320 E28DD010          ADD       SP, SP, #16           ; [DPU_4_PIPE0] 
     968                            .dwcfi  cfa_offset, 0
     969                    $C$DW$66        .dwtag  DW_TAG_TI_branch
     970                            .dwattr $C$DW$66, DW_AT_low_pc(0x00)
     971                            .dwattr $C$DW$66, DW_AT_TI_return
     972                    
     973 00000324 E12FFF1E          BX        LR                    ; [DPU_4_PIPE1] 
     974                            ; BRANCH OCCURS                  ; [] 
     975                            .dwattr $C$DW$57, DW_AT_TI_end_file("../hcg/source/HL_rti.c")
     976                            .dwattr $C$DW$57, DW_AT_TI_end_line(0x186)
     977                            .dwattr $C$DW$57, DW_AT_TI_end_column(0x01)
     978                            .dwendentry
     979                            .dwendtag $C$DW$57
     980                    
     981 00000328                   .sect   ".text"
     982                            .clink
     983                            .armfunc dwwdGetCurrentDownCounter
     984 00000328                   .state32
     985                            .global dwwdGetCurrentDownCounter
     986                    
     987                    $C$DW$67        .dwtag  DW_TAG_subprogram
     988                            .dwattr $C$DW$67, DW_AT_name("dwwdGetCurrentDownCounter")
     989                            .dwattr $C$DW$67, DW_AT_low_pc(dwwdGetCurrentDownCounter)
     990                            .dwattr $C$DW$67, DW_AT_high_pc(0x00)
TI ARM Assembler PC v16.9.0 Sun Feb 19 22:29:40 2017

Tools Copyright (c) 1996-2015 Texas Instruments Incorporated
C:\Users\bob\AppData\Local\Temp\0957210                              PAGE   19

     991                            .dwattr $C$DW$67, DW_AT_TI_symbol_name("dwwdGetCurrentDownCounter")
     992                            .dwattr $C$DW$67, DW_AT_external
     993                            .dwattr $C$DW$67, DW_AT_type(*$C$DW$T$20)
     994                            .dwattr $C$DW$67, DW_AT_TI_begin_file("../hcg/source/HL_rti.c")
     995                            .dwattr $C$DW$67, DW_AT_TI_begin_line(0x190)
     996                            .dwattr $C$DW$67, DW_AT_TI_begin_column(0x08)
     997                            .dwattr $C$DW$67, DW_AT_decl_file("../hcg/source/HL_rti.c")
     998                            .dwattr $C$DW$67, DW_AT_decl_line(0x190)
     999                            .dwattr $C$DW$67, DW_AT_decl_column(0x08)
    1000                            .dwattr $C$DW$67, DW_AT_TI_max_frame_size(0x08)
    1001                            .dwpsn  file "../hcg/source/HL_rti.c",line 401,column 1,is_stmt,address dwwdGetCurrentDownCoun
    1002                    
    1003                            .dwfde $C$DW$CIE, dwwdGetCurrentDownCounter
    1004                    $C$DW$68        .dwtag  DW_TAG_formal_parameter
    1005                            .dwattr $C$DW$68, DW_AT_name("rtiREG")
    1006                            .dwattr $C$DW$68, DW_AT_TI_symbol_name("rtiREG")
    1007                            .dwattr $C$DW$68, DW_AT_type(*$C$DW$T$40)
    1008                            .dwattr $C$DW$68, DW_AT_location[DW_OP_reg0]
    1009                    
    1010                    
    1011                    ;*****************************************************************************
    1012                    ;* FUNCTION NAME: dwwdGetCurrentDownCounter                                  *
    1013                    ;*                                                                           *
    1014                    ;*   Regs Modified     : A1,V9,SP                                            *
    1015                    ;*   Regs Used         : A1,V9,SP,LR                                         *
    1016                    ;*   Local Frame Size  : 0 Args + 4 Auto + 0 Save = 4 byte                   *
    1017                    ;*****************************************************************************
    1018 00000328           dwwdGetCurrentDownCounter:
    1019                    ;* --------------------------------------------------------------------------*
    1020                            .dwcfi  cfa_offset, 0
    1021 00000328 E24DD008          SUB       SP, SP, #8            ; [DPU_4_PIPE0] 
    1022                            .dwcfi  cfa_offset, 8
    1023                    $C$DW$69        .dwtag  DW_TAG_variable
    1024                            .dwattr $C$DW$69, DW_AT_name("rtiREG")
    1025                            .dwattr $C$DW$69, DW_AT_TI_symbol_name("rtiREG")
    1026                            .dwattr $C$DW$69, DW_AT_type(*$C$DW$T$40)
    1027                            .dwattr $C$DW$69, DW_AT_location[DW_OP_breg13 0]
    1028                    
    1029 0000032c E58D0000          STR       A1, [SP, #0]          ; [DPU_4_PIPE0] |401| 
    1030                            .dwpsn  file "../hcg/source/HL_rti.c",line 405,column 5,is_stmt,isa 2
    1031 00000330 E59DC000          LDR       V9, [SP, #0]          ; [DPU_4_PIPE0] |405| 
    1032 00000334 E59C00A0          LDR       A1, [V9, #160]        ; [DPU_4_PIPE0] |405| 
    1033                            .dwpsn  file "../hcg/source/HL_rti.c",line 409,column 1,is_stmt,isa 2
    1034 00000338 E28DD008          ADD       SP, SP, #8            ; [DPU_4_PIPE0] 
    1035                            .dwcfi  cfa_offset, 0
    1036                    $C$DW$70        .dwtag  DW_TAG_TI_branch
    1037                            .dwattr $C$DW$70, DW_AT_low_pc(0x00)
    1038                            .dwattr $C$DW$70, DW_AT_TI_return
    1039                    
    1040 0000033c E12FFF1E          BX        LR                    ; [DPU_4_PIPE1] 
    1041                            ; BRANCH OCCURS                  ; [] 
    1042                            .dwattr $C$DW$67, DW_AT_TI_end_file("../hcg/source/HL_rti.c")
    1043                            .dwattr $C$DW$67, DW_AT_TI_end_line(0x199)
    1044                            .dwattr $C$DW$67, DW_AT_TI_end_column(0x01)
    1045                            .dwendentry
TI ARM Assembler PC v16.9.0 Sun Feb 19 22:29:40 2017

Tools Copyright (c) 1996-2015 Texas Instruments Incorporated
C:\Users\bob\AppData\Local\Temp\0957210                              PAGE   20

    1046                            .dwendtag $C$DW$67
    1047                    
    1048 00000340                   .sect   ".text"
    1049                            .clink
    1050                            .armfunc dwdCounterEnable
    1051 00000340                   .state32
    1052                            .global dwdCounterEnable
    1053                    
    1054                    $C$DW$71        .dwtag  DW_TAG_subprogram
    1055                            .dwattr $C$DW$71, DW_AT_name("dwdCounterEnable")
    1056                            .dwattr $C$DW$71, DW_AT_low_pc(dwdCounterEnable)
    1057                            .dwattr $C$DW$71, DW_AT_high_pc(0x00)
    1058                            .dwattr $C$DW$71, DW_AT_TI_symbol_name("dwdCounterEnable")
    1059                            .dwattr $C$DW$71, DW_AT_external
    1060                            .dwattr $C$DW$71, DW_AT_TI_begin_file("../hcg/source/HL_rti.c")
    1061                            .dwattr $C$DW$71, DW_AT_TI_begin_line(0x1a2)
    1062                            .dwattr $C$DW$71, DW_AT_TI_begin_column(0x06)
    1063                            .dwattr $C$DW$71, DW_AT_decl_file("../hcg/source/HL_rti.c")
    1064                            .dwattr $C$DW$71, DW_AT_decl_line(0x1a2)
    1065                            .dwattr $C$DW$71, DW_AT_decl_column(0x06)
    1066                            .dwattr $C$DW$71, DW_AT_TI_max_frame_size(0x08)
    1067                            .dwpsn  file "../hcg/source/HL_rti.c",line 419,column 1,is_stmt,address dwdCounterEnable,isa 2
    1068                    
    1069                            .dwfde $C$DW$CIE, dwdCounterEnable
    1070                    $C$DW$72        .dwtag  DW_TAG_formal_parameter
    1071                            .dwattr $C$DW$72, DW_AT_name("rtiREG")
    1072                            .dwattr $C$DW$72, DW_AT_TI_symbol_name("rtiREG")
    1073                            .dwattr $C$DW$72, DW_AT_type(*$C$DW$T$40)
    1074                            .dwattr $C$DW$72, DW_AT_location[DW_OP_reg0]
    1075                    
    1076                    
    1077                    ;*****************************************************************************
    1078                    ;* FUNCTION NAME: dwdCounterEnable                                           *
    1079                    ;*                                                                           *
    1080                    ;*   Regs Modified     : A1,V9,SP                                            *
    1081                    ;*   Regs Used         : A1,V9,SP,LR                                         *
    1082                    ;*   Local Frame Size  : 0 Args + 4 Auto + 0 Save = 4 byte                   *
    1083                    ;*****************************************************************************
    1084 00000340           dwdCounterEnable:
    1085                    ;* --------------------------------------------------------------------------*
    1086                            .dwcfi  cfa_offset, 0
    1087 00000340 E24DD008          SUB       SP, SP, #8            ; [DPU_4_PIPE0] 
    1088                            .dwcfi  cfa_offset, 8
    1089                    $C$DW$73        .dwtag  DW_TAG_variable
    1090                            .dwattr $C$DW$73, DW_AT_name("rtiREG")
    1091                            .dwattr $C$DW$73, DW_AT_TI_symbol_name("rtiREG")
    1092                            .dwattr $C$DW$73, DW_AT_type(*$C$DW$T$40)
    1093                            .dwattr $C$DW$73, DW_AT_location[DW_OP_breg13 0]
    1094                    
    1095 00000344 E58D0000          STR       A1, [SP, #0]          ; [DPU_4_PIPE0] |419| 
    1096                            .dwpsn  file "../hcg/source/HL_rti.c",line 423,column 2,is_stmt,isa 2
    1097 00000348 E59DC000          LDR       V9, [SP, #0]          ; [DPU_4_PIPE0] |423| 
    1098 0000034c E59F0340          LDR       A1, $C$CON25          ; [DPU_4_PIPE0] |423| 
    1099 00000350 E58C0090          STR       A1, [V9, #144]        ; [DPU_4_PIPE0] |423| 
    1100                            .dwpsn  file "../hcg/source/HL_rti.c",line 427,column 1,is_stmt,isa 2
TI ARM Assembler PC v16.9.0 Sun Feb 19 22:29:40 2017

Tools Copyright (c) 1996-2015 Texas Instruments Incorporated
C:\Users\bob\AppData\Local\Temp\0957210                              PAGE   21

    1101 00000354 E28DD008          ADD       SP, SP, #8            ; [DPU_4_PIPE0] 
    1102                            .dwcfi  cfa_offset, 0
    1103                    $C$DW$74        .dwtag  DW_TAG_TI_branch
    1104                            .dwattr $C$DW$74, DW_AT_low_pc(0x00)
    1105                            .dwattr $C$DW$74, DW_AT_TI_return
    1106                    
    1107 00000358 E12FFF1E          BX        LR                    ; [DPU_4_PIPE1] 
    1108                            ; BRANCH OCCURS                  ; [] 
    1109                            .dwattr $C$DW$71, DW_AT_TI_end_file("../hcg/source/HL_rti.c")
    1110                            .dwattr $C$DW$71, DW_AT_TI_end_line(0x1ab)
    1111                            .dwattr $C$DW$71, DW_AT_TI_end_column(0x01)
    1112                            .dwendentry
    1113                            .dwendtag $C$DW$71
    1114                    
    1115 0000035c                   .sect   ".text"
    1116                            .clink
    1117                            .armfunc dwdSetPreload
    1118 0000035c                   .state32
    1119                            .global dwdSetPreload
    1120                    
    1121                    $C$DW$75        .dwtag  DW_TAG_subprogram
    1122                            .dwattr $C$DW$75, DW_AT_name("dwdSetPreload")
    1123                            .dwattr $C$DW$75, DW_AT_low_pc(dwdSetPreload)
    1124                            .dwattr $C$DW$75, DW_AT_high_pc(0x00)
    1125                            .dwattr $C$DW$75, DW_AT_TI_symbol_name("dwdSetPreload")
    1126                            .dwattr $C$DW$75, DW_AT_external
    1127                            .dwattr $C$DW$75, DW_AT_TI_begin_file("../hcg/source/HL_rti.c")
    1128                            .dwattr $C$DW$75, DW_AT_TI_begin_line(0x1b7)
    1129                            .dwattr $C$DW$75, DW_AT_TI_begin_column(0x06)
    1130                            .dwattr $C$DW$75, DW_AT_decl_file("../hcg/source/HL_rti.c")
    1131                            .dwattr $C$DW$75, DW_AT_decl_line(0x1b7)
    1132                            .dwattr $C$DW$75, DW_AT_decl_column(0x06)
    1133                            .dwattr $C$DW$75, DW_AT_TI_max_frame_size(0x08)
    1134                            .dwpsn  file "../hcg/source/HL_rti.c",line 440,column 1,is_stmt,address dwdSetPreload,isa 2
    1135                    
    1136                            .dwfde $C$DW$CIE, dwdSetPreload
    1137                    $C$DW$76        .dwtag  DW_TAG_formal_parameter
    1138                            .dwattr $C$DW$76, DW_AT_name("rtiREG")
    1139                            .dwattr $C$DW$76, DW_AT_TI_symbol_name("rtiREG")
    1140                            .dwattr $C$DW$76, DW_AT_type(*$C$DW$T$40)
    1141                            .dwattr $C$DW$76, DW_AT_location[DW_OP_reg0]
    1142                    
    1143                    $C$DW$77        .dwtag  DW_TAG_formal_parameter
    1144                            .dwattr $C$DW$77, DW_AT_name("dwdPreload")
    1145                            .dwattr $C$DW$77, DW_AT_TI_symbol_name("dwdPreload")
    1146                            .dwattr $C$DW$77, DW_AT_type(*$C$DW$T$48)
    1147                            .dwattr $C$DW$77, DW_AT_location[DW_OP_reg1]
    1148                    
    1149                    
    1150                    ;*****************************************************************************
    1151                    ;* FUNCTION NAME: dwdSetPreload                                              *
    1152                    ;*                                                                           *
    1153                    ;*   Regs Modified     : A1,V9,SP                                            *
    1154                    ;*   Regs Used         : A1,A2,V9,SP,LR                                      *
    1155                    ;*   Local Frame Size  : 0 Args + 8 Auto + 0 Save = 8 byte                   *
TI ARM Assembler PC v16.9.0 Sun Feb 19 22:29:40 2017

Tools Copyright (c) 1996-2015 Texas Instruments Incorporated
C:\Users\bob\AppData\Local\Temp\0957210                              PAGE   22

    1156                    ;*****************************************************************************
    1157 0000035c           dwdSetPreload:
    1158                    ;* --------------------------------------------------------------------------*
    1159                            .dwcfi  cfa_offset, 0
    1160 0000035c E24DD008          SUB       SP, SP, #8            ; [DPU_4_PIPE0] 
    1161                            .dwcfi  cfa_offset, 8
    1162                    $C$DW$78        .dwtag  DW_TAG_variable
    1163                            .dwattr $C$DW$78, DW_AT_name("rtiREG")
    1164                            .dwattr $C$DW$78, DW_AT_TI_symbol_name("rtiREG")
    1165                            .dwattr $C$DW$78, DW_AT_type(*$C$DW$T$40)
    1166                            .dwattr $C$DW$78, DW_AT_location[DW_OP_breg13 0]
    1167                    
    1168                    $C$DW$79        .dwtag  DW_TAG_variable
    1169                            .dwattr $C$DW$79, DW_AT_name("dwdPreload")
    1170                            .dwattr $C$DW$79, DW_AT_TI_symbol_name("dwdPreload")
    1171                            .dwattr $C$DW$79, DW_AT_type(*$C$DW$T$48)
    1172                            .dwattr $C$DW$79, DW_AT_location[DW_OP_breg13 4]
    1173                    
    1174 00000360 E1CD10B4          STRH      A2, [SP, #4]          ; [DPU_4_PIPE0] |440| 
    1175 00000364 E58D0000          STR       A1, [SP, #0]          ; [DPU_4_PIPE0] |440| 
    1176                            .dwpsn  file "../hcg/source/HL_rti.c",line 443,column 2,is_stmt,isa 2
    1177 00000368 E59D0000          LDR       A1, [SP, #0]          ; [DPU_4_PIPE0] |443| 
    1178 0000036c E1DDC0B4          LDRH      V9, [SP, #4]          ; [DPU_4_PIPE0] |443| 
    1179 00000370 E580C094          STR       V9, [A1, #148]        ; [DPU_4_PIPE0] |443| 
    1180                            .dwpsn  file "../hcg/source/HL_rti.c",line 446,column 1,is_stmt,isa 2
    1181 00000374 E28DD008          ADD       SP, SP, #8            ; [DPU_4_PIPE0] 
    1182                            .dwcfi  cfa_offset, 0
    1183                    $C$DW$80        .dwtag  DW_TAG_TI_branch
    1184                            .dwattr $C$DW$80, DW_AT_low_pc(0x00)
    1185                            .dwattr $C$DW$80, DW_AT_TI_return
    1186                    
    1187 00000378 E12FFF1E          BX        LR                    ; [DPU_4_PIPE1] 
    1188                            ; BRANCH OCCURS                  ; [] 
    1189                            .dwattr $C$DW$75, DW_AT_TI_end_file("../hcg/source/HL_rti.c")
    1190                            .dwattr $C$DW$75, DW_AT_TI_end_line(0x1be)
    1191                            .dwattr $C$DW$75, DW_AT_TI_end_column(0x01)
    1192                            .dwendentry
    1193                            .dwendtag $C$DW$75
    1194                    
    1195 0000037c                   .sect   ".text"
    1196                            .clink
    1197                            .armfunc dwdReset
    1198 0000037c                   .state32
    1199                            .global dwdReset
    1200                    
    1201                    $C$DW$81        .dwtag  DW_TAG_subprogram
    1202                            .dwattr $C$DW$81, DW_AT_name("dwdReset")
    1203                            .dwattr $C$DW$81, DW_AT_low_pc(dwdReset)
    1204                            .dwattr $C$DW$81, DW_AT_high_pc(0x00)
    1205                            .dwattr $C$DW$81, DW_AT_TI_symbol_name("dwdReset")
    1206                            .dwattr $C$DW$81, DW_AT_external
    1207                            .dwattr $C$DW$81, DW_AT_TI_begin_file("../hcg/source/HL_rti.c")
    1208                            .dwattr $C$DW$81, DW_AT_TI_begin_line(0x1c7)
    1209                            .dwattr $C$DW$81, DW_AT_TI_begin_column(0x06)
    1210                            .dwattr $C$DW$81, DW_AT_decl_file("../hcg/source/HL_rti.c")
TI ARM Assembler PC v16.9.0 Sun Feb 19 22:29:40 2017

Tools Copyright (c) 1996-2015 Texas Instruments Incorporated
C:\Users\bob\AppData\Local\Temp\0957210                              PAGE   23

    1211                            .dwattr $C$DW$81, DW_AT_decl_line(0x1c7)
    1212                            .dwattr $C$DW$81, DW_AT_decl_column(0x06)
    1213                            .dwattr $C$DW$81, DW_AT_TI_max_frame_size(0x08)
    1214                            .dwpsn  file "../hcg/source/HL_rti.c",line 456,column 1,is_stmt,address dwdReset,isa 2
    1215                    
    1216                            .dwfde $C$DW$CIE, dwdReset
    1217                    $C$DW$82        .dwtag  DW_TAG_formal_parameter
    1218                            .dwattr $C$DW$82, DW_AT_name("rtiREG")
    1219                            .dwattr $C$DW$82, DW_AT_TI_symbol_name("rtiREG")
    1220                            .dwattr $C$DW$82, DW_AT_type(*$C$DW$T$40)
    1221                            .dwattr $C$DW$82, DW_AT_location[DW_OP_reg0]
    1222                    
    1223                    
    1224                    ;*****************************************************************************
    1225                    ;* FUNCTION NAME: dwdReset                                                   *
    1226                    ;*                                                                           *
    1227                    ;*   Regs Modified     : A1,V9,SP                                            *
    1228                    ;*   Regs Used         : A1,V9,SP,LR                                         *
    1229                    ;*   Local Frame Size  : 0 Args + 4 Auto + 0 Save = 4 byte                   *
    1230                    ;*****************************************************************************
    1231 0000037c           dwdReset:
    1232                    ;* --------------------------------------------------------------------------*
    1233                            .dwcfi  cfa_offset, 0
    1234 0000037c E24DD008          SUB       SP, SP, #8            ; [DPU_4_PIPE0] 
    1235                            .dwcfi  cfa_offset, 8
    1236                    $C$DW$83        .dwtag  DW_TAG_variable
    1237                            .dwattr $C$DW$83, DW_AT_name("rtiREG")
    1238                            .dwattr $C$DW$83, DW_AT_TI_symbol_name("rtiREG")
    1239                            .dwattr $C$DW$83, DW_AT_type(*$C$DW$T$40)
    1240                            .dwattr $C$DW$83, DW_AT_location[DW_OP_breg13 0]
    1241                    
    1242 00000380 E58D0000          STR       A1, [SP, #0]          ; [DPU_4_PIPE0] |456| 
    1243                            .dwpsn  file "../hcg/source/HL_rti.c",line 459,column 2,is_stmt,isa 2
    1244 00000384 E59DC000          LDR       V9, [SP, #0]          ; [DPU_4_PIPE0] |459| 
    1245 00000388 E30E051A          MOV       A1, #58650            ; [DPU_4_PIPE0] |459| 
    1246 0000038c E58C009C          STR       A1, [V9, #156]        ; [DPU_4_PIPE0] |459| 
    1247                            .dwpsn  file "../hcg/source/HL_rti.c",line 460,column 2,is_stmt,isa 2
    1248 00000390 E59DC000          LDR       V9, [SP, #0]          ; [DPU_4_PIPE0] |460| 
    1249 00000394 E30A035C          MOV       A1, #41820            ; [DPU_4_PIPE0] |460| 
    1250 00000398 E58C009C          STR       A1, [V9, #156]        ; [DPU_4_PIPE0] |460| 
    1251                            .dwpsn  file "../hcg/source/HL_rti.c",line 463,column 1,is_stmt,isa 2
    1252 0000039c E28DD008          ADD       SP, SP, #8            ; [DPU_4_PIPE0] 
    1253                            .dwcfi  cfa_offset, 0
    1254                    $C$DW$84        .dwtag  DW_TAG_TI_branch
    1255                            .dwattr $C$DW$84, DW_AT_low_pc(0x00)
    1256                            .dwattr $C$DW$84, DW_AT_TI_return
    1257                    
    1258 000003a0 E12FFF1E          BX        LR                    ; [DPU_4_PIPE1] 
    1259                            ; BRANCH OCCURS                  ; [] 
    1260                            .dwattr $C$DW$81, DW_AT_TI_end_file("../hcg/source/HL_rti.c")
    1261                            .dwattr $C$DW$81, DW_AT_TI_end_line(0x1cf)
    1262                            .dwattr $C$DW$81, DW_AT_TI_end_column(0x01)
    1263                            .dwendentry
    1264                            .dwendtag $C$DW$81
    1265                    
TI ARM Assembler PC v16.9.0 Sun Feb 19 22:29:40 2017

Tools Copyright (c) 1996-2015 Texas Instruments Incorporated
C:\Users\bob\AppData\Local\Temp\0957210                              PAGE   24

    1266 000003a4                   .sect   ".text"
    1267                            .clink
    1268                            .armfunc dwdGenerateSysReset
    1269 000003a4                   .state32
    1270                            .global dwdGenerateSysReset
    1271                    
    1272                    $C$DW$85        .dwtag  DW_TAG_subprogram
    1273                            .dwattr $C$DW$85, DW_AT_name("dwdGenerateSysReset")
    1274                            .dwattr $C$DW$85, DW_AT_low_pc(dwdGenerateSysReset)
    1275                            .dwattr $C$DW$85, DW_AT_high_pc(0x00)
    1276                            .dwattr $C$DW$85, DW_AT_TI_symbol_name("dwdGenerateSysReset")
    1277                            .dwattr $C$DW$85, DW_AT_external
    1278                            .dwattr $C$DW$85, DW_AT_TI_begin_file("../hcg/source/HL_rti.c")
    1279                            .dwattr $C$DW$85, DW_AT_TI_begin_line(0x1d8)
    1280                            .dwattr $C$DW$85, DW_AT_TI_begin_column(0x06)
    1281                            .dwattr $C$DW$85, DW_AT_decl_file("../hcg/source/HL_rti.c")
    1282                            .dwattr $C$DW$85, DW_AT_decl_line(0x1d8)
    1283                            .dwattr $C$DW$85, DW_AT_decl_column(0x06)
    1284                            .dwattr $C$DW$85, DW_AT_TI_max_frame_size(0x08)
    1285                            .dwpsn  file "../hcg/source/HL_rti.c",line 473,column 1,is_stmt,address dwdGenerateSysReset,is
    1286                    
    1287                            .dwfde $C$DW$CIE, dwdGenerateSysReset
    1288                    $C$DW$86        .dwtag  DW_TAG_formal_parameter
    1289                            .dwattr $C$DW$86, DW_AT_name("rtiREG")
    1290                            .dwattr $C$DW$86, DW_AT_TI_symbol_name("rtiREG")
    1291                            .dwattr $C$DW$86, DW_AT_type(*$C$DW$T$40)
    1292                            .dwattr $C$DW$86, DW_AT_location[DW_OP_reg0]
    1293                    
    1294                    
    1295                    ;*****************************************************************************
    1296                    ;* FUNCTION NAME: dwdGenerateSysReset                                        *
    1297                    ;*                                                                           *
    1298                    ;*   Regs Modified     : A1,V9,SP                                            *
    1299                    ;*   Regs Used         : A1,V9,SP,LR                                         *
    1300                    ;*   Local Frame Size  : 0 Args + 4 Auto + 0 Save = 4 byte                   *
    1301                    ;*****************************************************************************
    1302 000003a4           dwdGenerateSysReset:
    1303                    ;* --------------------------------------------------------------------------*
    1304                            .dwcfi  cfa_offset, 0
    1305 000003a4 E24DD008          SUB       SP, SP, #8            ; [DPU_4_PIPE0] 
    1306                            .dwcfi  cfa_offset, 8
    1307                    $C$DW$87        .dwtag  DW_TAG_variable
    1308                            .dwattr $C$DW$87, DW_AT_name("rtiREG")
    1309                            .dwattr $C$DW$87, DW_AT_TI_symbol_name("rtiREG")
    1310                            .dwattr $C$DW$87, DW_AT_type(*$C$DW$T$40)
    1311                            .dwattr $C$DW$87, DW_AT_location[DW_OP_breg13 0]
    1312                    
    1313 000003a8 E58D0000          STR       A1, [SP, #0]          ; [DPU_4_PIPE0] |473| 
    1314                            .dwpsn  file "../hcg/source/HL_rti.c",line 476,column 2,is_stmt,isa 2
    1315 000003ac E59DC000          LDR       V9, [SP, #0]          ; [DPU_4_PIPE0] |476| 
    1316 000003b0 E30E051A          MOV       A1, #58650            ; [DPU_4_PIPE0] |476| 
    1317 000003b4 E58C009C          STR       A1, [V9, #156]        ; [DPU_4_PIPE0] |476| 
    1318                            .dwpsn  file "../hcg/source/HL_rti.c",line 477,column 2,is_stmt,isa 2
    1319 000003b8 E59DC000          LDR       V9, [SP, #0]          ; [DPU_4_PIPE0] |477| 
    1320 000003bc E3020345          MOV       A1, #9029             ; [DPU_4_PIPE0] |477| 
TI ARM Assembler PC v16.9.0 Sun Feb 19 22:29:40 2017

Tools Copyright (c) 1996-2015 Texas Instruments Incorporated
C:\Users\bob\AppData\Local\Temp\0957210                              PAGE   25

    1321 000003c0 E58C009C          STR       A1, [V9, #156]        ; [DPU_4_PIPE0] |477| 
    1322                            .dwpsn  file "../hcg/source/HL_rti.c",line 480,column 1,is_stmt,isa 2
    1323 000003c4 E28DD008          ADD       SP, SP, #8            ; [DPU_4_PIPE0] 
    1324                            .dwcfi  cfa_offset, 0
    1325                    $C$DW$88        .dwtag  DW_TAG_TI_branch
    1326                            .dwattr $C$DW$88, DW_AT_low_pc(0x00)
    1327                            .dwattr $C$DW$88, DW_AT_TI_return
    1328                    
    1329 000003c8 E12FFF1E          BX        LR                    ; [DPU_4_PIPE1] 
    1330                            ; BRANCH OCCURS                  ; [] 
    1331                            .dwattr $C$DW$85, DW_AT_TI_end_file("../hcg/source/HL_rti.c")
    1332                            .dwattr $C$DW$85, DW_AT_TI_end_line(0x1e0)
    1333                            .dwattr $C$DW$85, DW_AT_TI_end_column(0x01)
    1334                            .dwendentry
    1335                            .dwendtag $C$DW$85
    1336                    
    1337 000003cc                   .sect   ".text"
    1338                            .clink
    1339                            .armfunc IsdwdKeySequenceCorrect
    1340 000003cc                   .state32
    1341                            .global IsdwdKeySequenceCorrect
    1342                    
    1343                    $C$DW$89        .dwtag  DW_TAG_subprogram
    1344                            .dwattr $C$DW$89, DW_AT_name("IsdwdKeySequenceCorrect")
    1345                            .dwattr $C$DW$89, DW_AT_low_pc(IsdwdKeySequenceCorrect)
    1346                            .dwattr $C$DW$89, DW_AT_high_pc(0x00)
    1347                            .dwattr $C$DW$89, DW_AT_TI_symbol_name("IsdwdKeySequenceCorrect")
    1348                            .dwattr $C$DW$89, DW_AT_external
    1349                            .dwattr $C$DW$89, DW_AT_type(*$C$DW$T$99)
    1350                            .dwattr $C$DW$89, DW_AT_TI_begin_file("../hcg/source/HL_rti.c")
    1351                            .dwattr $C$DW$89, DW_AT_TI_begin_line(0x1ec)
    1352                            .dwattr $C$DW$89, DW_AT_TI_begin_column(0x09)
    1353                            .dwattr $C$DW$89, DW_AT_decl_file("../hcg/source/HL_rti.c")
    1354                            .dwattr $C$DW$89, DW_AT_decl_line(0x1ec)
    1355                            .dwattr $C$DW$89, DW_AT_decl_column(0x09)
    1356                            .dwattr $C$DW$89, DW_AT_TI_max_frame_size(0x08)
    1357                            .dwpsn  file "../hcg/source/HL_rti.c",line 493,column 1,is_stmt,address IsdwdKeySequenceCorrec
    1358                    
    1359                            .dwfde $C$DW$CIE, IsdwdKeySequenceCorrect
    1360                    $C$DW$90        .dwtag  DW_TAG_formal_parameter
    1361                            .dwattr $C$DW$90, DW_AT_name("rtiREG")
    1362                            .dwattr $C$DW$90, DW_AT_TI_symbol_name("rtiREG")
    1363                            .dwattr $C$DW$90, DW_AT_type(*$C$DW$T$40)
    1364                            .dwattr $C$DW$90, DW_AT_location[DW_OP_reg0]
    1365                    
    1366                    
    1367                    ;*****************************************************************************
    1368                    ;* FUNCTION NAME: IsdwdKeySequenceCorrect                                    *
    1369                    ;*                                                                           *
    1370                    ;*   Regs Modified     : A1,V9,SP,SR                                         *
    1371                    ;*   Regs Used         : A1,V9,SP,LR,SR                                      *
    1372                    ;*   Local Frame Size  : 0 Args + 8 Auto + 0 Save = 8 byte                   *
    1373                    ;*****************************************************************************
    1374 000003cc           IsdwdKeySequenceCorrect:
    1375                    ;* --------------------------------------------------------------------------*
TI ARM Assembler PC v16.9.0 Sun Feb 19 22:29:40 2017

Tools Copyright (c) 1996-2015 Texas Instruments Incorporated
C:\Users\bob\AppData\Local\Temp\0957210                              PAGE   26

    1376                            .dwcfi  cfa_offset, 0
    1377 000003cc E24DD008          SUB       SP, SP, #8            ; [DPU_4_PIPE0] 
    1378                            .dwcfi  cfa_offset, 8
    1379                    $C$DW$91        .dwtag  DW_TAG_variable
    1380                            .dwattr $C$DW$91, DW_AT_name("rtiREG")
    1381                            .dwattr $C$DW$91, DW_AT_TI_symbol_name("rtiREG")
    1382                            .dwattr $C$DW$91, DW_AT_type(*$C$DW$T$40)
    1383                            .dwattr $C$DW$91, DW_AT_location[DW_OP_breg13 0]
    1384                    
    1385                    $C$DW$92        .dwtag  DW_TAG_variable
    1386                            .dwattr $C$DW$92, DW_AT_name("Status")
    1387                            .dwattr $C$DW$92, DW_AT_TI_symbol_name("Status")
    1388                            .dwattr $C$DW$92, DW_AT_type(*$C$DW$T$99)
    1389                            .dwattr $C$DW$92, DW_AT_location[DW_OP_breg13 4]
    1390                    
    1391 000003d0 E58D0000          STR       A1, [SP, #0]          ; [DPU_4_PIPE0] |493| 
    1392                            .dwpsn  file "../hcg/source/HL_rti.c",line 499,column 2,is_stmt,isa 2
    1393 000003d4 E59DC000          LDR       V9, [SP, #0]          ; [DPU_4_PIPE0] |499| 
    1394 000003d8 E59CC098          LDR       V9, [V9, #152]        ; [DPU_4_PIPE0] |499| 
    1395 000003dc E31C0004          TST       V9, #4                ; [DPU_4_PIPE0] |499| 
    1396 000003e0 0AFFFFFE!         BEQ       ||$C$L4||             ; [DPU_4_PIPE1] |499| 
    1397                            ; BRANCHCC OCCURS {||$C$L4||}    ; [] |499| 
    1398                    ;* --------------------------------------------------------------------------*
    1399                            .dwpsn  file "../hcg/source/HL_rti.c",line 501,column 3,is_stmt,isa 2
    1400 000003e4 E3A0C000          MOV       V9, #0                ; [DPU_4_PIPE0] |501| 
    1401 000003e8 E5CDC004          STRB      V9, [SP, #4]          ; [DPU_4_PIPE0] |501| 
    1402                            .dwpsn  file "../hcg/source/HL_rti.c",line 502,column 2,is_stmt,isa 2
    1403 000003ec EAFFFFFE!         B         ||$C$L5||             ; [DPU_4_PIPE1] |502| 
    1404                            ; BRANCH OCCURS {||$C$L5||}      ; [] |502| 
    1405                    ;* --------------------------------------------------------------------------*
    1406 000003f0           ||$C$L4||:    
    1407                            .dwpsn  file "../hcg/source/HL_rti.c",line 505,column 3,is_stmt,isa 2
    1408 000003f0 E3A0C001          MOV       V9, #1                ; [DPU_4_PIPE0] |505| 
    1409 000003f4 E5CDC004          STRB      V9, [SP, #4]          ; [DPU_4_PIPE0] |505| 
    1410                    ;* --------------------------------------------------------------------------*
    1411 000003f8           ||$C$L5||:    
    1412                            .dwpsn  file "../hcg/source/HL_rti.c",line 511,column 2,is_stmt,isa 2
    1413 000003f8 E5DD0004          LDRB      A1, [SP, #4]          ; [DPU_4_PIPE0] |511| 
    1414                            .dwpsn  file "../hcg/source/HL_rti.c",line 512,column 1,is_stmt,isa 2
    1415 000003fc E28DD008          ADD       SP, SP, #8            ; [DPU_4_PIPE0] 
    1416                            .dwcfi  cfa_offset, 0
    1417                    $C$DW$93        .dwtag  DW_TAG_TI_branch
    1418                            .dwattr $C$DW$93, DW_AT_low_pc(0x00)
    1419                            .dwattr $C$DW$93, DW_AT_TI_return
    1420                    
    1421 00000400 E12FFF1E          BX        LR                    ; [DPU_4_PIPE1] 
    1422                            ; BRANCH OCCURS                  ; [] 
    1423                            .dwattr $C$DW$89, DW_AT_TI_end_file("../hcg/source/HL_rti.c")
    1424                            .dwattr $C$DW$89, DW_AT_TI_end_line(0x200)
    1425                            .dwattr $C$DW$89, DW_AT_TI_end_column(0x01)
    1426                            .dwendentry
    1427                            .dwendtag $C$DW$89
    1428                    
    1429 00000404                   .sect   ".text"
    1430                            .clink
TI ARM Assembler PC v16.9.0 Sun Feb 19 22:29:40 2017

Tools Copyright (c) 1996-2015 Texas Instruments Incorporated
C:\Users\bob\AppData\Local\Temp\0957210                              PAGE   27

    1431                            .armfunc dwdGetStatus
    1432 00000404                   .state32
    1433                            .global dwdGetStatus
    1434                    
    1435                    $C$DW$94        .dwtag  DW_TAG_subprogram
    1436                            .dwattr $C$DW$94, DW_AT_name("dwdGetStatus")
    1437                            .dwattr $C$DW$94, DW_AT_low_pc(dwdGetStatus)
    1438                            .dwattr $C$DW$94, DW_AT_high_pc(0x00)
    1439                            .dwattr $C$DW$94, DW_AT_TI_symbol_name("dwdGetStatus")
    1440                            .dwattr $C$DW$94, DW_AT_external
    1441                            .dwattr $C$DW$94, DW_AT_type(*$C$DW$T$103)
    1442                            .dwattr $C$DW$94, DW_AT_TI_begin_file("../hcg/source/HL_rti.c")
    1443                            .dwattr $C$DW$94, DW_AT_TI_begin_line(0x20c)
    1444                            .dwattr $C$DW$94, DW_AT_TI_begin_column(0x12)
    1445                            .dwattr $C$DW$94, DW_AT_decl_file("../hcg/source/HL_rti.c")
    1446                            .dwattr $C$DW$94, DW_AT_decl_line(0x20c)
    1447                            .dwattr $C$DW$94, DW_AT_decl_column(0x12)
    1448                            .dwattr $C$DW$94, DW_AT_TI_max_frame_size(0x08)
    1449                            .dwpsn  file "../hcg/source/HL_rti.c",line 525,column 1,is_stmt,address dwdGetStatus,isa 2
    1450                    
    1451                            .dwfde $C$DW$CIE, dwdGetStatus
    1452                    $C$DW$95        .dwtag  DW_TAG_formal_parameter
    1453                            .dwattr $C$DW$95, DW_AT_name("rtiREG")
    1454                            .dwattr $C$DW$95, DW_AT_TI_symbol_name("rtiREG")
    1455                            .dwattr $C$DW$95, DW_AT_type(*$C$DW$T$40)
    1456                            .dwattr $C$DW$95, DW_AT_location[DW_OP_reg0]
    1457                    
    1458                    
    1459                    ;*****************************************************************************
    1460                    ;* FUNCTION NAME: dwdGetStatus                                               *
    1461                    ;*                                                                           *
    1462                    ;*   Regs Modified     : A1,V9,SP,SR                                         *
    1463                    ;*   Regs Used         : A1,V9,SP,LR,SR                                      *
    1464                    ;*   Local Frame Size  : 0 Args + 8 Auto + 0 Save = 8 byte                   *
    1465                    ;*****************************************************************************
    1466 00000404           dwdGetStatus:
    1467                    ;* --------------------------------------------------------------------------*
    1468                            .dwcfi  cfa_offset, 0
    1469 00000404 E24DD008          SUB       SP, SP, #8            ; [DPU_4_PIPE0] 
    1470                            .dwcfi  cfa_offset, 8
    1471                    $C$DW$96        .dwtag  DW_TAG_variable
    1472                            .dwattr $C$DW$96, DW_AT_name("rtiREG")
    1473                            .dwattr $C$DW$96, DW_AT_TI_symbol_name("rtiREG")
    1474                            .dwattr $C$DW$96, DW_AT_type(*$C$DW$T$40)
    1475                            .dwattr $C$DW$96, DW_AT_location[DW_OP_breg13 0]
    1476                    
    1477                    $C$DW$97        .dwtag  DW_TAG_variable
    1478                            .dwattr $C$DW$97, DW_AT_name("Reset_Status")
    1479                            .dwattr $C$DW$97, DW_AT_TI_symbol_name("Reset_Status")
    1480                            .dwattr $C$DW$97, DW_AT_type(*$C$DW$T$103)
    1481                            .dwattr $C$DW$97, DW_AT_location[DW_OP_breg13 4]
    1482                    
    1483 00000408 E58D0000          STR       A1, [SP, #0]          ; [DPU_4_PIPE0] |525| 
    1484                            .dwpsn  file "../hcg/source/HL_rti.c",line 529,column 2,is_stmt,isa 2
    1485 0000040c E59DC000          LDR       V9, [SP, #0]          ; [DPU_4_PIPE0] |529| 
TI ARM Assembler PC v16.9.0 Sun Feb 19 22:29:40 2017

Tools Copyright (c) 1996-2015 Texas Instruments Incorporated
C:\Users\bob\AppData\Local\Temp\0957210                              PAGE   28

    1486 00000410 E59CC098          LDR       V9, [V9, #152]        ; [DPU_4_PIPE0] |529| 
    1487 00000414 E31C0002          TST       V9, #2                ; [DPU_4_PIPE0] |529| 
    1488 00000418 0AFFFFFE!         BEQ       ||$C$L6||             ; [DPU_4_PIPE1] |529| 
    1489                            ; BRANCHCC OCCURS {||$C$L6||}    ; [] |529| 
    1490                    ;* --------------------------------------------------------------------------*
    1491                            .dwpsn  file "../hcg/source/HL_rti.c",line 531,column 3,is_stmt,isa 2
    1492 0000041c E3A0C001          MOV       V9, #1                ; [DPU_4_PIPE0] |531| 
    1493 00000420 E5CDC004          STRB      V9, [SP, #4]          ; [DPU_4_PIPE0] |531| 
    1494                            .dwpsn  file "../hcg/source/HL_rti.c",line 532,column 2,is_stmt,isa 2
    1495 00000424 EAFFFFFE!         B         ||$C$L7||             ; [DPU_4_PIPE1] |532| 
    1496                            ; BRANCH OCCURS {||$C$L7||}      ; [] |532| 
    1497                    ;* --------------------------------------------------------------------------*
    1498 00000428           ||$C$L6||:    
    1499                            .dwpsn  file "../hcg/source/HL_rti.c",line 535,column 3,is_stmt,isa 2
    1500 00000428 E3A0C000          MOV       V9, #0                ; [DPU_4_PIPE0] |535| 
    1501 0000042c E5CDC004          STRB      V9, [SP, #4]          ; [DPU_4_PIPE0] |535| 
    1502                    ;* --------------------------------------------------------------------------*
    1503 00000430           ||$C$L7||:    
    1504                            .dwpsn  file "../hcg/source/HL_rti.c",line 540,column 2,is_stmt,isa 2
    1505 00000430 E5DD0004          LDRB      A1, [SP, #4]          ; [DPU_4_PIPE0] |540| 
    1506                            .dwpsn  file "../hcg/source/HL_rti.c",line 541,column 1,is_stmt,isa 2
    1507 00000434 E28DD008          ADD       SP, SP, #8            ; [DPU_4_PIPE0] 
    1508                            .dwcfi  cfa_offset, 0
    1509                    $C$DW$98        .dwtag  DW_TAG_TI_branch
    1510                            .dwattr $C$DW$98, DW_AT_low_pc(0x00)
    1511                            .dwattr $C$DW$98, DW_AT_TI_return
    1512                    
    1513 00000438 E12FFF1E          BX        LR                    ; [DPU_4_PIPE1] 
    1514                            ; BRANCH OCCURS                  ; [] 
    1515                            .dwattr $C$DW$94, DW_AT_TI_end_file("../hcg/source/HL_rti.c")
    1516                            .dwattr $C$DW$94, DW_AT_TI_end_line(0x21d)
    1517                            .dwattr $C$DW$94, DW_AT_TI_end_column(0x01)
    1518                            .dwendentry
    1519                            .dwendtag $C$DW$94
    1520                    
    1521 0000043c                   .sect   ".text"
    1522                            .clink
    1523                            .armfunc dwdClearFlag
    1524 0000043c                   .state32
    1525                            .global dwdClearFlag
    1526                    
    1527                    $C$DW$99        .dwtag  DW_TAG_subprogram
    1528                            .dwattr $C$DW$99, DW_AT_name("dwdClearFlag")
    1529                            .dwattr $C$DW$99, DW_AT_low_pc(dwdClearFlag)
    1530                            .dwattr $C$DW$99, DW_AT_high_pc(0x00)
    1531                            .dwattr $C$DW$99, DW_AT_TI_symbol_name("dwdClearFlag")
    1532                            .dwattr $C$DW$99, DW_AT_external
    1533                            .dwattr $C$DW$99, DW_AT_TI_begin_file("../hcg/source/HL_rti.c")
    1534                            .dwattr $C$DW$99, DW_AT_TI_begin_line(0x226)
    1535                            .dwattr $C$DW$99, DW_AT_TI_begin_column(0x06)
    1536                            .dwattr $C$DW$99, DW_AT_decl_file("../hcg/source/HL_rti.c")
    1537                            .dwattr $C$DW$99, DW_AT_decl_line(0x226)
    1538                            .dwattr $C$DW$99, DW_AT_decl_column(0x06)
    1539                            .dwattr $C$DW$99, DW_AT_TI_max_frame_size(0x08)
    1540                            .dwpsn  file "../hcg/source/HL_rti.c",line 551,column 1,is_stmt,address dwdClearFlag,isa 2
TI ARM Assembler PC v16.9.0 Sun Feb 19 22:29:40 2017

Tools Copyright (c) 1996-2015 Texas Instruments Incorporated
C:\Users\bob\AppData\Local\Temp\0957210                              PAGE   29

    1541                    
    1542                            .dwfde $C$DW$CIE, dwdClearFlag
    1543                    $C$DW$100       .dwtag  DW_TAG_formal_parameter
    1544                            .dwattr $C$DW$100, DW_AT_name("rtiREG")
    1545                            .dwattr $C$DW$100, DW_AT_TI_symbol_name("rtiREG")
    1546                            .dwattr $C$DW$100, DW_AT_type(*$C$DW$T$40)
    1547                            .dwattr $C$DW$100, DW_AT_location[DW_OP_reg0]
    1548                    
    1549                    
    1550                    ;*****************************************************************************
    1551                    ;* FUNCTION NAME: dwdClearFlag                                               *
    1552                    ;*                                                                           *
    1553                    ;*   Regs Modified     : A1,V9,SP                                            *
    1554                    ;*   Regs Used         : A1,V9,SP,LR                                         *
    1555                    ;*   Local Frame Size  : 0 Args + 4 Auto + 0 Save = 4 byte                   *
    1556                    ;*****************************************************************************
    1557 0000043c           dwdClearFlag:
    1558                    ;* --------------------------------------------------------------------------*
    1559                            .dwcfi  cfa_offset, 0
    1560 0000043c E24DD008          SUB       SP, SP, #8            ; [DPU_4_PIPE0] 
    1561                            .dwcfi  cfa_offset, 8
    1562                    $C$DW$101       .dwtag  DW_TAG_variable
    1563                            .dwattr $C$DW$101, DW_AT_name("rtiREG")
    1564                            .dwattr $C$DW$101, DW_AT_TI_symbol_name("rtiREG")
    1565                            .dwattr $C$DW$101, DW_AT_type(*$C$DW$T$40)
    1566                            .dwattr $C$DW$101, DW_AT_location[DW_OP_breg13 0]
    1567                    
    1568 00000440 E58D0000          STR       A1, [SP, #0]          ; [DPU_4_PIPE0] |551| 
    1569                            .dwpsn  file "../hcg/source/HL_rti.c",line 555,column 2,is_stmt,isa 2
    1570 00000444 E59DC000          LDR       V9, [SP, #0]          ; [DPU_4_PIPE0] |555| 
    1571 00000448 E3A000FF          MOV       A1, #255              ; [DPU_4_PIPE0] |555| 
    1572 0000044c E58C0098          STR       A1, [V9, #152]        ; [DPU_4_PIPE0] |555| 
    1573                            .dwpsn  file "../hcg/source/HL_rti.c",line 559,column 1,is_stmt,isa 2
    1574 00000450 E28DD008          ADD       SP, SP, #8            ; [DPU_4_PIPE0] 
    1575                            .dwcfi  cfa_offset, 0
    1576                    $C$DW$102       .dwtag  DW_TAG_TI_branch
    1577                            .dwattr $C$DW$102, DW_AT_low_pc(0x00)
    1578                            .dwattr $C$DW$102, DW_AT_TI_return
    1579                    
    1580 00000454 E12FFF1E          BX        LR                    ; [DPU_4_PIPE1] 
    1581                            ; BRANCH OCCURS                  ; [] 
    1582                            .dwattr $C$DW$99, DW_AT_TI_end_file("../hcg/source/HL_rti.c")
    1583                            .dwattr $C$DW$99, DW_AT_TI_end_line(0x22f)
    1584                            .dwattr $C$DW$99, DW_AT_TI_end_column(0x01)
    1585                            .dwendentry
    1586                            .dwendtag $C$DW$99
    1587                    
    1588 00000458                   .sect   ".text"
    1589                            .clink
    1590                            .armfunc dwdGetViolationStatus
    1591 00000458                   .state32
    1592                            .global dwdGetViolationStatus
    1593                    
    1594                    $C$DW$103       .dwtag  DW_TAG_subprogram
    1595                            .dwattr $C$DW$103, DW_AT_name("dwdGetViolationStatus")
TI ARM Assembler PC v16.9.0 Sun Feb 19 22:29:40 2017

Tools Copyright (c) 1996-2015 Texas Instruments Incorporated
C:\Users\bob\AppData\Local\Temp\0957210                              PAGE   30

    1596                            .dwattr $C$DW$103, DW_AT_low_pc(dwdGetViolationStatus)
    1597                            .dwattr $C$DW$103, DW_AT_high_pc(0x00)
    1598                            .dwattr $C$DW$103, DW_AT_TI_symbol_name("dwdGetViolationStatus")
    1599                            .dwattr $C$DW$103, DW_AT_external
    1600                            .dwattr $C$DW$103, DW_AT_type(*$C$DW$T$106)
    1601                            .dwattr $C$DW$103, DW_AT_TI_begin_file("../hcg/source/HL_rti.c")
    1602                            .dwattr $C$DW$103, DW_AT_TI_begin_line(0x23e)
    1603                            .dwattr $C$DW$103, DW_AT_TI_begin_column(0x10)
    1604                            .dwattr $C$DW$103, DW_AT_decl_file("../hcg/source/HL_rti.c")
    1605                            .dwattr $C$DW$103, DW_AT_decl_line(0x23e)
    1606                            .dwattr $C$DW$103, DW_AT_decl_column(0x10)
    1607                            .dwattr $C$DW$103, DW_AT_TI_max_frame_size(0x08)
    1608                            .dwpsn  file "../hcg/source/HL_rti.c",line 575,column 1,is_stmt,address dwdGetViolationStatus,
    1609                    
    1610                            .dwfde $C$DW$CIE, dwdGetViolationStatus
    1611                    $C$DW$104       .dwtag  DW_TAG_formal_parameter
    1612                            .dwattr $C$DW$104, DW_AT_name("rtiREG")
    1613                            .dwattr $C$DW$104, DW_AT_TI_symbol_name("rtiREG")
    1614                            .dwattr $C$DW$104, DW_AT_type(*$C$DW$T$40)
    1615                            .dwattr $C$DW$104, DW_AT_location[DW_OP_reg0]
    1616                    
    1617                    
    1618                    ;*****************************************************************************
    1619                    ;* FUNCTION NAME: dwdGetViolationStatus                                      *
    1620                    ;*                                                                           *
    1621                    ;*   Regs Modified     : A1,V9,SP,SR                                         *
    1622                    ;*   Regs Used         : A1,V9,SP,LR,SR                                      *
    1623                    ;*   Local Frame Size  : 0 Args + 8 Auto + 0 Save = 8 byte                   *
    1624                    ;*****************************************************************************
    1625 00000458           dwdGetViolationStatus:
    1626                    ;* --------------------------------------------------------------------------*
    1627                            .dwcfi  cfa_offset, 0
    1628 00000458 E24DD008          SUB       SP, SP, #8            ; [DPU_4_PIPE0] 
    1629                            .dwcfi  cfa_offset, 8
    1630                    $C$DW$105       .dwtag  DW_TAG_variable
    1631                            .dwattr $C$DW$105, DW_AT_name("rtiREG")
    1632                            .dwattr $C$DW$105, DW_AT_TI_symbol_name("rtiREG")
    1633                            .dwattr $C$DW$105, DW_AT_type(*$C$DW$T$40)
    1634                            .dwattr $C$DW$105, DW_AT_location[DW_OP_breg13 0]
    1635                    
    1636                    $C$DW$106       .dwtag  DW_TAG_variable
    1637                            .dwattr $C$DW$106, DW_AT_name("Violation_Status")
    1638                            .dwattr $C$DW$106, DW_AT_TI_symbol_name("Violation_Status")
    1639                            .dwattr $C$DW$106, DW_AT_type(*$C$DW$T$106)
    1640                            .dwattr $C$DW$106, DW_AT_location[DW_OP_breg13 4]
    1641                    
    1642 0000045c E58D0000          STR       A1, [SP, #0]          ; [DPU_4_PIPE0] |575| 
    1643                            .dwpsn  file "../hcg/source/HL_rti.c",line 580,column 2,is_stmt,isa 2
    1644 00000460 E59DC000          LDR       V9, [SP, #0]          ; [DPU_4_PIPE0] |580| 
    1645 00000464 E59CC098          LDR       V9, [V9, #152]        ; [DPU_4_PIPE0] |580| 
    1646 00000468 E31C0004          TST       V9, #4                ; [DPU_4_PIPE0] |580| 
    1647 0000046c 0AFFFFFE!         BEQ       ||$C$L8||             ; [DPU_4_PIPE1] |580| 
    1648                            ; BRANCHCC OCCURS {||$C$L8||}    ; [] |580| 
    1649                    ;* --------------------------------------------------------------------------*
    1650                            .dwpsn  file "../hcg/source/HL_rti.c",line 582,column 3,is_stmt,isa 2
TI ARM Assembler PC v16.9.0 Sun Feb 19 22:29:40 2017

Tools Copyright (c) 1996-2015 Texas Instruments Incorporated
C:\Users\bob\AppData\Local\Temp\0957210                              PAGE   31

    1651 00000470 E3A0C004          MOV       V9, #4                ; [DPU_4_PIPE0] |582| 
    1652 00000474 E5CDC004          STRB      V9, [SP, #4]          ; [DPU_4_PIPE0] |582| 
    1653                            .dwpsn  file "../hcg/source/HL_rti.c",line 583,column 2,is_stmt,isa 2
    1654 00000478 EAFFFFFE!         B         ||$C$L12||            ; [DPU_4_PIPE1] |583| 
    1655                            ; BRANCH OCCURS {||$C$L12||}     ; [] |583| 
    1656                    ;* --------------------------------------------------------------------------*
    1657 0000047c           ||$C$L8||:    
    1658                            .dwpsn  file "../hcg/source/HL_rti.c",line 584,column 7,is_stmt,isa 2
    1659 0000047c E59DC000          LDR       V9, [SP, #0]          ; [DPU_4_PIPE0] |584| 
    1660 00000480 E59CC098          LDR       V9, [V9, #152]        ; [DPU_4_PIPE0] |584| 
    1661 00000484 E31C0008          TST       V9, #8                ; [DPU_4_PIPE0] |584| 
    1662 00000488 0AFFFFFE!         BEQ       ||$C$L9||             ; [DPU_4_PIPE1] |584| 
    1663                            ; BRANCHCC OCCURS {||$C$L9||}    ; [] |584| 
    1664                    ;* --------------------------------------------------------------------------*
    1665                            .dwpsn  file "../hcg/source/HL_rti.c",line 586,column 3,is_stmt,isa 2
    1666 0000048c E3A0C003          MOV       V9, #3                ; [DPU_4_PIPE0] |586| 
    1667 00000490 E5CDC004          STRB      V9, [SP, #4]          ; [DPU_4_PIPE0] |586| 
    1668                            .dwpsn  file "../hcg/source/HL_rti.c",line 587,column 2,is_stmt,isa 2
    1669 00000494 EAFFFFFE!         B         ||$C$L12||            ; [DPU_4_PIPE1] |587| 
    1670                            ; BRANCH OCCURS {||$C$L12||}     ; [] |587| 
    1671                    ;* --------------------------------------------------------------------------*
    1672 00000498           ||$C$L9||:    
    1673                            .dwpsn  file "../hcg/source/HL_rti.c",line 588,column 7,is_stmt,isa 2
    1674 00000498 E59DC000          LDR       V9, [SP, #0]          ; [DPU_4_PIPE0] |588| 
    1675 0000049c E59CC098          LDR       V9, [V9, #152]        ; [DPU_4_PIPE0] |588| 
    1676 000004a0 E31C0010          TST       V9, #16               ; [DPU_4_PIPE0] |588| 
    1677 000004a4 0AFFFFFE!         BEQ       ||$C$L10||            ; [DPU_4_PIPE1] |588| 
    1678                            ; BRANCHCC OCCURS {||$C$L10||}   ; [] |588| 
    1679                    ;* --------------------------------------------------------------------------*
    1680                            .dwpsn  file "../hcg/source/HL_rti.c",line 590,column 3,is_stmt,isa 2
    1681 000004a8 E3A0C002          MOV       V9, #2                ; [DPU_4_PIPE0] |590| 
    1682 000004ac E5CDC004          STRB      V9, [SP, #4]          ; [DPU_4_PIPE0] |590| 
    1683                            .dwpsn  file "../hcg/source/HL_rti.c",line 591,column 2,is_stmt,isa 2
    1684 000004b0 EAFFFFFE!         B         ||$C$L12||            ; [DPU_4_PIPE1] |591| 
    1685                            ; BRANCH OCCURS {||$C$L12||}     ; [] |591| 
    1686                    ;* --------------------------------------------------------------------------*
    1687 000004b4           ||$C$L10||:    
    1688                            .dwpsn  file "../hcg/source/HL_rti.c",line 592,column 7,is_stmt,isa 2
    1689 000004b4 E59DC000          LDR       V9, [SP, #0]          ; [DPU_4_PIPE0] |592| 
    1690 000004b8 E59CC098          LDR       V9, [V9, #152]        ; [DPU_4_PIPE0] |592| 
    1691 000004bc E31C0020          TST       V9, #32               ; [DPU_4_PIPE0] |592| 
    1692 000004c0 0AFFFFFE!         BEQ       ||$C$L11||            ; [DPU_4_PIPE1] |592| 
    1693                            ; BRANCHCC OCCURS {||$C$L11||}   ; [] |592| 
    1694                    ;* --------------------------------------------------------------------------*
    1695                            .dwpsn  file "../hcg/source/HL_rti.c",line 594,column 3,is_stmt,isa 2
    1696 000004c4 E3A0C001          MOV       V9, #1                ; [DPU_4_PIPE0] |594| 
    1697 000004c8 E5CDC004          STRB      V9, [SP, #4]          ; [DPU_4_PIPE0] |594| 
    1698                            .dwpsn  file "../hcg/source/HL_rti.c",line 595,column 2,is_stmt,isa 2
    1699 000004cc EAFFFFFE!         B         ||$C$L12||            ; [DPU_4_PIPE1] |595| 
    1700                            ; BRANCH OCCURS {||$C$L12||}     ; [] |595| 
    1701                    ;* --------------------------------------------------------------------------*
    1702 000004d0           ||$C$L11||:    
    1703                            .dwpsn  file "../hcg/source/HL_rti.c",line 598,column 3,is_stmt,isa 2
    1704 000004d0 E3A0C000          MOV       V9, #0                ; [DPU_4_PIPE0] |598| 
    1705 000004d4 E5CDC004          STRB      V9, [SP, #4]          ; [DPU_4_PIPE0] |598| 
TI ARM Assembler PC v16.9.0 Sun Feb 19 22:29:40 2017

Tools Copyright (c) 1996-2015 Texas Instruments Incorporated
C:\Users\bob\AppData\Local\Temp\0957210                              PAGE   32

    1706                    ;* --------------------------------------------------------------------------*
    1707 000004d8           ||$C$L12||:    
    1708                            .dwpsn  file "../hcg/source/HL_rti.c",line 604,column 2,is_stmt,isa 2
    1709 000004d8 E5DD0004          LDRB      A1, [SP, #4]          ; [DPU_4_PIPE0] |604| 
    1710                            .dwpsn  file "../hcg/source/HL_rti.c",line 605,column 1,is_stmt,isa 2
    1711 000004dc E28DD008          ADD       SP, SP, #8            ; [DPU_4_PIPE0] 
    1712                            .dwcfi  cfa_offset, 0
    1713                    $C$DW$107       .dwtag  DW_TAG_TI_branch
    1714                            .dwattr $C$DW$107, DW_AT_low_pc(0x00)
    1715                            .dwattr $C$DW$107, DW_AT_TI_return
    1716                    
    1717 000004e0 E12FFF1E          BX        LR                    ; [DPU_4_PIPE1] 
    1718                            ; BRANCH OCCURS                  ; [] 
    1719                            .dwattr $C$DW$103, DW_AT_TI_end_file("../hcg/source/HL_rti.c")
    1720                            .dwattr $C$DW$103, DW_AT_TI_end_line(0x25d)
    1721                            .dwattr $C$DW$103, DW_AT_TI_end_column(0x01)
    1722                            .dwendentry
    1723                            .dwendtag $C$DW$103
    1724                    
    1725 000004e4                   .sect   ".text"
    1726                            .clink
    1727                            .armfunc rtiEnableNotification
    1728 000004e4                   .state32
    1729                            .global rtiEnableNotification
    1730                    
    1731                    $C$DW$108       .dwtag  DW_TAG_subprogram
    1732                            .dwattr $C$DW$108, DW_AT_name("rtiEnableNotification")
    1733                            .dwattr $C$DW$108, DW_AT_low_pc(rtiEnableNotification)
    1734                            .dwattr $C$DW$108, DW_AT_high_pc(0x00)
    1735                            .dwattr $C$DW$108, DW_AT_TI_symbol_name("rtiEnableNotification")
    1736                            .dwattr $C$DW$108, DW_AT_external
    1737                            .dwattr $C$DW$108, DW_AT_TI_begin_file("../hcg/source/HL_rti.c")
    1738                            .dwattr $C$DW$108, DW_AT_TI_begin_line(0x26f)
    1739                            .dwattr $C$DW$108, DW_AT_TI_begin_column(0x06)
    1740                            .dwattr $C$DW$108, DW_AT_decl_file("../hcg/source/HL_rti.c")
    1741                            .dwattr $C$DW$108, DW_AT_decl_line(0x26f)
    1742                            .dwattr $C$DW$108, DW_AT_decl_column(0x06)
    1743                            .dwattr $C$DW$108, DW_AT_TI_max_frame_size(0x08)
    1744                            .dwpsn  file "../hcg/source/HL_rti.c",line 624,column 1,is_stmt,address rtiEnableNotification,
    1745                    
    1746                            .dwfde $C$DW$CIE, rtiEnableNotification
    1747                    $C$DW$109       .dwtag  DW_TAG_formal_parameter
    1748                            .dwattr $C$DW$109, DW_AT_name("rtiREG")
    1749                            .dwattr $C$DW$109, DW_AT_TI_symbol_name("rtiREG")
    1750                            .dwattr $C$DW$109, DW_AT_type(*$C$DW$T$40)
    1751                            .dwattr $C$DW$109, DW_AT_location[DW_OP_reg0]
    1752                    
    1753                    $C$DW$110       .dwtag  DW_TAG_formal_parameter
    1754                            .dwattr $C$DW$110, DW_AT_name("notification")
    1755                            .dwattr $C$DW$110, DW_AT_TI_symbol_name("notification")
    1756                            .dwattr $C$DW$110, DW_AT_type(*$C$DW$T$20)
    1757                            .dwattr $C$DW$110, DW_AT_location[DW_OP_reg1]
    1758                    
    1759                    
    1760                    ;*****************************************************************************
TI ARM Assembler PC v16.9.0 Sun Feb 19 22:29:40 2017

Tools Copyright (c) 1996-2015 Texas Instruments Incorporated
C:\Users\bob\AppData\Local\Temp\0957210                              PAGE   33

    1761                    ;* FUNCTION NAME: rtiEnableNotification                                      *
    1762                    ;*                                                                           *
    1763                    ;*   Regs Modified     : A1,V9,SP                                            *
    1764                    ;*   Regs Used         : A1,A2,V9,SP,LR                                      *
    1765                    ;*   Local Frame Size  : 0 Args + 8 Auto + 0 Save = 8 byte                   *
    1766                    ;*****************************************************************************
    1767 000004e4           rtiEnableNotification:
    1768                    ;* --------------------------------------------------------------------------*
    1769                            .dwcfi  cfa_offset, 0
    1770 000004e4 E24DD008          SUB       SP, SP, #8            ; [DPU_4_PIPE0] 
    1771                            .dwcfi  cfa_offset, 8
    1772                    $C$DW$111       .dwtag  DW_TAG_variable
    1773                            .dwattr $C$DW$111, DW_AT_name("rtiREG")
    1774                            .dwattr $C$DW$111, DW_AT_TI_symbol_name("rtiREG")
    1775                            .dwattr $C$DW$111, DW_AT_type(*$C$DW$T$40)
    1776                            .dwattr $C$DW$111, DW_AT_location[DW_OP_breg13 0]
    1777                    
    1778                    $C$DW$112       .dwtag  DW_TAG_variable
    1779                            .dwattr $C$DW$112, DW_AT_name("notification")
    1780                            .dwattr $C$DW$112, DW_AT_TI_symbol_name("notification")
    1781                            .dwattr $C$DW$112, DW_AT_type(*$C$DW$T$20)
    1782                            .dwattr $C$DW$112, DW_AT_location[DW_OP_breg13 4]
    1783                    
    1784 000004e8 E58D1004          STR       A2, [SP, #4]          ; [DPU_4_PIPE0] |624| 
    1785 000004ec E58D0000          STR       A1, [SP, #0]          ; [DPU_4_PIPE0] |624| 
    1786                            .dwpsn  file "../hcg/source/HL_rti.c",line 628,column 5,is_stmt,isa 2
    1787 000004f0 E59D0000          LDR       A1, [SP, #0]          ; [DPU_4_PIPE0] |628| 
    1788 000004f4 E59DC004          LDR       V9, [SP, #4]          ; [DPU_4_PIPE0] |628| 
    1789 000004f8 E580C088          STR       V9, [A1, #136]        ; [DPU_4_PIPE0] |628| 
    1790                            .dwpsn  file "../hcg/source/HL_rti.c",line 629,column 5,is_stmt,isa 2
    1791 000004fc E59D0000          LDR       A1, [SP, #0]          ; [DPU_4_PIPE0] |629| 
    1792 00000500 E59DC004          LDR       V9, [SP, #4]          ; [DPU_4_PIPE0] |629| 
    1793 00000504 E580C080          STR       V9, [A1, #128]        ; [DPU_4_PIPE0] |629| 
    1794                            .dwpsn  file "../hcg/source/HL_rti.c",line 637,column 1,is_stmt,isa 2
    1795 00000508 E28DD008          ADD       SP, SP, #8            ; [DPU_4_PIPE0] 
    1796                            .dwcfi  cfa_offset, 0
    1797                    $C$DW$113       .dwtag  DW_TAG_TI_branch
    1798                            .dwattr $C$DW$113, DW_AT_low_pc(0x00)
    1799                            .dwattr $C$DW$113, DW_AT_TI_return
    1800                    
    1801 0000050c E12FFF1E          BX        LR                    ; [DPU_4_PIPE1] 
    1802                            ; BRANCH OCCURS                  ; [] 
    1803                            .dwattr $C$DW$108, DW_AT_TI_end_file("../hcg/source/HL_rti.c")
    1804                            .dwattr $C$DW$108, DW_AT_TI_end_line(0x27d)
    1805                            .dwattr $C$DW$108, DW_AT_TI_end_column(0x01)
    1806                            .dwendentry
    1807                            .dwendtag $C$DW$108
    1808                    
    1809 00000510                   .sect   ".text"
    1810                            .clink
    1811                            .armfunc rtiDisableNotification
    1812 00000510                   .state32
    1813                            .global rtiDisableNotification
    1814                    
    1815                    $C$DW$114       .dwtag  DW_TAG_subprogram
TI ARM Assembler PC v16.9.0 Sun Feb 19 22:29:40 2017

Tools Copyright (c) 1996-2015 Texas Instruments Incorporated
C:\Users\bob\AppData\Local\Temp\0957210                              PAGE   34

    1816                            .dwattr $C$DW$114, DW_AT_name("rtiDisableNotification")
    1817                            .dwattr $C$DW$114, DW_AT_low_pc(rtiDisableNotification)
    1818                            .dwattr $C$DW$114, DW_AT_high_pc(0x00)
    1819                            .dwattr $C$DW$114, DW_AT_TI_symbol_name("rtiDisableNotification")
    1820                            .dwattr $C$DW$114, DW_AT_external
    1821                            .dwattr $C$DW$114, DW_AT_TI_begin_file("../hcg/source/HL_rti.c")
    1822                            .dwattr $C$DW$114, DW_AT_TI_begin_line(0x28f)
    1823                            .dwattr $C$DW$114, DW_AT_TI_begin_column(0x06)
    1824                            .dwattr $C$DW$114, DW_AT_decl_file("../hcg/source/HL_rti.c")
    1825                            .dwattr $C$DW$114, DW_AT_decl_line(0x28f)
    1826                            .dwattr $C$DW$114, DW_AT_decl_column(0x06)
    1827                            .dwattr $C$DW$114, DW_AT_TI_max_frame_size(0x08)
    1828                            .dwpsn  file "../hcg/source/HL_rti.c",line 656,column 1,is_stmt,address rtiDisableNotification
    1829                    
    1830                            .dwfde $C$DW$CIE, rtiDisableNotification
    1831                    $C$DW$115       .dwtag  DW_TAG_formal_parameter
    1832                            .dwattr $C$DW$115, DW_AT_name("rtiREG")
    1833                            .dwattr $C$DW$115, DW_AT_TI_symbol_name("rtiREG")
    1834                            .dwattr $C$DW$115, DW_AT_type(*$C$DW$T$40)
    1835                            .dwattr $C$DW$115, DW_AT_location[DW_OP_reg0]
    1836                    
    1837                    $C$DW$116       .dwtag  DW_TAG_formal_parameter
    1838                            .dwattr $C$DW$116, DW_AT_name("notification")
    1839                            .dwattr $C$DW$116, DW_AT_TI_symbol_name("notification")
    1840                            .dwattr $C$DW$116, DW_AT_type(*$C$DW$T$20)
    1841                            .dwattr $C$DW$116, DW_AT_location[DW_OP_reg1]
    1842                    
    1843                    
    1844                    ;*****************************************************************************
    1845                    ;* FUNCTION NAME: rtiDisableNotification                                     *
    1846                    ;*                                                                           *
    1847                    ;*   Regs Modified     : A1,V9,SP                                            *
    1848                    ;*   Regs Used         : A1,A2,V9,SP,LR                                      *
    1849                    ;*   Local Frame Size  : 0 Args + 8 Auto + 0 Save = 8 byte                   *
    1850                    ;*****************************************************************************
    1851 00000510           rtiDisableNotification:
    1852                    ;* --------------------------------------------------------------------------*
    1853                            .dwcfi  cfa_offset, 0
    1854 00000510 E24DD008          SUB       SP, SP, #8            ; [DPU_4_PIPE0] 
    1855                            .dwcfi  cfa_offset, 8
    1856                    $C$DW$117       .dwtag  DW_TAG_variable
    1857                            .dwattr $C$DW$117, DW_AT_name("rtiREG")
    1858                            .dwattr $C$DW$117, DW_AT_TI_symbol_name("rtiREG")
    1859                            .dwattr $C$DW$117, DW_AT_type(*$C$DW$T$40)
    1860                            .dwattr $C$DW$117, DW_AT_location[DW_OP_breg13 0]
    1861                    
    1862                    $C$DW$118       .dwtag  DW_TAG_variable
    1863                            .dwattr $C$DW$118, DW_AT_name("notification")
    1864                            .dwattr $C$DW$118, DW_AT_TI_symbol_name("notification")
    1865                            .dwattr $C$DW$118, DW_AT_type(*$C$DW$T$20)
    1866                            .dwattr $C$DW$118, DW_AT_location[DW_OP_breg13 4]
    1867                    
    1868 00000514 E58D1004          STR       A2, [SP, #4]          ; [DPU_4_PIPE0] |656| 
    1869 00000518 E58D0000          STR       A1, [SP, #0]          ; [DPU_4_PIPE0] |656| 
    1870                            .dwpsn  file "../hcg/source/HL_rti.c",line 660,column 5,is_stmt,isa 2
TI ARM Assembler PC v16.9.0 Sun Feb 19 22:29:40 2017

Tools Copyright (c) 1996-2015 Texas Instruments Incorporated
C:\Users\bob\AppData\Local\Temp\0957210                              PAGE   35

    1871 0000051c E59D0000          LDR       A1, [SP, #0]          ; [DPU_4_PIPE0] |660| 
    1872 00000520 E59DC004          LDR       V9, [SP, #4]          ; [DPU_4_PIPE0] |660| 
    1873 00000524 E580C084          STR       V9, [A1, #132]        ; [DPU_4_PIPE0] |660| 
    1874                            .dwpsn  file "../hcg/source/HL_rti.c",line 668,column 1,is_stmt,isa 2
    1875 00000528 E28DD008          ADD       SP, SP, #8            ; [DPU_4_PIPE0] 
    1876                            .dwcfi  cfa_offset, 0
    1877                    $C$DW$119       .dwtag  DW_TAG_TI_branch
    1878                            .dwattr $C$DW$119, DW_AT_low_pc(0x00)
    1879                            .dwattr $C$DW$119, DW_AT_TI_return
    1880                    
    1881 0000052c E12FFF1E          BX        LR                    ; [DPU_4_PIPE1] 
    1882                            ; BRANCH OCCURS                  ; [] 
    1883                            .dwattr $C$DW$114, DW_AT_TI_end_file("../hcg/source/HL_rti.c")
    1884                            .dwattr $C$DW$114, DW_AT_TI_end_line(0x29c)
    1885                            .dwattr $C$DW$114, DW_AT_TI_end_column(0x01)
    1886                            .dwendentry
    1887                            .dwendtag $C$DW$114
    1888                    
    1889 00000530                   .sect   ".text"
    1890                            .clink
    1891                            .armfunc rtiGetConfigValue
    1892 00000530                   .state32
    1893                            .global rtiGetConfigValue
    1894                    
    1895                    $C$DW$120       .dwtag  DW_TAG_subprogram
    1896                            .dwattr $C$DW$120, DW_AT_name("rtiGetConfigValue")
    1897                            .dwattr $C$DW$120, DW_AT_low_pc(rtiGetConfigValue)
    1898                            .dwattr $C$DW$120, DW_AT_high_pc(0x00)
    1899                            .dwattr $C$DW$120, DW_AT_TI_symbol_name("rtiGetConfigValue")
    1900                            .dwattr $C$DW$120, DW_AT_external
    1901                            .dwattr $C$DW$120, DW_AT_TI_begin_file("../hcg/source/HL_rti.c")
    1902                            .dwattr $C$DW$120, DW_AT_TI_begin_line(0x2aa)
    1903                            .dwattr $C$DW$120, DW_AT_TI_begin_column(0x06)
    1904                            .dwattr $C$DW$120, DW_AT_decl_file("../hcg/source/HL_rti.c")
    1905                            .dwattr $C$DW$120, DW_AT_decl_line(0x2aa)
    1906                            .dwattr $C$DW$120, DW_AT_decl_column(0x06)
    1907                            .dwattr $C$DW$120, DW_AT_TI_max_frame_size(0x08)
    1908                            .dwpsn  file "../hcg/source/HL_rti.c",line 683,column 1,is_stmt,address rtiGetConfigValue,isa 
    1909                    
    1910                            .dwfde $C$DW$CIE, rtiGetConfigValue
    1911                    $C$DW$121       .dwtag  DW_TAG_formal_parameter
    1912                            .dwattr $C$DW$121, DW_AT_name("config_reg")
    1913                            .dwattr $C$DW$121, DW_AT_TI_symbol_name("config_reg")
    1914                            .dwattr $C$DW$121, DW_AT_type(*$C$DW$T$57)
    1915                            .dwattr $C$DW$121, DW_AT_location[DW_OP_reg0]
    1916                    
    1917                    $C$DW$122       .dwtag  DW_TAG_formal_parameter
    1918                            .dwattr $C$DW$122, DW_AT_name("type")
    1919                            .dwattr $C$DW$122, DW_AT_TI_symbol_name("type")
    1920                            .dwattr $C$DW$122, DW_AT_type(*$C$DW$T$59)
    1921                            .dwattr $C$DW$122, DW_AT_location[DW_OP_reg1]
    1922                    
    1923                    
    1924                    ;*****************************************************************************
    1925                    ;* FUNCTION NAME: rtiGetConfigValue                                          *
TI ARM Assembler PC v16.9.0 Sun Feb 19 22:29:40 2017

Tools Copyright (c) 1996-2015 Texas Instruments Incorporated
C:\Users\bob\AppData\Local\Temp\0957210                              PAGE   36

    1926                    ;*                                                                           *
    1927                    ;*   Regs Modified     : A1,V9,SP,SR                                         *
    1928                    ;*   Regs Used         : A1,A2,V9,SP,LR,SR                                   *
    1929                    ;*   Local Frame Size  : 0 Args + 8 Auto + 0 Save = 8 byte                   *
    1930                    ;*****************************************************************************
    1931 00000530           rtiGetConfigValue:
    1932                    ;* --------------------------------------------------------------------------*
    1933                            .dwcfi  cfa_offset, 0
    1934 00000530 E24DD008          SUB       SP, SP, #8            ; [DPU_4_PIPE0] 
    1935                            .dwcfi  cfa_offset, 8
    1936                    $C$DW$123       .dwtag  DW_TAG_variable
    1937                            .dwattr $C$DW$123, DW_AT_name("config_reg")
    1938                            .dwattr $C$DW$123, DW_AT_TI_symbol_name("config_reg")
    1939                            .dwattr $C$DW$123, DW_AT_type(*$C$DW$T$57)
    1940                            .dwattr $C$DW$123, DW_AT_location[DW_OP_breg13 0]
    1941                    
    1942                    $C$DW$124       .dwtag  DW_TAG_variable
    1943                            .dwattr $C$DW$124, DW_AT_name("type")
    1944                            .dwattr $C$DW$124, DW_AT_TI_symbol_name("type")
    1945                            .dwattr $C$DW$124, DW_AT_type(*$C$DW$T$59)
    1946                            .dwattr $C$DW$124, DW_AT_location[DW_OP_breg13 4]
    1947                    
    1948 00000534 E5CD1004          STRB      A2, [SP, #4]          ; [DPU_4_PIPE0] |683| 
    1949 00000538 E58D0000          STR       A1, [SP, #0]          ; [DPU_4_PIPE0] |683| 
    1950                            .dwpsn  file "../hcg/source/HL_rti.c",line 684,column 2,is_stmt,isa 2
    1951 0000053c E5DDC004          LDRB      V9, [SP, #4]          ; [DPU_4_PIPE0] |684| 
    1952 00000540 E35C0000          CMP       V9, #0                ; [DPU_4_PIPE0] |684| 
    1953 00000544 1AFFFFFE!         BNE       ||$C$L13||            ; [DPU_4_PIPE1] |684| 
    1954                            ; BRANCHCC OCCURS {||$C$L13||}   ; [] |684| 
    1955                    ;* --------------------------------------------------------------------------*
    1956                            .dwpsn  file "../hcg/source/HL_rti.c",line 686,column 3,is_stmt,isa 2
    1957 00000548 E59DC000          LDR       V9, [SP, #0]          ; [DPU_4_PIPE0] |686| 
    1958 0000054c E3A0080A          MOV       A1, #655360           ; [DPU_4_PIPE0] |686| 
    1959 00000550 E58C0000          STR       A1, [V9, #0]          ; [DPU_4_PIPE0] |686| 
    1960                            .dwpsn  file "../hcg/source/HL_rti.c",line 687,column 3,is_stmt,isa 2
    1961 00000554 E59DC000          LDR       V9, [SP, #0]          ; [DPU_4_PIPE0] |687| 
    1962 00000558 E3A00000          MOV       A1, #0                ; [DPU_4_PIPE0] |687| 
    1963 0000055c E58C0004          STR       A1, [V9, #4]          ; [DPU_4_PIPE0] |687| 
    1964                            .dwpsn  file "../hcg/source/HL_rti.c",line 688,column 3,is_stmt,isa 2
    1965 00000560 E59DC000          LDR       V9, [SP, #0]          ; [DPU_4_PIPE0] |688| 
    1966 00000564 E3A00000          MOV       A1, #0                ; [DPU_4_PIPE0] |688| 
    1967 00000568 E58C0008          STR       A1, [V9, #8]          ; [DPU_4_PIPE0] |688| 
    1968                            .dwpsn  file "../hcg/source/HL_rti.c",line 689,column 3,is_stmt,isa 2
    1969 0000056c E59DC000          LDR       V9, [SP, #0]          ; [DPU_4_PIPE0] |689| 
    1970 00000570 E3A00C11          MOV       A1, #4352             ; [DPU_4_PIPE0] |689| 
    1971 00000574 E58C000C          STR       A1, [V9, #12]         ; [DPU_4_PIPE0] |689| 
    1972                            .dwpsn  file "../hcg/source/HL_rti.c",line 690,column 3,is_stmt,isa 2
    1973 00000578 E59DC000          LDR       V9, [SP, #0]          ; [DPU_4_PIPE0] |690| 
    1974 0000057c E302082E          MOV       A1, #10286            ; [DPU_4_PIPE0] |690| 
    1975 00000580 E58C0010          STR       A1, [V9, #16]         ; [DPU_4_PIPE0] |690| 
    1976                            .dwpsn  file "../hcg/source/HL_rti.c",line 691,column 3,is_stmt,isa 2
    1977 00000584 E59DC000          LDR       V9, [SP, #0]          ; [DPU_4_PIPE0] |691| 
    1978 00000588 E30C08E4          MOV       A1, #51428            ; [DPU_4_PIPE0] |691| 
    1979 0000058c E58C0014          STR       A1, [V9, #20]         ; [DPU_4_PIPE0] |691| 
    1980                            .dwpsn  file "../hcg/source/HL_rti.c",line 692,column 3,is_stmt,isa 2
TI ARM Assembler PC v16.9.0 Sun Feb 19 22:29:40 2017

Tools Copyright (c) 1996-2015 Texas Instruments Incorporated
C:\Users\bob\AppData\Local\Temp\0957210                              PAGE   37

    1981 00000590 E59DC000          LDR       V9, [SP, #0]          ; [DPU_4_PIPE0] |692| 
    1982 00000594 E59F00D4          LDR       A1, $C$CON16          ; [DPU_4_PIPE0] |692| 
    1983 00000598 E58C0018          STR       A1, [V9, #24]         ; [DPU_4_PIPE0] |692| 
    1984                            .dwpsn  file "../hcg/source/HL_rti.c",line 693,column 3,is_stmt,isa 2
    1985 0000059c E59DC000          LDR       V9, [SP, #0]          ; [DPU_4_PIPE0] |693| 
    1986 000005a0 E59F00D4          LDR       A1, $C$CON19          ; [DPU_4_PIPE0] |693| 
    1987 000005a4 E58C001C          STR       A1, [V9, #28]         ; [DPU_4_PIPE0] |693| 
    1988                            .dwpsn  file "../hcg/source/HL_rti.c",line 694,column 2,is_stmt,isa 2
    1989 000005a8 EAFFFFFE!         B         ||$C$L14||            ; [DPU_4_PIPE1] |694| 
    1990                            ; BRANCH OCCURS {||$C$L14||}     ; [] |694| 
    1991                    ;* --------------------------------------------------------------------------*
    1992 000005ac           ||$C$L13||:    
    1993                            .dwpsn  file "../hcg/source/HL_rti.c",line 698,column 3,is_stmt,isa 2
    1994 000005ac E59FC080          LDR       V9, $C$CON1           ; [DPU_4_PIPE0] |698| 
    1995 000005b0 E59D0000          LDR       A1, [SP, #0]          ; [DPU_4_PIPE0] |698| 
    1996 000005b4 E59CC000          LDR       V9, [V9, #0]          ; [DPU_4_PIPE0] |698| 
    1997 000005b8 E580C000          STR       V9, [A1, #0]          ; [DPU_4_PIPE0] |698| 
    1998                            .dwpsn  file "../hcg/source/HL_rti.c",line 699,column 3,is_stmt,isa 2
    1999 000005bc E59FC074          LDR       V9, $C$CON2           ; [DPU_4_PIPE0] |699| 
    2000 000005c0 E59D0000          LDR       A1, [SP, #0]          ; [DPU_4_PIPE0] |699| 
    2001 000005c4 E59CC000          LDR       V9, [V9, #0]          ; [DPU_4_PIPE0] |699| 
    2002 000005c8 E580C004          STR       V9, [A1, #4]          ; [DPU_4_PIPE0] |699| 
    2003                            .dwpsn  file "../hcg/source/HL_rti.c",line 700,column 3,is_stmt,isa 2
    2004 000005cc E59FC068          LDR       V9, $C$CON3           ; [DPU_4_PIPE0] |700| 
    2005 000005d0 E59D0000          LDR       A1, [SP, #0]          ; [DPU_4_PIPE0] |700| 
    2006 000005d4 E59CC000          LDR       V9, [V9, #0]          ; [DPU_4_PIPE0] |700| 
    2007 000005d8 E580C008          STR       V9, [A1, #8]          ; [DPU_4_PIPE0] |700| 
    2008                            .dwpsn  file "../hcg/source/HL_rti.c",line 701,column 3,is_stmt,isa 2
    2009 000005dc E59FC05C          LDR       V9, $C$CON4           ; [DPU_4_PIPE0] |701| 
    2010 000005e0 E59D0000          LDR       A1, [SP, #0]          ; [DPU_4_PIPE0] |701| 
    2011 000005e4 E59CC000          LDR       V9, [V9, #0]          ; [DPU_4_PIPE0] |701| 
    2012 000005e8 E580C00C          STR       V9, [A1, #12]         ; [DPU_4_PIPE0] |701| 
    2013                            .dwpsn  file "../hcg/source/HL_rti.c",line 702,column 3,is_stmt,isa 2
    2014 000005ec E59FC06C          LDR       V9, $C$CON12          ; [DPU_4_PIPE0] |702| 
    2015 000005f0 E59D0000          LDR       A1, [SP, #0]          ; [DPU_4_PIPE0] |702| 
    2016 000005f4 E59CC000          LDR       V9, [V9, #0]          ; [DPU_4_PIPE0] |702| 
    2017 000005f8 E580C010          STR       V9, [A1, #16]         ; [DPU_4_PIPE0] |702| 
    2018                            .dwpsn  file "../hcg/source/HL_rti.c",line 703,column 3,is_stmt,isa 2
    2019 000005fc E59FC064          LDR       V9, $C$CON14          ; [DPU_4_PIPE0] |703| 
    2020 00000600 E59D0000          LDR       A1, [SP, #0]          ; [DPU_4_PIPE0] |703| 
    2021 00000604 E59CC000          LDR       V9, [V9, #0]          ; [DPU_4_PIPE0] |703| 
    2022 00000608 E580C014          STR       V9, [A1, #20]         ; [DPU_4_PIPE0] |703| 
    2023                            .dwpsn  file "../hcg/source/HL_rti.c",line 704,column 3,is_stmt,isa 2
    2024 0000060c E59FC060          LDR       V9, $C$CON17          ; [DPU_4_PIPE0] |704| 
    2025 00000610 E59D0000          LDR       A1, [SP, #0]          ; [DPU_4_PIPE0] |704| 
    2026 00000614 E59CC000          LDR       V9, [V9, #0]          ; [DPU_4_PIPE0] |704| 
    2027 00000618 E580C018          STR       V9, [A1, #24]         ; [DPU_4_PIPE0] |704| 
    2028                            .dwpsn  file "../hcg/source/HL_rti.c",line 705,column 3,is_stmt,isa 2
    2029 0000061c E59FC05C          LDR       V9, $C$CON20          ; [DPU_4_PIPE0] |705| 
    2030 00000620 E59D0000          LDR       A1, [SP, #0]          ; [DPU_4_PIPE0] |705| 
    2031 00000624 E59CC000          LDR       V9, [V9, #0]          ; [DPU_4_PIPE0] |705| 
    2032 00000628 E580C01C          STR       V9, [A1, #28]         ; [DPU_4_PIPE0] |705| 
    2033                            .dwpsn  file "../hcg/source/HL_rti.c",line 707,column 1,is_stmt,isa 2
    2034                    ;* --------------------------------------------------------------------------*
    2035 0000062c           ||$C$L14||:    
TI ARM Assembler PC v16.9.0 Sun Feb 19 22:29:40 2017

Tools Copyright (c) 1996-2015 Texas Instruments Incorporated
C:\Users\bob\AppData\Local\Temp\0957210                              PAGE   38

    2036 0000062c E28DD008          ADD       SP, SP, #8            ; [DPU_4_PIPE0] 
    2037                            .dwcfi  cfa_offset, 0
    2038                    $C$DW$125       .dwtag  DW_TAG_TI_branch
    2039                            .dwattr $C$DW$125, DW_AT_low_pc(0x00)
    2040                            .dwattr $C$DW$125, DW_AT_TI_return
    2041                    
    2042 00000630 E12FFF1E          BX        LR                    ; [DPU_4_PIPE1] 
    2043                            ; BRANCH OCCURS                  ; [] 
    2044                            .dwattr $C$DW$120, DW_AT_TI_end_file("../hcg/source/HL_rti.c")
    2045                            .dwattr $C$DW$120, DW_AT_TI_end_line(0x2c3)
    2046                            .dwattr $C$DW$120, DW_AT_TI_end_column(0x01)
    2047                            .dwendentry
    2048                            .dwendtag $C$DW$120
    2049                    
    2050 00000000                   .sect   ".text:retain"
    2051                            .retain
    2052                            .retainrefs
    2053                            .armfunc rtiCompare0Interrupt
    2054 00000000                   .state32
    2055                            .global rtiCompare0Interrupt
    2056                    
    2057                    $C$DW$126       .dwtag  DW_TAG_subprogram
    2058                            .dwattr $C$DW$126, DW_AT_name("rtiCompare0Interrupt")
    2059                            .dwattr $C$DW$126, DW_AT_low_pc(rtiCompare0Interrupt)
    2060                            .dwattr $C$DW$126, DW_AT_high_pc(0x00)
    2061                            .dwattr $C$DW$126, DW_AT_TI_symbol_name("rtiCompare0Interrupt")
    2062                            .dwattr $C$DW$126, DW_AT_external
    2063                            .dwattr $C$DW$126, DW_AT_TI_begin_file("../hcg/source/HL_rti.c")
    2064                            .dwattr $C$DW$126, DW_AT_TI_begin_line(0x2c7)
    2065                            .dwattr $C$DW$126, DW_AT_TI_begin_column(0x06)
    2066                            .dwattr $C$DW$126, DW_AT_decl_file("../hcg/source/HL_rti.c")
    2067                            .dwattr $C$DW$126, DW_AT_decl_line(0x2c7)
    2068                            .dwattr $C$DW$126, DW_AT_decl_column(0x06)
    2069                            .dwattr $C$DW$126, DW_AT_TI_interrupt
    2070                            .dwattr $C$DW$126, DW_AT_TI_max_frame_size(0x60)
    2071                            .dwpsn  file "../hcg/source/HL_rti.c",line 712,column 1,is_stmt,address rtiCompare0Interrupt,i
    2072                    
    2073                            .dwfde $C$DW$CIE, rtiCompare0Interrupt
    2074                    
    2075                    ;*****************************************************************************
    2076                    ;* FUNCTION NAME: rtiCompare0Interrupt                                       *
    2077                    ;*                                                                           *
    2078                    ;*   Regs Modified     : A1,A2,A3,A4,V9,SP,LR,SR,D0,D0_hi,D1,D1_hi,D2,D2_hi, *
    2079                    ;*                           D3,D3_hi,D4,D4_hi,D5,D5_hi,D6,D6_hi,D7,D7_hi,   *
    2080                    ;*                           FPEXC,FPSCR                                     *
    2081                    ;*   Regs Used         : A1,A2,A3,A4,V9,SP,LR,SR,D0,D0_hi,D1,D1_hi,D2,D2_hi, *
    2082                    ;*                           D3,D3_hi,D4,D4_hi,D5,D5_hi,D6,D6_hi,D7,D7_hi,   *
    2083                    ;*                           FPEXC,FPSCR                                     *
    2084                    ;*   Local Frame Size  : 0 Args + 0 Auto + 96 Save = 96 byte                 *
    2085                    ;*****************************************************************************
    2086 00000000           rtiCompare0Interrupt:
    2087                    ;* --------------------------------------------------------------------------*
    2088                            .dwcfi  cfa_offset, 0
    2089 00000000 E92D500F          STMFD     SP!, {A1, A2, A3, A4, V9, LR} ; [DPU_4_PIPE0] 
    2090                            .dwcfi  cfa_offset, 24
TI ARM Assembler PC v16.9.0 Sun Feb 19 22:29:40 2017

Tools Copyright (c) 1996-2015 Texas Instruments Incorporated
C:\Users\bob\AppData\Local\Temp\0957210                              PAGE   39

    2091                            .dwcfi  save_reg_to_mem, 14, -4
    2092                            .dwcfi  save_reg_to_mem, 12, -8
    2093                            .dwcfi  save_reg_to_mem, 3, -12
    2094                            .dwcfi  save_reg_to_mem, 2, -16
    2095                            .dwcfi  save_reg_to_mem, 1, -20
    2096                            .dwcfi  save_reg_to_mem, 0, -24
    2097 00000004 EEF8CA10          VMRS      V9,FPEXC              ; [DPU_4_PIPE0] 
    2098 00000008 E92D1000          STMFD     SP!, {V9}             ; [DPU_4_PIPE0] 
    2099                            .dwcfi  cfa_offset, 28
    2100 0000000c EEF1CA10          VMRS      V9,FPSCR              ; [DPU_4_PIPE0] 
    2101 00000010 E92D1000          STMFD     SP!, {V9}             ; [DPU_4_PIPE0] 
    2102                            .dwcfi  cfa_offset, 32
    2103 00000014 ED2D0B10          VSTMDB    SP!, {D0-D7}          ; [DPU_4_PIPE0] 
    2104                            .dwcfi  cfa_offset, 96
    2105                            .dwcfi  save_reg_to_mem, 79, -36
    2106                            .dwcfi  save_reg_to_mem, 78, -40
    2107                            .dwcfi  save_reg_to_mem, 77, -44
    2108                            .dwcfi  save_reg_to_mem, 76, -48
    2109                            .dwcfi  save_reg_to_mem, 75, -52
    2110                            .dwcfi  save_reg_to_mem, 74, -56
    2111                            .dwcfi  save_reg_to_mem, 73, -60
    2112                            .dwcfi  save_reg_to_mem, 72, -64
    2113                            .dwcfi  save_reg_to_mem, 71, -68
    2114                            .dwcfi  save_reg_to_mem, 70, -72
    2115                            .dwcfi  save_reg_to_mem, 69, -76
    2116                            .dwcfi  save_reg_to_mem, 68, -80
    2117                            .dwcfi  save_reg_to_mem, 67, -84
    2118                            .dwcfi  save_reg_to_mem, 66, -88
    2119                            .dwcfi  save_reg_to_mem, 65, -92
    2120                            .dwcfi  save_reg_to_mem, 64, -96
    2121                            .dwpsn  file "../hcg/source/HL_rti.c",line 716,column 5,is_stmt,isa 2
    2122 00000018 E59F0078          LDR       A1, $C$CON26          ; [DPU_4_PIPE0] |716| 
    2123 0000001c E3A0C001          MOV       V9, #1                ; [DPU_4_PIPE0] |716| 
    2124 00000020 E580C000          STR       V9, [A1, #0]          ; [DPU_4_PIPE0] |716| 
    2125                            .dwpsn  file "../hcg/source/HL_rti.c",line 717,column 5,is_stmt,isa 2
    2126 00000024 E59F0070          LDR       A1, $C$CON27          ; [DPU_4_PIPE0] |717| 
    2127 00000028 E3A01001          MOV       A2, #1                ; [DPU_4_PIPE0] |717| 
    2128                    $C$DW$127       .dwtag  DW_TAG_TI_branch
    2129                            .dwattr $C$DW$127, DW_AT_low_pc(0x00)
    2130                            .dwattr $C$DW$127, DW_AT_name("rtiNotification")
    2131                            .dwattr $C$DW$127, DW_AT_TI_call
    2132                    
    2133 0000002c EBFFFFFE!         BL        rtiNotification       ; [DPU_4_PIPE1] |717| 
    2134                            ; CALL OCCURS {rtiNotification }  ; [] |717| 
    2135                            .dwpsn  file "../hcg/source/HL_rti.c",line 721,column 1,is_stmt,isa 2
    2136 00000030 ECBD0B10          VLDMIA    SP!, {D0-D7}          ; [DPU_4_PIPE0] 
    2137                            .dwcfi  cfa_offset, 32
    2138                            .dwcfi  restore_reg, 79
    2139                            .dwcfi  restore_reg, 78
    2140                            .dwcfi  restore_reg, 77
    2141                            .dwcfi  restore_reg, 76
    2142                            .dwcfi  restore_reg, 75
    2143                            .dwcfi  restore_reg, 74
    2144                            .dwcfi  restore_reg, 73
    2145                            .dwcfi  restore_reg, 72
TI ARM Assembler PC v16.9.0 Sun Feb 19 22:29:40 2017

Tools Copyright (c) 1996-2015 Texas Instruments Incorporated
C:\Users\bob\AppData\Local\Temp\0957210                              PAGE   40

    2146                            .dwcfi  restore_reg, 71
    2147                            .dwcfi  restore_reg, 70
    2148                            .dwcfi  restore_reg, 69
    2149                            .dwcfi  restore_reg, 68
    2150                            .dwcfi  restore_reg, 67
    2151                            .dwcfi  restore_reg, 66
    2152                            .dwcfi  restore_reg, 65
    2153                            .dwcfi  restore_reg, 64
    2154 00000034 E8BD1000          LDMFD     SP!, {V9}             ; [DPU_4_PIPE0] 
    2155                            .dwcfi  cfa_offset, 28
    2156 00000038 EEE1CA10          VMSR      FPSCR, V9             ; [DPU_4_PIPE0] 
    2157 0000003c E8BD1000          LDMFD     SP!, {V9}             ; [DPU_4_PIPE0] 
    2158                            .dwcfi  cfa_offset, 24
    2159 00000040 EEE8CA10          VMSR      FPEXC, V9             ; [DPU_4_PIPE0] 
    2160 00000044 E8BD500F          LDMFD     SP!, {A1, A2, A3, A4, V9, LR} ; [DPU_4_PIPE0] 
    2161                            .dwcfi  cfa_offset, 0
    2162                            .dwcfi  restore_reg, 14
    2163                            .dwcfi  restore_reg, 12
    2164                            .dwcfi  restore_reg, 3
    2165                            .dwcfi  restore_reg, 2
    2166                            .dwcfi  restore_reg, 1
    2167                            .dwcfi  restore_reg, 0
    2168                    $C$DW$128       .dwtag  DW_TAG_TI_branch
    2169                            .dwattr $C$DW$128, DW_AT_low_pc(0x00)
    2170                            .dwattr $C$DW$128, DW_AT_TI_return
    2171                    
    2172 00000048 E25EF004          SUBS      PC, LR, #4            ; [DPU_4_PIPE1] 
    2173                            ; BRANCH OCCURS                  ; [] 
    2174                            .dwattr $C$DW$126, DW_AT_TI_end_file("../hcg/source/HL_rti.c")
    2175                            .dwattr $C$DW$126, DW_AT_TI_end_line(0x2d1)
    2176                            .dwattr $C$DW$126, DW_AT_TI_end_column(0x01)
    2177                            .dwendentry
    2178                            .dwendtag $C$DW$126
    2179                    
    2180 0000004c                   .sect   ".text:retain"
    2181                            .retain
    2182                            .retainrefs
    2183                            .armfunc rtiCompare1Interrupt
    2184 0000004c                   .state32
    2185                            .global rtiCompare1Interrupt
    2186                    
    2187                    $C$DW$129       .dwtag  DW_TAG_subprogram
    2188                            .dwattr $C$DW$129, DW_AT_name("rtiCompare1Interrupt")
    2189                            .dwattr $C$DW$129, DW_AT_low_pc(rtiCompare1Interrupt)
    2190                            .dwattr $C$DW$129, DW_AT_high_pc(0x00)
    2191                            .dwattr $C$DW$129, DW_AT_TI_symbol_name("rtiCompare1Interrupt")
    2192                            .dwattr $C$DW$129, DW_AT_external
    2193                            .dwattr $C$DW$129, DW_AT_TI_begin_file("../hcg/source/HL_rti.c")
    2194                            .dwattr $C$DW$129, DW_AT_TI_begin_line(0x2df)
    2195                            .dwattr $C$DW$129, DW_AT_TI_begin_column(0x06)
    2196                            .dwattr $C$DW$129, DW_AT_decl_file("../hcg/source/HL_rti.c")
    2197                            .dwattr $C$DW$129, DW_AT_decl_line(0x2df)
    2198                            .dwattr $C$DW$129, DW_AT_decl_column(0x06)
    2199                            .dwattr $C$DW$129, DW_AT_TI_interrupt
    2200                            .dwattr $C$DW$129, DW_AT_TI_max_frame_size(0x60)
TI ARM Assembler PC v16.9.0 Sun Feb 19 22:29:40 2017

Tools Copyright (c) 1996-2015 Texas Instruments Incorporated
C:\Users\bob\AppData\Local\Temp\0957210                              PAGE   41

    2201                            .dwpsn  file "../hcg/source/HL_rti.c",line 736,column 1,is_stmt,address rtiCompare1Interrupt,i
    2202                    
    2203                            .dwfde $C$DW$CIE, rtiCompare1Interrupt
    2204                    
    2205                    ;*****************************************************************************
    2206                    ;* FUNCTION NAME: rtiCompare1Interrupt                                       *
    2207                    ;*                                                                           *
    2208                    ;*   Regs Modified     : A1,A2,A3,A4,V9,SP,LR,SR,D0,D0_hi,D1,D1_hi,D2,D2_hi, *
    2209                    ;*                           D3,D3_hi,D4,D4_hi,D5,D5_hi,D6,D6_hi,D7,D7_hi,   *
    2210                    ;*                           FPEXC,FPSCR                                     *
    2211                    ;*   Regs Used         : A1,A2,A3,A4,V9,SP,LR,SR,D0,D0_hi,D1,D1_hi,D2,D2_hi, *
    2212                    ;*                           D3,D3_hi,D4,D4_hi,D5,D5_hi,D6,D6_hi,D7,D7_hi,   *
    2213                    ;*                           FPEXC,FPSCR                                     *
    2214                    ;*   Local Frame Size  : 0 Args + 0 Auto + 96 Save = 96 byte                 *
    2215                    ;*****************************************************************************
    2216 0000004c           rtiCompare1Interrupt:
    2217                    ;* --------------------------------------------------------------------------*
    2218                            .dwcfi  cfa_offset, 0
    2219 0000004c E92D500F          STMFD     SP!, {A1, A2, A3, A4, V9, LR} ; [DPU_4_PIPE0] 
    2220                            .dwcfi  cfa_offset, 24
    2221                            .dwcfi  save_reg_to_mem, 14, -4
    2222                            .dwcfi  save_reg_to_mem, 12, -8
    2223                            .dwcfi  save_reg_to_mem, 3, -12
    2224                            .dwcfi  save_reg_to_mem, 2, -16
    2225                            .dwcfi  save_reg_to_mem, 1, -20
    2226                            .dwcfi  save_reg_to_mem, 0, -24
    2227 00000050 EEF8CA10          VMRS      V9,FPEXC              ; [DPU_4_PIPE0] 
    2228 00000054 E92D1000          STMFD     SP!, {V9}             ; [DPU_4_PIPE0] 
    2229                            .dwcfi  cfa_offset, 28
    2230 00000058 EEF1CA10          VMRS      V9,FPSCR              ; [DPU_4_PIPE0] 
    2231 0000005c E92D1000          STMFD     SP!, {V9}             ; [DPU_4_PIPE0] 
    2232                            .dwcfi  cfa_offset, 32
    2233 00000060 ED2D0B10          VSTMDB    SP!, {D0-D7}          ; [DPU_4_PIPE0] 
    2234                            .dwcfi  cfa_offset, 96
    2235                            .dwcfi  save_reg_to_mem, 79, -36
    2236                            .dwcfi  save_reg_to_mem, 78, -40
    2237                            .dwcfi  save_reg_to_mem, 77, -44
    2238                            .dwcfi  save_reg_to_mem, 76, -48
    2239                            .dwcfi  save_reg_to_mem, 75, -52
    2240                            .dwcfi  save_reg_to_mem, 74, -56
    2241                            .dwcfi  save_reg_to_mem, 73, -60
    2242                            .dwcfi  save_reg_to_mem, 72, -64
    2243                            .dwcfi  save_reg_to_mem, 71, -68
    2244                            .dwcfi  save_reg_to_mem, 70, -72
    2245                            .dwcfi  save_reg_to_mem, 69, -76
    2246                            .dwcfi  save_reg_to_mem, 68, -80
    2247                            .dwcfi  save_reg_to_mem, 67, -84
    2248                            .dwcfi  save_reg_to_mem, 66, -88
    2249                            .dwcfi  save_reg_to_mem, 65, -92
    2250                            .dwcfi  save_reg_to_mem, 64, -96
    2251                            .dwpsn  file "../hcg/source/HL_rti.c",line 740,column 5,is_stmt,isa 2
    2252 00000064 E59F002C          LDR       A1, $C$CON26          ; [DPU_4_PIPE0] |740| 
    2253 00000068 E3A0C002          MOV       V9, #2                ; [DPU_4_PIPE0] |740| 
    2254 0000006c E580C000          STR       V9, [A1, #0]          ; [DPU_4_PIPE0] |740| 
    2255                            .dwpsn  file "../hcg/source/HL_rti.c",line 741,column 5,is_stmt,isa 2
TI ARM Assembler PC v16.9.0 Sun Feb 19 22:29:40 2017

Tools Copyright (c) 1996-2015 Texas Instruments Incorporated
C:\Users\bob\AppData\Local\Temp\0957210                              PAGE   42

    2256 00000070 E59F0024          LDR       A1, $C$CON27          ; [DPU_4_PIPE0] |741| 
    2257 00000074 E3A01002          MOV       A2, #2                ; [DPU_4_PIPE0] |741| 
    2258                    $C$DW$130       .dwtag  DW_TAG_TI_branch
    2259                            .dwattr $C$DW$130, DW_AT_low_pc(0x00)
    2260                            .dwattr $C$DW$130, DW_AT_name("rtiNotification")
    2261                            .dwattr $C$DW$130, DW_AT_TI_call
    2262                    
    2263 00000078 EBFFFFFE!         BL        rtiNotification       ; [DPU_4_PIPE1] |741| 
    2264                            ; CALL OCCURS {rtiNotification }  ; [] |741| 
    2265                            .dwpsn  file "../hcg/source/HL_rti.c",line 745,column 1,is_stmt,isa 2
    2266 0000007c ECBD0B10          VLDMIA    SP!, {D0-D7}          ; [DPU_4_PIPE0] 
    2267                            .dwcfi  cfa_offset, 32
    2268                            .dwcfi  restore_reg, 79
    2269                            .dwcfi  restore_reg, 78
    2270                            .dwcfi  restore_reg, 77
    2271                            .dwcfi  restore_reg, 76
    2272                            .dwcfi  restore_reg, 75
    2273                            .dwcfi  restore_reg, 74
    2274                            .dwcfi  restore_reg, 73
    2275                            .dwcfi  restore_reg, 72
    2276                            .dwcfi  restore_reg, 71
    2277                            .dwcfi  restore_reg, 70
    2278                            .dwcfi  restore_reg, 69
    2279                            .dwcfi  restore_reg, 68
    2280                            .dwcfi  restore_reg, 67
    2281                            .dwcfi  restore_reg, 66
    2282                            .dwcfi  restore_reg, 65
    2283                            .dwcfi  restore_reg, 64
    2284 00000080 E8BD1000          LDMFD     SP!, {V9}             ; [DPU_4_PIPE0] 
    2285                            .dwcfi  cfa_offset, 28
    2286 00000084 EEE1CA10          VMSR      FPSCR, V9             ; [DPU_4_PIPE0] 
    2287 00000088 E8BD1000          LDMFD     SP!, {V9}             ; [DPU_4_PIPE0] 
    2288                            .dwcfi  cfa_offset, 24
    2289 0000008c EEE8CA10          VMSR      FPEXC, V9             ; [DPU_4_PIPE0] 
    2290 00000090 E8BD500F          LDMFD     SP!, {A1, A2, A3, A4, V9, LR} ; [DPU_4_PIPE0] 
    2291                            .dwcfi  cfa_offset, 0
    2292                            .dwcfi  restore_reg, 14
    2293                            .dwcfi  restore_reg, 12
    2294                            .dwcfi  restore_reg, 3
    2295                            .dwcfi  restore_reg, 2
    2296                            .dwcfi  restore_reg, 1
    2297                            .dwcfi  restore_reg, 0
    2298                    $C$DW$131       .dwtag  DW_TAG_TI_branch
    2299                            .dwattr $C$DW$131, DW_AT_low_pc(0x00)
    2300                            .dwattr $C$DW$131, DW_AT_TI_return
    2301                    
    2302 00000094 E25EF004          SUBS      PC, LR, #4            ; [DPU_4_PIPE1] 
    2303                            ; BRANCH OCCURS                  ; [] 
    2304                            .dwattr $C$DW$129, DW_AT_TI_end_file("../hcg/source/HL_rti.c")
    2305                            .dwattr $C$DW$129, DW_AT_TI_end_line(0x2e9)
    2306                            .dwattr $C$DW$129, DW_AT_TI_end_column(0x01)
    2307                            .dwendentry
    2308                            .dwendtag $C$DW$129
    2309                    
    2310                    ;******************************************************************************
TI ARM Assembler PC v16.9.0 Sun Feb 19 22:29:40 2017

Tools Copyright (c) 1996-2015 Texas Instruments Incorporated
C:\Users\bob\AppData\Local\Temp\0957210                              PAGE   43

    2311                    ;* CONSTANT TABLE                                                             *
    2312                    ;******************************************************************************
    2313 00000634                   .sect   ".text"
    2314                            .align  4
    2315 00000634 FFFFFC00  ||$C$CON1||:    .bits   -1024,32
    2316                            .align  4
    2317 00000638 FFFFFC04  ||$C$CON2||:    .bits   -1020,32
    2318                            .align  4
    2319 0000063c FFFFFC08  ||$C$CON3||:    .bits   -1016,32
    2320                            .align  4
    2321 00000640 FFFFFC0C  ||$C$CON4||:    .bits   -1012,32
    2322                            .align  4
    2323 00000644 FFFFFC14  ||$C$CON5||:    .bits   -1004,32
    2324                            .align  4
    2325 00000648 FFFFFC10  ||$C$CON6||:    .bits   -1008,32
    2326                            .align  4
    2327 0000064c FFFFFC18  ||$C$CON7||:    .bits   -1000,32
    2328                            .align  4
    2329 00000650 FFFFFC34  ||$C$CON8||:    .bits   -972,32
    2330                            .align  4
    2331 00000654 FFFFFC30  ||$C$CON9||:    .bits   -976,32
    2332                            .align  4
    2333 00000658 FFFFFC38  ||$C$CON10||:   .bits   -968,32
    2334                            .align  4
    2335 0000065c FFFFFC50  ||$C$CON11||:   .bits   -944,32
    2336                            .align  4
    2337 00000660 FFFFFC54  ||$C$CON12||:   .bits   -940,32
    2338                            .align  4
    2339 00000664 FFFFFC58  ||$C$CON13||:   .bits   -936,32
    2340                            .align  4
    2341 00000668 FFFFFC5C  ||$C$CON14||:   .bits   -932,32
    2342                            .align  4
    2343 0000066c FFFFFC60  ||$C$CON15||:   .bits   -928,32
    2344                            .align  4
    2345 00000670 0001416D  ||$C$CON16||:   .bits   82285,32
    2346                            .align  4
    2347 00000674 FFFFFC64  ||$C$CON17||:   .bits   -924,32
    2348                            .align  4
    2349 00000678 FFFFFC68  ||$C$CON18||:   .bits   -920,32
    2350                            .align  4
    2351 0000067c 000191C8  ||$C$CON19||:   .bits   102856,32
    2352                            .align  4
    2353 00000680 FFFFFC6C  ||$C$CON20||:   .bits   -916,32
    2354                            .align  4
    2355 00000684 FFFFFC88  ||$C$CON21||:   .bits   -888,32
    2356                            .align  4
    2357 00000688 0007000F  ||$C$CON22||:   .bits   458767,32
    2358                            .align  4
    2359 0000068c FFFFFC84  ||$C$CON23||:   .bits   -892,32
    2360                            .align  4
    2361 00000690 00070F0F  ||$C$CON24||:   .bits   462607,32
    2362                            .align  4
    2363 00000694 A98559DA  ||$C$CON25||:   .bits   -1450878502,32
    2364                    ;******************************************************************************
    2365                    ;* CONSTANT TABLE                                                             *
TI ARM Assembler PC v16.9.0 Sun Feb 19 22:29:40 2017

Tools Copyright (c) 1996-2015 Texas Instruments Incorporated
C:\Users\bob\AppData\Local\Temp\0957210                              PAGE   44

    2366                    ;******************************************************************************
    2367 00000098                   .sect   ".text:retain"
    2368                            .align  4
    2369 00000098 FFFFFC88  ||$C$CON26||:   .bits   -888,32
    2370                            .align  4
    2371 0000009c FFFFFC00  ||$C$CON27||:   .bits   -1024,32
    2372                    ;*****************************************************************************
    2373                    ;* UNDEFINED EXTERNAL REFERENCES                                             *
    2374                    ;*****************************************************************************
    2375                            .global rtiNotification
    2376                    
    2377                    ;******************************************************************************
    2378                    ;* BUILD ATTRIBUTES                                                           *
    2379                    ;******************************************************************************
    2380                            .battr "aeabi", Tag_File, 1, Tag_ABI_PCS_wchar_t(2)
    2381                            .battr "aeabi", Tag_File, 1, Tag_ABI_FP_rounding(0)
    2382                            .battr "aeabi", Tag_File, 1, Tag_ABI_FP_denormal(0)
    2383                            .battr "aeabi", Tag_File, 1, Tag_ABI_FP_exceptions(0)
    2384                            .battr "aeabi", Tag_File, 1, Tag_ABI_FP_number_model(1)
    2385                            .battr "aeabi", Tag_File, 1, Tag_ABI_enum_size(1)
    2386                            .battr "aeabi", Tag_File, 1, Tag_ABI_optimization_goals(5)
    2387                            .battr "aeabi", Tag_File, 1, Tag_ABI_FP_optimization_goals(0)
    2388                            .battr "TI", Tag_File, 1, Tag_Bitfield_layout(2)
    2389                            .battr "aeabi", Tag_File, 1, Tag_ABI_VFP_args(3)
    2390                            .battr "TI", Tag_File, 1, Tag_FP_interface(1)
    2391                    
    2392                    ;******************************************************************************
    2393                    ;* TYPE INFORMATION                                                           *
    2394                    ;******************************************************************************
    2395                    
    2396                    $C$DW$T$22      .dwtag  DW_TAG_structure_type
    2397                            .dwattr $C$DW$T$22, DW_AT_byte_size(0x20)
    2398                    $C$DW$132       .dwtag  DW_TAG_member
    2399                            .dwattr $C$DW$132, DW_AT_type(*$C$DW$T$20)
    2400                            .dwattr $C$DW$132, DW_AT_name("FRCx")
    2401                            .dwattr $C$DW$132, DW_AT_TI_symbol_name("FRCx")
    2402                            .dwattr $C$DW$132, DW_AT_data_member_location[DW_OP_plus_uconst 0x0]
    2403                            .dwattr $C$DW$132, DW_AT_accessibility(DW_ACCESS_public)
    2404                            .dwattr $C$DW$132, DW_AT_decl_file("C:\Users\bob\Documents\Projects\induct_forge\RM57Lx_test\P
    2405                            .dwattr $C$DW$132, DW_AT_decl_line(0x4e)
    2406                            .dwattr $C$DW$132, DW_AT_decl_column(0x10)
    2407                    
    2408                    $C$DW$133       .dwtag  DW_TAG_member
    2409                            .dwattr $C$DW$133, DW_AT_type(*$C$DW$T$20)
    2410                            .dwattr $C$DW$133, DW_AT_name("UCx")
    2411                            .dwattr $C$DW$133, DW_AT_TI_symbol_name("UCx")
    2412                            .dwattr $C$DW$133, DW_AT_data_member_location[DW_OP_plus_uconst 0x4]
    2413                            .dwattr $C$DW$133, DW_AT_accessibility(DW_ACCESS_public)
    2414                            .dwattr $C$DW$133, DW_AT_decl_file("C:\Users\bob\Documents\Projects\induct_forge\RM57Lx_test\P
    2415                            .dwattr $C$DW$133, DW_AT_decl_line(0x4f)
    2416                            .dwattr $C$DW$133, DW_AT_decl_column(0x10)
    2417                    
    2418                    $C$DW$134       .dwtag  DW_TAG_member
    2419                            .dwattr $C$DW$134, DW_AT_type(*$C$DW$T$20)
    2420                            .dwattr $C$DW$134, DW_AT_name("CPUCx")
TI ARM Assembler PC v16.9.0 Sun Feb 19 22:29:40 2017

Tools Copyright (c) 1996-2015 Texas Instruments Incorporated
C:\Users\bob\AppData\Local\Temp\0957210                              PAGE   45

    2421                            .dwattr $C$DW$134, DW_AT_TI_symbol_name("CPUCx")
    2422                            .dwattr $C$DW$134, DW_AT_data_member_location[DW_OP_plus_uconst 0x8]
    2423                            .dwattr $C$DW$134, DW_AT_accessibility(DW_ACCESS_public)
    2424                            .dwattr $C$DW$134, DW_AT_decl_file("C:\Users\bob\Documents\Projects\induct_forge\RM57Lx_test\P
    2425                            .dwattr $C$DW$134, DW_AT_decl_line(0x50)
    2426                            .dwattr $C$DW$134, DW_AT_decl_column(0x10)
    2427                    
    2428                    $C$DW$135       .dwtag  DW_TAG_member
    2429                            .dwattr $C$DW$135, DW_AT_type(*$C$DW$T$20)
    2430                            .dwattr $C$DW$135, DW_AT_name("rsvd1")
    2431                            .dwattr $C$DW$135, DW_AT_TI_symbol_name("rsvd1")
    2432                            .dwattr $C$DW$135, DW_AT_data_member_location[DW_OP_plus_uconst 0xc]
    2433                            .dwattr $C$DW$135, DW_AT_accessibility(DW_ACCESS_public)
    2434                            .dwattr $C$DW$135, DW_AT_decl_file("C:\Users\bob\Documents\Projects\induct_forge\RM57Lx_test\P
    2435                            .dwattr $C$DW$135, DW_AT_decl_line(0x51)
    2436                            .dwattr $C$DW$135, DW_AT_decl_column(0x12)
    2437                    
    2438                    $C$DW$136       .dwtag  DW_TAG_member
    2439                            .dwattr $C$DW$136, DW_AT_type(*$C$DW$T$20)
    2440                            .dwattr $C$DW$136, DW_AT_name("CAFRCx")
    2441                            .dwattr $C$DW$136, DW_AT_TI_symbol_name("CAFRCx")
    2442                            .dwattr $C$DW$136, DW_AT_data_member_location[DW_OP_plus_uconst 0x10]
    2443                            .dwattr $C$DW$136, DW_AT_accessibility(DW_ACCESS_public)
    2444                            .dwattr $C$DW$136, DW_AT_decl_file("C:\Users\bob\Documents\Projects\induct_forge\RM57Lx_test\P
    2445                            .dwattr $C$DW$136, DW_AT_decl_line(0x52)
    2446                            .dwattr $C$DW$136, DW_AT_decl_column(0x10)
    2447                    
    2448                    $C$DW$137       .dwtag  DW_TAG_member
    2449                            .dwattr $C$DW$137, DW_AT_type(*$C$DW$T$20)
    2450                            .dwattr $C$DW$137, DW_AT_name("CAUCx")
    2451                            .dwattr $C$DW$137, DW_AT_TI_symbol_name("CAUCx")
    2452                            .dwattr $C$DW$137, DW_AT_data_member_location[DW_OP_plus_uconst 0x14]
    2453                            .dwattr $C$DW$137, DW_AT_accessibility(DW_ACCESS_public)
    2454                            .dwattr $C$DW$137, DW_AT_decl_file("C:\Users\bob\Documents\Projects\induct_forge\RM57Lx_test\P
    2455                            .dwattr $C$DW$137, DW_AT_decl_line(0x53)
    2456                            .dwattr $C$DW$137, DW_AT_decl_column(0x10)
    2457                    
    2458                    $C$DW$138       .dwtag  DW_TAG_member
    2459                            .dwattr $C$DW$138, DW_AT_type(*$C$DW$T$21)
    2460                            .dwattr $C$DW$138, DW_AT_name("rsvd2")
    2461                            .dwattr $C$DW$138, DW_AT_TI_symbol_name("rsvd2")
    2462                            .dwattr $C$DW$138, DW_AT_data_member_location[DW_OP_plus_uconst 0x18]
    2463                            .dwattr $C$DW$138, DW_AT_accessibility(DW_ACCESS_public)
    2464                            .dwattr $C$DW$138, DW_AT_decl_file("C:\Users\bob\Documents\Projects\induct_forge\RM57Lx_test\P
    2465                            .dwattr $C$DW$138, DW_AT_decl_line(0x54)
    2466                            .dwattr $C$DW$138, DW_AT_decl_column(0x12)
    2467                    
    2468                            .dwattr $C$DW$T$22, DW_AT_decl_file("C:\Users\bob\Documents\Projects\induct_forge\RM57Lx_test\
    2469                            .dwattr $C$DW$T$22, DW_AT_decl_line(0x4d)
    2470                            .dwattr $C$DW$T$22, DW_AT_decl_column(0x05)
    2471                            .dwendtag $C$DW$T$22
    2472                    
    2473                    
    2474                    $C$DW$T$24      .dwtag  DW_TAG_array_type
    2475                            .dwattr $C$DW$T$24, DW_AT_type(*$C$DW$T$22)
TI ARM Assembler PC v16.9.0 Sun Feb 19 22:29:40 2017

Tools Copyright (c) 1996-2015 Texas Instruments Incorporated
C:\Users\bob\AppData\Local\Temp\0957210                              PAGE   46

    2476                            .dwattr $C$DW$T$24, DW_AT_language(DW_LANG_C)
    2477                            .dwattr $C$DW$T$24, DW_AT_byte_size(0x40)
    2478                    $C$DW$139       .dwtag  DW_TAG_subrange_type
    2479                            .dwattr $C$DW$139, DW_AT_upper_bound(0x01)
    2480                    
    2481                            .dwendtag $C$DW$T$24
    2482                    
    2483                    
    2484                    $C$DW$T$23      .dwtag  DW_TAG_structure_type
    2485                            .dwattr $C$DW$T$23, DW_AT_byte_size(0x08)
    2486                    $C$DW$140       .dwtag  DW_TAG_member
    2487                            .dwattr $C$DW$140, DW_AT_type(*$C$DW$T$20)
    2488                            .dwattr $C$DW$140, DW_AT_name("COMPx")
    2489                            .dwattr $C$DW$140, DW_AT_TI_symbol_name("COMPx")
    2490                            .dwattr $C$DW$140, DW_AT_data_member_location[DW_OP_plus_uconst 0x0]
    2491                            .dwattr $C$DW$140, DW_AT_accessibility(DW_ACCESS_public)
    2492                            .dwattr $C$DW$140, DW_AT_decl_file("C:\Users\bob\Documents\Projects\induct_forge\RM57Lx_test\P
    2493                            .dwattr $C$DW$140, DW_AT_decl_line(0x5a)
    2494                            .dwattr $C$DW$140, DW_AT_decl_column(0x10)
    2495                    
    2496                    $C$DW$141       .dwtag  DW_TAG_member
    2497                            .dwattr $C$DW$141, DW_AT_type(*$C$DW$T$20)
    2498                            .dwattr $C$DW$141, DW_AT_name("UDCPx")
    2499                            .dwattr $C$DW$141, DW_AT_TI_symbol_name("UDCPx")
    2500                            .dwattr $C$DW$141, DW_AT_data_member_location[DW_OP_plus_uconst 0x4]
    2501                            .dwattr $C$DW$141, DW_AT_accessibility(DW_ACCESS_public)
    2502                            .dwattr $C$DW$141, DW_AT_decl_file("C:\Users\bob\Documents\Projects\induct_forge\RM57Lx_test\P
    2503                            .dwattr $C$DW$141, DW_AT_decl_line(0x5b)
    2504                            .dwattr $C$DW$141, DW_AT_decl_column(0x10)
    2505                    
    2506                            .dwattr $C$DW$T$23, DW_AT_decl_file("C:\Users\bob\Documents\Projects\induct_forge\RM57Lx_test\
    2507                            .dwattr $C$DW$T$23, DW_AT_decl_line(0x59)
    2508                            .dwattr $C$DW$T$23, DW_AT_decl_column(0x05)
    2509                            .dwendtag $C$DW$T$23
    2510                    
    2511                    
    2512                    $C$DW$T$25      .dwtag  DW_TAG_array_type
    2513                            .dwattr $C$DW$T$25, DW_AT_type(*$C$DW$T$23)
    2514                            .dwattr $C$DW$T$25, DW_AT_language(DW_LANG_C)
    2515                            .dwattr $C$DW$T$25, DW_AT_byte_size(0x20)
    2516                    $C$DW$142       .dwtag  DW_TAG_subrange_type
    2517                            .dwattr $C$DW$142, DW_AT_upper_bound(0x03)
    2518                    
    2519                            .dwendtag $C$DW$T$25
    2520                    
    2521                    $C$DW$T$2       .dwtag  DW_TAG_unspecified_type
    2522                            .dwattr $C$DW$T$2, DW_AT_name("void")
    2523                    
    2524                    
    2525                    $C$DW$T$43      .dwtag  DW_TAG_subroutine_type
    2526                            .dwattr $C$DW$T$43, DW_AT_language(DW_LANG_C)
    2527                            .dwendtag $C$DW$T$43
    2528                    
    2529                    $C$DW$T$44      .dwtag  DW_TAG_pointer_type
    2530                            .dwattr $C$DW$T$44, DW_AT_type(*$C$DW$T$43)
TI ARM Assembler PC v16.9.0 Sun Feb 19 22:29:40 2017

Tools Copyright (c) 1996-2015 Texas Instruments Incorporated
C:\Users\bob\AppData\Local\Temp\0957210                              PAGE   47

    2531                            .dwattr $C$DW$T$44, DW_AT_address_class(0x20)
    2532                    
    2533                    $C$DW$T$45      .dwtag  DW_TAG_typedef
    2534                            .dwattr $C$DW$T$45, DW_AT_name("t_isrFuncPTR")
    2535                            .dwattr $C$DW$T$45, DW_AT_type(*$C$DW$T$44)
    2536                            .dwattr $C$DW$T$45, DW_AT_language(DW_LANG_C)
    2537                            .dwattr $C$DW$T$45, DW_AT_decl_file("C:/Users/bob/Documents/Projects/induct_forge/RM57Lx_test/
    2538                            .dwattr $C$DW$T$45, DW_AT_decl_line(0x40)
    2539                            .dwattr $C$DW$T$45, DW_AT_decl_column(0x10)
    2540                    
    2541                    $C$DW$T$4       .dwtag  DW_TAG_base_type
    2542                            .dwattr $C$DW$T$4, DW_AT_encoding(DW_ATE_boolean)
    2543                            .dwattr $C$DW$T$4, DW_AT_name("bool")
    2544                            .dwattr $C$DW$T$4, DW_AT_byte_size(0x01)
    2545                    
    2546                    $C$DW$T$5       .dwtag  DW_TAG_base_type
    2547                            .dwattr $C$DW$T$5, DW_AT_encoding(DW_ATE_signed_char)
    2548                            .dwattr $C$DW$T$5, DW_AT_name("signed char")
    2549                            .dwattr $C$DW$T$5, DW_AT_byte_size(0x01)
    2550                    
    2551                    $C$DW$T$61      .dwtag  DW_TAG_typedef
    2552                            .dwattr $C$DW$T$61, DW_AT_name("int8_t")
    2553                            .dwattr $C$DW$T$61, DW_AT_type(*$C$DW$T$5)
    2554                            .dwattr $C$DW$T$61, DW_AT_language(DW_LANG_C)
    2555                            .dwattr $C$DW$T$61, DW_AT_decl_file("C:/ti/ccsv7/tools/compiler/ti-cgt-arm_16.9.0.LTS/include/
    2556                            .dwattr $C$DW$T$61, DW_AT_decl_line(0x2a)
    2557                            .dwattr $C$DW$T$61, DW_AT_decl_column(0x1d)
    2558                    
    2559                    $C$DW$T$62      .dwtag  DW_TAG_typedef
    2560                            .dwattr $C$DW$T$62, DW_AT_name("int_least8_t")
    2561                            .dwattr $C$DW$T$62, DW_AT_type(*$C$DW$T$61)
    2562                            .dwattr $C$DW$T$62, DW_AT_language(DW_LANG_C)
    2563                            .dwattr $C$DW$T$62, DW_AT_decl_file("C:/ti/ccsv7/tools/compiler/ti-cgt-arm_16.9.0.LTS/include/
    2564                            .dwattr $C$DW$T$62, DW_AT_decl_line(0x37)
    2565                            .dwattr $C$DW$T$62, DW_AT_decl_column(0x17)
    2566                    
    2567                    $C$DW$T$63      .dwtag  DW_TAG_typedef
    2568                            .dwattr $C$DW$T$63, DW_AT_name("sint8")
    2569                            .dwattr $C$DW$T$63, DW_AT_type(*$C$DW$T$61)
    2570                            .dwattr $C$DW$T$63, DW_AT_language(DW_LANG_C)
    2571                            .dwattr $C$DW$T$63, DW_AT_decl_file("C:\Users\bob\Documents\Projects\induct_forge\RM57Lx_test\
    2572                            .dwattr $C$DW$T$63, DW_AT_decl_line(0x68)
    2573                            .dwattr $C$DW$T$63, DW_AT_decl_column(0x10)
    2574                    
    2575                    $C$DW$T$6       .dwtag  DW_TAG_base_type
    2576                            .dwattr $C$DW$T$6, DW_AT_encoding(DW_ATE_unsigned_char)
    2577                            .dwattr $C$DW$T$6, DW_AT_name("unsigned char")
    2578                            .dwattr $C$DW$T$6, DW_AT_byte_size(0x01)
    2579                    
    2580                    $C$DW$T$64      .dwtag  DW_TAG_typedef
    2581                            .dwattr $C$DW$T$64, DW_AT_name("uint8_t")
    2582                            .dwattr $C$DW$T$64, DW_AT_type(*$C$DW$T$6)
    2583                            .dwattr $C$DW$T$64, DW_AT_language(DW_LANG_C)
    2584                            .dwattr $C$DW$T$64, DW_AT_decl_file("C:/ti/ccsv7/tools/compiler/ti-cgt-arm_16.9.0.LTS/include/
    2585                            .dwattr $C$DW$T$64, DW_AT_decl_line(0x2b)
TI ARM Assembler PC v16.9.0 Sun Feb 19 22:29:40 2017

Tools Copyright (c) 1996-2015 Texas Instruments Incorporated
C:\Users\bob\AppData\Local\Temp\0957210                              PAGE   48

    2586                            .dwattr $C$DW$T$64, DW_AT_decl_column(0x1c)
    2587                    
    2588                    $C$DW$T$65      .dwtag  DW_TAG_typedef
    2589                            .dwattr $C$DW$T$65, DW_AT_name("uint8")
    2590                            .dwattr $C$DW$T$65, DW_AT_type(*$C$DW$T$64)
    2591                            .dwattr $C$DW$T$65, DW_AT_language(DW_LANG_C)
    2592                            .dwattr $C$DW$T$65, DW_AT_decl_file("C:\Users\bob\Documents\Projects\induct_forge\RM57Lx_test\
    2593                            .dwattr $C$DW$T$65, DW_AT_decl_line(0x4b)
    2594                            .dwattr $C$DW$T$65, DW_AT_decl_column(0x11)
    2595                    
    2596                    $C$DW$T$66      .dwtag  DW_TAG_typedef
    2597                            .dwattr $C$DW$T$66, DW_AT_name("uint_least8_t")
    2598                            .dwattr $C$DW$T$66, DW_AT_type(*$C$DW$T$64)
    2599                            .dwattr $C$DW$T$66, DW_AT_language(DW_LANG_C)
    2600                            .dwattr $C$DW$T$66, DW_AT_decl_file("C:/ti/ccsv7/tools/compiler/ti-cgt-arm_16.9.0.LTS/include/
    2601                            .dwattr $C$DW$T$66, DW_AT_decl_line(0x38)
    2602                            .dwattr $C$DW$T$66, DW_AT_decl_column(0x16)
    2603                    
    2604                    $C$DW$T$7       .dwtag  DW_TAG_base_type
    2605                            .dwattr $C$DW$T$7, DW_AT_encoding(DW_ATE_signed_char)
    2606                            .dwattr $C$DW$T$7, DW_AT_name("wchar_t")
    2607                            .dwattr $C$DW$T$7, DW_AT_byte_size(0x02)
    2608                    
    2609                    $C$DW$T$8       .dwtag  DW_TAG_base_type
    2610                            .dwattr $C$DW$T$8, DW_AT_encoding(DW_ATE_signed)
    2611                            .dwattr $C$DW$T$8, DW_AT_name("short")
    2612                            .dwattr $C$DW$T$8, DW_AT_byte_size(0x02)
    2613                    
    2614                    $C$DW$T$67      .dwtag  DW_TAG_typedef
    2615                            .dwattr $C$DW$T$67, DW_AT_name("int16_t")
    2616                            .dwattr $C$DW$T$67, DW_AT_type(*$C$DW$T$8)
    2617                            .dwattr $C$DW$T$67, DW_AT_language(DW_LANG_C)
    2618                            .dwattr $C$DW$T$67, DW_AT_decl_file("C:/ti/ccsv7/tools/compiler/ti-cgt-arm_16.9.0.LTS/include/
    2619                            .dwattr $C$DW$T$67, DW_AT_decl_line(0x2c)
    2620                            .dwattr $C$DW$T$67, DW_AT_decl_column(0x1d)
    2621                    
    2622                    $C$DW$T$68      .dwtag  DW_TAG_typedef
    2623                            .dwattr $C$DW$T$68, DW_AT_name("int_least16_t")
    2624                            .dwattr $C$DW$T$68, DW_AT_type(*$C$DW$T$67)
    2625                            .dwattr $C$DW$T$68, DW_AT_language(DW_LANG_C)
    2626                            .dwattr $C$DW$T$68, DW_AT_decl_file("C:/ti/ccsv7/tools/compiler/ti-cgt-arm_16.9.0.LTS/include/
    2627                            .dwattr $C$DW$T$68, DW_AT_decl_line(0x3a)
    2628                            .dwattr $C$DW$T$68, DW_AT_decl_column(0x17)
    2629                    
    2630                    $C$DW$T$69      .dwtag  DW_TAG_typedef
    2631                            .dwattr $C$DW$T$69, DW_AT_name("sint16")
    2632                            .dwattr $C$DW$T$69, DW_AT_type(*$C$DW$T$67)
    2633                            .dwattr $C$DW$T$69, DW_AT_language(DW_LANG_C)
    2634                            .dwattr $C$DW$T$69, DW_AT_decl_file("C:\Users\bob\Documents\Projects\induct_forge\RM57Lx_test\
    2635                            .dwattr $C$DW$T$69, DW_AT_decl_line(0x63)
    2636                            .dwattr $C$DW$T$69, DW_AT_decl_column(0x11)
    2637                    
    2638                    $C$DW$T$9       .dwtag  DW_TAG_base_type
    2639                            .dwattr $C$DW$T$9, DW_AT_encoding(DW_ATE_unsigned)
    2640                            .dwattr $C$DW$T$9, DW_AT_name("unsigned short")
TI ARM Assembler PC v16.9.0 Sun Feb 19 22:29:40 2017

Tools Copyright (c) 1996-2015 Texas Instruments Incorporated
C:\Users\bob\AppData\Local\Temp\0957210                              PAGE   49

    2641                            .dwattr $C$DW$T$9, DW_AT_byte_size(0x02)
    2642                    
    2643                    $C$DW$T$47      .dwtag  DW_TAG_typedef
    2644                            .dwattr $C$DW$T$47, DW_AT_name("uint16_t")
    2645                            .dwattr $C$DW$T$47, DW_AT_type(*$C$DW$T$9)
    2646                            .dwattr $C$DW$T$47, DW_AT_language(DW_LANG_C)
    2647                            .dwattr $C$DW$T$47, DW_AT_decl_file("C:/ti/ccsv7/tools/compiler/ti-cgt-arm_16.9.0.LTS/include/
    2648                            .dwattr $C$DW$T$47, DW_AT_decl_line(0x2d)
    2649                            .dwattr $C$DW$T$47, DW_AT_decl_column(0x1c)
    2650                    
    2651                    $C$DW$T$48      .dwtag  DW_TAG_typedef
    2652                            .dwattr $C$DW$T$48, DW_AT_name("uint16")
    2653                            .dwattr $C$DW$T$48, DW_AT_type(*$C$DW$T$47)
    2654                            .dwattr $C$DW$T$48, DW_AT_language(DW_LANG_C)
    2655                            .dwattr $C$DW$T$48, DW_AT_decl_file("C:\Users\bob\Documents\Projects\induct_forge\RM57Lx_test\
    2656                            .dwattr $C$DW$T$48, DW_AT_decl_line(0x46)
    2657                            .dwattr $C$DW$T$48, DW_AT_decl_column(0x12)
    2658                    
    2659                    $C$DW$T$70      .dwtag  DW_TAG_typedef
    2660                            .dwattr $C$DW$T$70, DW_AT_name("uint_least16_t")
    2661                            .dwattr $C$DW$T$70, DW_AT_type(*$C$DW$T$47)
    2662                            .dwattr $C$DW$T$70, DW_AT_language(DW_LANG_C)
    2663                            .dwattr $C$DW$T$70, DW_AT_decl_file("C:/ti/ccsv7/tools/compiler/ti-cgt-arm_16.9.0.LTS/include/
    2664                            .dwattr $C$DW$T$70, DW_AT_decl_line(0x3b)
    2665                            .dwattr $C$DW$T$70, DW_AT_decl_column(0x16)
    2666                    
    2667                    $C$DW$T$10      .dwtag  DW_TAG_base_type
    2668                            .dwattr $C$DW$T$10, DW_AT_encoding(DW_ATE_signed)
    2669                            .dwattr $C$DW$T$10, DW_AT_name("int")
    2670                            .dwattr $C$DW$T$10, DW_AT_byte_size(0x04)
    2671                    
    2672                    $C$DW$T$71      .dwtag  DW_TAG_typedef
    2673                            .dwattr $C$DW$T$71, DW_AT_name("int32_t")
    2674                            .dwattr $C$DW$T$71, DW_AT_type(*$C$DW$T$10)
    2675                            .dwattr $C$DW$T$71, DW_AT_language(DW_LANG_C)
    2676                            .dwattr $C$DW$T$71, DW_AT_decl_file("C:/ti/ccsv7/tools/compiler/ti-cgt-arm_16.9.0.LTS/include/
    2677                            .dwattr $C$DW$T$71, DW_AT_decl_line(0x2e)
    2678                            .dwattr $C$DW$T$71, DW_AT_decl_column(0x1d)
    2679                    
    2680                    $C$DW$T$72      .dwtag  DW_TAG_typedef
    2681                            .dwattr $C$DW$T$72, DW_AT_name("int_fast16_t")
    2682                            .dwattr $C$DW$T$72, DW_AT_type(*$C$DW$T$71)
    2683                            .dwattr $C$DW$T$72, DW_AT_language(DW_LANG_C)
    2684                            .dwattr $C$DW$T$72, DW_AT_decl_file("C:/ti/ccsv7/tools/compiler/ti-cgt-arm_16.9.0.LTS/include/
    2685                            .dwattr $C$DW$T$72, DW_AT_decl_line(0x47)
    2686                            .dwattr $C$DW$T$72, DW_AT_decl_column(0x17)
    2687                    
    2688                    $C$DW$T$73      .dwtag  DW_TAG_typedef
    2689                            .dwattr $C$DW$T$73, DW_AT_name("int_fast32_t")
    2690                            .dwattr $C$DW$T$73, DW_AT_type(*$C$DW$T$71)
    2691                            .dwattr $C$DW$T$73, DW_AT_language(DW_LANG_C)
    2692                            .dwattr $C$DW$T$73, DW_AT_decl_file("C:/ti/ccsv7/tools/compiler/ti-cgt-arm_16.9.0.LTS/include/
    2693                            .dwattr $C$DW$T$73, DW_AT_decl_line(0x4a)
    2694                            .dwattr $C$DW$T$73, DW_AT_decl_column(0x17)
    2695                    
TI ARM Assembler PC v16.9.0 Sun Feb 19 22:29:40 2017

Tools Copyright (c) 1996-2015 Texas Instruments Incorporated
C:\Users\bob\AppData\Local\Temp\0957210                              PAGE   50

    2696                    $C$DW$T$74      .dwtag  DW_TAG_typedef
    2697                            .dwattr $C$DW$T$74, DW_AT_name("int_fast8_t")
    2698                            .dwattr $C$DW$T$74, DW_AT_type(*$C$DW$T$71)
    2699                            .dwattr $C$DW$T$74, DW_AT_language(DW_LANG_C)
    2700                            .dwattr $C$DW$T$74, DW_AT_decl_file("C:/ti/ccsv7/tools/compiler/ti-cgt-arm_16.9.0.LTS/include/
    2701                            .dwattr $C$DW$T$74, DW_AT_decl_line(0x45)
    2702                            .dwattr $C$DW$T$74, DW_AT_decl_column(0x17)
    2703                    
    2704                    $C$DW$T$75      .dwtag  DW_TAG_typedef
    2705                            .dwattr $C$DW$T$75, DW_AT_name("int_least32_t")
    2706                            .dwattr $C$DW$T$75, DW_AT_type(*$C$DW$T$71)
    2707                            .dwattr $C$DW$T$75, DW_AT_language(DW_LANG_C)
    2708                            .dwattr $C$DW$T$75, DW_AT_decl_file("C:/ti/ccsv7/tools/compiler/ti-cgt-arm_16.9.0.LTS/include/
    2709                            .dwattr $C$DW$T$75, DW_AT_decl_line(0x3c)
    2710                            .dwattr $C$DW$T$75, DW_AT_decl_column(0x17)
    2711                    
    2712                    $C$DW$T$76      .dwtag  DW_TAG_typedef
    2713                            .dwattr $C$DW$T$76, DW_AT_name("sint32")
    2714                            .dwattr $C$DW$T$76, DW_AT_type(*$C$DW$T$71)
    2715                            .dwattr $C$DW$T$76, DW_AT_language(DW_LANG_C)
    2716                            .dwattr $C$DW$T$76, DW_AT_decl_file("C:\Users\bob\Documents\Projects\induct_forge\RM57Lx_test\
    2717                            .dwattr $C$DW$T$76, DW_AT_decl_line(0x5e)
    2718                            .dwattr $C$DW$T$76, DW_AT_decl_column(0x11)
    2719                    
    2720                    $C$DW$T$77      .dwtag  DW_TAG_typedef
    2721                            .dwattr $C$DW$T$77, DW_AT_name("intptr_t")
    2722                            .dwattr $C$DW$T$77, DW_AT_type(*$C$DW$T$10)
    2723                            .dwattr $C$DW$T$77, DW_AT_language(DW_LANG_C)
    2724                            .dwattr $C$DW$T$77, DW_AT_decl_file("C:/ti/ccsv7/tools/compiler/ti-cgt-arm_16.9.0.LTS/include/
    2725                            .dwattr $C$DW$T$77, DW_AT_decl_line(0x52)
    2726                            .dwattr $C$DW$T$77, DW_AT_decl_column(0x1a)
    2727                    
    2728                    $C$DW$T$11      .dwtag  DW_TAG_base_type
    2729                            .dwattr $C$DW$T$11, DW_AT_encoding(DW_ATE_unsigned)
    2730                            .dwattr $C$DW$T$11, DW_AT_name("unsigned int")
    2731                            .dwattr $C$DW$T$11, DW_AT_byte_size(0x04)
    2732                    
    2733                    $C$DW$T$19      .dwtag  DW_TAG_typedef
    2734                            .dwattr $C$DW$T$19, DW_AT_name("uint32_t")
    2735                            .dwattr $C$DW$T$19, DW_AT_type(*$C$DW$T$11)
    2736                            .dwattr $C$DW$T$19, DW_AT_language(DW_LANG_C)
    2737                            .dwattr $C$DW$T$19, DW_AT_decl_file("C:/ti/ccsv7/tools/compiler/ti-cgt-arm_16.9.0.LTS/include/
    2738                            .dwattr $C$DW$T$19, DW_AT_decl_line(0x2f)
    2739                            .dwattr $C$DW$T$19, DW_AT_decl_column(0x1c)
    2740                    
    2741                    $C$DW$T$20      .dwtag  DW_TAG_typedef
    2742                            .dwattr $C$DW$T$20, DW_AT_name("uint32")
    2743                            .dwattr $C$DW$T$20, DW_AT_type(*$C$DW$T$19)
    2744                            .dwattr $C$DW$T$20, DW_AT_language(DW_LANG_C)
    2745                            .dwattr $C$DW$T$20, DW_AT_decl_file("C:\Users\bob\Documents\Projects\induct_forge\RM57Lx_test\
    2746                            .dwattr $C$DW$T$20, DW_AT_decl_line(0x41)
    2747                            .dwattr $C$DW$T$20, DW_AT_decl_column(0x12)
    2748                    
    2749                    
    2750                    $C$DW$T$21      .dwtag  DW_TAG_array_type
TI ARM Assembler PC v16.9.0 Sun Feb 19 22:29:40 2017

Tools Copyright (c) 1996-2015 Texas Instruments Incorporated
C:\Users\bob\AppData\Local\Temp\0957210                              PAGE   51

    2751                            .dwattr $C$DW$T$21, DW_AT_type(*$C$DW$T$20)
    2752                            .dwattr $C$DW$T$21, DW_AT_language(DW_LANG_C)
    2753                            .dwattr $C$DW$T$21, DW_AT_byte_size(0x08)
    2754                    $C$DW$143       .dwtag  DW_TAG_subrange_type
    2755                            .dwattr $C$DW$143, DW_AT_upper_bound(0x01)
    2756                    
    2757                            .dwendtag $C$DW$T$21
    2758                    
    2759                    
    2760                    $C$DW$T$28      .dwtag  DW_TAG_array_type
    2761                            .dwattr $C$DW$T$28, DW_AT_type(*$C$DW$T$20)
    2762                            .dwattr $C$DW$T$28, DW_AT_language(DW_LANG_C)
    2763                            .dwattr $C$DW$T$28, DW_AT_byte_size(0xec)
    2764                    $C$DW$144       .dwtag  DW_TAG_subrange_type
    2765                            .dwattr $C$DW$144, DW_AT_upper_bound(0x3a)
    2766                    
    2767                            .dwendtag $C$DW$T$28
    2768                    
    2769                    
    2770                    $C$DW$T$29      .dwtag  DW_TAG_array_type
    2771                            .dwattr $C$DW$T$29, DW_AT_type(*$C$DW$T$20)
    2772                            .dwattr $C$DW$T$29, DW_AT_language(DW_LANG_C)
    2773                            .dwattr $C$DW$T$29, DW_AT_byte_size(0x60)
    2774                    $C$DW$145       .dwtag  DW_TAG_subrange_type
    2775                            .dwattr $C$DW$145, DW_AT_upper_bound(0x17)
    2776                    
    2777                            .dwendtag $C$DW$T$29
    2778                    
    2779                    $C$DW$T$81      .dwtag  DW_TAG_typedef
    2780                            .dwattr $C$DW$T$81, DW_AT_name("uint_fast16_t")
    2781                            .dwattr $C$DW$T$81, DW_AT_type(*$C$DW$T$19)
    2782                            .dwattr $C$DW$T$81, DW_AT_language(DW_LANG_C)
    2783                            .dwattr $C$DW$T$81, DW_AT_decl_file("C:/ti/ccsv7/tools/compiler/ti-cgt-arm_16.9.0.LTS/include/
    2784                            .dwattr $C$DW$T$81, DW_AT_decl_line(0x48)
    2785                            .dwattr $C$DW$T$81, DW_AT_decl_column(0x16)
    2786                    
    2787                    $C$DW$T$82      .dwtag  DW_TAG_typedef
    2788                            .dwattr $C$DW$T$82, DW_AT_name("uint_fast32_t")
    2789                            .dwattr $C$DW$T$82, DW_AT_type(*$C$DW$T$19)
    2790                            .dwattr $C$DW$T$82, DW_AT_language(DW_LANG_C)
    2791                            .dwattr $C$DW$T$82, DW_AT_decl_file("C:/ti/ccsv7/tools/compiler/ti-cgt-arm_16.9.0.LTS/include/
    2792                            .dwattr $C$DW$T$82, DW_AT_decl_line(0x4b)
    2793                            .dwattr $C$DW$T$82, DW_AT_decl_column(0x16)
    2794                    
    2795                    $C$DW$T$83      .dwtag  DW_TAG_typedef
    2796                            .dwattr $C$DW$T$83, DW_AT_name("uint_fast8_t")
    2797                            .dwattr $C$DW$T$83, DW_AT_type(*$C$DW$T$19)
    2798                            .dwattr $C$DW$T$83, DW_AT_language(DW_LANG_C)
    2799                            .dwattr $C$DW$T$83, DW_AT_decl_file("C:/ti/ccsv7/tools/compiler/ti-cgt-arm_16.9.0.LTS/include/
    2800                            .dwattr $C$DW$T$83, DW_AT_decl_line(0x46)
    2801                            .dwattr $C$DW$T$83, DW_AT_decl_column(0x16)
    2802                    
    2803                    $C$DW$T$84      .dwtag  DW_TAG_typedef
    2804                            .dwattr $C$DW$T$84, DW_AT_name("uint_least32_t")
    2805                            .dwattr $C$DW$T$84, DW_AT_type(*$C$DW$T$19)
TI ARM Assembler PC v16.9.0 Sun Feb 19 22:29:40 2017

Tools Copyright (c) 1996-2015 Texas Instruments Incorporated
C:\Users\bob\AppData\Local\Temp\0957210                              PAGE   52

    2806                            .dwattr $C$DW$T$84, DW_AT_language(DW_LANG_C)
    2807                            .dwattr $C$DW$T$84, DW_AT_decl_file("C:/ti/ccsv7/tools/compiler/ti-cgt-arm_16.9.0.LTS/include/
    2808                            .dwattr $C$DW$T$84, DW_AT_decl_line(0x3d)
    2809                            .dwattr $C$DW$T$84, DW_AT_decl_column(0x16)
    2810                    
    2811                    $C$DW$T$85      .dwtag  DW_TAG_typedef
    2812                            .dwattr $C$DW$T$85, DW_AT_name("uintptr_t")
    2813                            .dwattr $C$DW$T$85, DW_AT_type(*$C$DW$T$11)
    2814                            .dwattr $C$DW$T$85, DW_AT_language(DW_LANG_C)
    2815                            .dwattr $C$DW$T$85, DW_AT_decl_file("C:/ti/ccsv7/tools/compiler/ti-cgt-arm_16.9.0.LTS/include/
    2816                            .dwattr $C$DW$T$85, DW_AT_decl_line(0x53)
    2817                            .dwattr $C$DW$T$85, DW_AT_decl_column(0x1a)
    2818                    
    2819                    $C$DW$T$12      .dwtag  DW_TAG_base_type
    2820                            .dwattr $C$DW$T$12, DW_AT_encoding(DW_ATE_signed)
    2821                            .dwattr $C$DW$T$12, DW_AT_name("long")
    2822                            .dwattr $C$DW$T$12, DW_AT_byte_size(0x04)
    2823                    
    2824                    $C$DW$T$13      .dwtag  DW_TAG_base_type
    2825                            .dwattr $C$DW$T$13, DW_AT_encoding(DW_ATE_unsigned)
    2826                            .dwattr $C$DW$T$13, DW_AT_name("unsigned long")
    2827                            .dwattr $C$DW$T$13, DW_AT_byte_size(0x04)
    2828                    
    2829                    $C$DW$T$14      .dwtag  DW_TAG_base_type
    2830                            .dwattr $C$DW$T$14, DW_AT_encoding(DW_ATE_signed)
    2831                            .dwattr $C$DW$T$14, DW_AT_name("long long")
    2832                            .dwattr $C$DW$T$14, DW_AT_byte_size(0x08)
    2833                    
    2834                    $C$DW$T$86      .dwtag  DW_TAG_typedef
    2835                            .dwattr $C$DW$T$86, DW_AT_name("int64_t")
    2836                            .dwattr $C$DW$T$86, DW_AT_type(*$C$DW$T$14)
    2837                            .dwattr $C$DW$T$86, DW_AT_language(DW_LANG_C)
    2838                            .dwattr $C$DW$T$86, DW_AT_decl_file("C:/ti/ccsv7/tools/compiler/ti-cgt-arm_16.9.0.LTS/include/
    2839                            .dwattr $C$DW$T$86, DW_AT_decl_line(0x32)
    2840                            .dwattr $C$DW$T$86, DW_AT_decl_column(0x21)
    2841                    
    2842                    $C$DW$T$87      .dwtag  DW_TAG_typedef
    2843                            .dwattr $C$DW$T$87, DW_AT_name("int_fast64_t")
    2844                            .dwattr $C$DW$T$87, DW_AT_type(*$C$DW$T$86)
    2845                            .dwattr $C$DW$T$87, DW_AT_language(DW_LANG_C)
    2846                            .dwattr $C$DW$T$87, DW_AT_decl_file("C:/ti/ccsv7/tools/compiler/ti-cgt-arm_16.9.0.LTS/include/
    2847                            .dwattr $C$DW$T$87, DW_AT_decl_line(0x4e)
    2848                            .dwattr $C$DW$T$87, DW_AT_decl_column(0x17)
    2849                    
    2850                    $C$DW$T$88      .dwtag  DW_TAG_typedef
    2851                            .dwattr $C$DW$T$88, DW_AT_name("int_least64_t")
    2852                            .dwattr $C$DW$T$88, DW_AT_type(*$C$DW$T$86)
    2853                            .dwattr $C$DW$T$88, DW_AT_language(DW_LANG_C)
    2854                            .dwattr $C$DW$T$88, DW_AT_decl_file("C:/ti/ccsv7/tools/compiler/ti-cgt-arm_16.9.0.LTS/include/
    2855                            .dwattr $C$DW$T$88, DW_AT_decl_line(0x40)
    2856                            .dwattr $C$DW$T$88, DW_AT_decl_column(0x17)
    2857                    
    2858                    $C$DW$T$89      .dwtag  DW_TAG_typedef
    2859                            .dwattr $C$DW$T$89, DW_AT_name("sint64")
    2860                            .dwattr $C$DW$T$89, DW_AT_type(*$C$DW$T$86)
TI ARM Assembler PC v16.9.0 Sun Feb 19 22:29:40 2017

Tools Copyright (c) 1996-2015 Texas Instruments Incorporated
C:\Users\bob\AppData\Local\Temp\0957210                              PAGE   53

    2861                            .dwattr $C$DW$T$89, DW_AT_language(DW_LANG_C)
    2862                            .dwattr $C$DW$T$89, DW_AT_decl_file("C:\Users\bob\Documents\Projects\induct_forge\RM57Lx_test\
    2863                            .dwattr $C$DW$T$89, DW_AT_decl_line(0x59)
    2864                            .dwattr $C$DW$T$89, DW_AT_decl_column(0x11)
    2865                    
    2866                    $C$DW$T$90      .dwtag  DW_TAG_typedef
    2867                            .dwattr $C$DW$T$90, DW_AT_name("intmax_t")
    2868                            .dwattr $C$DW$T$90, DW_AT_type(*$C$DW$T$14)
    2869                            .dwattr $C$DW$T$90, DW_AT_language(DW_LANG_C)
    2870                            .dwattr $C$DW$T$90, DW_AT_decl_file("C:/ti/ccsv7/tools/compiler/ti-cgt-arm_16.9.0.LTS/include/
    2871                            .dwattr $C$DW$T$90, DW_AT_decl_line(0x56)
    2872                            .dwattr $C$DW$T$90, DW_AT_decl_column(0x20)
    2873                    
    2874                    $C$DW$T$15      .dwtag  DW_TAG_base_type
    2875                            .dwattr $C$DW$T$15, DW_AT_encoding(DW_ATE_unsigned)
    2876                            .dwattr $C$DW$T$15, DW_AT_name("unsigned long long")
    2877                            .dwattr $C$DW$T$15, DW_AT_byte_size(0x08)
    2878                    
    2879                    $C$DW$T$91      .dwtag  DW_TAG_typedef
    2880                            .dwattr $C$DW$T$91, DW_AT_name("uint64_t")
    2881                            .dwattr $C$DW$T$91, DW_AT_type(*$C$DW$T$15)
    2882                            .dwattr $C$DW$T$91, DW_AT_language(DW_LANG_C)
    2883                            .dwattr $C$DW$T$91, DW_AT_decl_file("C:/ti/ccsv7/tools/compiler/ti-cgt-arm_16.9.0.LTS/include/
    2884                            .dwattr $C$DW$T$91, DW_AT_decl_line(0x33)
    2885                            .dwattr $C$DW$T$91, DW_AT_decl_column(0x20)
    2886                    
    2887                    $C$DW$T$92      .dwtag  DW_TAG_typedef
    2888                            .dwattr $C$DW$T$92, DW_AT_name("uint64")
    2889                            .dwattr $C$DW$T$92, DW_AT_type(*$C$DW$T$91)
    2890                            .dwattr $C$DW$T$92, DW_AT_language(DW_LANG_C)
    2891                            .dwattr $C$DW$T$92, DW_AT_decl_file("C:\Users\bob\Documents\Projects\induct_forge\RM57Lx_test\
    2892                            .dwattr $C$DW$T$92, DW_AT_decl_line(0x3c)
    2893                            .dwattr $C$DW$T$92, DW_AT_decl_column(0x12)
    2894                    
    2895                    $C$DW$T$93      .dwtag  DW_TAG_typedef
    2896                            .dwattr $C$DW$T$93, DW_AT_name("uint_fast64_t")
    2897                            .dwattr $C$DW$T$93, DW_AT_type(*$C$DW$T$91)
    2898                            .dwattr $C$DW$T$93, DW_AT_language(DW_LANG_C)
    2899                            .dwattr $C$DW$T$93, DW_AT_decl_file("C:/ti/ccsv7/tools/compiler/ti-cgt-arm_16.9.0.LTS/include/
    2900                            .dwattr $C$DW$T$93, DW_AT_decl_line(0x4f)
    2901                            .dwattr $C$DW$T$93, DW_AT_decl_column(0x16)
    2902                    
    2903                    $C$DW$T$94      .dwtag  DW_TAG_typedef
    2904                            .dwattr $C$DW$T$94, DW_AT_name("uint_least64_t")
    2905                            .dwattr $C$DW$T$94, DW_AT_type(*$C$DW$T$91)
    2906                            .dwattr $C$DW$T$94, DW_AT_language(DW_LANG_C)
    2907                            .dwattr $C$DW$T$94, DW_AT_decl_file("C:/ti/ccsv7/tools/compiler/ti-cgt-arm_16.9.0.LTS/include/
    2908                            .dwattr $C$DW$T$94, DW_AT_decl_line(0x41)
    2909                            .dwattr $C$DW$T$94, DW_AT_decl_column(0x16)
    2910                    
    2911                    $C$DW$T$95      .dwtag  DW_TAG_typedef
    2912                            .dwattr $C$DW$T$95, DW_AT_name("uintmax_t")
    2913                            .dwattr $C$DW$T$95, DW_AT_type(*$C$DW$T$15)
    2914                            .dwattr $C$DW$T$95, DW_AT_language(DW_LANG_C)
    2915                            .dwattr $C$DW$T$95, DW_AT_decl_file("C:/ti/ccsv7/tools/compiler/ti-cgt-arm_16.9.0.LTS/include/
TI ARM Assembler PC v16.9.0 Sun Feb 19 22:29:40 2017

Tools Copyright (c) 1996-2015 Texas Instruments Incorporated
C:\Users\bob\AppData\Local\Temp\0957210                              PAGE   54

    2916                            .dwattr $C$DW$T$95, DW_AT_decl_line(0x57)
    2917                            .dwattr $C$DW$T$95, DW_AT_decl_column(0x20)
    2918                    
    2919                    $C$DW$T$16      .dwtag  DW_TAG_base_type
    2920                            .dwattr $C$DW$T$16, DW_AT_encoding(DW_ATE_float)
    2921                            .dwattr $C$DW$T$16, DW_AT_name("float")
    2922                            .dwattr $C$DW$T$16, DW_AT_byte_size(0x04)
    2923                    
    2924                    $C$DW$T$96      .dwtag  DW_TAG_typedef
    2925                            .dwattr $C$DW$T$96, DW_AT_name("float32")
    2926                            .dwattr $C$DW$T$96, DW_AT_type(*$C$DW$T$16)
    2927                            .dwattr $C$DW$T$96, DW_AT_language(DW_LANG_C)
    2928                            .dwattr $C$DW$T$96, DW_AT_decl_file("C:\Users\bob\Documents\Projects\induct_forge\RM57Lx_test\
    2929                            .dwattr $C$DW$T$96, DW_AT_decl_line(0x6d)
    2930                            .dwattr $C$DW$T$96, DW_AT_decl_column(0x0f)
    2931                    
    2932                    $C$DW$T$17      .dwtag  DW_TAG_base_type
    2933                            .dwattr $C$DW$T$17, DW_AT_encoding(DW_ATE_float)
    2934                            .dwattr $C$DW$T$17, DW_AT_name("double")
    2935                            .dwattr $C$DW$T$17, DW_AT_byte_size(0x08)
    2936                    
    2937                    $C$DW$T$97      .dwtag  DW_TAG_typedef
    2938                            .dwattr $C$DW$T$97, DW_AT_name("float64")
    2939                            .dwattr $C$DW$T$97, DW_AT_type(*$C$DW$T$17)
    2940                            .dwattr $C$DW$T$97, DW_AT_language(DW_LANG_C)
    2941                            .dwattr $C$DW$T$97, DW_AT_decl_file("C:\Users\bob\Documents\Projects\induct_forge\RM57Lx_test\
    2942                            .dwattr $C$DW$T$97, DW_AT_decl_line(0x72)
    2943                            .dwattr $C$DW$T$97, DW_AT_decl_column(0x10)
    2944                    
    2945                    $C$DW$T$18      .dwtag  DW_TAG_base_type
    2946                            .dwattr $C$DW$T$18, DW_AT_encoding(DW_ATE_float)
    2947                            .dwattr $C$DW$T$18, DW_AT_name("long double")
    2948                            .dwattr $C$DW$T$18, DW_AT_byte_size(0x08)
    2949                    
    2950                    $C$DW$T$98      .dwtag  DW_TAG_base_type
    2951                            .dwattr $C$DW$T$98, DW_AT_encoding(DW_ATE_unsigned_char)
    2952                            .dwattr $C$DW$T$98, DW_AT_name("unsigned char")
    2953                            .dwattr $C$DW$T$98, DW_AT_byte_size(0x01)
    2954                    
    2955                    $C$DW$T$99      .dwtag  DW_TAG_typedef
    2956                            .dwattr $C$DW$T$99, DW_AT_name("boolean")
    2957                            .dwattr $C$DW$T$99, DW_AT_type(*$C$DW$T$98)
    2958                            .dwattr $C$DW$T$99, DW_AT_language(DW_LANG_C)
    2959                            .dwattr $C$DW$T$99, DW_AT_decl_file("C:\Users\bob\Documents\Projects\induct_forge\RM57Lx_test\
    2960                            .dwattr $C$DW$T$99, DW_AT_decl_line(0x53)
    2961                            .dwattr $C$DW$T$99, DW_AT_decl_column(0x0f)
    2962                    
    2963                    $C$DW$T$101     .dwtag  DW_TAG_typedef
    2964                            .dwattr $C$DW$T$101, DW_AT_name("tBoolean")
    2965                            .dwattr $C$DW$T$101, DW_AT_type(*$C$DW$T$99)
    2966                            .dwattr $C$DW$T$101, DW_AT_language(DW_LANG_C)
    2967                            .dwattr $C$DW$T$101, DW_AT_decl_file("C:\Users\bob\Documents\Projects\induct_forge\RM57Lx_test
    2968                            .dwattr $C$DW$T$101, DW_AT_decl_line(0x40)
    2969                            .dwattr $C$DW$T$101, DW_AT_decl_column(0x11)
    2970                    
TI ARM Assembler PC v16.9.0 Sun Feb 19 22:29:40 2017

Tools Copyright (c) 1996-2015 Texas Instruments Incorporated
C:\Users\bob\AppData\Local\Temp\0957210                              PAGE   55

    2971                    
    2972                    $C$DW$T$58      .dwtag  DW_TAG_enumeration_type
    2973                            .dwattr $C$DW$T$58, DW_AT_name("config_value_type")
    2974                            .dwattr $C$DW$T$58, DW_AT_byte_size(0x01)
    2975                    $C$DW$146       .dwtag  DW_TAG_enumerator
    2976                            .dwattr $C$DW$146, DW_AT_name("InitialValue")
    2977                            .dwattr $C$DW$146, DW_AT_const_value(0x00)
    2978                            .dwattr $C$DW$146, DW_AT_decl_file("C:\Users\bob\Documents\Projects\induct_forge\RM57Lx_test\P
    2979                            .dwattr $C$DW$146, DW_AT_decl_line(0x5c)
    2980                            .dwattr $C$DW$146, DW_AT_decl_column(0x02)
    2981                    
    2982                    $C$DW$147       .dwtag  DW_TAG_enumerator
    2983                            .dwattr $C$DW$147, DW_AT_name("CurrentValue")
    2984                            .dwattr $C$DW$147, DW_AT_const_value(0x01)
    2985                            .dwattr $C$DW$147, DW_AT_decl_file("C:\Users\bob\Documents\Projects\induct_forge\RM57Lx_test\P
    2986                            .dwattr $C$DW$147, DW_AT_decl_line(0x5d)
    2987                            .dwattr $C$DW$147, DW_AT_decl_column(0x02)
    2988                    
    2989                            .dwattr $C$DW$T$58, DW_AT_decl_file("C:\Users\bob\Documents\Projects\induct_forge\RM57Lx_test\
    2990                            .dwattr $C$DW$T$58, DW_AT_decl_line(0x5a)
    2991                            .dwattr $C$DW$T$58, DW_AT_decl_column(0x0e)
    2992                            .dwendtag $C$DW$T$58
    2993                    
    2994                    $C$DW$T$59      .dwtag  DW_TAG_typedef
    2995                            .dwattr $C$DW$T$59, DW_AT_name("config_value_type_t")
    2996                            .dwattr $C$DW$T$59, DW_AT_type(*$C$DW$T$58)
    2997                            .dwattr $C$DW$T$59, DW_AT_language(DW_LANG_C)
    2998                            .dwattr $C$DW$T$59, DW_AT_decl_file("C:\Users\bob\Documents\Projects\induct_forge\RM57Lx_test\
    2999                            .dwattr $C$DW$T$59, DW_AT_decl_line(0x5e)
    3000                            .dwattr $C$DW$T$59, DW_AT_decl_column(0x02)
    3001                    
    3002                    
    3003                    $C$DW$T$102     .dwtag  DW_TAG_enumeration_type
    3004                            .dwattr $C$DW$T$102, DW_AT_name("dwdResetStatusTag")
    3005                            .dwattr $C$DW$T$102, DW_AT_byte_size(0x01)
    3006                    $C$DW$148       .dwtag  DW_TAG_enumerator
    3007                            .dwattr $C$DW$148, DW_AT_name("No_Reset_Generated")
    3008                            .dwattr $C$DW$148, DW_AT_const_value(0x00)
    3009                            .dwattr $C$DW$148, DW_AT_decl_file("C:/Users/bob/Documents/Projects/induct_forge/RM57Lx_test/P
    3010                            .dwattr $C$DW$148, DW_AT_decl_line(0xcc)
    3011                            .dwattr $C$DW$148, DW_AT_decl_column(0x02)
    3012                    
    3013                    $C$DW$149       .dwtag  DW_TAG_enumerator
    3014                            .dwattr $C$DW$149, DW_AT_name("Reset_Generated")
    3015                            .dwattr $C$DW$149, DW_AT_const_value(0x01)
    3016                            .dwattr $C$DW$149, DW_AT_decl_file("C:/Users/bob/Documents/Projects/induct_forge/RM57Lx_test/P
    3017                            .dwattr $C$DW$149, DW_AT_decl_line(0xcd)
    3018                            .dwattr $C$DW$149, DW_AT_decl_column(0x02)
    3019                    
    3020                            .dwattr $C$DW$T$102, DW_AT_decl_file("C:/Users/bob/Documents/Projects/induct_forge/RM57Lx_test
    3021                            .dwattr $C$DW$T$102, DW_AT_decl_line(0xca)
    3022                            .dwattr $C$DW$T$102, DW_AT_decl_column(0x0e)
    3023                            .dwendtag $C$DW$T$102
    3024                    
    3025                    $C$DW$T$103     .dwtag  DW_TAG_typedef
TI ARM Assembler PC v16.9.0 Sun Feb 19 22:29:40 2017

Tools Copyright (c) 1996-2015 Texas Instruments Incorporated
C:\Users\bob\AppData\Local\Temp\0957210                              PAGE   56

    3026                            .dwattr $C$DW$T$103, DW_AT_name("dwdResetStatus_t")
    3027                            .dwattr $C$DW$T$103, DW_AT_type(*$C$DW$T$102)
    3028                            .dwattr $C$DW$T$103, DW_AT_language(DW_LANG_C)
    3029                            .dwattr $C$DW$T$103, DW_AT_decl_file("C:/Users/bob/Documents/Projects/induct_forge/RM57Lx_test
    3030                            .dwattr $C$DW$T$103, DW_AT_decl_line(0xce)
    3031                            .dwattr $C$DW$T$103, DW_AT_decl_column(0x02)
    3032                    
    3033                    
    3034                    $C$DW$T$105     .dwtag  DW_TAG_enumeration_type
    3035                            .dwattr $C$DW$T$105, DW_AT_name("dwdViolationTag")
    3036                            .dwattr $C$DW$T$105, DW_AT_byte_size(0x01)
    3037                    $C$DW$150       .dwtag  DW_TAG_enumerator
    3038                            .dwattr $C$DW$150, DW_AT_name("NoTime_Violation")
    3039                            .dwattr $C$DW$150, DW_AT_const_value(0x00)
    3040                            .dwattr $C$DW$150, DW_AT_decl_file("C:/Users/bob/Documents/Projects/induct_forge/RM57Lx_test/P
    3041                            .dwattr $C$DW$150, DW_AT_decl_line(0xbd)
    3042                            .dwattr $C$DW$150, DW_AT_decl_column(0x02)
    3043                    
    3044                    $C$DW$151       .dwtag  DW_TAG_enumerator
    3045                            .dwattr $C$DW$151, DW_AT_name("Time_Window_Violation")
    3046                            .dwattr $C$DW$151, DW_AT_const_value(0x01)
    3047                            .dwattr $C$DW$151, DW_AT_decl_file("C:/Users/bob/Documents/Projects/induct_forge/RM57Lx_test/P
    3048                            .dwattr $C$DW$151, DW_AT_decl_line(0xbe)
    3049                            .dwattr $C$DW$151, DW_AT_decl_column(0x02)
    3050                    
    3051                    $C$DW$152       .dwtag  DW_TAG_enumerator
    3052                            .dwattr $C$DW$152, DW_AT_name("EndTime_Window_Violation")
    3053                            .dwattr $C$DW$152, DW_AT_const_value(0x02)
    3054                            .dwattr $C$DW$152, DW_AT_decl_file("C:/Users/bob/Documents/Projects/induct_forge/RM57Lx_test/P
    3055                            .dwattr $C$DW$152, DW_AT_decl_line(0xbf)
    3056                            .dwattr $C$DW$152, DW_AT_decl_column(0x02)
    3057                    
    3058                    $C$DW$153       .dwtag  DW_TAG_enumerator
    3059                            .dwattr $C$DW$153, DW_AT_name("StartTime_Window_Violation")
    3060                            .dwattr $C$DW$153, DW_AT_const_value(0x03)
    3061                            .dwattr $C$DW$153, DW_AT_decl_file("C:/Users/bob/Documents/Projects/induct_forge/RM57Lx_test/P
    3062                            .dwattr $C$DW$153, DW_AT_decl_line(0xc0)
    3063                            .dwattr $C$DW$153, DW_AT_decl_column(0x02)
    3064                    
    3065                    $C$DW$154       .dwtag  DW_TAG_enumerator
    3066                            .dwattr $C$DW$154, DW_AT_name("Key_Seq_Violation")
    3067                            .dwattr $C$DW$154, DW_AT_const_value(0x04)
    3068                            .dwattr $C$DW$154, DW_AT_decl_file("C:/Users/bob/Documents/Projects/induct_forge/RM57Lx_test/P
    3069                            .dwattr $C$DW$154, DW_AT_decl_line(0xc1)
    3070                            .dwattr $C$DW$154, DW_AT_decl_column(0x02)
    3071                    
    3072                            .dwattr $C$DW$T$105, DW_AT_decl_file("C:/Users/bob/Documents/Projects/induct_forge/RM57Lx_test
    3073                            .dwattr $C$DW$T$105, DW_AT_decl_line(0xbb)
    3074                            .dwattr $C$DW$T$105, DW_AT_decl_column(0x0e)
    3075                            .dwendtag $C$DW$T$105
    3076                    
    3077                    $C$DW$T$106     .dwtag  DW_TAG_typedef
    3078                            .dwattr $C$DW$T$106, DW_AT_name("dwdViolation_t")
    3079                            .dwattr $C$DW$T$106, DW_AT_type(*$C$DW$T$105)
    3080                            .dwattr $C$DW$T$106, DW_AT_language(DW_LANG_C)
TI ARM Assembler PC v16.9.0 Sun Feb 19 22:29:40 2017

Tools Copyright (c) 1996-2015 Texas Instruments Incorporated
C:\Users\bob\AppData\Local\Temp\0957210                              PAGE   57

    3081                            .dwattr $C$DW$T$106, DW_AT_decl_file("C:/Users/bob/Documents/Projects/induct_forge/RM57Lx_test
    3082                            .dwattr $C$DW$T$106, DW_AT_decl_line(0xc2)
    3083                            .dwattr $C$DW$T$106, DW_AT_decl_column(0x02)
    3084                    
    3085                    
    3086                    $C$DW$T$50      .dwtag  DW_TAG_enumeration_type
    3087                            .dwattr $C$DW$T$50, DW_AT_name("dwwdReactionTag")
    3088                            .dwattr $C$DW$T$50, DW_AT_byte_size(0x01)
    3089                    $C$DW$155       .dwtag  DW_TAG_enumerator
    3090                            .dwattr $C$DW$155, DW_AT_name("Generate_Reset")
    3091                            .dwattr $C$DW$155, DW_AT_const_value(0x05)
    3092                            .dwattr $C$DW$155, DW_AT_decl_file("C:/Users/bob/Documents/Projects/induct_forge/RM57Lx_test/P
    3093                            .dwattr $C$DW$155, DW_AT_decl_line(0xd8)
    3094                            .dwattr $C$DW$155, DW_AT_decl_column(0x02)
    3095                    
    3096                    $C$DW$156       .dwtag  DW_TAG_enumerator
    3097                            .dwattr $C$DW$156, DW_AT_name("Generate_NMI")
    3098                            .dwattr $C$DW$156, DW_AT_const_value(0x0a)
    3099                            .dwattr $C$DW$156, DW_AT_decl_file("C:/Users/bob/Documents/Projects/induct_forge/RM57Lx_test/P
    3100                            .dwattr $C$DW$156, DW_AT_decl_line(0xd9)
    3101                            .dwattr $C$DW$156, DW_AT_decl_column(0x02)
    3102                    
    3103                            .dwattr $C$DW$T$50, DW_AT_decl_file("C:/Users/bob/Documents/Projects/induct_forge/RM57Lx_test/
    3104                            .dwattr $C$DW$T$50, DW_AT_decl_line(0xd6)
    3105                            .dwattr $C$DW$T$50, DW_AT_decl_column(0x0e)
    3106                            .dwendtag $C$DW$T$50
    3107                    
    3108                    $C$DW$T$51      .dwtag  DW_TAG_typedef
    3109                            .dwattr $C$DW$T$51, DW_AT_name("dwwdReaction_t")
    3110                            .dwattr $C$DW$T$51, DW_AT_type(*$C$DW$T$50)
    3111                            .dwattr $C$DW$T$51, DW_AT_language(DW_LANG_C)
    3112                            .dwattr $C$DW$T$51, DW_AT_decl_file("C:/Users/bob/Documents/Projects/induct_forge/RM57Lx_test/
    3113                            .dwattr $C$DW$T$51, DW_AT_decl_line(0xda)
    3114                            .dwattr $C$DW$T$51, DW_AT_decl_column(0x02)
    3115                    
    3116                    
    3117                    $C$DW$T$52      .dwtag  DW_TAG_enumeration_type
    3118                            .dwattr $C$DW$T$52, DW_AT_name("dwwdWindowSizeTag")
    3119                            .dwattr $C$DW$T$52, DW_AT_byte_size(0x04)
    3120                    $C$DW$157       .dwtag  DW_TAG_enumerator
    3121                            .dwattr $C$DW$157, DW_AT_name("Size_100_Percent")
    3122                            .dwattr $C$DW$157, DW_AT_const_value(0x05)
    3123                            .dwattr $C$DW$157, DW_AT_decl_file("C:/Users/bob/Documents/Projects/induct_forge/RM57Lx_test/P
    3124                            .dwattr $C$DW$157, DW_AT_decl_line(0xe4)
    3125                            .dwattr $C$DW$157, DW_AT_decl_column(0x02)
    3126                    
    3127                    $C$DW$158       .dwtag  DW_TAG_enumerator
    3128                            .dwattr $C$DW$158, DW_AT_name("Size_50_Percent")
    3129                            .dwattr $C$DW$158, DW_AT_const_value(0x50)
    3130                            .dwattr $C$DW$158, DW_AT_decl_file("C:/Users/bob/Documents/Projects/induct_forge/RM57Lx_test/P
    3131                            .dwattr $C$DW$158, DW_AT_decl_line(0xe5)
    3132                            .dwattr $C$DW$158, DW_AT_decl_column(0x02)
    3133                    
    3134                    $C$DW$159       .dwtag  DW_TAG_enumerator
    3135                            .dwattr $C$DW$159, DW_AT_name("Size_25_Percent")
TI ARM Assembler PC v16.9.0 Sun Feb 19 22:29:40 2017

Tools Copyright (c) 1996-2015 Texas Instruments Incorporated
C:\Users\bob\AppData\Local\Temp\0957210                              PAGE   58

    3136                            .dwattr $C$DW$159, DW_AT_const_value(0x500)
    3137                            .dwattr $C$DW$159, DW_AT_decl_file("C:/Users/bob/Documents/Projects/induct_forge/RM57Lx_test/P
    3138                            .dwattr $C$DW$159, DW_AT_decl_line(0xe6)
    3139                            .dwattr $C$DW$159, DW_AT_decl_column(0x02)
    3140                    
    3141                    $C$DW$160       .dwtag  DW_TAG_enumerator
    3142                            .dwattr $C$DW$160, DW_AT_name("Size_12_5_Percent")
    3143                            .dwattr $C$DW$160, DW_AT_const_value(0x5000)
    3144                            .dwattr $C$DW$160, DW_AT_decl_file("C:/Users/bob/Documents/Projects/induct_forge/RM57Lx_test/P
    3145                            .dwattr $C$DW$160, DW_AT_decl_line(0xe7)
    3146                            .dwattr $C$DW$160, DW_AT_decl_column(0x02)
    3147                    
    3148                    $C$DW$161       .dwtag  DW_TAG_enumerator
    3149                            .dwattr $C$DW$161, DW_AT_name("Size_6_25_Percent")
    3150                            .dwattr $C$DW$161, DW_AT_const_value(0x50000)
    3151                            .dwattr $C$DW$161, DW_AT_decl_file("C:/Users/bob/Documents/Projects/induct_forge/RM57Lx_test/P
    3152                            .dwattr $C$DW$161, DW_AT_decl_line(0xe8)
    3153                            .dwattr $C$DW$161, DW_AT_decl_column(0x02)
    3154                    
    3155                    $C$DW$162       .dwtag  DW_TAG_enumerator
    3156                            .dwattr $C$DW$162, DW_AT_name("Size_3_125_Percent")
    3157                            .dwattr $C$DW$162, DW_AT_const_value(0x500000)
    3158                            .dwattr $C$DW$162, DW_AT_decl_file("C:/Users/bob/Documents/Projects/induct_forge/RM57Lx_test/P
    3159                            .dwattr $C$DW$162, DW_AT_decl_line(0xe9)
    3160                            .dwattr $C$DW$162, DW_AT_decl_column(0x02)
    3161                    
    3162                            .dwattr $C$DW$T$52, DW_AT_decl_file("C:/Users/bob/Documents/Projects/induct_forge/RM57Lx_test/
    3163                            .dwattr $C$DW$T$52, DW_AT_decl_line(0xe2)
    3164                            .dwattr $C$DW$T$52, DW_AT_decl_column(0x0e)
    3165                            .dwendtag $C$DW$T$52
    3166                    
    3167                    $C$DW$T$53      .dwtag  DW_TAG_typedef
    3168                            .dwattr $C$DW$T$53, DW_AT_name("dwwdWindowSize_t")
    3169                            .dwattr $C$DW$T$53, DW_AT_type(*$C$DW$T$52)
    3170                            .dwattr $C$DW$T$53, DW_AT_language(DW_LANG_C)
    3171                            .dwattr $C$DW$T$53, DW_AT_decl_file("C:/Users/bob/Documents/Projects/induct_forge/RM57Lx_test/
    3172                            .dwattr $C$DW$T$53, DW_AT_decl_line(0xea)
    3173                            .dwattr $C$DW$T$53, DW_AT_decl_column(0x02)
    3174                    
    3175                    
    3176                    $C$DW$T$108     .dwtag  DW_TAG_enumeration_type
    3177                            .dwattr $C$DW$T$108, DW_AT_name("loopBackType")
    3178                            .dwattr $C$DW$T$108, DW_AT_byte_size(0x01)
    3179                    $C$DW$163       .dwtag  DW_TAG_enumerator
    3180                            .dwattr $C$DW$163, DW_AT_name("Digital_Lbk")
    3181                            .dwattr $C$DW$163, DW_AT_const_value(0x00)
    3182                            .dwattr $C$DW$163, DW_AT_decl_file("C:\Users\bob\Documents\Projects\induct_forge\RM57Lx_test\P
    3183                            .dwattr $C$DW$163, DW_AT_decl_line(0x4e)
    3184                            .dwattr $C$DW$163, DW_AT_decl_column(0x05)
    3185                    
    3186                    $C$DW$164       .dwtag  DW_TAG_enumerator
    3187                            .dwattr $C$DW$164, DW_AT_name("Analog_Lbk")
    3188                            .dwattr $C$DW$164, DW_AT_const_value(0x01)
    3189                            .dwattr $C$DW$164, DW_AT_decl_file("C:\Users\bob\Documents\Projects\induct_forge\RM57Lx_test\P
    3190                            .dwattr $C$DW$164, DW_AT_decl_line(0x4f)
TI ARM Assembler PC v16.9.0 Sun Feb 19 22:29:40 2017

Tools Copyright (c) 1996-2015 Texas Instruments Incorporated
C:\Users\bob\AppData\Local\Temp\0957210                              PAGE   59

    3191                            .dwattr $C$DW$164, DW_AT_decl_column(0x05)
    3192                    
    3193                            .dwattr $C$DW$T$108, DW_AT_decl_file("C:\Users\bob\Documents\Projects\induct_forge\RM57Lx_test
    3194                            .dwattr $C$DW$T$108, DW_AT_decl_line(0x4c)
    3195                            .dwattr $C$DW$T$108, DW_AT_decl_column(0x0e)
    3196                            .dwendtag $C$DW$T$108
    3197                    
    3198                    $C$DW$T$109     .dwtag  DW_TAG_typedef
    3199                            .dwattr $C$DW$T$109, DW_AT_name("loopBackType_t")
    3200                            .dwattr $C$DW$T$109, DW_AT_type(*$C$DW$T$108)
    3201                            .dwattr $C$DW$T$109, DW_AT_language(DW_LANG_C)
    3202                            .dwattr $C$DW$T$109, DW_AT_decl_file("C:\Users\bob\Documents\Projects\induct_forge\RM57Lx_test
    3203                            .dwattr $C$DW$T$109, DW_AT_decl_line(0x50)
    3204                            .dwattr $C$DW$T$109, DW_AT_decl_column(0x02)
    3205                    
    3206                    
    3207                    $C$DW$T$26      .dwtag  DW_TAG_structure_type
    3208                            .dwattr $C$DW$T$26, DW_AT_name("rtiBase")
    3209                            .dwattr $C$DW$T$26, DW_AT_byte_size(0xc0)
    3210                    $C$DW$165       .dwtag  DW_TAG_member
    3211                            .dwattr $C$DW$165, DW_AT_type(*$C$DW$T$20)
    3212                            .dwattr $C$DW$165, DW_AT_name("GCTRL")
    3213                            .dwattr $C$DW$165, DW_AT_TI_symbol_name("GCTRL")
    3214                            .dwattr $C$DW$165, DW_AT_data_member_location[DW_OP_plus_uconst 0x0]
    3215                            .dwattr $C$DW$165, DW_AT_accessibility(DW_ACCESS_public)
    3216                            .dwattr $C$DW$165, DW_AT_decl_file("C:\Users\bob\Documents\Projects\induct_forge\RM57Lx_test\P
    3217                            .dwattr $C$DW$165, DW_AT_decl_line(0x48)
    3218                            .dwattr $C$DW$165, DW_AT_decl_column(0x0c)
    3219                    
    3220                    $C$DW$166       .dwtag  DW_TAG_member
    3221                            .dwattr $C$DW$166, DW_AT_type(*$C$DW$T$20)
    3222                            .dwattr $C$DW$166, DW_AT_name("TBCTRL")
    3223                            .dwattr $C$DW$166, DW_AT_TI_symbol_name("TBCTRL")
    3224                            .dwattr $C$DW$166, DW_AT_data_member_location[DW_OP_plus_uconst 0x4]
    3225                            .dwattr $C$DW$166, DW_AT_accessibility(DW_ACCESS_public)
    3226                            .dwattr $C$DW$166, DW_AT_decl_file("C:\Users\bob\Documents\Projects\induct_forge\RM57Lx_test\P
    3227                            .dwattr $C$DW$166, DW_AT_decl_line(0x49)
    3228                            .dwattr $C$DW$166, DW_AT_decl_column(0x0c)
    3229                    
    3230                    $C$DW$167       .dwtag  DW_TAG_member
    3231                            .dwattr $C$DW$167, DW_AT_type(*$C$DW$T$20)
    3232                            .dwattr $C$DW$167, DW_AT_name("CAPCTRL")
    3233                            .dwattr $C$DW$167, DW_AT_TI_symbol_name("CAPCTRL")
    3234                            .dwattr $C$DW$167, DW_AT_data_member_location[DW_OP_plus_uconst 0x8]
    3235                            .dwattr $C$DW$167, DW_AT_accessibility(DW_ACCESS_public)
    3236                            .dwattr $C$DW$167, DW_AT_decl_file("C:\Users\bob\Documents\Projects\induct_forge\RM57Lx_test\P
    3237                            .dwattr $C$DW$167, DW_AT_decl_line(0x4a)
    3238                            .dwattr $C$DW$167, DW_AT_decl_column(0x0c)
    3239                    
    3240                    $C$DW$168       .dwtag  DW_TAG_member
    3241                            .dwattr $C$DW$168, DW_AT_type(*$C$DW$T$20)
    3242                            .dwattr $C$DW$168, DW_AT_name("COMPCTRL")
    3243                            .dwattr $C$DW$168, DW_AT_TI_symbol_name("COMPCTRL")
    3244                            .dwattr $C$DW$168, DW_AT_data_member_location[DW_OP_plus_uconst 0xc]
    3245                            .dwattr $C$DW$168, DW_AT_accessibility(DW_ACCESS_public)
TI ARM Assembler PC v16.9.0 Sun Feb 19 22:29:40 2017

Tools Copyright (c) 1996-2015 Texas Instruments Incorporated
C:\Users\bob\AppData\Local\Temp\0957210                              PAGE   60

    3246                            .dwattr $C$DW$168, DW_AT_decl_file("C:\Users\bob\Documents\Projects\induct_forge\RM57Lx_test\P
    3247                            .dwattr $C$DW$168, DW_AT_decl_line(0x4b)
    3248                            .dwattr $C$DW$168, DW_AT_decl_column(0x0c)
    3249                    
    3250                    $C$DW$169       .dwtag  DW_TAG_member
    3251                            .dwattr $C$DW$169, DW_AT_type(*$C$DW$T$24)
    3252                            .dwattr $C$DW$169, DW_AT_name("CNT")
    3253                            .dwattr $C$DW$169, DW_AT_TI_symbol_name("CNT")
    3254                            .dwattr $C$DW$169, DW_AT_data_member_location[DW_OP_plus_uconst 0x10]
    3255                            .dwattr $C$DW$169, DW_AT_accessibility(DW_ACCESS_public)
    3256                            .dwattr $C$DW$169, DW_AT_decl_file("C:\Users\bob\Documents\Projects\induct_forge\RM57Lx_test\P
    3257                            .dwattr $C$DW$169, DW_AT_decl_line(0x55)
    3258                            .dwattr $C$DW$169, DW_AT_decl_column(0x07)
    3259                    
    3260                    $C$DW$170       .dwtag  DW_TAG_member
    3261                            .dwattr $C$DW$170, DW_AT_type(*$C$DW$T$25)
    3262                            .dwattr $C$DW$170, DW_AT_name("CMP")
    3263                            .dwattr $C$DW$170, DW_AT_TI_symbol_name("CMP")
    3264                            .dwattr $C$DW$170, DW_AT_data_member_location[DW_OP_plus_uconst 0x50]
    3265                            .dwattr $C$DW$170, DW_AT_accessibility(DW_ACCESS_public)
    3266                            .dwattr $C$DW$170, DW_AT_decl_file("C:\Users\bob\Documents\Projects\induct_forge\RM57Lx_test\P
    3267                            .dwattr $C$DW$170, DW_AT_decl_line(0x5c)
    3268                            .dwattr $C$DW$170, DW_AT_decl_column(0x07)
    3269                    
    3270                    $C$DW$171       .dwtag  DW_TAG_member
    3271                            .dwattr $C$DW$171, DW_AT_type(*$C$DW$T$20)
    3272                            .dwattr $C$DW$171, DW_AT_name("TBLCOMP")
    3273                            .dwattr $C$DW$171, DW_AT_TI_symbol_name("TBLCOMP")
    3274                            .dwattr $C$DW$171, DW_AT_data_member_location[DW_OP_plus_uconst 0x70]
    3275                            .dwattr $C$DW$171, DW_AT_accessibility(DW_ACCESS_public)
    3276                            .dwattr $C$DW$171, DW_AT_decl_file("C:\Users\bob\Documents\Projects\induct_forge\RM57Lx_test\P
    3277                            .dwattr $C$DW$171, DW_AT_decl_line(0x61)
    3278                            .dwattr $C$DW$171, DW_AT_decl_column(0x0c)
    3279                    
    3280                    $C$DW$172       .dwtag  DW_TAG_member
    3281                            .dwattr $C$DW$172, DW_AT_type(*$C$DW$T$20)
    3282                            .dwattr $C$DW$172, DW_AT_name("TBHCOMP")
    3283                            .dwattr $C$DW$172, DW_AT_TI_symbol_name("TBHCOMP")
    3284                            .dwattr $C$DW$172, DW_AT_data_member_location[DW_OP_plus_uconst 0x74]
    3285                            .dwattr $C$DW$172, DW_AT_accessibility(DW_ACCESS_public)
    3286                            .dwattr $C$DW$172, DW_AT_decl_file("C:\Users\bob\Documents\Projects\induct_forge\RM57Lx_test\P
    3287                            .dwattr $C$DW$172, DW_AT_decl_line(0x62)
    3288                            .dwattr $C$DW$172, DW_AT_decl_column(0x0c)
    3289                    
    3290                    $C$DW$173       .dwtag  DW_TAG_member
    3291                            .dwattr $C$DW$173, DW_AT_type(*$C$DW$T$21)
    3292                            .dwattr $C$DW$173, DW_AT_name("rsvd3")
    3293                            .dwattr $C$DW$173, DW_AT_TI_symbol_name("rsvd3")
    3294                            .dwattr $C$DW$173, DW_AT_data_member_location[DW_OP_plus_uconst 0x78]
    3295                            .dwattr $C$DW$173, DW_AT_accessibility(DW_ACCESS_public)
    3296                            .dwattr $C$DW$173, DW_AT_decl_file("C:\Users\bob\Documents\Projects\induct_forge\RM57Lx_test\P
    3297                            .dwattr $C$DW$173, DW_AT_decl_line(0x63)
    3298                            .dwattr $C$DW$173, DW_AT_decl_column(0x0e)
    3299                    
    3300                    $C$DW$174       .dwtag  DW_TAG_member
TI ARM Assembler PC v16.9.0 Sun Feb 19 22:29:40 2017

Tools Copyright (c) 1996-2015 Texas Instruments Incorporated
C:\Users\bob\AppData\Local\Temp\0957210                              PAGE   61

    3301                            .dwattr $C$DW$174, DW_AT_type(*$C$DW$T$20)
    3302                            .dwattr $C$DW$174, DW_AT_name("SETINTENA")
    3303                            .dwattr $C$DW$174, DW_AT_TI_symbol_name("SETINTENA")
    3304                            .dwattr $C$DW$174, DW_AT_data_member_location[DW_OP_plus_uconst 0x80]
    3305                            .dwattr $C$DW$174, DW_AT_accessibility(DW_ACCESS_public)
    3306                            .dwattr $C$DW$174, DW_AT_decl_file("C:\Users\bob\Documents\Projects\induct_forge\RM57Lx_test\P
    3307                            .dwattr $C$DW$174, DW_AT_decl_line(0x64)
    3308                            .dwattr $C$DW$174, DW_AT_decl_column(0x0c)
    3309                    
    3310                    $C$DW$175       .dwtag  DW_TAG_member
    3311                            .dwattr $C$DW$175, DW_AT_type(*$C$DW$T$20)
    3312                            .dwattr $C$DW$175, DW_AT_name("CLEARINTENA")
    3313                            .dwattr $C$DW$175, DW_AT_TI_symbol_name("CLEARINTENA")
    3314                            .dwattr $C$DW$175, DW_AT_data_member_location[DW_OP_plus_uconst 0x84]
    3315                            .dwattr $C$DW$175, DW_AT_accessibility(DW_ACCESS_public)
    3316                            .dwattr $C$DW$175, DW_AT_decl_file("C:\Users\bob\Documents\Projects\induct_forge\RM57Lx_test\P
    3317                            .dwattr $C$DW$175, DW_AT_decl_line(0x65)
    3318                            .dwattr $C$DW$175, DW_AT_decl_column(0x0c)
    3319                    
    3320                    $C$DW$176       .dwtag  DW_TAG_member
    3321                            .dwattr $C$DW$176, DW_AT_type(*$C$DW$T$20)
    3322                            .dwattr $C$DW$176, DW_AT_name("INTFLAG")
    3323                            .dwattr $C$DW$176, DW_AT_TI_symbol_name("INTFLAG")
    3324                            .dwattr $C$DW$176, DW_AT_data_member_location[DW_OP_plus_uconst 0x88]
    3325                            .dwattr $C$DW$176, DW_AT_accessibility(DW_ACCESS_public)
    3326                            .dwattr $C$DW$176, DW_AT_decl_file("C:\Users\bob\Documents\Projects\induct_forge\RM57Lx_test\P
    3327                            .dwattr $C$DW$176, DW_AT_decl_line(0x66)
    3328                            .dwattr $C$DW$176, DW_AT_decl_column(0x0c)
    3329                    
    3330                    $C$DW$177       .dwtag  DW_TAG_member
    3331                            .dwattr $C$DW$177, DW_AT_type(*$C$DW$T$20)
    3332                            .dwattr $C$DW$177, DW_AT_name("rsvd4")
    3333                            .dwattr $C$DW$177, DW_AT_TI_symbol_name("rsvd4")
    3334                            .dwattr $C$DW$177, DW_AT_data_member_location[DW_OP_plus_uconst 0x8c]
    3335                            .dwattr $C$DW$177, DW_AT_accessibility(DW_ACCESS_public)
    3336                            .dwattr $C$DW$177, DW_AT_decl_file("C:\Users\bob\Documents\Projects\induct_forge\RM57Lx_test\P
    3337                            .dwattr $C$DW$177, DW_AT_decl_line(0x67)
    3338                            .dwattr $C$DW$177, DW_AT_decl_column(0x0e)
    3339                    
    3340                    $C$DW$178       .dwtag  DW_TAG_member
    3341                            .dwattr $C$DW$178, DW_AT_type(*$C$DW$T$20)
    3342                            .dwattr $C$DW$178, DW_AT_name("DWDCTRL")
    3343                            .dwattr $C$DW$178, DW_AT_TI_symbol_name("DWDCTRL")
    3344                            .dwattr $C$DW$178, DW_AT_data_member_location[DW_OP_plus_uconst 0x90]
    3345                            .dwattr $C$DW$178, DW_AT_accessibility(DW_ACCESS_public)
    3346                            .dwattr $C$DW$178, DW_AT_decl_file("C:\Users\bob\Documents\Projects\induct_forge\RM57Lx_test\P
    3347                            .dwattr $C$DW$178, DW_AT_decl_line(0x68)
    3348                            .dwattr $C$DW$178, DW_AT_decl_column(0x0c)
    3349                    
    3350                    $C$DW$179       .dwtag  DW_TAG_member
    3351                            .dwattr $C$DW$179, DW_AT_type(*$C$DW$T$20)
    3352                            .dwattr $C$DW$179, DW_AT_name("DWDPRLD")
    3353                            .dwattr $C$DW$179, DW_AT_TI_symbol_name("DWDPRLD")
    3354                            .dwattr $C$DW$179, DW_AT_data_member_location[DW_OP_plus_uconst 0x94]
    3355                            .dwattr $C$DW$179, DW_AT_accessibility(DW_ACCESS_public)
TI ARM Assembler PC v16.9.0 Sun Feb 19 22:29:40 2017

Tools Copyright (c) 1996-2015 Texas Instruments Incorporated
C:\Users\bob\AppData\Local\Temp\0957210                              PAGE   62

    3356                            .dwattr $C$DW$179, DW_AT_decl_file("C:\Users\bob\Documents\Projects\induct_forge\RM57Lx_test\P
    3357                            .dwattr $C$DW$179, DW_AT_decl_line(0x69)
    3358                            .dwattr $C$DW$179, DW_AT_decl_column(0x0c)
    3359                    
    3360                    $C$DW$180       .dwtag  DW_TAG_member
    3361                            .dwattr $C$DW$180, DW_AT_type(*$C$DW$T$20)
    3362                            .dwattr $C$DW$180, DW_AT_name("WDSTATUS")
    3363                            .dwattr $C$DW$180, DW_AT_TI_symbol_name("WDSTATUS")
    3364                            .dwattr $C$DW$180, DW_AT_data_member_location[DW_OP_plus_uconst 0x98]
    3365                            .dwattr $C$DW$180, DW_AT_accessibility(DW_ACCESS_public)
    3366                            .dwattr $C$DW$180, DW_AT_decl_file("C:\Users\bob\Documents\Projects\induct_forge\RM57Lx_test\P
    3367                            .dwattr $C$DW$180, DW_AT_decl_line(0x6a)
    3368                            .dwattr $C$DW$180, DW_AT_decl_column(0x0c)
    3369                    
    3370                    $C$DW$181       .dwtag  DW_TAG_member
    3371                            .dwattr $C$DW$181, DW_AT_type(*$C$DW$T$20)
    3372                            .dwattr $C$DW$181, DW_AT_name("WDKEY")
    3373                            .dwattr $C$DW$181, DW_AT_TI_symbol_name("WDKEY")
    3374                            .dwattr $C$DW$181, DW_AT_data_member_location[DW_OP_plus_uconst 0x9c]
    3375                            .dwattr $C$DW$181, DW_AT_accessibility(DW_ACCESS_public)
    3376                            .dwattr $C$DW$181, DW_AT_decl_file("C:\Users\bob\Documents\Projects\induct_forge\RM57Lx_test\P
    3377                            .dwattr $C$DW$181, DW_AT_decl_line(0x6b)
    3378                            .dwattr $C$DW$181, DW_AT_decl_column(0x0c)
    3379                    
    3380                    $C$DW$182       .dwtag  DW_TAG_member
    3381                            .dwattr $C$DW$182, DW_AT_type(*$C$DW$T$20)
    3382                            .dwattr $C$DW$182, DW_AT_name("DWDCNTR")
    3383                            .dwattr $C$DW$182, DW_AT_TI_symbol_name("DWDCNTR")
    3384                            .dwattr $C$DW$182, DW_AT_data_member_location[DW_OP_plus_uconst 0xa0]
    3385                            .dwattr $C$DW$182, DW_AT_accessibility(DW_ACCESS_public)
    3386                            .dwattr $C$DW$182, DW_AT_decl_file("C:\Users\bob\Documents\Projects\induct_forge\RM57Lx_test\P
    3387                            .dwattr $C$DW$182, DW_AT_decl_line(0x6c)
    3388                            .dwattr $C$DW$182, DW_AT_decl_column(0x0c)
    3389                    
    3390                    $C$DW$183       .dwtag  DW_TAG_member
    3391                            .dwattr $C$DW$183, DW_AT_type(*$C$DW$T$20)
    3392                            .dwattr $C$DW$183, DW_AT_name("WWDRXNCTRL")
    3393                            .dwattr $C$DW$183, DW_AT_TI_symbol_name("WWDRXNCTRL")
    3394                            .dwattr $C$DW$183, DW_AT_data_member_location[DW_OP_plus_uconst 0xa4]
    3395                            .dwattr $C$DW$183, DW_AT_accessibility(DW_ACCESS_public)
    3396                            .dwattr $C$DW$183, DW_AT_decl_file("C:\Users\bob\Documents\Projects\induct_forge\RM57Lx_test\P
    3397                            .dwattr $C$DW$183, DW_AT_decl_line(0x6d)
    3398                            .dwattr $C$DW$183, DW_AT_decl_column(0x0c)
    3399                    
    3400                    $C$DW$184       .dwtag  DW_TAG_member
    3401                            .dwattr $C$DW$184, DW_AT_type(*$C$DW$T$20)
    3402                            .dwattr $C$DW$184, DW_AT_name("WWDSIZECTRL")
    3403                            .dwattr $C$DW$184, DW_AT_TI_symbol_name("WWDSIZECTRL")
    3404                            .dwattr $C$DW$184, DW_AT_data_member_location[DW_OP_plus_uconst 0xa8]
    3405                            .dwattr $C$DW$184, DW_AT_accessibility(DW_ACCESS_public)
    3406                            .dwattr $C$DW$184, DW_AT_decl_file("C:\Users\bob\Documents\Projects\induct_forge\RM57Lx_test\P
    3407                            .dwattr $C$DW$184, DW_AT_decl_line(0x6e)
    3408                            .dwattr $C$DW$184, DW_AT_decl_column(0x0c)
    3409                    
    3410                    $C$DW$185       .dwtag  DW_TAG_member
TI ARM Assembler PC v16.9.0 Sun Feb 19 22:29:40 2017

Tools Copyright (c) 1996-2015 Texas Instruments Incorporated
C:\Users\bob\AppData\Local\Temp\0957210                              PAGE   63

    3411                            .dwattr $C$DW$185, DW_AT_type(*$C$DW$T$20)
    3412                            .dwattr $C$DW$185, DW_AT_name("INTCLRENABLE")
    3413                            .dwattr $C$DW$185, DW_AT_TI_symbol_name("INTCLRENABLE")
    3414                            .dwattr $C$DW$185, DW_AT_data_member_location[DW_OP_plus_uconst 0xac]
    3415                            .dwattr $C$DW$185, DW_AT_accessibility(DW_ACCESS_public)
    3416                            .dwattr $C$DW$185, DW_AT_decl_file("C:\Users\bob\Documents\Projects\induct_forge\RM57Lx_test\P
    3417                            .dwattr $C$DW$185, DW_AT_decl_line(0x6f)
    3418                            .dwattr $C$DW$185, DW_AT_decl_column(0x0c)
    3419                    
    3420                    $C$DW$186       .dwtag  DW_TAG_member
    3421                            .dwattr $C$DW$186, DW_AT_type(*$C$DW$T$20)
    3422                            .dwattr $C$DW$186, DW_AT_name("COMP0CLR")
    3423                            .dwattr $C$DW$186, DW_AT_TI_symbol_name("COMP0CLR")
    3424                            .dwattr $C$DW$186, DW_AT_data_member_location[DW_OP_plus_uconst 0xb0]
    3425                            .dwattr $C$DW$186, DW_AT_accessibility(DW_ACCESS_public)
    3426                            .dwattr $C$DW$186, DW_AT_decl_file("C:\Users\bob\Documents\Projects\induct_forge\RM57Lx_test\P
    3427                            .dwattr $C$DW$186, DW_AT_decl_line(0x70)
    3428                            .dwattr $C$DW$186, DW_AT_decl_column(0x0c)
    3429                    
    3430                    $C$DW$187       .dwtag  DW_TAG_member
    3431                            .dwattr $C$DW$187, DW_AT_type(*$C$DW$T$20)
    3432                            .dwattr $C$DW$187, DW_AT_name("COMP1CLR")
    3433                            .dwattr $C$DW$187, DW_AT_TI_symbol_name("COMP1CLR")
    3434                            .dwattr $C$DW$187, DW_AT_data_member_location[DW_OP_plus_uconst 0xb4]
    3435                            .dwattr $C$DW$187, DW_AT_accessibility(DW_ACCESS_public)
    3436                            .dwattr $C$DW$187, DW_AT_decl_file("C:\Users\bob\Documents\Projects\induct_forge\RM57Lx_test\P
    3437                            .dwattr $C$DW$187, DW_AT_decl_line(0x71)
    3438                            .dwattr $C$DW$187, DW_AT_decl_column(0x0c)
    3439                    
    3440                    $C$DW$188       .dwtag  DW_TAG_member
    3441                            .dwattr $C$DW$188, DW_AT_type(*$C$DW$T$20)
    3442                            .dwattr $C$DW$188, DW_AT_name("COMP2CLR")
    3443                            .dwattr $C$DW$188, DW_AT_TI_symbol_name("COMP2CLR")
    3444                            .dwattr $C$DW$188, DW_AT_data_member_location[DW_OP_plus_uconst 0xb8]
    3445                            .dwattr $C$DW$188, DW_AT_accessibility(DW_ACCESS_public)
    3446                            .dwattr $C$DW$188, DW_AT_decl_file("C:\Users\bob\Documents\Projects\induct_forge\RM57Lx_test\P
    3447                            .dwattr $C$DW$188, DW_AT_decl_line(0x72)
    3448                            .dwattr $C$DW$188, DW_AT_decl_column(0x0c)
    3449                    
    3450                    $C$DW$189       .dwtag  DW_TAG_member
    3451                            .dwattr $C$DW$189, DW_AT_type(*$C$DW$T$20)
    3452                            .dwattr $C$DW$189, DW_AT_name("COMP3CLR")
    3453                            .dwattr $C$DW$189, DW_AT_TI_symbol_name("COMP3CLR")
    3454                            .dwattr $C$DW$189, DW_AT_data_member_location[DW_OP_plus_uconst 0xbc]
    3455                            .dwattr $C$DW$189, DW_AT_accessibility(DW_ACCESS_public)
    3456                            .dwattr $C$DW$189, DW_AT_decl_file("C:\Users\bob\Documents\Projects\induct_forge\RM57Lx_test\P
    3457                            .dwattr $C$DW$189, DW_AT_decl_line(0x73)
    3458                            .dwattr $C$DW$189, DW_AT_decl_column(0x0c)
    3459                    
    3460                            .dwattr $C$DW$T$26, DW_AT_decl_file("C:\Users\bob\Documents\Projects\induct_forge\RM57Lx_test\
    3461                            .dwattr $C$DW$T$26, DW_AT_decl_line(0x46)
    3462                            .dwattr $C$DW$T$26, DW_AT_decl_column(0x19)
    3463                            .dwendtag $C$DW$T$26
    3464                    
    3465                    $C$DW$T$38      .dwtag  DW_TAG_volatile_type
TI ARM Assembler PC v16.9.0 Sun Feb 19 22:29:40 2017

Tools Copyright (c) 1996-2015 Texas Instruments Incorporated
C:\Users\bob\AppData\Local\Temp\0957210                              PAGE   64

    3466                            .dwattr $C$DW$T$38, DW_AT_type(*$C$DW$T$26)
    3467                    
    3468                    $C$DW$T$39      .dwtag  DW_TAG_typedef
    3469                            .dwattr $C$DW$T$39, DW_AT_name("rtiBASE_t")
    3470                            .dwattr $C$DW$T$39, DW_AT_type(*$C$DW$T$38)
    3471                            .dwattr $C$DW$T$39, DW_AT_language(DW_LANG_C)
    3472                            .dwattr $C$DW$T$39, DW_AT_decl_file("C:\Users\bob\Documents\Projects\induct_forge\RM57Lx_test\
    3473                            .dwattr $C$DW$T$39, DW_AT_decl_line(0x74)
    3474                            .dwattr $C$DW$T$39, DW_AT_decl_column(0x03)
    3475                    
    3476                    $C$DW$T$40      .dwtag  DW_TAG_pointer_type
    3477                            .dwattr $C$DW$T$40, DW_AT_type(*$C$DW$T$39)
    3478                            .dwattr $C$DW$T$40, DW_AT_address_class(0x20)
    3479                    
    3480                    
    3481                    $C$DW$T$27      .dwtag  DW_TAG_structure_type
    3482                            .dwattr $C$DW$T$27, DW_AT_name("rti_config_reg")
    3483                            .dwattr $C$DW$T$27, DW_AT_byte_size(0x20)
    3484                    $C$DW$190       .dwtag  DW_TAG_member
    3485                            .dwattr $C$DW$190, DW_AT_type(*$C$DW$T$20)
    3486                            .dwattr $C$DW$190, DW_AT_name("CONFIG_GCTRL")
    3487                            .dwattr $C$DW$190, DW_AT_TI_symbol_name("CONFIG_GCTRL")
    3488                            .dwattr $C$DW$190, DW_AT_data_member_location[DW_OP_plus_uconst 0x0]
    3489                            .dwattr $C$DW$190, DW_AT_accessibility(DW_ACCESS_public)
    3490                            .dwattr $C$DW$190, DW_AT_decl_file("C:/Users/bob/Documents/Projects/induct_forge/RM57Lx_test/P
    3491                            .dwattr $C$DW$190, DW_AT_decl_line(0xf2)
    3492                            .dwattr $C$DW$190, DW_AT_decl_column(0x0c)
    3493                    
    3494                    $C$DW$191       .dwtag  DW_TAG_member
    3495                            .dwattr $C$DW$191, DW_AT_type(*$C$DW$T$20)
    3496                            .dwattr $C$DW$191, DW_AT_name("CONFIG_TBCTRL")
    3497                            .dwattr $C$DW$191, DW_AT_TI_symbol_name("CONFIG_TBCTRL")
    3498                            .dwattr $C$DW$191, DW_AT_data_member_location[DW_OP_plus_uconst 0x4]
    3499                            .dwattr $C$DW$191, DW_AT_accessibility(DW_ACCESS_public)
    3500                            .dwattr $C$DW$191, DW_AT_decl_file("C:/Users/bob/Documents/Projects/induct_forge/RM57Lx_test/P
    3501                            .dwattr $C$DW$191, DW_AT_decl_line(0xf3)
    3502                            .dwattr $C$DW$191, DW_AT_decl_column(0x0c)
    3503                    
    3504                    $C$DW$192       .dwtag  DW_TAG_member
    3505                            .dwattr $C$DW$192, DW_AT_type(*$C$DW$T$20)
    3506                            .dwattr $C$DW$192, DW_AT_name("CONFIG_CAPCTRL")
    3507                            .dwattr $C$DW$192, DW_AT_TI_symbol_name("CONFIG_CAPCTRL")
    3508                            .dwattr $C$DW$192, DW_AT_data_member_location[DW_OP_plus_uconst 0x8]
    3509                            .dwattr $C$DW$192, DW_AT_accessibility(DW_ACCESS_public)
    3510                            .dwattr $C$DW$192, DW_AT_decl_file("C:/Users/bob/Documents/Projects/induct_forge/RM57Lx_test/P
    3511                            .dwattr $C$DW$192, DW_AT_decl_line(0xf4)
    3512                            .dwattr $C$DW$192, DW_AT_decl_column(0x0c)
    3513                    
    3514                    $C$DW$193       .dwtag  DW_TAG_member
    3515                            .dwattr $C$DW$193, DW_AT_type(*$C$DW$T$20)
    3516                            .dwattr $C$DW$193, DW_AT_name("CONFIG_COMPCTRL")
    3517                            .dwattr $C$DW$193, DW_AT_TI_symbol_name("CONFIG_COMPCTRL")
    3518                            .dwattr $C$DW$193, DW_AT_data_member_location[DW_OP_plus_uconst 0xc]
    3519                            .dwattr $C$DW$193, DW_AT_accessibility(DW_ACCESS_public)
    3520                            .dwattr $C$DW$193, DW_AT_decl_file("C:/Users/bob/Documents/Projects/induct_forge/RM57Lx_test/P
TI ARM Assembler PC v16.9.0 Sun Feb 19 22:29:40 2017

Tools Copyright (c) 1996-2015 Texas Instruments Incorporated
C:\Users\bob\AppData\Local\Temp\0957210                              PAGE   65

    3521                            .dwattr $C$DW$193, DW_AT_decl_line(0xf5)
    3522                            .dwattr $C$DW$193, DW_AT_decl_column(0x0c)
    3523                    
    3524                    $C$DW$194       .dwtag  DW_TAG_member
    3525                            .dwattr $C$DW$194, DW_AT_type(*$C$DW$T$20)
    3526                            .dwattr $C$DW$194, DW_AT_name("CONFIG_UDCP0")
    3527                            .dwattr $C$DW$194, DW_AT_TI_symbol_name("CONFIG_UDCP0")
    3528                            .dwattr $C$DW$194, DW_AT_data_member_location[DW_OP_plus_uconst 0x10]
    3529                            .dwattr $C$DW$194, DW_AT_accessibility(DW_ACCESS_public)
    3530                            .dwattr $C$DW$194, DW_AT_decl_file("C:/Users/bob/Documents/Projects/induct_forge/RM57Lx_test/P
    3531                            .dwattr $C$DW$194, DW_AT_decl_line(0xf6)
    3532                            .dwattr $C$DW$194, DW_AT_decl_column(0x0c)
    3533                    
    3534                    $C$DW$195       .dwtag  DW_TAG_member
    3535                            .dwattr $C$DW$195, DW_AT_type(*$C$DW$T$20)
    3536                            .dwattr $C$DW$195, DW_AT_name("CONFIG_UDCP1")
    3537                            .dwattr $C$DW$195, DW_AT_TI_symbol_name("CONFIG_UDCP1")
    3538                            .dwattr $C$DW$195, DW_AT_data_member_location[DW_OP_plus_uconst 0x14]
    3539                            .dwattr $C$DW$195, DW_AT_accessibility(DW_ACCESS_public)
    3540                            .dwattr $C$DW$195, DW_AT_decl_file("C:/Users/bob/Documents/Projects/induct_forge/RM57Lx_test/P
    3541                            .dwattr $C$DW$195, DW_AT_decl_line(0xf7)
    3542                            .dwattr $C$DW$195, DW_AT_decl_column(0x0c)
    3543                    
    3544                    $C$DW$196       .dwtag  DW_TAG_member
    3545                            .dwattr $C$DW$196, DW_AT_type(*$C$DW$T$20)
    3546                            .dwattr $C$DW$196, DW_AT_name("CONFIG_UDCP2")
    3547                            .dwattr $C$DW$196, DW_AT_TI_symbol_name("CONFIG_UDCP2")
    3548                            .dwattr $C$DW$196, DW_AT_data_member_location[DW_OP_plus_uconst 0x18]
    3549                            .dwattr $C$DW$196, DW_AT_accessibility(DW_ACCESS_public)
    3550                            .dwattr $C$DW$196, DW_AT_decl_file("C:/Users/bob/Documents/Projects/induct_forge/RM57Lx_test/P
    3551                            .dwattr $C$DW$196, DW_AT_decl_line(0xf8)
    3552                            .dwattr $C$DW$196, DW_AT_decl_column(0x0c)
    3553                    
    3554                    $C$DW$197       .dwtag  DW_TAG_member
    3555                            .dwattr $C$DW$197, DW_AT_type(*$C$DW$T$20)
    3556                            .dwattr $C$DW$197, DW_AT_name("CONFIG_UDCP3")
    3557                            .dwattr $C$DW$197, DW_AT_TI_symbol_name("CONFIG_UDCP3")
    3558                            .dwattr $C$DW$197, DW_AT_data_member_location[DW_OP_plus_uconst 0x1c]
    3559                            .dwattr $C$DW$197, DW_AT_accessibility(DW_ACCESS_public)
    3560                            .dwattr $C$DW$197, DW_AT_decl_file("C:/Users/bob/Documents/Projects/induct_forge/RM57Lx_test/P
    3561                            .dwattr $C$DW$197, DW_AT_decl_line(0xf9)
    3562                            .dwattr $C$DW$197, DW_AT_decl_column(0x0c)
    3563                    
    3564                            .dwattr $C$DW$T$27, DW_AT_decl_file("C:/Users/bob/Documents/Projects/induct_forge/RM57Lx_test/
    3565                            .dwattr $C$DW$T$27, DW_AT_decl_line(0xf0)
    3566                            .dwattr $C$DW$T$27, DW_AT_decl_column(0x10)
    3567                            .dwendtag $C$DW$T$27
    3568                    
    3569                    $C$DW$T$56      .dwtag  DW_TAG_typedef
    3570                            .dwattr $C$DW$T$56, DW_AT_name("rti_config_reg_t")
    3571                            .dwattr $C$DW$T$56, DW_AT_type(*$C$DW$T$27)
    3572                            .dwattr $C$DW$T$56, DW_AT_language(DW_LANG_C)
    3573                            .dwattr $C$DW$T$56, DW_AT_decl_file("C:/Users/bob/Documents/Projects/induct_forge/RM57Lx_test/
    3574                            .dwattr $C$DW$T$56, DW_AT_decl_line(0xfa)
    3575                            .dwattr $C$DW$T$56, DW_AT_decl_column(0x03)
TI ARM Assembler PC v16.9.0 Sun Feb 19 22:29:40 2017

Tools Copyright (c) 1996-2015 Texas Instruments Incorporated
C:\Users\bob\AppData\Local\Temp\0957210                              PAGE   66

    3576                    
    3577                    $C$DW$T$57      .dwtag  DW_TAG_pointer_type
    3578                            .dwattr $C$DW$T$57, DW_AT_type(*$C$DW$T$56)
    3579                            .dwattr $C$DW$T$57, DW_AT_address_class(0x20)
    3580                    
    3581                    
    3582                    $C$DW$T$110     .dwtag  DW_TAG_enumeration_type
    3583                            .dwattr $C$DW$T$110, DW_AT_name("systemInterrupt")
    3584                            .dwattr $C$DW$T$110, DW_AT_byte_size(0x01)
    3585                    $C$DW$198       .dwtag  DW_TAG_enumerator
    3586                            .dwattr $C$DW$198, DW_AT_name("SYS_IRQ")
    3587                            .dwattr $C$DW$198, DW_AT_const_value(0x00)
    3588                            .dwattr $C$DW$198, DW_AT_decl_file("C:/Users/bob/Documents/Projects/induct_forge/RM57Lx_test/P
    3589                            .dwattr $C$DW$198, DW_AT_decl_line(0x4b)
    3590                            .dwattr $C$DW$198, DW_AT_decl_column(0x05)
    3591                    
    3592                    $C$DW$199       .dwtag  DW_TAG_enumerator
    3593                            .dwattr $C$DW$199, DW_AT_name("SYS_FIQ")
    3594                            .dwattr $C$DW$199, DW_AT_const_value(0x01)
    3595                            .dwattr $C$DW$199, DW_AT_decl_file("C:/Users/bob/Documents/Projects/induct_forge/RM57Lx_test/P
    3596                            .dwattr $C$DW$199, DW_AT_decl_line(0x4c)
    3597                            .dwattr $C$DW$199, DW_AT_decl_column(0x05)
    3598                    
    3599                            .dwattr $C$DW$T$110, DW_AT_decl_file("C:/Users/bob/Documents/Projects/induct_forge/RM57Lx_test
    3600                            .dwattr $C$DW$T$110, DW_AT_decl_line(0x49)
    3601                            .dwattr $C$DW$T$110, DW_AT_decl_column(0x0e)
    3602                            .dwendtag $C$DW$T$110
    3603                    
    3604                    $C$DW$T$111     .dwtag  DW_TAG_typedef
    3605                            .dwattr $C$DW$T$111, DW_AT_name("systemInterrupt_t")
    3606                            .dwattr $C$DW$T$111, DW_AT_type(*$C$DW$T$110)
    3607                            .dwattr $C$DW$T$111, DW_AT_language(DW_LANG_C)
    3608                            .dwattr $C$DW$T$111, DW_AT_decl_file("C:/Users/bob/Documents/Projects/induct_forge/RM57Lx_test
    3609                            .dwattr $C$DW$T$111, DW_AT_decl_line(0x4d)
    3610                            .dwattr $C$DW$T$111, DW_AT_decl_column(0x02)
    3611                    
    3612                    
    3613                    $C$DW$T$30      .dwtag  DW_TAG_structure_type
    3614                            .dwattr $C$DW$T$30, DW_AT_name("vimBase")
    3615                            .dwattr $C$DW$T$30, DW_AT_byte_size(0x1e0)
    3616                    $C$DW$200       .dwtag  DW_TAG_member
    3617                            .dwattr $C$DW$200, DW_AT_type(*$C$DW$T$28)
    3618                            .dwattr $C$DW$200, DW_AT_name("rsvd1")
    3619                            .dwattr $C$DW$200, DW_AT_TI_symbol_name("rsvd1")
    3620                            .dwattr $C$DW$200, DW_AT_data_member_location[DW_OP_plus_uconst 0x0]
    3621                            .dwattr $C$DW$200, DW_AT_accessibility(DW_ACCESS_public)
    3622                            .dwattr $C$DW$200, DW_AT_decl_file("C:\Users\bob\Documents\Projects\induct_forge\RM57Lx_test\P
    3623                            .dwattr $C$DW$200, DW_AT_decl_line(0x45)
    3624                            .dwattr $C$DW$200, DW_AT_decl_column(0x11)
    3625                    
    3626                    $C$DW$201       .dwtag  DW_TAG_member
    3627                            .dwattr $C$DW$201, DW_AT_type(*$C$DW$T$20)
    3628                            .dwattr $C$DW$201, DW_AT_name("ECCSTAT")
    3629                            .dwattr $C$DW$201, DW_AT_TI_symbol_name("ECCSTAT")
    3630                            .dwattr $C$DW$201, DW_AT_data_member_location[DW_OP_plus_uconst 0xec]
TI ARM Assembler PC v16.9.0 Sun Feb 19 22:29:40 2017

Tools Copyright (c) 1996-2015 Texas Instruments Incorporated
C:\Users\bob\AppData\Local\Temp\0957210                              PAGE   67

    3631                            .dwattr $C$DW$201, DW_AT_accessibility(DW_ACCESS_public)
    3632                            .dwattr $C$DW$201, DW_AT_decl_file("C:\Users\bob\Documents\Projects\induct_forge\RM57Lx_test\P
    3633                            .dwattr $C$DW$201, DW_AT_decl_line(0x46)
    3634                            .dwattr $C$DW$201, DW_AT_decl_column(0x11)
    3635                    
    3636                    $C$DW$202       .dwtag  DW_TAG_member
    3637                            .dwattr $C$DW$202, DW_AT_type(*$C$DW$T$20)
    3638                            .dwattr $C$DW$202, DW_AT_name("ECCCTL")
    3639                            .dwattr $C$DW$202, DW_AT_TI_symbol_name("ECCCTL")
    3640                            .dwattr $C$DW$202, DW_AT_data_member_location[DW_OP_plus_uconst 0xf0]
    3641                            .dwattr $C$DW$202, DW_AT_accessibility(DW_ACCESS_public)
    3642                            .dwattr $C$DW$202, DW_AT_decl_file("C:\Users\bob\Documents\Projects\induct_forge\RM57Lx_test\P
    3643                            .dwattr $C$DW$202, DW_AT_decl_line(0x47)
    3644                            .dwattr $C$DW$202, DW_AT_decl_column(0x11)
    3645                    
    3646                    $C$DW$203       .dwtag  DW_TAG_member
    3647                            .dwattr $C$DW$203, DW_AT_type(*$C$DW$T$20)
    3648                            .dwattr $C$DW$203, DW_AT_name("UERRADDR")
    3649                            .dwattr $C$DW$203, DW_AT_TI_symbol_name("UERRADDR")
    3650                            .dwattr $C$DW$203, DW_AT_data_member_location[DW_OP_plus_uconst 0xf4]
    3651                            .dwattr $C$DW$203, DW_AT_accessibility(DW_ACCESS_public)
    3652                            .dwattr $C$DW$203, DW_AT_decl_file("C:\Users\bob\Documents\Projects\induct_forge\RM57Lx_test\P
    3653                            .dwattr $C$DW$203, DW_AT_decl_line(0x48)
    3654                            .dwattr $C$DW$203, DW_AT_decl_column(0x11)
    3655                    
    3656                    $C$DW$204       .dwtag  DW_TAG_member
    3657                            .dwattr $C$DW$204, DW_AT_type(*$C$DW$T$20)
    3658                            .dwattr $C$DW$204, DW_AT_name("FBVECADDR")
    3659                            .dwattr $C$DW$204, DW_AT_TI_symbol_name("FBVECADDR")
    3660                            .dwattr $C$DW$204, DW_AT_data_member_location[DW_OP_plus_uconst 0xf8]
    3661                            .dwattr $C$DW$204, DW_AT_accessibility(DW_ACCESS_public)
    3662                            .dwattr $C$DW$204, DW_AT_decl_file("C:\Users\bob\Documents\Projects\induct_forge\RM57Lx_test\P
    3663                            .dwattr $C$DW$204, DW_AT_decl_line(0x49)
    3664                            .dwattr $C$DW$204, DW_AT_decl_column(0x11)
    3665                    
    3666                    $C$DW$205       .dwtag  DW_TAG_member
    3667                            .dwattr $C$DW$205, DW_AT_type(*$C$DW$T$20)
    3668                            .dwattr $C$DW$205, DW_AT_name("SBERRADDR")
    3669                            .dwattr $C$DW$205, DW_AT_TI_symbol_name("SBERRADDR")
    3670                            .dwattr $C$DW$205, DW_AT_data_member_location[DW_OP_plus_uconst 0xfc]
    3671                            .dwattr $C$DW$205, DW_AT_accessibility(DW_ACCESS_public)
    3672                            .dwattr $C$DW$205, DW_AT_decl_file("C:\Users\bob\Documents\Projects\induct_forge\RM57Lx_test\P
    3673                            .dwattr $C$DW$205, DW_AT_decl_line(0x4a)
    3674                            .dwattr $C$DW$205, DW_AT_decl_column(0x11)
    3675                    
    3676                    $C$DW$206       .dwtag  DW_TAG_member
    3677                            .dwattr $C$DW$206, DW_AT_type(*$C$DW$T$20)
    3678                            .dwattr $C$DW$206, DW_AT_name("IRQINDEX")
    3679                            .dwattr $C$DW$206, DW_AT_TI_symbol_name("IRQINDEX")
    3680                            .dwattr $C$DW$206, DW_AT_data_member_location[DW_OP_plus_uconst 0x100]
    3681                            .dwattr $C$DW$206, DW_AT_accessibility(DW_ACCESS_public)
    3682                            .dwattr $C$DW$206, DW_AT_decl_file("C:\Users\bob\Documents\Projects\induct_forge\RM57Lx_test\P
    3683                            .dwattr $C$DW$206, DW_AT_decl_line(0x4b)
    3684                            .dwattr $C$DW$206, DW_AT_decl_column(0x11)
    3685                    
TI ARM Assembler PC v16.9.0 Sun Feb 19 22:29:40 2017

Tools Copyright (c) 1996-2015 Texas Instruments Incorporated
C:\Users\bob\AppData\Local\Temp\0957210                              PAGE   68

    3686                    $C$DW$207       .dwtag  DW_TAG_member
    3687                            .dwattr $C$DW$207, DW_AT_type(*$C$DW$T$20)
    3688                            .dwattr $C$DW$207, DW_AT_name("FIQINDEX")
    3689                            .dwattr $C$DW$207, DW_AT_TI_symbol_name("FIQINDEX")
    3690                            .dwattr $C$DW$207, DW_AT_data_member_location[DW_OP_plus_uconst 0x104]
    3691                            .dwattr $C$DW$207, DW_AT_accessibility(DW_ACCESS_public)
    3692                            .dwattr $C$DW$207, DW_AT_decl_file("C:\Users\bob\Documents\Projects\induct_forge\RM57Lx_test\P
    3693                            .dwattr $C$DW$207, DW_AT_decl_line(0x4c)
    3694                            .dwattr $C$DW$207, DW_AT_decl_column(0x11)
    3695                    
    3696                    $C$DW$208       .dwtag  DW_TAG_member
    3697                            .dwattr $C$DW$208, DW_AT_type(*$C$DW$T$20)
    3698                            .dwattr $C$DW$208, DW_AT_name("rsvd2")
    3699                            .dwattr $C$DW$208, DW_AT_TI_symbol_name("rsvd2")
    3700                            .dwattr $C$DW$208, DW_AT_data_member_location[DW_OP_plus_uconst 0x108]
    3701                            .dwattr $C$DW$208, DW_AT_accessibility(DW_ACCESS_public)
    3702                            .dwattr $C$DW$208, DW_AT_decl_file("C:\Users\bob\Documents\Projects\induct_forge\RM57Lx_test\P
    3703                            .dwattr $C$DW$208, DW_AT_decl_line(0x4d)
    3704                            .dwattr $C$DW$208, DW_AT_decl_column(0x11)
    3705                    
    3706                    $C$DW$209       .dwtag  DW_TAG_member
    3707                            .dwattr $C$DW$209, DW_AT_type(*$C$DW$T$20)
    3708                            .dwattr $C$DW$209, DW_AT_name("rsvd3")
    3709                            .dwattr $C$DW$209, DW_AT_TI_symbol_name("rsvd3")
    3710                            .dwattr $C$DW$209, DW_AT_data_member_location[DW_OP_plus_uconst 0x10c]
    3711                            .dwattr $C$DW$209, DW_AT_accessibility(DW_ACCESS_public)
    3712                            .dwattr $C$DW$209, DW_AT_decl_file("C:\Users\bob\Documents\Projects\induct_forge\RM57Lx_test\P
    3713                            .dwattr $C$DW$209, DW_AT_decl_line(0x4e)
    3714                            .dwattr $C$DW$209, DW_AT_decl_column(0x11)
    3715                    
    3716                    $C$DW$210       .dwtag  DW_TAG_member
    3717                            .dwattr $C$DW$210, DW_AT_type(*$C$DW$T$20)
    3718                            .dwattr $C$DW$210, DW_AT_name("FIRQPR0")
    3719                            .dwattr $C$DW$210, DW_AT_TI_symbol_name("FIRQPR0")
    3720                            .dwattr $C$DW$210, DW_AT_data_member_location[DW_OP_plus_uconst 0x110]
    3721                            .dwattr $C$DW$210, DW_AT_accessibility(DW_ACCESS_public)
    3722                            .dwattr $C$DW$210, DW_AT_decl_file("C:\Users\bob\Documents\Projects\induct_forge\RM57Lx_test\P
    3723                            .dwattr $C$DW$210, DW_AT_decl_line(0x4f)
    3724                            .dwattr $C$DW$210, DW_AT_decl_column(0x11)
    3725                    
    3726                    $C$DW$211       .dwtag  DW_TAG_member
    3727                            .dwattr $C$DW$211, DW_AT_type(*$C$DW$T$20)
    3728                            .dwattr $C$DW$211, DW_AT_name("FIRQPR1")
    3729                            .dwattr $C$DW$211, DW_AT_TI_symbol_name("FIRQPR1")
    3730                            .dwattr $C$DW$211, DW_AT_data_member_location[DW_OP_plus_uconst 0x114]
    3731                            .dwattr $C$DW$211, DW_AT_accessibility(DW_ACCESS_public)
    3732                            .dwattr $C$DW$211, DW_AT_decl_file("C:\Users\bob\Documents\Projects\induct_forge\RM57Lx_test\P
    3733                            .dwattr $C$DW$211, DW_AT_decl_line(0x50)
    3734                            .dwattr $C$DW$211, DW_AT_decl_column(0x11)
    3735                    
    3736                    $C$DW$212       .dwtag  DW_TAG_member
    3737                            .dwattr $C$DW$212, DW_AT_type(*$C$DW$T$20)
    3738                            .dwattr $C$DW$212, DW_AT_name("FIRQPR2")
    3739                            .dwattr $C$DW$212, DW_AT_TI_symbol_name("FIRQPR2")
    3740                            .dwattr $C$DW$212, DW_AT_data_member_location[DW_OP_plus_uconst 0x118]
TI ARM Assembler PC v16.9.0 Sun Feb 19 22:29:40 2017

Tools Copyright (c) 1996-2015 Texas Instruments Incorporated
C:\Users\bob\AppData\Local\Temp\0957210                              PAGE   69

    3741                            .dwattr $C$DW$212, DW_AT_accessibility(DW_ACCESS_public)
    3742                            .dwattr $C$DW$212, DW_AT_decl_file("C:\Users\bob\Documents\Projects\induct_forge\RM57Lx_test\P
    3743                            .dwattr $C$DW$212, DW_AT_decl_line(0x51)
    3744                            .dwattr $C$DW$212, DW_AT_decl_column(0x11)
    3745                    
    3746                    $C$DW$213       .dwtag  DW_TAG_member
    3747                            .dwattr $C$DW$213, DW_AT_type(*$C$DW$T$20)
    3748                            .dwattr $C$DW$213, DW_AT_name("FIRQPR3")
    3749                            .dwattr $C$DW$213, DW_AT_TI_symbol_name("FIRQPR3")
    3750                            .dwattr $C$DW$213, DW_AT_data_member_location[DW_OP_plus_uconst 0x11c]
    3751                            .dwattr $C$DW$213, DW_AT_accessibility(DW_ACCESS_public)
    3752                            .dwattr $C$DW$213, DW_AT_decl_file("C:\Users\bob\Documents\Projects\induct_forge\RM57Lx_test\P
    3753                            .dwattr $C$DW$213, DW_AT_decl_line(0x52)
    3754                            .dwattr $C$DW$213, DW_AT_decl_column(0x11)
    3755                    
    3756                    $C$DW$214       .dwtag  DW_TAG_member
    3757                            .dwattr $C$DW$214, DW_AT_type(*$C$DW$T$20)
    3758                            .dwattr $C$DW$214, DW_AT_name("INTREQ0")
    3759                            .dwattr $C$DW$214, DW_AT_TI_symbol_name("INTREQ0")
    3760                            .dwattr $C$DW$214, DW_AT_data_member_location[DW_OP_plus_uconst 0x120]
    3761                            .dwattr $C$DW$214, DW_AT_accessibility(DW_ACCESS_public)
    3762                            .dwattr $C$DW$214, DW_AT_decl_file("C:\Users\bob\Documents\Projects\induct_forge\RM57Lx_test\P
    3763                            .dwattr $C$DW$214, DW_AT_decl_line(0x53)
    3764                            .dwattr $C$DW$214, DW_AT_decl_column(0x11)
    3765                    
    3766                    $C$DW$215       .dwtag  DW_TAG_member
    3767                            .dwattr $C$DW$215, DW_AT_type(*$C$DW$T$20)
    3768                            .dwattr $C$DW$215, DW_AT_name("INTREQ1")
    3769                            .dwattr $C$DW$215, DW_AT_TI_symbol_name("INTREQ1")
    3770                            .dwattr $C$DW$215, DW_AT_data_member_location[DW_OP_plus_uconst 0x124]
    3771                            .dwattr $C$DW$215, DW_AT_accessibility(DW_ACCESS_public)
    3772                            .dwattr $C$DW$215, DW_AT_decl_file("C:\Users\bob\Documents\Projects\induct_forge\RM57Lx_test\P
    3773                            .dwattr $C$DW$215, DW_AT_decl_line(0x54)
    3774                            .dwattr $C$DW$215, DW_AT_decl_column(0x11)
    3775                    
    3776                    $C$DW$216       .dwtag  DW_TAG_member
    3777                            .dwattr $C$DW$216, DW_AT_type(*$C$DW$T$20)
    3778                            .dwattr $C$DW$216, DW_AT_name("INTREQ2")
    3779                            .dwattr $C$DW$216, DW_AT_TI_symbol_name("INTREQ2")
    3780                            .dwattr $C$DW$216, DW_AT_data_member_location[DW_OP_plus_uconst 0x128]
    3781                            .dwattr $C$DW$216, DW_AT_accessibility(DW_ACCESS_public)
    3782                            .dwattr $C$DW$216, DW_AT_decl_file("C:\Users\bob\Documents\Projects\induct_forge\RM57Lx_test\P
    3783                            .dwattr $C$DW$216, DW_AT_decl_line(0x55)
    3784                            .dwattr $C$DW$216, DW_AT_decl_column(0x11)
    3785                    
    3786                    $C$DW$217       .dwtag  DW_TAG_member
    3787                            .dwattr $C$DW$217, DW_AT_type(*$C$DW$T$20)
    3788                            .dwattr $C$DW$217, DW_AT_name("INTREQ3")
    3789                            .dwattr $C$DW$217, DW_AT_TI_symbol_name("INTREQ3")
    3790                            .dwattr $C$DW$217, DW_AT_data_member_location[DW_OP_plus_uconst 0x12c]
    3791                            .dwattr $C$DW$217, DW_AT_accessibility(DW_ACCESS_public)
    3792                            .dwattr $C$DW$217, DW_AT_decl_file("C:\Users\bob\Documents\Projects\induct_forge\RM57Lx_test\P
    3793                            .dwattr $C$DW$217, DW_AT_decl_line(0x56)
    3794                            .dwattr $C$DW$217, DW_AT_decl_column(0x11)
    3795                    
TI ARM Assembler PC v16.9.0 Sun Feb 19 22:29:40 2017

Tools Copyright (c) 1996-2015 Texas Instruments Incorporated
C:\Users\bob\AppData\Local\Temp\0957210                              PAGE   70

    3796                    $C$DW$218       .dwtag  DW_TAG_member
    3797                            .dwattr $C$DW$218, DW_AT_type(*$C$DW$T$20)
    3798                            .dwattr $C$DW$218, DW_AT_name("REQMASKSET0")
    3799                            .dwattr $C$DW$218, DW_AT_TI_symbol_name("REQMASKSET0")
    3800                            .dwattr $C$DW$218, DW_AT_data_member_location[DW_OP_plus_uconst 0x130]
    3801                            .dwattr $C$DW$218, DW_AT_accessibility(DW_ACCESS_public)
    3802                            .dwattr $C$DW$218, DW_AT_decl_file("C:\Users\bob\Documents\Projects\induct_forge\RM57Lx_test\P
    3803                            .dwattr $C$DW$218, DW_AT_decl_line(0x57)
    3804                            .dwattr $C$DW$218, DW_AT_decl_column(0x11)
    3805                    
    3806                    $C$DW$219       .dwtag  DW_TAG_member
    3807                            .dwattr $C$DW$219, DW_AT_type(*$C$DW$T$20)
    3808                            .dwattr $C$DW$219, DW_AT_name("REQMASKSET1")
    3809                            .dwattr $C$DW$219, DW_AT_TI_symbol_name("REQMASKSET1")
    3810                            .dwattr $C$DW$219, DW_AT_data_member_location[DW_OP_plus_uconst 0x134]
    3811                            .dwattr $C$DW$219, DW_AT_accessibility(DW_ACCESS_public)
    3812                            .dwattr $C$DW$219, DW_AT_decl_file("C:\Users\bob\Documents\Projects\induct_forge\RM57Lx_test\P
    3813                            .dwattr $C$DW$219, DW_AT_decl_line(0x58)
    3814                            .dwattr $C$DW$219, DW_AT_decl_column(0x11)
    3815                    
    3816                    $C$DW$220       .dwtag  DW_TAG_member
    3817                            .dwattr $C$DW$220, DW_AT_type(*$C$DW$T$20)
    3818                            .dwattr $C$DW$220, DW_AT_name("REQMASKSET2")
    3819                            .dwattr $C$DW$220, DW_AT_TI_symbol_name("REQMASKSET2")
    3820                            .dwattr $C$DW$220, DW_AT_data_member_location[DW_OP_plus_uconst 0x138]
    3821                            .dwattr $C$DW$220, DW_AT_accessibility(DW_ACCESS_public)
    3822                            .dwattr $C$DW$220, DW_AT_decl_file("C:\Users\bob\Documents\Projects\induct_forge\RM57Lx_test\P
    3823                            .dwattr $C$DW$220, DW_AT_decl_line(0x59)
    3824                            .dwattr $C$DW$220, DW_AT_decl_column(0x11)
    3825                    
    3826                    $C$DW$221       .dwtag  DW_TAG_member
    3827                            .dwattr $C$DW$221, DW_AT_type(*$C$DW$T$20)
    3828                            .dwattr $C$DW$221, DW_AT_name("REQMASKSET3")
    3829                            .dwattr $C$DW$221, DW_AT_TI_symbol_name("REQMASKSET3")
    3830                            .dwattr $C$DW$221, DW_AT_data_member_location[DW_OP_plus_uconst 0x13c]
    3831                            .dwattr $C$DW$221, DW_AT_accessibility(DW_ACCESS_public)
    3832                            .dwattr $C$DW$221, DW_AT_decl_file("C:\Users\bob\Documents\Projects\induct_forge\RM57Lx_test\P
    3833                            .dwattr $C$DW$221, DW_AT_decl_line(0x5a)
    3834                            .dwattr $C$DW$221, DW_AT_decl_column(0x11)
    3835                    
    3836                    $C$DW$222       .dwtag  DW_TAG_member
    3837                            .dwattr $C$DW$222, DW_AT_type(*$C$DW$T$20)
    3838                            .dwattr $C$DW$222, DW_AT_name("REQMASKCLR0")
    3839                            .dwattr $C$DW$222, DW_AT_TI_symbol_name("REQMASKCLR0")
    3840                            .dwattr $C$DW$222, DW_AT_data_member_location[DW_OP_plus_uconst 0x140]
    3841                            .dwattr $C$DW$222, DW_AT_accessibility(DW_ACCESS_public)
    3842                            .dwattr $C$DW$222, DW_AT_decl_file("C:\Users\bob\Documents\Projects\induct_forge\RM57Lx_test\P
    3843                            .dwattr $C$DW$222, DW_AT_decl_line(0x5b)
    3844                            .dwattr $C$DW$222, DW_AT_decl_column(0x11)
    3845                    
    3846                    $C$DW$223       .dwtag  DW_TAG_member
    3847                            .dwattr $C$DW$223, DW_AT_type(*$C$DW$T$20)
    3848                            .dwattr $C$DW$223, DW_AT_name("REQMASKCLR1")
    3849                            .dwattr $C$DW$223, DW_AT_TI_symbol_name("REQMASKCLR1")
    3850                            .dwattr $C$DW$223, DW_AT_data_member_location[DW_OP_plus_uconst 0x144]
TI ARM Assembler PC v16.9.0 Sun Feb 19 22:29:40 2017

Tools Copyright (c) 1996-2015 Texas Instruments Incorporated
C:\Users\bob\AppData\Local\Temp\0957210                              PAGE   71

    3851                            .dwattr $C$DW$223, DW_AT_accessibility(DW_ACCESS_public)
    3852                            .dwattr $C$DW$223, DW_AT_decl_file("C:\Users\bob\Documents\Projects\induct_forge\RM57Lx_test\P
    3853                            .dwattr $C$DW$223, DW_AT_decl_line(0x5c)
    3854                            .dwattr $C$DW$223, DW_AT_decl_column(0x11)
    3855                    
    3856                    $C$DW$224       .dwtag  DW_TAG_member
    3857                            .dwattr $C$DW$224, DW_AT_type(*$C$DW$T$20)
    3858                            .dwattr $C$DW$224, DW_AT_name("REQMASKCLR2")
    3859                            .dwattr $C$DW$224, DW_AT_TI_symbol_name("REQMASKCLR2")
    3860                            .dwattr $C$DW$224, DW_AT_data_member_location[DW_OP_plus_uconst 0x148]
    3861                            .dwattr $C$DW$224, DW_AT_accessibility(DW_ACCESS_public)
    3862                            .dwattr $C$DW$224, DW_AT_decl_file("C:\Users\bob\Documents\Projects\induct_forge\RM57Lx_test\P
    3863                            .dwattr $C$DW$224, DW_AT_decl_line(0x5d)
    3864                            .dwattr $C$DW$224, DW_AT_decl_column(0x11)
    3865                    
    3866                    $C$DW$225       .dwtag  DW_TAG_member
    3867                            .dwattr $C$DW$225, DW_AT_type(*$C$DW$T$20)
    3868                            .dwattr $C$DW$225, DW_AT_name("REQMASKCLR3")
    3869                            .dwattr $C$DW$225, DW_AT_TI_symbol_name("REQMASKCLR3")
    3870                            .dwattr $C$DW$225, DW_AT_data_member_location[DW_OP_plus_uconst 0x14c]
    3871                            .dwattr $C$DW$225, DW_AT_accessibility(DW_ACCESS_public)
    3872                            .dwattr $C$DW$225, DW_AT_decl_file("C:\Users\bob\Documents\Projects\induct_forge\RM57Lx_test\P
    3873                            .dwattr $C$DW$225, DW_AT_decl_line(0x5e)
    3874                            .dwattr $C$DW$225, DW_AT_decl_column(0x11)
    3875                    
    3876                    $C$DW$226       .dwtag  DW_TAG_member
    3877                            .dwattr $C$DW$226, DW_AT_type(*$C$DW$T$20)
    3878                            .dwattr $C$DW$226, DW_AT_name("WAKEMASKSET0")
    3879                            .dwattr $C$DW$226, DW_AT_TI_symbol_name("WAKEMASKSET0")
    3880                            .dwattr $C$DW$226, DW_AT_data_member_location[DW_OP_plus_uconst 0x150]
    3881                            .dwattr $C$DW$226, DW_AT_accessibility(DW_ACCESS_public)
    3882                            .dwattr $C$DW$226, DW_AT_decl_file("C:\Users\bob\Documents\Projects\induct_forge\RM57Lx_test\P
    3883                            .dwattr $C$DW$226, DW_AT_decl_line(0x5f)
    3884                            .dwattr $C$DW$226, DW_AT_decl_column(0x11)
    3885                    
    3886                    $C$DW$227       .dwtag  DW_TAG_member
    3887                            .dwattr $C$DW$227, DW_AT_type(*$C$DW$T$20)
    3888                            .dwattr $C$DW$227, DW_AT_name("WAKEMASKSET1")
    3889                            .dwattr $C$DW$227, DW_AT_TI_symbol_name("WAKEMASKSET1")
    3890                            .dwattr $C$DW$227, DW_AT_data_member_location[DW_OP_plus_uconst 0x154]
    3891                            .dwattr $C$DW$227, DW_AT_accessibility(DW_ACCESS_public)
    3892                            .dwattr $C$DW$227, DW_AT_decl_file("C:\Users\bob\Documents\Projects\induct_forge\RM57Lx_test\P
    3893                            .dwattr $C$DW$227, DW_AT_decl_line(0x60)
    3894                            .dwattr $C$DW$227, DW_AT_decl_column(0x11)
    3895                    
    3896                    $C$DW$228       .dwtag  DW_TAG_member
    3897                            .dwattr $C$DW$228, DW_AT_type(*$C$DW$T$20)
    3898                            .dwattr $C$DW$228, DW_AT_name("WAKEMASKSET2")
    3899                            .dwattr $C$DW$228, DW_AT_TI_symbol_name("WAKEMASKSET2")
    3900                            .dwattr $C$DW$228, DW_AT_data_member_location[DW_OP_plus_uconst 0x158]
    3901                            .dwattr $C$DW$228, DW_AT_accessibility(DW_ACCESS_public)
    3902                            .dwattr $C$DW$228, DW_AT_decl_file("C:\Users\bob\Documents\Projects\induct_forge\RM57Lx_test\P
    3903                            .dwattr $C$DW$228, DW_AT_decl_line(0x61)
    3904                            .dwattr $C$DW$228, DW_AT_decl_column(0x11)
    3905                    
TI ARM Assembler PC v16.9.0 Sun Feb 19 22:29:40 2017

Tools Copyright (c) 1996-2015 Texas Instruments Incorporated
C:\Users\bob\AppData\Local\Temp\0957210                              PAGE   72

    3906                    $C$DW$229       .dwtag  DW_TAG_member
    3907                            .dwattr $C$DW$229, DW_AT_type(*$C$DW$T$20)
    3908                            .dwattr $C$DW$229, DW_AT_name("WAKEMASKSET3")
    3909                            .dwattr $C$DW$229, DW_AT_TI_symbol_name("WAKEMASKSET3")
    3910                            .dwattr $C$DW$229, DW_AT_data_member_location[DW_OP_plus_uconst 0x15c]
    3911                            .dwattr $C$DW$229, DW_AT_accessibility(DW_ACCESS_public)
    3912                            .dwattr $C$DW$229, DW_AT_decl_file("C:\Users\bob\Documents\Projects\induct_forge\RM57Lx_test\P
    3913                            .dwattr $C$DW$229, DW_AT_decl_line(0x62)
    3914                            .dwattr $C$DW$229, DW_AT_decl_column(0x11)
    3915                    
    3916                    $C$DW$230       .dwtag  DW_TAG_member
    3917                            .dwattr $C$DW$230, DW_AT_type(*$C$DW$T$20)
    3918                            .dwattr $C$DW$230, DW_AT_name("WAKEMASKCLR0")
    3919                            .dwattr $C$DW$230, DW_AT_TI_symbol_name("WAKEMASKCLR0")
    3920                            .dwattr $C$DW$230, DW_AT_data_member_location[DW_OP_plus_uconst 0x160]
    3921                            .dwattr $C$DW$230, DW_AT_accessibility(DW_ACCESS_public)
    3922                            .dwattr $C$DW$230, DW_AT_decl_file("C:\Users\bob\Documents\Projects\induct_forge\RM57Lx_test\P
    3923                            .dwattr $C$DW$230, DW_AT_decl_line(0x63)
    3924                            .dwattr $C$DW$230, DW_AT_decl_column(0x11)
    3925                    
    3926                    $C$DW$231       .dwtag  DW_TAG_member
    3927                            .dwattr $C$DW$231, DW_AT_type(*$C$DW$T$20)
    3928                            .dwattr $C$DW$231, DW_AT_name("WAKEMASKCLR1")
    3929                            .dwattr $C$DW$231, DW_AT_TI_symbol_name("WAKEMASKCLR1")
    3930                            .dwattr $C$DW$231, DW_AT_data_member_location[DW_OP_plus_uconst 0x164]
    3931                            .dwattr $C$DW$231, DW_AT_accessibility(DW_ACCESS_public)
    3932                            .dwattr $C$DW$231, DW_AT_decl_file("C:\Users\bob\Documents\Projects\induct_forge\RM57Lx_test\P
    3933                            .dwattr $C$DW$231, DW_AT_decl_line(0x64)
    3934                            .dwattr $C$DW$231, DW_AT_decl_column(0x11)
    3935                    
    3936                    $C$DW$232       .dwtag  DW_TAG_member
    3937                            .dwattr $C$DW$232, DW_AT_type(*$C$DW$T$20)
    3938                            .dwattr $C$DW$232, DW_AT_name("WAKEMASKCLR2")
    3939                            .dwattr $C$DW$232, DW_AT_TI_symbol_name("WAKEMASKCLR2")
    3940                            .dwattr $C$DW$232, DW_AT_data_member_location[DW_OP_plus_uconst 0x168]
    3941                            .dwattr $C$DW$232, DW_AT_accessibility(DW_ACCESS_public)
    3942                            .dwattr $C$DW$232, DW_AT_decl_file("C:\Users\bob\Documents\Projects\induct_forge\RM57Lx_test\P
    3943                            .dwattr $C$DW$232, DW_AT_decl_line(0x65)
    3944                            .dwattr $C$DW$232, DW_AT_decl_column(0x11)
    3945                    
    3946                    $C$DW$233       .dwtag  DW_TAG_member
    3947                            .dwattr $C$DW$233, DW_AT_type(*$C$DW$T$20)
    3948                            .dwattr $C$DW$233, DW_AT_name("WAKEMASKCLR3")
    3949                            .dwattr $C$DW$233, DW_AT_TI_symbol_name("WAKEMASKCLR3")
    3950                            .dwattr $C$DW$233, DW_AT_data_member_location[DW_OP_plus_uconst 0x16c]
    3951                            .dwattr $C$DW$233, DW_AT_accessibility(DW_ACCESS_public)
    3952                            .dwattr $C$DW$233, DW_AT_decl_file("C:\Users\bob\Documents\Projects\induct_forge\RM57Lx_test\P
    3953                            .dwattr $C$DW$233, DW_AT_decl_line(0x66)
    3954                            .dwattr $C$DW$233, DW_AT_decl_column(0x11)
    3955                    
    3956                    $C$DW$234       .dwtag  DW_TAG_member
    3957                            .dwattr $C$DW$234, DW_AT_type(*$C$DW$T$20)
    3958                            .dwattr $C$DW$234, DW_AT_name("IRQVECREG")
    3959                            .dwattr $C$DW$234, DW_AT_TI_symbol_name("IRQVECREG")
    3960                            .dwattr $C$DW$234, DW_AT_data_member_location[DW_OP_plus_uconst 0x170]
TI ARM Assembler PC v16.9.0 Sun Feb 19 22:29:40 2017

Tools Copyright (c) 1996-2015 Texas Instruments Incorporated
C:\Users\bob\AppData\Local\Temp\0957210                              PAGE   73

    3961                            .dwattr $C$DW$234, DW_AT_accessibility(DW_ACCESS_public)
    3962                            .dwattr $C$DW$234, DW_AT_decl_file("C:\Users\bob\Documents\Projects\induct_forge\RM57Lx_test\P
    3963                            .dwattr $C$DW$234, DW_AT_decl_line(0x67)
    3964                            .dwattr $C$DW$234, DW_AT_decl_column(0x11)
    3965                    
    3966                    $C$DW$235       .dwtag  DW_TAG_member
    3967                            .dwattr $C$DW$235, DW_AT_type(*$C$DW$T$20)
    3968                            .dwattr $C$DW$235, DW_AT_name("FIQVECREG")
    3969                            .dwattr $C$DW$235, DW_AT_TI_symbol_name("FIQVECREG")
    3970                            .dwattr $C$DW$235, DW_AT_data_member_location[DW_OP_plus_uconst 0x174]
    3971                            .dwattr $C$DW$235, DW_AT_accessibility(DW_ACCESS_public)
    3972                            .dwattr $C$DW$235, DW_AT_decl_file("C:\Users\bob\Documents\Projects\induct_forge\RM57Lx_test\P
    3973                            .dwattr $C$DW$235, DW_AT_decl_line(0x68)
    3974                            .dwattr $C$DW$235, DW_AT_decl_column(0x11)
    3975                    
    3976                    $C$DW$236       .dwtag  DW_TAG_member
    3977                            .dwattr $C$DW$236, DW_AT_type(*$C$DW$T$20)
    3978                            .dwattr $C$DW$236, DW_AT_name("CAPEVT")
    3979                            .dwattr $C$DW$236, DW_AT_TI_symbol_name("CAPEVT")
    3980                            .dwattr $C$DW$236, DW_AT_data_member_location[DW_OP_plus_uconst 0x178]
    3981                            .dwattr $C$DW$236, DW_AT_accessibility(DW_ACCESS_public)
    3982                            .dwattr $C$DW$236, DW_AT_decl_file("C:\Users\bob\Documents\Projects\induct_forge\RM57Lx_test\P
    3983                            .dwattr $C$DW$236, DW_AT_decl_line(0x69)
    3984                            .dwattr $C$DW$236, DW_AT_decl_column(0x11)
    3985                    
    3986                    $C$DW$237       .dwtag  DW_TAG_member
    3987                            .dwattr $C$DW$237, DW_AT_type(*$C$DW$T$20)
    3988                            .dwattr $C$DW$237, DW_AT_name("rsvd4")
    3989                            .dwattr $C$DW$237, DW_AT_TI_symbol_name("rsvd4")
    3990                            .dwattr $C$DW$237, DW_AT_data_member_location[DW_OP_plus_uconst 0x17c]
    3991                            .dwattr $C$DW$237, DW_AT_accessibility(DW_ACCESS_public)
    3992                            .dwattr $C$DW$237, DW_AT_decl_file("C:\Users\bob\Documents\Projects\induct_forge\RM57Lx_test\P
    3993                            .dwattr $C$DW$237, DW_AT_decl_line(0x6a)
    3994                            .dwattr $C$DW$237, DW_AT_decl_column(0x11)
    3995                    
    3996                    $C$DW$238       .dwtag  DW_TAG_member
    3997                            .dwattr $C$DW$238, DW_AT_type(*$C$DW$T$29)
    3998                            .dwattr $C$DW$238, DW_AT_name("CHANCTRL")
    3999                            .dwattr $C$DW$238, DW_AT_TI_symbol_name("CHANCTRL")
    4000                            .dwattr $C$DW$238, DW_AT_data_member_location[DW_OP_plus_uconst 0x180]
    4001                            .dwattr $C$DW$238, DW_AT_accessibility(DW_ACCESS_public)
    4002                            .dwattr $C$DW$238, DW_AT_decl_file("C:\Users\bob\Documents\Projects\induct_forge\RM57Lx_test\P
    4003                            .dwattr $C$DW$238, DW_AT_decl_line(0x6b)
    4004                            .dwattr $C$DW$238, DW_AT_decl_column(0x11)
    4005                    
    4006                            .dwattr $C$DW$T$30, DW_AT_decl_file("C:\Users\bob\Documents\Projects\induct_forge\RM57Lx_test\
    4007                            .dwattr $C$DW$T$30, DW_AT_decl_line(0x43)
    4008                            .dwattr $C$DW$T$30, DW_AT_decl_column(0x19)
    4009                            .dwendtag $C$DW$T$30
    4010                    
    4011                    $C$DW$T$112     .dwtag  DW_TAG_volatile_type
    4012                            .dwattr $C$DW$T$112, DW_AT_type(*$C$DW$T$30)
    4013                    
    4014                    $C$DW$T$113     .dwtag  DW_TAG_typedef
    4015                            .dwattr $C$DW$T$113, DW_AT_name("vimBASE_t")
TI ARM Assembler PC v16.9.0 Sun Feb 19 22:29:40 2017

Tools Copyright (c) 1996-2015 Texas Instruments Incorporated
C:\Users\bob\AppData\Local\Temp\0957210                              PAGE   74

    4016                            .dwattr $C$DW$T$113, DW_AT_type(*$C$DW$T$112)
    4017                            .dwattr $C$DW$T$113, DW_AT_language(DW_LANG_C)
    4018                            .dwattr $C$DW$T$113, DW_AT_decl_file("C:\Users\bob\Documents\Projects\induct_forge\RM57Lx_test
    4019                            .dwattr $C$DW$T$113, DW_AT_decl_line(0x6c)
    4020                            .dwattr $C$DW$T$113, DW_AT_decl_column(0x03)
    4021                    
    4022                    
    4023                    $C$DW$T$31      .dwtag  DW_TAG_structure_type
    4024                            .dwattr $C$DW$T$31, DW_AT_name("vim_config_reg")
    4025                            .dwattr $C$DW$T$31, DW_AT_byte_size(0x94)
    4026                    $C$DW$239       .dwtag  DW_TAG_member
    4027                            .dwattr $C$DW$239, DW_AT_type(*$C$DW$T$20)
    4028                            .dwattr $C$DW$239, DW_AT_name("CONFIG_FIRQPR0")
    4029                            .dwattr $C$DW$239, DW_AT_TI_symbol_name("CONFIG_FIRQPR0")
    4030                            .dwattr $C$DW$239, DW_AT_data_member_location[DW_OP_plus_uconst 0x0]
    4031                            .dwattr $C$DW$239, DW_AT_accessibility(DW_ACCESS_public)
    4032                            .dwattr $C$DW$239, DW_AT_decl_file("C:/Users/bob/Documents/Projects/induct_forge/RM57Lx_test/P
    4033                            .dwattr $C$DW$239, DW_AT_decl_line(0x73)
    4034                            .dwattr $C$DW$239, DW_AT_decl_column(0x0c)
    4035                    
    4036                    $C$DW$240       .dwtag  DW_TAG_member
    4037                            .dwattr $C$DW$240, DW_AT_type(*$C$DW$T$20)
    4038                            .dwattr $C$DW$240, DW_AT_name("CONFIG_FIRQPR1")
    4039                            .dwattr $C$DW$240, DW_AT_TI_symbol_name("CONFIG_FIRQPR1")
    4040                            .dwattr $C$DW$240, DW_AT_data_member_location[DW_OP_plus_uconst 0x4]
    4041                            .dwattr $C$DW$240, DW_AT_accessibility(DW_ACCESS_public)
    4042                            .dwattr $C$DW$240, DW_AT_decl_file("C:/Users/bob/Documents/Projects/induct_forge/RM57Lx_test/P
    4043                            .dwattr $C$DW$240, DW_AT_decl_line(0x74)
    4044                            .dwattr $C$DW$240, DW_AT_decl_column(0x0c)
    4045                    
    4046                    $C$DW$241       .dwtag  DW_TAG_member
    4047                            .dwattr $C$DW$241, DW_AT_type(*$C$DW$T$20)
    4048                            .dwattr $C$DW$241, DW_AT_name("CONFIG_FIRQPR2")
    4049                            .dwattr $C$DW$241, DW_AT_TI_symbol_name("CONFIG_FIRQPR2")
    4050                            .dwattr $C$DW$241, DW_AT_data_member_location[DW_OP_plus_uconst 0x8]
    4051                            .dwattr $C$DW$241, DW_AT_accessibility(DW_ACCESS_public)
    4052                            .dwattr $C$DW$241, DW_AT_decl_file("C:/Users/bob/Documents/Projects/induct_forge/RM57Lx_test/P
    4053                            .dwattr $C$DW$241, DW_AT_decl_line(0x75)
    4054                            .dwattr $C$DW$241, DW_AT_decl_column(0x0c)
    4055                    
    4056                    $C$DW$242       .dwtag  DW_TAG_member
    4057                            .dwattr $C$DW$242, DW_AT_type(*$C$DW$T$20)
    4058                            .dwattr $C$DW$242, DW_AT_name("CONFIG_FIRQPR3")
    4059                            .dwattr $C$DW$242, DW_AT_TI_symbol_name("CONFIG_FIRQPR3")
    4060                            .dwattr $C$DW$242, DW_AT_data_member_location[DW_OP_plus_uconst 0xc]
    4061                            .dwattr $C$DW$242, DW_AT_accessibility(DW_ACCESS_public)
    4062                            .dwattr $C$DW$242, DW_AT_decl_file("C:/Users/bob/Documents/Projects/induct_forge/RM57Lx_test/P
    4063                            .dwattr $C$DW$242, DW_AT_decl_line(0x76)
    4064                            .dwattr $C$DW$242, DW_AT_decl_column(0x0c)
    4065                    
    4066                    $C$DW$243       .dwtag  DW_TAG_member
    4067                            .dwattr $C$DW$243, DW_AT_type(*$C$DW$T$20)
    4068                            .dwattr $C$DW$243, DW_AT_name("CONFIG_REQMASKSET0")
    4069                            .dwattr $C$DW$243, DW_AT_TI_symbol_name("CONFIG_REQMASKSET0")
    4070                            .dwattr $C$DW$243, DW_AT_data_member_location[DW_OP_plus_uconst 0x10]
TI ARM Assembler PC v16.9.0 Sun Feb 19 22:29:40 2017

Tools Copyright (c) 1996-2015 Texas Instruments Incorporated
C:\Users\bob\AppData\Local\Temp\0957210                              PAGE   75

    4071                            .dwattr $C$DW$243, DW_AT_accessibility(DW_ACCESS_public)
    4072                            .dwattr $C$DW$243, DW_AT_decl_file("C:/Users/bob/Documents/Projects/induct_forge/RM57Lx_test/P
    4073                            .dwattr $C$DW$243, DW_AT_decl_line(0x77)
    4074                            .dwattr $C$DW$243, DW_AT_decl_column(0x0c)
    4075                    
    4076                    $C$DW$244       .dwtag  DW_TAG_member
    4077                            .dwattr $C$DW$244, DW_AT_type(*$C$DW$T$20)
    4078                            .dwattr $C$DW$244, DW_AT_name("CONFIG_REQMASKSET1")
    4079                            .dwattr $C$DW$244, DW_AT_TI_symbol_name("CONFIG_REQMASKSET1")
    4080                            .dwattr $C$DW$244, DW_AT_data_member_location[DW_OP_plus_uconst 0x14]
    4081                            .dwattr $C$DW$244, DW_AT_accessibility(DW_ACCESS_public)
    4082                            .dwattr $C$DW$244, DW_AT_decl_file("C:/Users/bob/Documents/Projects/induct_forge/RM57Lx_test/P
    4083                            .dwattr $C$DW$244, DW_AT_decl_line(0x78)
    4084                            .dwattr $C$DW$244, DW_AT_decl_column(0x0c)
    4085                    
    4086                    $C$DW$245       .dwtag  DW_TAG_member
    4087                            .dwattr $C$DW$245, DW_AT_type(*$C$DW$T$20)
    4088                            .dwattr $C$DW$245, DW_AT_name("CONFIG_REQMASKSET2")
    4089                            .dwattr $C$DW$245, DW_AT_TI_symbol_name("CONFIG_REQMASKSET2")
    4090                            .dwattr $C$DW$245, DW_AT_data_member_location[DW_OP_plus_uconst 0x18]
    4091                            .dwattr $C$DW$245, DW_AT_accessibility(DW_ACCESS_public)
    4092                            .dwattr $C$DW$245, DW_AT_decl_file("C:/Users/bob/Documents/Projects/induct_forge/RM57Lx_test/P
    4093                            .dwattr $C$DW$245, DW_AT_decl_line(0x79)
    4094                            .dwattr $C$DW$245, DW_AT_decl_column(0x0c)
    4095                    
    4096                    $C$DW$246       .dwtag  DW_TAG_member
    4097                            .dwattr $C$DW$246, DW_AT_type(*$C$DW$T$20)
    4098                            .dwattr $C$DW$246, DW_AT_name("CONFIG_REQMASKSET3")
    4099                            .dwattr $C$DW$246, DW_AT_TI_symbol_name("CONFIG_REQMASKSET3")
    4100                            .dwattr $C$DW$246, DW_AT_data_member_location[DW_OP_plus_uconst 0x1c]
    4101                            .dwattr $C$DW$246, DW_AT_accessibility(DW_ACCESS_public)
    4102                            .dwattr $C$DW$246, DW_AT_decl_file("C:/Users/bob/Documents/Projects/induct_forge/RM57Lx_test/P
    4103                            .dwattr $C$DW$246, DW_AT_decl_line(0x7a)
    4104                            .dwattr $C$DW$246, DW_AT_decl_column(0x0c)
    4105                    
    4106                    $C$DW$247       .dwtag  DW_TAG_member
    4107                            .dwattr $C$DW$247, DW_AT_type(*$C$DW$T$20)
    4108                            .dwattr $C$DW$247, DW_AT_name("CONFIG_WAKEMASKSET0")
    4109                            .dwattr $C$DW$247, DW_AT_TI_symbol_name("CONFIG_WAKEMASKSET0")
    4110                            .dwattr $C$DW$247, DW_AT_data_member_location[DW_OP_plus_uconst 0x20]
    4111                            .dwattr $C$DW$247, DW_AT_accessibility(DW_ACCESS_public)
    4112                            .dwattr $C$DW$247, DW_AT_decl_file("C:/Users/bob/Documents/Projects/induct_forge/RM57Lx_test/P
    4113                            .dwattr $C$DW$247, DW_AT_decl_line(0x7b)
    4114                            .dwattr $C$DW$247, DW_AT_decl_column(0x0c)
    4115                    
    4116                    $C$DW$248       .dwtag  DW_TAG_member
    4117                            .dwattr $C$DW$248, DW_AT_type(*$C$DW$T$20)
    4118                            .dwattr $C$DW$248, DW_AT_name("CONFIG_WAKEMASKSET1")
    4119                            .dwattr $C$DW$248, DW_AT_TI_symbol_name("CONFIG_WAKEMASKSET1")
    4120                            .dwattr $C$DW$248, DW_AT_data_member_location[DW_OP_plus_uconst 0x24]
    4121                            .dwattr $C$DW$248, DW_AT_accessibility(DW_ACCESS_public)
    4122                            .dwattr $C$DW$248, DW_AT_decl_file("C:/Users/bob/Documents/Projects/induct_forge/RM57Lx_test/P
    4123                            .dwattr $C$DW$248, DW_AT_decl_line(0x7c)
    4124                            .dwattr $C$DW$248, DW_AT_decl_column(0x0c)
    4125                    
TI ARM Assembler PC v16.9.0 Sun Feb 19 22:29:40 2017

Tools Copyright (c) 1996-2015 Texas Instruments Incorporated
C:\Users\bob\AppData\Local\Temp\0957210                              PAGE   76

    4126                    $C$DW$249       .dwtag  DW_TAG_member
    4127                            .dwattr $C$DW$249, DW_AT_type(*$C$DW$T$20)
    4128                            .dwattr $C$DW$249, DW_AT_name("CONFIG_WAKEMASKSET2")
    4129                            .dwattr $C$DW$249, DW_AT_TI_symbol_name("CONFIG_WAKEMASKSET2")
    4130                            .dwattr $C$DW$249, DW_AT_data_member_location[DW_OP_plus_uconst 0x28]
    4131                            .dwattr $C$DW$249, DW_AT_accessibility(DW_ACCESS_public)
    4132                            .dwattr $C$DW$249, DW_AT_decl_file("C:/Users/bob/Documents/Projects/induct_forge/RM57Lx_test/P
    4133                            .dwattr $C$DW$249, DW_AT_decl_line(0x7d)
    4134                            .dwattr $C$DW$249, DW_AT_decl_column(0x0c)
    4135                    
    4136                    $C$DW$250       .dwtag  DW_TAG_member
    4137                            .dwattr $C$DW$250, DW_AT_type(*$C$DW$T$20)
    4138                            .dwattr $C$DW$250, DW_AT_name("CONFIG_WAKEMASKSET3")
    4139                            .dwattr $C$DW$250, DW_AT_TI_symbol_name("CONFIG_WAKEMASKSET3")
    4140                            .dwattr $C$DW$250, DW_AT_data_member_location[DW_OP_plus_uconst 0x2c]
    4141                            .dwattr $C$DW$250, DW_AT_accessibility(DW_ACCESS_public)
    4142                            .dwattr $C$DW$250, DW_AT_decl_file("C:/Users/bob/Documents/Projects/induct_forge/RM57Lx_test/P
    4143                            .dwattr $C$DW$250, DW_AT_decl_line(0x7e)
    4144                            .dwattr $C$DW$250, DW_AT_decl_column(0x0c)
    4145                    
    4146                    $C$DW$251       .dwtag  DW_TAG_member
    4147                            .dwattr $C$DW$251, DW_AT_type(*$C$DW$T$20)
    4148                            .dwattr $C$DW$251, DW_AT_name("CONFIG_CAPEVT")
    4149                            .dwattr $C$DW$251, DW_AT_TI_symbol_name("CONFIG_CAPEVT")
    4150                            .dwattr $C$DW$251, DW_AT_data_member_location[DW_OP_plus_uconst 0x30]
    4151                            .dwattr $C$DW$251, DW_AT_accessibility(DW_ACCESS_public)
    4152                            .dwattr $C$DW$251, DW_AT_decl_file("C:/Users/bob/Documents/Projects/induct_forge/RM57Lx_test/P
    4153                            .dwattr $C$DW$251, DW_AT_decl_line(0x7f)
    4154                            .dwattr $C$DW$251, DW_AT_decl_column(0x0c)
    4155                    
    4156                    $C$DW$252       .dwtag  DW_TAG_member
    4157                            .dwattr $C$DW$252, DW_AT_type(*$C$DW$T$29)
    4158                            .dwattr $C$DW$252, DW_AT_name("CONFIG_CHANCTRL")
    4159                            .dwattr $C$DW$252, DW_AT_TI_symbol_name("CONFIG_CHANCTRL")
    4160                            .dwattr $C$DW$252, DW_AT_data_member_location[DW_OP_plus_uconst 0x34]
    4161                            .dwattr $C$DW$252, DW_AT_accessibility(DW_ACCESS_public)
    4162                            .dwattr $C$DW$252, DW_AT_decl_file("C:/Users/bob/Documents/Projects/induct_forge/RM57Lx_test/P
    4163                            .dwattr $C$DW$252, DW_AT_decl_line(0x80)
    4164                            .dwattr $C$DW$252, DW_AT_decl_column(0x0c)
    4165                    
    4166                            .dwattr $C$DW$T$31, DW_AT_decl_file("C:/Users/bob/Documents/Projects/induct_forge/RM57Lx_test/
    4167                            .dwattr $C$DW$T$31, DW_AT_decl_line(0x71)
    4168                            .dwattr $C$DW$T$31, DW_AT_decl_column(0x10)
    4169                            .dwendtag $C$DW$T$31
    4170                    
    4171                    $C$DW$T$114     .dwtag  DW_TAG_typedef
    4172                            .dwattr $C$DW$T$114, DW_AT_name("vim_config_reg_t")
    4173                            .dwattr $C$DW$T$114, DW_AT_type(*$C$DW$T$31)
    4174                            .dwattr $C$DW$T$114, DW_AT_language(DW_LANG_C)
    4175                            .dwattr $C$DW$T$114, DW_AT_decl_file("C:/Users/bob/Documents/Projects/induct_forge/RM57Lx_test
    4176                            .dwattr $C$DW$T$114, DW_AT_decl_line(0x81)
    4177                            .dwattr $C$DW$T$114, DW_AT_decl_column(0x03)
    4178                    
    4179                            .dwattr $C$DW$CU, DW_AT_language(DW_LANG_C)
    4180                    
TI ARM Assembler PC v16.9.0 Sun Feb 19 22:29:40 2017

Tools Copyright (c) 1996-2015 Texas Instruments Incorporated
C:\Users\bob\AppData\Local\Temp\0957210                              PAGE   77

    4181                    ;***************************************************************
    4182                    ;* DWARF CIE ENTRIES                                           *
    4183                    ;***************************************************************
    4184                    
    4185                    $C$DW$CIE       .dwcie 14
    4186                            .dwcfi  cfa_register, 13
    4187                            .dwcfi  cfa_offset, 0
    4188                            .dwcfi  same_value, 4
    4189                            .dwcfi  same_value, 5
    4190                            .dwcfi  same_value, 6
    4191                            .dwcfi  same_value, 7
    4192                            .dwcfi  same_value, 8
    4193                            .dwcfi  same_value, 9
    4194                            .dwcfi  same_value, 10
    4195                            .dwcfi  same_value, 11
    4196                            .dwcfi  same_value, 80
    4197                            .dwcfi  same_value, 81
    4198                            .dwcfi  same_value, 82
    4199                            .dwcfi  same_value, 83
    4200                            .dwcfi  same_value, 84
    4201                            .dwcfi  same_value, 85
    4202                            .dwcfi  same_value, 86
    4203                            .dwcfi  same_value, 87
    4204                            .dwcfi  same_value, 88
    4205                            .dwcfi  same_value, 89
    4206                            .dwcfi  same_value, 90
    4207                            .dwcfi  same_value, 91
    4208                            .dwcfi  same_value, 92
    4209                            .dwcfi  same_value, 93
    4210                            .dwcfi  same_value, 94
    4211                            .dwcfi  same_value, 95
    4212                            .dwendentry
    4213                            .dwendtag $C$DW$CU
    4214                    

No Assembly Errors, No Assembly Warnings
