TI ARM Assembler PC v16.9.0 Thu Feb 16 13:27:11 2017

Tools Copyright (c) 1996-2015 Texas Instruments Incorporated
C:\Users\bob\AppData\Local\Temp\1223210                              PAGE    1

       1                    ;******************************************************************************
       2                    ;* TI ARM C/C++ Codegen                                        PC v16.9.0.LTS *
       3                    ;* Date/Time created: Thu Feb 16 13:27:09 2017                                *
       4                    ;******************************************************************************
       5                            .compiler_opts --abi=eabi --arm_vmrs_si_workaround=off --code_state=32 --diag_wrap=off --embed
       6 00000000                   .state32
       7                    
       8                    $C$DW$CU        .dwtag  DW_TAG_compile_unit
       9                            .dwattr $C$DW$CU, DW_AT_name("../hcg/source/HL_rti.c")
      10                            .dwattr $C$DW$CU, DW_AT_producer("TI TI ARM C/C++ Codegen PC v16.9.0.LTS Copyright (c) 1996-20
      11                            .dwattr $C$DW$CU, DW_AT_TI_version(0x01)
      12                            .dwattr $C$DW$CU, DW_AT_comp_dir("C:\Users\bob\Documents\Projects\induct_forge\RM57Lx_test\Pro
      13                    ;       C:\ti\ccsv7\tools\compiler\ti-cgt-arm_16.9.0.LTS\bin\armacpia.exe -@C:\\Users\\bob\\AppData\\L
      14 00000000                   .sect   ".text"
      15                            .clink
      16                            .armfunc rtiInit
      17 00000000                   .state32
      18                            .global rtiInit
      19                    
      20                    $C$DW$1 .dwtag  DW_TAG_subprogram
      21                            .dwattr $C$DW$1, DW_AT_name("rtiInit")
      22                            .dwattr $C$DW$1, DW_AT_low_pc(rtiInit)
      23                            .dwattr $C$DW$1, DW_AT_high_pc(0x00)
      24                            .dwattr $C$DW$1, DW_AT_TI_symbol_name("rtiInit")
      25                            .dwattr $C$DW$1, DW_AT_external
      26                            .dwattr $C$DW$1, DW_AT_TI_begin_file("../hcg/source/HL_rti.c")
      27                            .dwattr $C$DW$1, DW_AT_TI_begin_line(0x43)
      28                            .dwattr $C$DW$1, DW_AT_TI_begin_column(0x06)
      29                            .dwattr $C$DW$1, DW_AT_decl_file("../hcg/source/HL_rti.c")
      30                            .dwattr $C$DW$1, DW_AT_decl_line(0x43)
      31                            .dwattr $C$DW$1, DW_AT_decl_column(0x06)
      32                            .dwattr $C$DW$1, DW_AT_TI_max_frame_size(0x00)
      33                            .dwpsn  file "../hcg/source/HL_rti.c",line 68,column 1,is_stmt,address rtiInit,isa 2
      34                    
      35                            .dwfde $C$DW$CIE, rtiInit
      36                    
      37                    ;*****************************************************************************
      38                    ;* FUNCTION NAME: rtiInit                                                    *
      39                    ;*                                                                           *
      40                    ;*   Regs Modified     : A1,V9                                               *
      41                    ;*   Regs Used         : A1,V9,LR                                            *
      42                    ;*   Local Frame Size  : 0 Args + 0 Auto + 0 Save = 0 byte                   *
      43                    ;*****************************************************************************
      44 00000000           rtiInit:
      45                    ;* --------------------------------------------------------------------------*
      46                            .dwcfi  cfa_offset, 0
      47                            .dwpsn  file "../hcg/source/HL_rti.c",line 74,column 5,is_stmt,isa 2
      48 00000000 E59F062C          LDR       A1, $C$CON1           ; [DPU_4_PIPE0] |74| 
      49 00000004 E3A0C805          MOV       V9, #327680           ; [DPU_4_PIPE0] |74| 
      50 00000008 E580C000          STR       V9, [A1, #0]          ; [DPU_4_PIPE0] |74| 
      51                            .dwpsn  file "../hcg/source/HL_rti.c",line 77,column 5,is_stmt,isa 2
      52 0000000c E59F0624          LDR       A1, $C$CON2           ; [DPU_4_PIPE0] |77| 
      53 00000010 E3A0C000          MOV       V9, #0                ; [DPU_4_PIPE0] |77| 
      54 00000014 E580C000          STR       V9, [A1, #0]          ; [DPU_4_PIPE0] |77| 
      55                            .dwpsn  file "../hcg/source/HL_rti.c",line 80,column 5,is_stmt,isa 2
TI ARM Assembler PC v16.9.0 Thu Feb 16 13:27:11 2017

Tools Copyright (c) 1996-2015 Texas Instruments Incorporated
C:\Users\bob\AppData\Local\Temp\1223210                              PAGE    2

      56 00000018 E59F061C          LDR       A1, $C$CON3           ; [DPU_4_PIPE0] |80| 
      57 0000001c E3A0C000          MOV       V9, #0                ; [DPU_4_PIPE0] |80| 
      58 00000020 E580C000          STR       V9, [A1, #0]          ; [DPU_4_PIPE0] |80| 
      59                            .dwpsn  file "../hcg/source/HL_rti.c",line 83,column 5,is_stmt,isa 2
      60 00000024 E59F0614          LDR       A1, $C$CON4           ; [DPU_4_PIPE0] |83| 
      61 00000028 E3A0C000          MOV       V9, #0                ; [DPU_4_PIPE0] |83| 
      62 0000002c E580C000          STR       V9, [A1, #0]          ; [DPU_4_PIPE0] |83| 
      63                            .dwpsn  file "../hcg/source/HL_rti.c",line 86,column 5,is_stmt,isa 2
      64 00000030 E59F060C          LDR       A1, $C$CON5           ; [DPU_4_PIPE0] |86| 
      65 00000034 E3A0C000          MOV       V9, #0                ; [DPU_4_PIPE0] |86| 
      66 00000038 E580C000          STR       V9, [A1, #0]          ; [DPU_4_PIPE0] |86| 
      67                            .dwpsn  file "../hcg/source/HL_rti.c",line 89,column 5,is_stmt,isa 2
      68 0000003c E59F0604          LDR       A1, $C$CON6           ; [DPU_4_PIPE0] |89| 
      69 00000040 E3A0C000          MOV       V9, #0                ; [DPU_4_PIPE0] |89| 
      70 00000044 E580C000          STR       V9, [A1, #0]          ; [DPU_4_PIPE0] |89| 
      71                            .dwpsn  file "../hcg/source/HL_rti.c",line 95,column 5,is_stmt,isa 2
      72 00000048 E59F05FC          LDR       A1, $C$CON7           ; [DPU_4_PIPE0] |95| 
      73 0000004c E3A0C007          MOV       V9, #7                ; [DPU_4_PIPE0] |95| 
      74 00000050 E580C000          STR       V9, [A1, #0]          ; [DPU_4_PIPE0] |95| 
      75                            .dwpsn  file "../hcg/source/HL_rti.c",line 98,column 5,is_stmt,isa 2
      76 00000054 E59F05F4          LDR       A1, $C$CON8           ; [DPU_4_PIPE0] |98| 
      77 00000058 E3A0C000          MOV       V9, #0                ; [DPU_4_PIPE0] |98| 
      78 0000005c E580C000          STR       V9, [A1, #0]          ; [DPU_4_PIPE0] |98| 
      79                            .dwpsn  file "../hcg/source/HL_rti.c",line 101,column 5,is_stmt,isa 2
      80 00000060 E59F05EC          LDR       A1, $C$CON9           ; [DPU_4_PIPE0] |101| 
      81 00000064 E3A0C000          MOV       V9, #0                ; [DPU_4_PIPE0] |101| 
      82 00000068 E580C000          STR       V9, [A1, #0]          ; [DPU_4_PIPE0] |101| 
      83                            .dwpsn  file "../hcg/source/HL_rti.c",line 107,column 5,is_stmt,isa 2
      84 0000006c E59F05E4          LDR       A1, $C$CON10          ; [DPU_4_PIPE0] |107| 
      85 00000070 E3A0C007          MOV       V9, #7                ; [DPU_4_PIPE0] |107| 
      86 00000074 E580C000          STR       V9, [A1, #0]          ; [DPU_4_PIPE0] |107| 
      87                            .dwpsn  file "../hcg/source/HL_rti.c",line 110,column 5,is_stmt,isa 2
      88 00000078 E59F05DC          LDR       A1, $C$CON11          ; [DPU_4_PIPE0] |110| 
      89 0000007c E306CDDD          MOV       V9, #28125            ; [DPU_4_PIPE0] |110| 
      90 00000080 E580C000          STR       V9, [A1, #0]          ; [DPU_4_PIPE0] |110| 
      91                            .dwpsn  file "../hcg/source/HL_rti.c",line 113,column 5,is_stmt,isa 2
      92 00000084 E59F05D4          LDR       A1, $C$CON12          ; [DPU_4_PIPE0] |113| 
      93 00000088 E306CDDD          MOV       V9, #28125            ; [DPU_4_PIPE0] |113| 
      94 0000008c E580C000          STR       V9, [A1, #0]          ; [DPU_4_PIPE0] |113| 
      95                            .dwpsn  file "../hcg/source/HL_rti.c",line 116,column 5,is_stmt,isa 2
      96 00000090 E59F05CC          LDR       A1, $C$CON13          ; [DPU_4_PIPE0] |116| 
      97 00000094 E59FC5CC          LDR       V9, $C$CON14          ; [DPU_4_PIPE0] |116| 
      98 00000098 E580C000          STR       V9, [A1, #0]          ; [DPU_4_PIPE0] |116| 
      99                            .dwpsn  file "../hcg/source/HL_rti.c",line 119,column 5,is_stmt,isa 2
     100 0000009c E59F05C8          LDR       A1, $C$CON15          ; [DPU_4_PIPE0] |119| 
     101 000000a0 E59FC5C0          LDR       V9, $C$CON14          ; [DPU_4_PIPE0] |119| 
     102 000000a4 E580C000          STR       V9, [A1, #0]          ; [DPU_4_PIPE0] |119| 
     103                            .dwpsn  file "../hcg/source/HL_rti.c",line 122,column 5,is_stmt,isa 2
     104 000000a8 E59F05C0          LDR       A1, $C$CON16          ; [DPU_4_PIPE0] |122| 
     105 000000ac E59FC5C0          LDR       V9, $C$CON17          ; [DPU_4_PIPE0] |122| 
     106 000000b0 E580C000          STR       V9, [A1, #0]          ; [DPU_4_PIPE0] |122| 
     107                            .dwpsn  file "../hcg/source/HL_rti.c",line 125,column 5,is_stmt,isa 2
     108 000000b4 E59F05BC          LDR       A1, $C$CON18          ; [DPU_4_PIPE0] |125| 
     109 000000b8 E59FC5B4          LDR       V9, $C$CON17          ; [DPU_4_PIPE0] |125| 
     110 000000bc E580C000          STR       V9, [A1, #0]          ; [DPU_4_PIPE0] |125| 
TI ARM Assembler PC v16.9.0 Thu Feb 16 13:27:11 2017

Tools Copyright (c) 1996-2015 Texas Instruments Incorporated
C:\Users\bob\AppData\Local\Temp\1223210                              PAGE    3

     111                            .dwpsn  file "../hcg/source/HL_rti.c",line 128,column 5,is_stmt,isa 2
     112 000000c0 E59F05B4          LDR       A1, $C$CON19          ; [DPU_4_PIPE0] |128| 
     113 000000c4 E59FC59C          LDR       V9, $C$CON14          ; [DPU_4_PIPE0] |128| 
     114 000000c8 E580C000          STR       V9, [A1, #0]          ; [DPU_4_PIPE0] |128| 
     115                            .dwpsn  file "../hcg/source/HL_rti.c",line 131,column 5,is_stmt,isa 2
     116 000000cc E59F05AC          LDR       A1, $C$CON20          ; [DPU_4_PIPE0] |131| 
     117 000000d0 E59FC590          LDR       V9, $C$CON14          ; [DPU_4_PIPE0] |131| 
     118 000000d4 E580C000          STR       V9, [A1, #0]          ; [DPU_4_PIPE0] |131| 
     119                            .dwpsn  file "../hcg/source/HL_rti.c",line 134,column 5,is_stmt,isa 2
     120 000000d8 E59F05A4          LDR       A1, $C$CON21          ; [DPU_4_PIPE0] |134| 
     121 000000dc E59FC5A4          LDR       V9, $C$CON22          ; [DPU_4_PIPE0] |134| 
     122 000000e0 E580C000          STR       V9, [A1, #0]          ; [DPU_4_PIPE0] |134| 
     123                            .dwpsn  file "../hcg/source/HL_rti.c",line 137,column 5,is_stmt,isa 2
     124 000000e4 E59F05A0          LDR       A1, $C$CON23          ; [DPU_4_PIPE0] |137| 
     125 000000e8 E59FC5A0          LDR       V9, $C$CON24          ; [DPU_4_PIPE0] |137| 
     126 000000ec E580C000          STR       V9, [A1, #0]          ; [DPU_4_PIPE0] |137| 
     127                            .dwpsn  file "../hcg/source/HL_rti.c",line 146,column 1,is_stmt,isa 2
     128                    $C$DW$2 .dwtag  DW_TAG_TI_branch
     129                            .dwattr $C$DW$2, DW_AT_low_pc(0x00)
     130                            .dwattr $C$DW$2, DW_AT_TI_return
     131                    
     132 000000f0 E12FFF1E          BX        LR                    ; [DPU_4_PIPE1] 
     133                            ; BRANCH OCCURS                  ; [] 
     134                            .dwattr $C$DW$1, DW_AT_TI_end_file("../hcg/source/HL_rti.c")
     135                            .dwattr $C$DW$1, DW_AT_TI_end_line(0x92)
     136                            .dwattr $C$DW$1, DW_AT_TI_end_column(0x01)
     137                            .dwendentry
     138                            .dwendtag $C$DW$1
     139                    
     140 000000f4                   .sect   ".text"
     141                            .clink
     142                            .armfunc rtiStartCounter
     143 000000f4                   .state32
     144                            .global rtiStartCounter
     145                    
     146                    $C$DW$3 .dwtag  DW_TAG_subprogram
     147                            .dwattr $C$DW$3, DW_AT_name("rtiStartCounter")
     148                            .dwattr $C$DW$3, DW_AT_low_pc(rtiStartCounter)
     149                            .dwattr $C$DW$3, DW_AT_high_pc(0x00)
     150                            .dwattr $C$DW$3, DW_AT_TI_symbol_name("rtiStartCounter")
     151                            .dwattr $C$DW$3, DW_AT_external
     152                            .dwattr $C$DW$3, DW_AT_TI_begin_file("../hcg/source/HL_rti.c")
     153                            .dwattr $C$DW$3, DW_AT_TI_begin_line(0x9e)
     154                            .dwattr $C$DW$3, DW_AT_TI_begin_column(0x06)
     155                            .dwattr $C$DW$3, DW_AT_decl_file("../hcg/source/HL_rti.c")
     156                            .dwattr $C$DW$3, DW_AT_decl_line(0x9e)
     157                            .dwattr $C$DW$3, DW_AT_decl_column(0x06)
     158                            .dwattr $C$DW$3, DW_AT_TI_max_frame_size(0x08)
     159                            .dwpsn  file "../hcg/source/HL_rti.c",line 159,column 1,is_stmt,address rtiStartCounter,isa 2
     160                    
     161                            .dwfde $C$DW$CIE, rtiStartCounter
     162                    $C$DW$4 .dwtag  DW_TAG_formal_parameter
     163                            .dwattr $C$DW$4, DW_AT_name("rtiREG")
     164                            .dwattr $C$DW$4, DW_AT_TI_symbol_name("rtiREG")
     165                            .dwattr $C$DW$4, DW_AT_type(*$C$DW$T$43)
TI ARM Assembler PC v16.9.0 Thu Feb 16 13:27:11 2017

Tools Copyright (c) 1996-2015 Texas Instruments Incorporated
C:\Users\bob\AppData\Local\Temp\1223210                              PAGE    4

     166                            .dwattr $C$DW$4, DW_AT_location[DW_OP_reg0]
     167                    
     168                    $C$DW$5 .dwtag  DW_TAG_formal_parameter
     169                            .dwattr $C$DW$5, DW_AT_name("counter")
     170                            .dwattr $C$DW$5, DW_AT_TI_symbol_name("counter")
     171                            .dwattr $C$DW$5, DW_AT_type(*$C$DW$T$20)
     172                            .dwattr $C$DW$5, DW_AT_location[DW_OP_reg1]
     173                    
     174                    
     175                    ;*****************************************************************************
     176                    ;* FUNCTION NAME: rtiStartCounter                                            *
     177                    ;*                                                                           *
     178                    ;*   Regs Modified     : A1,A2,A3,V9,SP                                      *
     179                    ;*   Regs Used         : A1,A2,A3,V9,SP,LR                                   *
     180                    ;*   Local Frame Size  : 0 Args + 8 Auto + 0 Save = 8 byte                   *
     181                    ;*****************************************************************************
     182 000000f4           rtiStartCounter:
     183                    ;* --------------------------------------------------------------------------*
     184                            .dwcfi  cfa_offset, 0
     185 000000f4 E24DD008          SUB       SP, SP, #8            ; [DPU_4_PIPE0] 
     186                            .dwcfi  cfa_offset, 8
     187                    $C$DW$6 .dwtag  DW_TAG_variable
     188                            .dwattr $C$DW$6, DW_AT_name("rtiREG")
     189                            .dwattr $C$DW$6, DW_AT_TI_symbol_name("rtiREG")
     190                            .dwattr $C$DW$6, DW_AT_type(*$C$DW$T$43)
     191                            .dwattr $C$DW$6, DW_AT_location[DW_OP_breg13 0]
     192                    
     193                    $C$DW$7 .dwtag  DW_TAG_variable
     194                            .dwattr $C$DW$7, DW_AT_name("counter")
     195                            .dwattr $C$DW$7, DW_AT_TI_symbol_name("counter")
     196                            .dwattr $C$DW$7, DW_AT_type(*$C$DW$T$20)
     197                            .dwattr $C$DW$7, DW_AT_location[DW_OP_breg13 4]
     198                    
     199 000000f8 E58D1004          STR       A2, [SP, #4]          ; [DPU_4_PIPE0] |159| 
     200 000000fc E58D0000          STR       A1, [SP, #0]          ; [DPU_4_PIPE0] |159| 
     201                            .dwpsn  file "../hcg/source/HL_rti.c",line 163,column 5,is_stmt,isa 2
     202 00000100 E59DC000          LDR       V9, [SP, #0]          ; [DPU_4_PIPE0] |163| 
     203 00000104 E59D0004          LDR       A1, [SP, #4]          ; [DPU_4_PIPE0] |163| 
     204 00000108 E3A02001          MOV       A3, #1                ; [DPU_4_PIPE0] |163| 
     205 0000010c E2000003          AND       A1, A1, #3            ; [DPU_4_PIPE0] |163| 
     206 00000110 E59C1000          LDR       A2, [V9, #0]          ; [DPU_4_PIPE0] |163| 
     207 00000114 E1810012          ORR       A1, A2, A3, LSL A1    ; [DPU_4_PIPE0] |163| 
     208 00000118 E58C0000          STR       A1, [V9, #0]          ; [DPU_4_PIPE0] |163| 
     209                            .dwpsn  file "../hcg/source/HL_rti.c",line 171,column 1,is_stmt,isa 2
     210 0000011c E28DD008          ADD       SP, SP, #8            ; [DPU_4_PIPE0] 
     211                            .dwcfi  cfa_offset, 0
     212                    $C$DW$8 .dwtag  DW_TAG_TI_branch
     213                            .dwattr $C$DW$8, DW_AT_low_pc(0x00)
     214                            .dwattr $C$DW$8, DW_AT_TI_return
     215                    
     216 00000120 E12FFF1E          BX        LR                    ; [DPU_4_PIPE1] 
     217                            ; BRANCH OCCURS                  ; [] 
     218                            .dwattr $C$DW$3, DW_AT_TI_end_file("../hcg/source/HL_rti.c")
     219                            .dwattr $C$DW$3, DW_AT_TI_end_line(0xab)
     220                            .dwattr $C$DW$3, DW_AT_TI_end_column(0x01)
TI ARM Assembler PC v16.9.0 Thu Feb 16 13:27:11 2017

Tools Copyright (c) 1996-2015 Texas Instruments Incorporated
C:\Users\bob\AppData\Local\Temp\1223210                              PAGE    5

     221                            .dwendentry
     222                            .dwendtag $C$DW$3
     223                    
     224 00000124                   .sect   ".text"
     225                            .clink
     226                            .armfunc rtiStopCounter
     227 00000124                   .state32
     228                            .global rtiStopCounter
     229                    
     230                    $C$DW$9 .dwtag  DW_TAG_subprogram
     231                            .dwattr $C$DW$9, DW_AT_name("rtiStopCounter")
     232                            .dwattr $C$DW$9, DW_AT_low_pc(rtiStopCounter)
     233                            .dwattr $C$DW$9, DW_AT_high_pc(0x00)
     234                            .dwattr $C$DW$9, DW_AT_TI_symbol_name("rtiStopCounter")
     235                            .dwattr $C$DW$9, DW_AT_external
     236                            .dwattr $C$DW$9, DW_AT_TI_begin_file("../hcg/source/HL_rti.c")
     237                            .dwattr $C$DW$9, DW_AT_TI_begin_line(0xb6)
     238                            .dwattr $C$DW$9, DW_AT_TI_begin_column(0x06)
     239                            .dwattr $C$DW$9, DW_AT_decl_file("../hcg/source/HL_rti.c")
     240                            .dwattr $C$DW$9, DW_AT_decl_line(0xb6)
     241                            .dwattr $C$DW$9, DW_AT_decl_column(0x06)
     242                            .dwattr $C$DW$9, DW_AT_TI_max_frame_size(0x08)
     243                            .dwpsn  file "../hcg/source/HL_rti.c",line 183,column 1,is_stmt,address rtiStopCounter,isa 2
     244                    
     245                            .dwfde $C$DW$CIE, rtiStopCounter
     246                    $C$DW$10        .dwtag  DW_TAG_formal_parameter
     247                            .dwattr $C$DW$10, DW_AT_name("rtiREG")
     248                            .dwattr $C$DW$10, DW_AT_TI_symbol_name("rtiREG")
     249                            .dwattr $C$DW$10, DW_AT_type(*$C$DW$T$43)
     250                            .dwattr $C$DW$10, DW_AT_location[DW_OP_reg0]
     251                    
     252                    $C$DW$11        .dwtag  DW_TAG_formal_parameter
     253                            .dwattr $C$DW$11, DW_AT_name("counter")
     254                            .dwattr $C$DW$11, DW_AT_TI_symbol_name("counter")
     255                            .dwattr $C$DW$11, DW_AT_type(*$C$DW$T$20)
     256                            .dwattr $C$DW$11, DW_AT_location[DW_OP_reg1]
     257                    
     258                    
     259                    ;*****************************************************************************
     260                    ;* FUNCTION NAME: rtiStopCounter                                             *
     261                    ;*                                                                           *
     262                    ;*   Regs Modified     : A1,A2,A3,V9,SP                                      *
     263                    ;*   Regs Used         : A1,A2,A3,V9,SP,LR                                   *
     264                    ;*   Local Frame Size  : 0 Args + 8 Auto + 0 Save = 8 byte                   *
     265                    ;*****************************************************************************
     266 00000124           rtiStopCounter:
     267                    ;* --------------------------------------------------------------------------*
     268                            .dwcfi  cfa_offset, 0
     269 00000124 E24DD008          SUB       SP, SP, #8            ; [DPU_4_PIPE0] 
     270                            .dwcfi  cfa_offset, 8
     271                    $C$DW$12        .dwtag  DW_TAG_variable
     272                            .dwattr $C$DW$12, DW_AT_name("rtiREG")
     273                            .dwattr $C$DW$12, DW_AT_TI_symbol_name("rtiREG")
     274                            .dwattr $C$DW$12, DW_AT_type(*$C$DW$T$43)
     275                            .dwattr $C$DW$12, DW_AT_location[DW_OP_breg13 0]
TI ARM Assembler PC v16.9.0 Thu Feb 16 13:27:11 2017

Tools Copyright (c) 1996-2015 Texas Instruments Incorporated
C:\Users\bob\AppData\Local\Temp\1223210                              PAGE    6

     276                    
     277                    $C$DW$13        .dwtag  DW_TAG_variable
     278                            .dwattr $C$DW$13, DW_AT_name("counter")
     279                            .dwattr $C$DW$13, DW_AT_TI_symbol_name("counter")
     280                            .dwattr $C$DW$13, DW_AT_type(*$C$DW$T$20)
     281                            .dwattr $C$DW$13, DW_AT_location[DW_OP_breg13 4]
     282                    
     283 00000128 E58D1004          STR       A2, [SP, #4]          ; [DPU_4_PIPE0] |183| 
     284 0000012c E58D0000          STR       A1, [SP, #0]          ; [DPU_4_PIPE0] |183| 
     285                            .dwpsn  file "../hcg/source/HL_rti.c",line 187,column 5,is_stmt,isa 2
     286 00000130 E59DC000          LDR       V9, [SP, #0]          ; [DPU_4_PIPE0] |187| 
     287 00000134 E59D0004          LDR       A1, [SP, #4]          ; [DPU_4_PIPE0] |187| 
     288 00000138 E3A02001          MOV       A3, #1                ; [DPU_4_PIPE0] |187| 
     289 0000013c E2000003          AND       A1, A1, #3            ; [DPU_4_PIPE0] |187| 
     290 00000140 E59C1000          LDR       A2, [V9, #0]          ; [DPU_4_PIPE0] |187| 
     291 00000144 E1C10012          BIC       A1, A2, A3, LSL A1    ; [DPU_4_PIPE0] |187| 
     292 00000148 E58C0000          STR       A1, [V9, #0]          ; [DPU_4_PIPE0] |187| 
     293                            .dwpsn  file "../hcg/source/HL_rti.c",line 195,column 1,is_stmt,isa 2
     294 0000014c E28DD008          ADD       SP, SP, #8            ; [DPU_4_PIPE0] 
     295                            .dwcfi  cfa_offset, 0
     296                    $C$DW$14        .dwtag  DW_TAG_TI_branch
     297                            .dwattr $C$DW$14, DW_AT_low_pc(0x00)
     298                            .dwattr $C$DW$14, DW_AT_TI_return
     299                    
     300 00000150 E12FFF1E          BX        LR                    ; [DPU_4_PIPE1] 
     301                            ; BRANCH OCCURS                  ; [] 
     302                            .dwattr $C$DW$9, DW_AT_TI_end_file("../hcg/source/HL_rti.c")
     303                            .dwattr $C$DW$9, DW_AT_TI_end_line(0xc3)
     304                            .dwattr $C$DW$9, DW_AT_TI_end_column(0x01)
     305                            .dwendentry
     306                            .dwendtag $C$DW$9
     307                    
     308 00000154                   .sect   ".text"
     309                            .clink
     310                            .armfunc rtiResetCounter
     311 00000154                   .state32
     312                            .global rtiResetCounter
     313                    
     314                    $C$DW$15        .dwtag  DW_TAG_subprogram
     315                            .dwattr $C$DW$15, DW_AT_name("rtiResetCounter")
     316                            .dwattr $C$DW$15, DW_AT_low_pc(rtiResetCounter)
     317                            .dwattr $C$DW$15, DW_AT_high_pc(0x00)
     318                            .dwattr $C$DW$15, DW_AT_TI_symbol_name("rtiResetCounter")
     319                            .dwattr $C$DW$15, DW_AT_external
     320                            .dwattr $C$DW$15, DW_AT_type(*$C$DW$T$20)
     321                            .dwattr $C$DW$15, DW_AT_TI_begin_file("../hcg/source/HL_rti.c")
     322                            .dwattr $C$DW$15, DW_AT_TI_begin_line(0xd1)
     323                            .dwattr $C$DW$15, DW_AT_TI_begin_column(0x08)
     324                            .dwattr $C$DW$15, DW_AT_decl_file("../hcg/source/HL_rti.c")
     325                            .dwattr $C$DW$15, DW_AT_decl_line(0xd1)
     326                            .dwattr $C$DW$15, DW_AT_decl_column(0x08)
     327                            .dwattr $C$DW$15, DW_AT_TI_max_frame_size(0x10)
     328                            .dwpsn  file "../hcg/source/HL_rti.c",line 210,column 1,is_stmt,address rtiResetCounter,isa 2
     329                    
     330                            .dwfde $C$DW$CIE, rtiResetCounter
TI ARM Assembler PC v16.9.0 Thu Feb 16 13:27:11 2017

Tools Copyright (c) 1996-2015 Texas Instruments Incorporated
C:\Users\bob\AppData\Local\Temp\1223210                              PAGE    7

     331                    $C$DW$16        .dwtag  DW_TAG_formal_parameter
     332                            .dwattr $C$DW$16, DW_AT_name("rtiREG")
     333                            .dwattr $C$DW$16, DW_AT_TI_symbol_name("rtiREG")
     334                            .dwattr $C$DW$16, DW_AT_type(*$C$DW$T$43)
     335                            .dwattr $C$DW$16, DW_AT_location[DW_OP_reg0]
     336                    
     337                    $C$DW$17        .dwtag  DW_TAG_formal_parameter
     338                            .dwattr $C$DW$17, DW_AT_name("counter")
     339                            .dwattr $C$DW$17, DW_AT_TI_symbol_name("counter")
     340                            .dwattr $C$DW$17, DW_AT_type(*$C$DW$T$20)
     341                            .dwattr $C$DW$17, DW_AT_location[DW_OP_reg1]
     342                    
     343                    
     344                    ;*****************************************************************************
     345                    ;* FUNCTION NAME: rtiResetCounter                                            *
     346                    ;*                                                                           *
     347                    ;*   Regs Modified     : A1,A2,V9,SP,SR                                      *
     348                    ;*   Regs Used         : A1,A2,V9,SP,LR,SR                                   *
     349                    ;*   Local Frame Size  : 0 Args + 12 Auto + 0 Save = 12 byte                 *
     350                    ;*****************************************************************************
     351 00000154           rtiResetCounter:
     352                    ;* --------------------------------------------------------------------------*
     353                            .dwcfi  cfa_offset, 0
     354 00000154 E24DD010          SUB       SP, SP, #16           ; [DPU_4_PIPE0] 
     355                            .dwcfi  cfa_offset, 16
     356                    $C$DW$18        .dwtag  DW_TAG_variable
     357                            .dwattr $C$DW$18, DW_AT_name("rtiREG")
     358                            .dwattr $C$DW$18, DW_AT_TI_symbol_name("rtiREG")
     359                            .dwattr $C$DW$18, DW_AT_type(*$C$DW$T$43)
     360                            .dwattr $C$DW$18, DW_AT_location[DW_OP_breg13 0]
     361                    
     362                    $C$DW$19        .dwtag  DW_TAG_variable
     363                            .dwattr $C$DW$19, DW_AT_name("counter")
     364                            .dwattr $C$DW$19, DW_AT_TI_symbol_name("counter")
     365                            .dwattr $C$DW$19, DW_AT_type(*$C$DW$T$20)
     366                            .dwattr $C$DW$19, DW_AT_location[DW_OP_breg13 4]
     367                    
     368                    $C$DW$20        .dwtag  DW_TAG_variable
     369                            .dwattr $C$DW$20, DW_AT_name("success")
     370                            .dwattr $C$DW$20, DW_AT_TI_symbol_name("success")
     371                            .dwattr $C$DW$20, DW_AT_type(*$C$DW$T$20)
     372                            .dwattr $C$DW$20, DW_AT_location[DW_OP_breg13 8]
     373                    
     374 00000158 E58D1004          STR       A2, [SP, #4]          ; [DPU_4_PIPE0] |210| 
     375 0000015c E58D0000          STR       A1, [SP, #0]          ; [DPU_4_PIPE0] |210| 
     376                            .dwpsn  file "../hcg/source/HL_rti.c",line 211,column 20,is_stmt,isa 2
     377 00000160 E3A0C000          MOV       V9, #0                ; [DPU_4_PIPE0] |211| 
     378 00000164 E58DC008          STR       V9, [SP, #8]          ; [DPU_4_PIPE0] |211| 
     379                            .dwpsn  file "../hcg/source/HL_rti.c",line 216,column 5,is_stmt,isa 2
     380 00000168 E59D0000          LDR       A1, [SP, #0]          ; [DPU_4_PIPE0] |216| 
     381 0000016c E59DC004          LDR       V9, [SP, #4]          ; [DPU_4_PIPE0] |216| 
     382 00000170 E3A01001          MOV       A2, #1                ; [DPU_4_PIPE0] |216| 
     383 00000174 E20CC003          AND       V9, V9, #3            ; [DPU_4_PIPE0] |216| 
     384 00000178 E5900000          LDR       A1, [A1, #0]          ; [DPU_4_PIPE0] |216| 
     385 0000017c E1100C11          TST       A1, A2, LSL V9        ; [DPU_4_PIPE0] |216| 
TI ARM Assembler PC v16.9.0 Thu Feb 16 13:27:11 2017

Tools Copyright (c) 1996-2015 Texas Instruments Incorporated
C:\Users\bob\AppData\Local\Temp\1223210                              PAGE    8

     386 00000180 1AFFFFFE!         BNE       ||$C$L1||             ; [DPU_4_PIPE1] |216| 
     387                            ; BRANCHCC OCCURS {||$C$L1||}    ; [] |216| 
     388                    ;* --------------------------------------------------------------------------*
     389                            .dwpsn  file "../hcg/source/HL_rti.c",line 218,column 9,is_stmt,isa 2
     390 00000184 E59DC004          LDR       V9, [SP, #4]          ; [DPU_4_PIPE0] |218| 
     391 00000188 E59D0000          LDR       A1, [SP, #0]          ; [DPU_4_PIPE0] |218| 
     392 0000018c E080C28C          ADD       V9, A1, V9, LSL #5    ; [DPU_4_PIPE0] |218| 
     393 00000190 E3A00000          MOV       A1, #0                ; [DPU_4_PIPE0] |218| 
     394 00000194 E58C0014          STR       A1, [V9, #20]         ; [DPU_4_PIPE0] |218| 
     395                            .dwpsn  file "../hcg/source/HL_rti.c",line 219,column 9,is_stmt,isa 2
     396 00000198 E59DC004          LDR       V9, [SP, #4]          ; [DPU_4_PIPE0] |219| 
     397 0000019c E59D0000          LDR       A1, [SP, #0]          ; [DPU_4_PIPE0] |219| 
     398 000001a0 E080C28C          ADD       V9, A1, V9, LSL #5    ; [DPU_4_PIPE0] |219| 
     399 000001a4 E3A00000          MOV       A1, #0                ; [DPU_4_PIPE0] |219| 
     400 000001a8 E58C0010          STR       A1, [V9, #16]         ; [DPU_4_PIPE0] |219| 
     401                            .dwpsn  file "../hcg/source/HL_rti.c",line 221,column 9,is_stmt,isa 2
     402 000001ac E3A0C001          MOV       V9, #1                ; [DPU_4_PIPE0] |221| 
     403 000001b0 E58DC008          STR       V9, [SP, #8]          ; [DPU_4_PIPE0] |221| 
     404                    ;* --------------------------------------------------------------------------*
     405 000001b4           ||$C$L1||:    
     406                            .dwpsn  file "../hcg/source/HL_rti.c",line 232,column 5,is_stmt,isa 2
     407 000001b4 E59D0008          LDR       A1, [SP, #8]          ; [DPU_4_PIPE0] |232| 
     408                            .dwpsn  file "../hcg/source/HL_rti.c",line 233,column 1,is_stmt,isa 2
     409 000001b8 E28DD010          ADD       SP, SP, #16           ; [DPU_4_PIPE0] 
     410                            .dwcfi  cfa_offset, 0
     411                    $C$DW$21        .dwtag  DW_TAG_TI_branch
     412                            .dwattr $C$DW$21, DW_AT_low_pc(0x00)
     413                            .dwattr $C$DW$21, DW_AT_TI_return
     414                    
     415 000001bc E12FFF1E          BX        LR                    ; [DPU_4_PIPE1] 
     416                            ; BRANCH OCCURS                  ; [] 
     417                            .dwattr $C$DW$15, DW_AT_TI_end_file("../hcg/source/HL_rti.c")
     418                            .dwattr $C$DW$15, DW_AT_TI_end_line(0xe9)
     419                            .dwattr $C$DW$15, DW_AT_TI_end_column(0x01)
     420                            .dwendentry
     421                            .dwendtag $C$DW$15
     422                    
     423 000001c0                   .sect   ".text"
     424                            .clink
     425                            .armfunc rtiSetPeriod
     426 000001c0                   .state32
     427                            .global rtiSetPeriod
     428                    
     429                    $C$DW$22        .dwtag  DW_TAG_subprogram
     430                            .dwattr $C$DW$22, DW_AT_name("rtiSetPeriod")
     431                            .dwattr $C$DW$22, DW_AT_low_pc(rtiSetPeriod)
     432                            .dwattr $C$DW$22, DW_AT_high_pc(0x00)
     433                            .dwattr $C$DW$22, DW_AT_TI_symbol_name("rtiSetPeriod")
     434                            .dwattr $C$DW$22, DW_AT_external
     435                            .dwattr $C$DW$22, DW_AT_TI_begin_file("../hcg/source/HL_rti.c")
     436                            .dwattr $C$DW$22, DW_AT_TI_begin_line(0xf9)
     437                            .dwattr $C$DW$22, DW_AT_TI_begin_column(0x06)
     438                            .dwattr $C$DW$22, DW_AT_decl_file("../hcg/source/HL_rti.c")
     439                            .dwattr $C$DW$22, DW_AT_decl_line(0xf9)
     440                            .dwattr $C$DW$22, DW_AT_decl_column(0x06)
TI ARM Assembler PC v16.9.0 Thu Feb 16 13:27:11 2017

Tools Copyright (c) 1996-2015 Texas Instruments Incorporated
C:\Users\bob\AppData\Local\Temp\1223210                              PAGE    9

     441                            .dwattr $C$DW$22, DW_AT_TI_max_frame_size(0x10)
     442                            .dwpsn  file "../hcg/source/HL_rti.c",line 250,column 1,is_stmt,address rtiSetPeriod,isa 2
     443                    
     444                            .dwfde $C$DW$CIE, rtiSetPeriod
     445                    $C$DW$23        .dwtag  DW_TAG_formal_parameter
     446                            .dwattr $C$DW$23, DW_AT_name("rtiREG")
     447                            .dwattr $C$DW$23, DW_AT_TI_symbol_name("rtiREG")
     448                            .dwattr $C$DW$23, DW_AT_type(*$C$DW$T$43)
     449                            .dwattr $C$DW$23, DW_AT_location[DW_OP_reg0]
     450                    
     451                    $C$DW$24        .dwtag  DW_TAG_formal_parameter
     452                            .dwattr $C$DW$24, DW_AT_name("compare")
     453                            .dwattr $C$DW$24, DW_AT_TI_symbol_name("compare")
     454                            .dwattr $C$DW$24, DW_AT_type(*$C$DW$T$20)
     455                            .dwattr $C$DW$24, DW_AT_location[DW_OP_reg1]
     456                    
     457                    $C$DW$25        .dwtag  DW_TAG_formal_parameter
     458                            .dwattr $C$DW$25, DW_AT_name("period")
     459                            .dwattr $C$DW$25, DW_AT_TI_symbol_name("period")
     460                            .dwattr $C$DW$25, DW_AT_type(*$C$DW$T$20)
     461                            .dwattr $C$DW$25, DW_AT_location[DW_OP_reg2]
     462                    
     463                    
     464                    ;*****************************************************************************
     465                    ;* FUNCTION NAME: rtiSetPeriod                                               *
     466                    ;*                                                                           *
     467                    ;*   Regs Modified     : A1,V9,SP                                            *
     468                    ;*   Regs Used         : A1,A2,A3,V9,SP,LR                                   *
     469                    ;*   Local Frame Size  : 0 Args + 12 Auto + 0 Save = 12 byte                 *
     470                    ;*****************************************************************************
     471 000001c0           rtiSetPeriod:
     472                    ;* --------------------------------------------------------------------------*
     473                            .dwcfi  cfa_offset, 0
     474 000001c0 E24DD010          SUB       SP, SP, #16           ; [DPU_4_PIPE0] 
     475                            .dwcfi  cfa_offset, 16
     476                    $C$DW$26        .dwtag  DW_TAG_variable
     477                            .dwattr $C$DW$26, DW_AT_name("rtiREG")
     478                            .dwattr $C$DW$26, DW_AT_TI_symbol_name("rtiREG")
     479                            .dwattr $C$DW$26, DW_AT_type(*$C$DW$T$43)
     480                            .dwattr $C$DW$26, DW_AT_location[DW_OP_breg13 0]
     481                    
     482                    $C$DW$27        .dwtag  DW_TAG_variable
     483                            .dwattr $C$DW$27, DW_AT_name("compare")
     484                            .dwattr $C$DW$27, DW_AT_TI_symbol_name("compare")
     485                            .dwattr $C$DW$27, DW_AT_type(*$C$DW$T$20)
     486                            .dwattr $C$DW$27, DW_AT_location[DW_OP_breg13 4]
     487                    
     488                    $C$DW$28        .dwtag  DW_TAG_variable
     489                            .dwattr $C$DW$28, DW_AT_name("period")
     490                            .dwattr $C$DW$28, DW_AT_TI_symbol_name("period")
     491                            .dwattr $C$DW$28, DW_AT_type(*$C$DW$T$20)
     492                            .dwattr $C$DW$28, DW_AT_location[DW_OP_breg13 8]
     493                    
     494 000001c4 E58D2008          STR       A3, [SP, #8]          ; [DPU_4_PIPE0] |250| 
     495 000001c8 E58D1004          STR       A2, [SP, #4]          ; [DPU_4_PIPE0] |250| 
TI ARM Assembler PC v16.9.0 Thu Feb 16 13:27:11 2017

Tools Copyright (c) 1996-2015 Texas Instruments Incorporated
C:\Users\bob\AppData\Local\Temp\1223210                              PAGE   10

     496 000001cc E58D0000          STR       A1, [SP, #0]          ; [DPU_4_PIPE0] |250| 
     497                            .dwpsn  file "../hcg/source/HL_rti.c",line 254,column 5,is_stmt,isa 2
     498 000001d0 E59DC004          LDR       V9, [SP, #4]          ; [DPU_4_PIPE0] |254| 
     499 000001d4 E59D0000          LDR       A1, [SP, #0]          ; [DPU_4_PIPE0] |254| 
     500 000001d8 E080018C          ADD       A1, A1, V9, LSL #3    ; [DPU_4_PIPE0] |254| 
     501 000001dc E59DC008          LDR       V9, [SP, #8]          ; [DPU_4_PIPE0] |254| 
     502 000001e0 E580C054          STR       V9, [A1, #84]         ; [DPU_4_PIPE0] |254| 
     503                            .dwpsn  file "../hcg/source/HL_rti.c",line 264,column 1,is_stmt,isa 2
     504 000001e4 E28DD010          ADD       SP, SP, #16           ; [DPU_4_PIPE0] 
     505                            .dwcfi  cfa_offset, 0
     506                    $C$DW$29        .dwtag  DW_TAG_TI_branch
     507                            .dwattr $C$DW$29, DW_AT_low_pc(0x00)
     508                            .dwattr $C$DW$29, DW_AT_TI_return
     509                    
     510 000001e8 E12FFF1E          BX        LR                    ; [DPU_4_PIPE1] 
     511                            ; BRANCH OCCURS                  ; [] 
     512                            .dwattr $C$DW$22, DW_AT_TI_end_file("../hcg/source/HL_rti.c")
     513                            .dwattr $C$DW$22, DW_AT_TI_end_line(0x108)
     514                            .dwattr $C$DW$22, DW_AT_TI_end_column(0x01)
     515                            .dwendentry
     516                            .dwendtag $C$DW$22
     517                    
     518 000001ec                   .sect   ".text"
     519                            .clink
     520                            .armfunc rtiGetPeriod
     521 000001ec                   .state32
     522                            .global rtiGetPeriod
     523                    
     524                    $C$DW$30        .dwtag  DW_TAG_subprogram
     525                            .dwattr $C$DW$30, DW_AT_name("rtiGetPeriod")
     526                            .dwattr $C$DW$30, DW_AT_low_pc(rtiGetPeriod)
     527                            .dwattr $C$DW$30, DW_AT_high_pc(0x00)
     528                            .dwattr $C$DW$30, DW_AT_TI_symbol_name("rtiGetPeriod")
     529                            .dwattr $C$DW$30, DW_AT_external
     530                            .dwattr $C$DW$30, DW_AT_type(*$C$DW$T$20)
     531                            .dwattr $C$DW$30, DW_AT_TI_begin_file("../hcg/source/HL_rti.c")
     532                            .dwattr $C$DW$30, DW_AT_TI_begin_line(0x118)
     533                            .dwattr $C$DW$30, DW_AT_TI_begin_column(0x08)
     534                            .dwattr $C$DW$30, DW_AT_decl_file("../hcg/source/HL_rti.c")
     535                            .dwattr $C$DW$30, DW_AT_decl_line(0x118)
     536                            .dwattr $C$DW$30, DW_AT_decl_column(0x08)
     537                            .dwattr $C$DW$30, DW_AT_TI_max_frame_size(0x10)
     538                            .dwpsn  file "../hcg/source/HL_rti.c",line 281,column 1,is_stmt,address rtiGetPeriod,isa 2
     539                    
     540                            .dwfde $C$DW$CIE, rtiGetPeriod
     541                    $C$DW$31        .dwtag  DW_TAG_formal_parameter
     542                            .dwattr $C$DW$31, DW_AT_name("rtiREG")
     543                            .dwattr $C$DW$31, DW_AT_TI_symbol_name("rtiREG")
     544                            .dwattr $C$DW$31, DW_AT_type(*$C$DW$T$43)
     545                            .dwattr $C$DW$31, DW_AT_location[DW_OP_reg0]
     546                    
     547                    $C$DW$32        .dwtag  DW_TAG_formal_parameter
     548                            .dwattr $C$DW$32, DW_AT_name("compare")
     549                            .dwattr $C$DW$32, DW_AT_TI_symbol_name("compare")
     550                            .dwattr $C$DW$32, DW_AT_type(*$C$DW$T$20)
TI ARM Assembler PC v16.9.0 Thu Feb 16 13:27:11 2017

Tools Copyright (c) 1996-2015 Texas Instruments Incorporated
C:\Users\bob\AppData\Local\Temp\1223210                              PAGE   11

     551                            .dwattr $C$DW$32, DW_AT_location[DW_OP_reg1]
     552                    
     553                    
     554                    ;*****************************************************************************
     555                    ;* FUNCTION NAME: rtiGetPeriod                                               *
     556                    ;*                                                                           *
     557                    ;*   Regs Modified     : A1,V9,SP                                            *
     558                    ;*   Regs Used         : A1,A2,V9,SP,LR                                      *
     559                    ;*   Local Frame Size  : 0 Args + 12 Auto + 0 Save = 12 byte                 *
     560                    ;*****************************************************************************
     561 000001ec           rtiGetPeriod:
     562                    ;* --------------------------------------------------------------------------*
     563                            .dwcfi  cfa_offset, 0
     564 000001ec E24DD010          SUB       SP, SP, #16           ; [DPU_4_PIPE0] 
     565                            .dwcfi  cfa_offset, 16
     566                    $C$DW$33        .dwtag  DW_TAG_variable
     567                            .dwattr $C$DW$33, DW_AT_name("rtiREG")
     568                            .dwattr $C$DW$33, DW_AT_TI_symbol_name("rtiREG")
     569                            .dwattr $C$DW$33, DW_AT_type(*$C$DW$T$43)
     570                            .dwattr $C$DW$33, DW_AT_location[DW_OP_breg13 0]
     571                    
     572                    $C$DW$34        .dwtag  DW_TAG_variable
     573                            .dwattr $C$DW$34, DW_AT_name("compare")
     574                            .dwattr $C$DW$34, DW_AT_TI_symbol_name("compare")
     575                            .dwattr $C$DW$34, DW_AT_type(*$C$DW$T$20)
     576                            .dwattr $C$DW$34, DW_AT_location[DW_OP_breg13 4]
     577                    
     578                    $C$DW$35        .dwtag  DW_TAG_variable
     579                            .dwattr $C$DW$35, DW_AT_name("period")
     580                            .dwattr $C$DW$35, DW_AT_TI_symbol_name("period")
     581                            .dwattr $C$DW$35, DW_AT_type(*$C$DW$T$20)
     582                            .dwattr $C$DW$35, DW_AT_location[DW_OP_breg13 8]
     583                    
     584 000001f0 E58D1004          STR       A2, [SP, #4]          ; [DPU_4_PIPE0] |281| 
     585 000001f4 E58D0000          STR       A1, [SP, #0]          ; [DPU_4_PIPE0] |281| 
     586                            .dwpsn  file "../hcg/source/HL_rti.c",line 287,column 5,is_stmt,isa 2
     587 000001f8 E59DC004          LDR       V9, [SP, #4]          ; [DPU_4_PIPE0] |287| 
     588 000001fc E59D0000          LDR       A1, [SP, #0]          ; [DPU_4_PIPE0] |287| 
     589 00000200 E080C18C          ADD       V9, A1, V9, LSL #3    ; [DPU_4_PIPE0] |287| 
     590 00000204 E59CC054          LDR       V9, [V9, #84]         ; [DPU_4_PIPE0] |287| 
     591 00000208 E58DC008          STR       V9, [SP, #8]          ; [DPU_4_PIPE0] |287| 
     592                            .dwpsn  file "../hcg/source/HL_rti.c",line 295,column 5,is_stmt,isa 2
     593 0000020c E59D0008          LDR       A1, [SP, #8]          ; [DPU_4_PIPE0] |295| 
     594                            .dwpsn  file "../hcg/source/HL_rti.c",line 296,column 1,is_stmt,isa 2
     595 00000210 E28DD010          ADD       SP, SP, #16           ; [DPU_4_PIPE0] 
     596                            .dwcfi  cfa_offset, 0
     597                    $C$DW$36        .dwtag  DW_TAG_TI_branch
     598                            .dwattr $C$DW$36, DW_AT_low_pc(0x00)
     599                            .dwattr $C$DW$36, DW_AT_TI_return
     600                    
     601 00000214 E12FFF1E          BX        LR                    ; [DPU_4_PIPE1] 
     602                            ; BRANCH OCCURS                  ; [] 
     603                            .dwattr $C$DW$30, DW_AT_TI_end_file("../hcg/source/HL_rti.c")
     604                            .dwattr $C$DW$30, DW_AT_TI_end_line(0x128)
     605                            .dwattr $C$DW$30, DW_AT_TI_end_column(0x01)
TI ARM Assembler PC v16.9.0 Thu Feb 16 13:27:11 2017

Tools Copyright (c) 1996-2015 Texas Instruments Incorporated
C:\Users\bob\AppData\Local\Temp\1223210                              PAGE   12

     606                            .dwendentry
     607                            .dwendtag $C$DW$30
     608                    
     609 00000218                   .sect   ".text"
     610                            .clink
     611                            .armfunc rtiGetCurrentTick
     612 00000218                   .state32
     613                            .global rtiGetCurrentTick
     614                    
     615                    $C$DW$37        .dwtag  DW_TAG_subprogram
     616                            .dwattr $C$DW$37, DW_AT_name("rtiGetCurrentTick")
     617                            .dwattr $C$DW$37, DW_AT_low_pc(rtiGetCurrentTick)
     618                            .dwattr $C$DW$37, DW_AT_high_pc(0x00)
     619                            .dwattr $C$DW$37, DW_AT_TI_symbol_name("rtiGetCurrentTick")
     620                            .dwattr $C$DW$37, DW_AT_external
     621                            .dwattr $C$DW$37, DW_AT_type(*$C$DW$T$20)
     622                            .dwattr $C$DW$37, DW_AT_TI_begin_file("../hcg/source/HL_rti.c")
     623                            .dwattr $C$DW$37, DW_AT_TI_begin_line(0x136)
     624                            .dwattr $C$DW$37, DW_AT_TI_begin_column(0x08)
     625                            .dwattr $C$DW$37, DW_AT_decl_file("../hcg/source/HL_rti.c")
     626                            .dwattr $C$DW$37, DW_AT_decl_line(0x136)
     627                            .dwattr $C$DW$37, DW_AT_decl_column(0x08)
     628                            .dwattr $C$DW$37, DW_AT_TI_max_frame_size(0x20)
     629                            .dwpsn  file "../hcg/source/HL_rti.c",line 311,column 1,is_stmt,address rtiGetCurrentTick,isa 
     630                    
     631                            .dwfde $C$DW$CIE, rtiGetCurrentTick
     632                    $C$DW$38        .dwtag  DW_TAG_formal_parameter
     633                            .dwattr $C$DW$38, DW_AT_name("rtiREG")
     634                            .dwattr $C$DW$38, DW_AT_TI_symbol_name("rtiREG")
     635                            .dwattr $C$DW$38, DW_AT_type(*$C$DW$T$43)
     636                            .dwattr $C$DW$38, DW_AT_location[DW_OP_reg0]
     637                    
     638                    $C$DW$39        .dwtag  DW_TAG_formal_parameter
     639                            .dwattr $C$DW$39, DW_AT_name("compare")
     640                            .dwattr $C$DW$39, DW_AT_TI_symbol_name("compare")
     641                            .dwattr $C$DW$39, DW_AT_type(*$C$DW$T$20)
     642                            .dwattr $C$DW$39, DW_AT_location[DW_OP_reg1]
     643                    
     644                    
     645                    ;*****************************************************************************
     646                    ;* FUNCTION NAME: rtiGetCurrentTick                                          *
     647                    ;*                                                                           *
     648                    ;*   Regs Modified     : A1,A2,V9,SP,SR                                      *
     649                    ;*   Regs Used         : A1,A2,V9,SP,LR,SR                                   *
     650                    ;*   Local Frame Size  : 0 Args + 28 Auto + 0 Save = 28 byte                 *
     651                    ;*****************************************************************************
     652 00000218           rtiGetCurrentTick:
     653                    ;* --------------------------------------------------------------------------*
     654                            .dwcfi  cfa_offset, 0
     655 00000218 E24DD020          SUB       SP, SP, #32           ; [DPU_4_PIPE0] 
     656                            .dwcfi  cfa_offset, 32
     657                    $C$DW$40        .dwtag  DW_TAG_variable
     658                            .dwattr $C$DW$40, DW_AT_name("rtiREG")
     659                            .dwattr $C$DW$40, DW_AT_TI_symbol_name("rtiREG")
     660                            .dwattr $C$DW$40, DW_AT_type(*$C$DW$T$43)
TI ARM Assembler PC v16.9.0 Thu Feb 16 13:27:11 2017

Tools Copyright (c) 1996-2015 Texas Instruments Incorporated
C:\Users\bob\AppData\Local\Temp\1223210                              PAGE   13

     661                            .dwattr $C$DW$40, DW_AT_location[DW_OP_breg13 0]
     662                    
     663                    $C$DW$41        .dwtag  DW_TAG_variable
     664                            .dwattr $C$DW$41, DW_AT_name("compare")
     665                            .dwattr $C$DW$41, DW_AT_TI_symbol_name("compare")
     666                            .dwattr $C$DW$41, DW_AT_type(*$C$DW$T$20)
     667                            .dwattr $C$DW$41, DW_AT_location[DW_OP_breg13 4]
     668                    
     669                    $C$DW$42        .dwtag  DW_TAG_variable
     670                            .dwattr $C$DW$42, DW_AT_name("tick")
     671                            .dwattr $C$DW$42, DW_AT_TI_symbol_name("tick")
     672                            .dwattr $C$DW$42, DW_AT_type(*$C$DW$T$20)
     673                            .dwattr $C$DW$42, DW_AT_location[DW_OP_breg13 8]
     674                    
     675                    $C$DW$43        .dwtag  DW_TAG_variable
     676                            .dwattr $C$DW$43, DW_AT_name("counter")
     677                            .dwattr $C$DW$43, DW_AT_TI_symbol_name("counter")
     678                            .dwattr $C$DW$43, DW_AT_type(*$C$DW$T$20)
     679                            .dwattr $C$DW$43, DW_AT_location[DW_OP_breg13 12]
     680                    
     681                    $C$DW$44        .dwtag  DW_TAG_variable
     682                            .dwattr $C$DW$44, DW_AT_name("RTI_CNT_FRCx")
     683                            .dwattr $C$DW$44, DW_AT_TI_symbol_name("RTI_CNT_FRCx")
     684                            .dwattr $C$DW$44, DW_AT_type(*$C$DW$T$20)
     685                            .dwattr $C$DW$44, DW_AT_location[DW_OP_breg13 16]
     686                    
     687                    $C$DW$45        .dwtag  DW_TAG_variable
     688                            .dwattr $C$DW$45, DW_AT_name("RTI_CMP_COMPx")
     689                            .dwattr $C$DW$45, DW_AT_TI_symbol_name("RTI_CMP_COMPx")
     690                            .dwattr $C$DW$45, DW_AT_type(*$C$DW$T$20)
     691                            .dwattr $C$DW$45, DW_AT_location[DW_OP_breg13 20]
     692                    
     693                    $C$DW$46        .dwtag  DW_TAG_variable
     694                            .dwattr $C$DW$46, DW_AT_name("RTI_CMP_UDCPx")
     695                            .dwattr $C$DW$46, DW_AT_TI_symbol_name("RTI_CMP_UDCPx")
     696                            .dwattr $C$DW$46, DW_AT_type(*$C$DW$T$20)
     697                            .dwattr $C$DW$46, DW_AT_location[DW_OP_breg13 24]
     698                    
     699 0000021c E58D1004          STR       A2, [SP, #4]          ; [DPU_4_PIPE0] |311| 
     700 00000220 E58D0000          STR       A1, [SP, #0]          ; [DPU_4_PIPE0] |311| 
     701                            .dwpsn  file "../hcg/source/HL_rti.c",line 313,column 20,is_stmt,isa 2
     702 00000224 E59D0000          LDR       A1, [SP, #0]          ; [DPU_4_PIPE0] |313| 
     703 00000228 E59DC004          LDR       V9, [SP, #4]          ; [DPU_4_PIPE0] |313| 
     704 0000022c E3A01001          MOV       A2, #1                ; [DPU_4_PIPE0] |313| 
     705 00000230 E1A0C10C          MOV       V9, V9, LSL #2        ; [DPU_4_PIPE0] |313| 
     706 00000234 E590000C          LDR       A1, [A1, #12]         ; [DPU_4_PIPE0] |313| 
     707 00000238 E1100C11          TST       A1, A2, LSL V9        ; [DPU_4_PIPE0] |313| 
     708 0000023c 0AFFFFFE!         BEQ       ||$C$L2||             ; [DPU_4_PIPE1] |313| 
     709                            ; BRANCHCC OCCURS {||$C$L2||}    ; [] |313| 
     710                    ;* --------------------------------------------------------------------------*
     711 00000240 E3A0C001          MOV       V9, #1                ; [DPU_4_PIPE0] |313| 
     712 00000244 EAFFFFFE!         B         ||$C$L3||             ; [DPU_4_PIPE1] |313| 
     713                            ; BRANCH OCCURS {||$C$L3||}      ; [] |313| 
     714                    ;* --------------------------------------------------------------------------*
     715 00000248           ||$C$L2||:    
TI ARM Assembler PC v16.9.0 Thu Feb 16 13:27:11 2017

Tools Copyright (c) 1996-2015 Texas Instruments Incorporated
C:\Users\bob\AppData\Local\Temp\1223210                              PAGE   14

     716 00000248 E3A0C000          MOV       V9, #0                ; [DPU_4_PIPE0] |313| 
     717                    ;* --------------------------------------------------------------------------*
     718 0000024c           ||$C$L3||:    
     719 0000024c E58DC00C          STR       V9, [SP, #12]         ; [DPU_4_PIPE0] |313| 
     720                            .dwpsn  file "../hcg/source/HL_rti.c",line 314,column 22,is_stmt,isa 2
     721 00000250 E59DC00C          LDR       V9, [SP, #12]         ; [DPU_4_PIPE0] |314| 
     722 00000254 E59D0000          LDR       A1, [SP, #0]          ; [DPU_4_PIPE0] |314| 
     723 00000258 E080C28C          ADD       V9, A1, V9, LSL #5    ; [DPU_4_PIPE0] |314| 
     724 0000025c E59CC010          LDR       V9, [V9, #16]         ; [DPU_4_PIPE0] |314| 
     725 00000260 E58DC010          STR       V9, [SP, #16]         ; [DPU_4_PIPE0] |314| 
     726                            .dwpsn  file "../hcg/source/HL_rti.c",line 315,column 23,is_stmt,isa 2
     727 00000264 E59DC004          LDR       V9, [SP, #4]          ; [DPU_4_PIPE0] |315| 
     728 00000268 E59D0000          LDR       A1, [SP, #0]          ; [DPU_4_PIPE0] |315| 
     729 0000026c E080C18C          ADD       V9, A1, V9, LSL #3    ; [DPU_4_PIPE0] |315| 
     730 00000270 E59CC050          LDR       V9, [V9, #80]         ; [DPU_4_PIPE0] |315| 
     731 00000274 E58DC014          STR       V9, [SP, #20]         ; [DPU_4_PIPE0] |315| 
     732                            .dwpsn  file "../hcg/source/HL_rti.c",line 316,column 23,is_stmt,isa 2
     733 00000278 E59DC004          LDR       V9, [SP, #4]          ; [DPU_4_PIPE0] |316| 
     734 0000027c E59D0000          LDR       A1, [SP, #0]          ; [DPU_4_PIPE0] |316| 
     735 00000280 E080C18C          ADD       V9, A1, V9, LSL #3    ; [DPU_4_PIPE0] |316| 
     736 00000284 E59CC054          LDR       V9, [V9, #84]         ; [DPU_4_PIPE0] |316| 
     737 00000288 E58DC018          STR       V9, [SP, #24]         ; [DPU_4_PIPE0] |316| 
     738                            .dwpsn  file "../hcg/source/HL_rti.c",line 321,column 5,is_stmt,isa 2
     739 0000028c E59DC014          LDR       V9, [SP, #20]         ; [DPU_4_PIPE0] |321| 
     740 00000290 E59D0010          LDR       A1, [SP, #16]         ; [DPU_4_PIPE0] |321| 
     741 00000294 E59D1018          LDR       A2, [SP, #24]         ; [DPU_4_PIPE0] |321| 
     742 00000298 E040C00C          SUB       V9, A1, V9            ; [DPU_4_PIPE0] |321| 
     743 0000029c E081C00C          ADD       V9, A2, V9            ; [DPU_4_PIPE0] |321| 
     744 000002a0 E58DC008          STR       V9, [SP, #8]          ; [DPU_4_PIPE0] |321| 
     745                            .dwpsn  file "../hcg/source/HL_rti.c",line 329,column 5,is_stmt,isa 2
     746 000002a4 E59D0008          LDR       A1, [SP, #8]          ; [DPU_4_PIPE0] |329| 
     747                            .dwpsn  file "../hcg/source/HL_rti.c",line 330,column 1,is_stmt,isa 2
     748 000002a8 E28DD020          ADD       SP, SP, #32           ; [DPU_4_PIPE0] 
     749                            .dwcfi  cfa_offset, 0
     750                    $C$DW$47        .dwtag  DW_TAG_TI_branch
     751                            .dwattr $C$DW$47, DW_AT_low_pc(0x00)
     752                            .dwattr $C$DW$47, DW_AT_TI_return
     753                    
     754 000002ac E12FFF1E          BX        LR                    ; [DPU_4_PIPE1] 
     755                            ; BRANCH OCCURS                  ; [] 
     756                            .dwattr $C$DW$37, DW_AT_TI_end_file("../hcg/source/HL_rti.c")
     757                            .dwattr $C$DW$37, DW_AT_TI_end_line(0x14a)
     758                            .dwattr $C$DW$37, DW_AT_TI_end_column(0x01)
     759                            .dwendentry
     760                            .dwendtag $C$DW$37
     761                    
     762 000002b0                   .sect   ".text"
     763                            .clink
     764                            .armfunc dwdInit
     765 000002b0                   .state32
     766                            .global dwdInit
     767                    
     768                    $C$DW$48        .dwtag  DW_TAG_subprogram
     769                            .dwattr $C$DW$48, DW_AT_name("dwdInit")
     770                            .dwattr $C$DW$48, DW_AT_low_pc(dwdInit)
TI ARM Assembler PC v16.9.0 Thu Feb 16 13:27:11 2017

Tools Copyright (c) 1996-2015 Texas Instruments Incorporated
C:\Users\bob\AppData\Local\Temp\1223210                              PAGE   15

     771                            .dwattr $C$DW$48, DW_AT_high_pc(0x00)
     772                            .dwattr $C$DW$48, DW_AT_TI_symbol_name("dwdInit")
     773                            .dwattr $C$DW$48, DW_AT_external
     774                            .dwattr $C$DW$48, DW_AT_TI_begin_file("../hcg/source/HL_rti.c")
     775                            .dwattr $C$DW$48, DW_AT_TI_begin_line(0x156)
     776                            .dwattr $C$DW$48, DW_AT_TI_begin_column(0x06)
     777                            .dwattr $C$DW$48, DW_AT_decl_file("../hcg/source/HL_rti.c")
     778                            .dwattr $C$DW$48, DW_AT_decl_line(0x156)
     779                            .dwattr $C$DW$48, DW_AT_decl_column(0x06)
     780                            .dwattr $C$DW$48, DW_AT_TI_max_frame_size(0x08)
     781                            .dwpsn  file "../hcg/source/HL_rti.c",line 343,column 1,is_stmt,address dwdInit,isa 2
     782                    
     783                            .dwfde $C$DW$CIE, dwdInit
     784                    $C$DW$49        .dwtag  DW_TAG_formal_parameter
     785                            .dwattr $C$DW$49, DW_AT_name("rtiREG")
     786                            .dwattr $C$DW$49, DW_AT_TI_symbol_name("rtiREG")
     787                            .dwattr $C$DW$49, DW_AT_type(*$C$DW$T$43)
     788                            .dwattr $C$DW$49, DW_AT_location[DW_OP_reg0]
     789                    
     790                    $C$DW$50        .dwtag  DW_TAG_formal_parameter
     791                            .dwattr $C$DW$50, DW_AT_name("dwdPreload")
     792                            .dwattr $C$DW$50, DW_AT_TI_symbol_name("dwdPreload")
     793                            .dwattr $C$DW$50, DW_AT_type(*$C$DW$T$47)
     794                            .dwattr $C$DW$50, DW_AT_location[DW_OP_reg1]
     795                    
     796                    
     797                    ;*****************************************************************************
     798                    ;* FUNCTION NAME: dwdInit                                                    *
     799                    ;*                                                                           *
     800                    ;*   Regs Modified     : A1,V9,SP                                            *
     801                    ;*   Regs Used         : A1,A2,V9,SP,LR                                      *
     802                    ;*   Local Frame Size  : 0 Args + 8 Auto + 0 Save = 8 byte                   *
     803                    ;*****************************************************************************
     804 000002b0           dwdInit:
     805                    ;* --------------------------------------------------------------------------*
     806                            .dwcfi  cfa_offset, 0
     807 000002b0 E24DD008          SUB       SP, SP, #8            ; [DPU_4_PIPE0] 
     808                            .dwcfi  cfa_offset, 8
     809                    $C$DW$51        .dwtag  DW_TAG_variable
     810                            .dwattr $C$DW$51, DW_AT_name("rtiREG")
     811                            .dwattr $C$DW$51, DW_AT_TI_symbol_name("rtiREG")
     812                            .dwattr $C$DW$51, DW_AT_type(*$C$DW$T$43)
     813                            .dwattr $C$DW$51, DW_AT_location[DW_OP_breg13 0]
     814                    
     815                    $C$DW$52        .dwtag  DW_TAG_variable
     816                            .dwattr $C$DW$52, DW_AT_name("dwdPreload")
     817                            .dwattr $C$DW$52, DW_AT_TI_symbol_name("dwdPreload")
     818                            .dwattr $C$DW$52, DW_AT_type(*$C$DW$T$47)
     819                            .dwattr $C$DW$52, DW_AT_location[DW_OP_breg13 4]
     820                    
     821 000002b4 E1CD10B4          STRH      A2, [SP, #4]          ; [DPU_4_PIPE0] |343| 
     822 000002b8 E58D0000          STR       A1, [SP, #0]          ; [DPU_4_PIPE0] |343| 
     823                            .dwpsn  file "../hcg/source/HL_rti.c",line 348,column 2,is_stmt,isa 2
     824 000002bc E59DC000          LDR       V9, [SP, #0]          ; [DPU_4_PIPE0] |348| 
     825 000002c0 E3A000FF          MOV       A1, #255              ; [DPU_4_PIPE0] |348| 
TI ARM Assembler PC v16.9.0 Thu Feb 16 13:27:11 2017

Tools Copyright (c) 1996-2015 Texas Instruments Incorporated
C:\Users\bob\AppData\Local\Temp\1223210                              PAGE   16

     826 000002c4 E58C0098          STR       A1, [V9, #152]        ; [DPU_4_PIPE0] |348| 
     827                            .dwpsn  file "../hcg/source/HL_rti.c",line 350,column 2,is_stmt,isa 2
     828 000002c8 E59D0000          LDR       A1, [SP, #0]          ; [DPU_4_PIPE0] |350| 
     829 000002cc E1DDC0B4          LDRH      V9, [SP, #4]          ; [DPU_4_PIPE0] |350| 
     830 000002d0 E580C094          STR       V9, [A1, #148]        ; [DPU_4_PIPE0] |350| 
     831                            .dwpsn  file "../hcg/source/HL_rti.c",line 354,column 1,is_stmt,isa 2
     832 000002d4 E28DD008          ADD       SP, SP, #8            ; [DPU_4_PIPE0] 
     833                            .dwcfi  cfa_offset, 0
     834                    $C$DW$53        .dwtag  DW_TAG_TI_branch
     835                            .dwattr $C$DW$53, DW_AT_low_pc(0x00)
     836                            .dwattr $C$DW$53, DW_AT_TI_return
     837                    
     838 000002d8 E12FFF1E          BX        LR                    ; [DPU_4_PIPE1] 
     839                            ; BRANCH OCCURS                  ; [] 
     840                            .dwattr $C$DW$48, DW_AT_TI_end_file("../hcg/source/HL_rti.c")
     841                            .dwattr $C$DW$48, DW_AT_TI_end_line(0x162)
     842                            .dwattr $C$DW$48, DW_AT_TI_end_column(0x01)
     843                            .dwendentry
     844                            .dwendtag $C$DW$48
     845                    
     846 000002dc                   .sect   ".text"
     847                            .clink
     848                            .armfunc dwwdInit
     849 000002dc                   .state32
     850                            .global dwwdInit
     851                    
     852                    $C$DW$54        .dwtag  DW_TAG_subprogram
     853                            .dwattr $C$DW$54, DW_AT_name("dwwdInit")
     854                            .dwattr $C$DW$54, DW_AT_low_pc(dwwdInit)
     855                            .dwattr $C$DW$54, DW_AT_high_pc(0x00)
     856                            .dwattr $C$DW$54, DW_AT_TI_symbol_name("dwwdInit")
     857                            .dwattr $C$DW$54, DW_AT_external
     858                            .dwattr $C$DW$54, DW_AT_TI_begin_file("../hcg/source/HL_rti.c")
     859                            .dwattr $C$DW$54, DW_AT_TI_begin_line(0x178)
     860                            .dwattr $C$DW$54, DW_AT_TI_begin_column(0x06)
     861                            .dwattr $C$DW$54, DW_AT_decl_file("../hcg/source/HL_rti.c")
     862                            .dwattr $C$DW$54, DW_AT_decl_line(0x178)
     863                            .dwattr $C$DW$54, DW_AT_decl_column(0x06)
     864                            .dwattr $C$DW$54, DW_AT_TI_max_frame_size(0x10)
     865                            .dwpsn  file "../hcg/source/HL_rti.c",line 377,column 1,is_stmt,address dwwdInit,isa 2
     866                    
     867                            .dwfde $C$DW$CIE, dwwdInit
     868                    $C$DW$55        .dwtag  DW_TAG_formal_parameter
     869                            .dwattr $C$DW$55, DW_AT_name("rtiREG")
     870                            .dwattr $C$DW$55, DW_AT_TI_symbol_name("rtiREG")
     871                            .dwattr $C$DW$55, DW_AT_type(*$C$DW$T$43)
     872                            .dwattr $C$DW$55, DW_AT_location[DW_OP_reg0]
     873                    
     874                    $C$DW$56        .dwtag  DW_TAG_formal_parameter
     875                            .dwattr $C$DW$56, DW_AT_name("Reaction")
     876                            .dwattr $C$DW$56, DW_AT_TI_symbol_name("Reaction")
     877                            .dwattr $C$DW$56, DW_AT_type(*$C$DW$T$50)
     878                            .dwattr $C$DW$56, DW_AT_location[DW_OP_reg1]
     879                    
     880                    $C$DW$57        .dwtag  DW_TAG_formal_parameter
TI ARM Assembler PC v16.9.0 Thu Feb 16 13:27:11 2017

Tools Copyright (c) 1996-2015 Texas Instruments Incorporated
C:\Users\bob\AppData\Local\Temp\1223210                              PAGE   17

     881                            .dwattr $C$DW$57, DW_AT_name("dwdPreload")
     882                            .dwattr $C$DW$57, DW_AT_TI_symbol_name("dwdPreload")
     883                            .dwattr $C$DW$57, DW_AT_type(*$C$DW$T$47)
     884                            .dwattr $C$DW$57, DW_AT_location[DW_OP_reg2]
     885                    
     886                    $C$DW$58        .dwtag  DW_TAG_formal_parameter
     887                            .dwattr $C$DW$58, DW_AT_name("Window_Size")
     888                            .dwattr $C$DW$58, DW_AT_TI_symbol_name("Window_Size")
     889                            .dwattr $C$DW$58, DW_AT_type(*$C$DW$T$52)
     890                            .dwattr $C$DW$58, DW_AT_location[DW_OP_reg3]
     891                    
     892                    
     893                    ;*****************************************************************************
     894                    ;* FUNCTION NAME: dwwdInit                                                   *
     895                    ;*                                                                           *
     896                    ;*   Regs Modified     : A1,V9,SP                                            *
     897                    ;*   Regs Used         : A1,A2,A3,A4,V9,SP,LR                                *
     898                    ;*   Local Frame Size  : 0 Args + 12 Auto + 0 Save = 12 byte                 *
     899                    ;*****************************************************************************
     900 000002dc           dwwdInit:
     901                    ;* --------------------------------------------------------------------------*
     902                            .dwcfi  cfa_offset, 0
     903 000002dc E24DD010          SUB       SP, SP, #16           ; [DPU_4_PIPE0] 
     904                            .dwcfi  cfa_offset, 16
     905                    $C$DW$59        .dwtag  DW_TAG_variable
     906                            .dwattr $C$DW$59, DW_AT_name("rtiREG")
     907                            .dwattr $C$DW$59, DW_AT_TI_symbol_name("rtiREG")
     908                            .dwattr $C$DW$59, DW_AT_type(*$C$DW$T$43)
     909                            .dwattr $C$DW$59, DW_AT_location[DW_OP_breg13 0]
     910                    
     911                    $C$DW$60        .dwtag  DW_TAG_variable
     912                            .dwattr $C$DW$60, DW_AT_name("Window_Size")
     913                            .dwattr $C$DW$60, DW_AT_TI_symbol_name("Window_Size")
     914                            .dwattr $C$DW$60, DW_AT_type(*$C$DW$T$52)
     915                            .dwattr $C$DW$60, DW_AT_location[DW_OP_breg13 4]
     916                    
     917                    $C$DW$61        .dwtag  DW_TAG_variable
     918                            .dwattr $C$DW$61, DW_AT_name("dwdPreload")
     919                            .dwattr $C$DW$61, DW_AT_TI_symbol_name("dwdPreload")
     920                            .dwattr $C$DW$61, DW_AT_type(*$C$DW$T$47)
     921                            .dwattr $C$DW$61, DW_AT_location[DW_OP_breg13 8]
     922                    
     923                    $C$DW$62        .dwtag  DW_TAG_variable
     924                            .dwattr $C$DW$62, DW_AT_name("Reaction")
     925                            .dwattr $C$DW$62, DW_AT_TI_symbol_name("Reaction")
     926                            .dwattr $C$DW$62, DW_AT_type(*$C$DW$T$50)
     927                            .dwattr $C$DW$62, DW_AT_location[DW_OP_breg13 10]
     928                    
     929 000002e0 E58D3004          STR       A4, [SP, #4]          ; [DPU_4_PIPE0] |377| 
     930 000002e4 E1CD20B8          STRH      A3, [SP, #8]          ; [DPU_4_PIPE0] |377| 
     931 000002e8 E5CD100A          STRB      A2, [SP, #10]         ; [DPU_4_PIPE0] |377| 
     932 000002ec E58D0000          STR       A1, [SP, #0]          ; [DPU_4_PIPE0] |377| 
     933                            .dwpsn  file "../hcg/source/HL_rti.c",line 382,column 2,is_stmt,isa 2
     934 000002f0 E59DC000          LDR       V9, [SP, #0]          ; [DPU_4_PIPE0] |382| 
     935 000002f4 E3A000FF          MOV       A1, #255              ; [DPU_4_PIPE0] |382| 
TI ARM Assembler PC v16.9.0 Thu Feb 16 13:27:11 2017

Tools Copyright (c) 1996-2015 Texas Instruments Incorporated
C:\Users\bob\AppData\Local\Temp\1223210                              PAGE   18

     936 000002f8 E58C0098          STR       A1, [V9, #152]        ; [DPU_4_PIPE0] |382| 
     937                            .dwpsn  file "../hcg/source/HL_rti.c",line 384,column 5,is_stmt,isa 2
     938 000002fc E59D0000          LDR       A1, [SP, #0]          ; [DPU_4_PIPE0] |384| 
     939 00000300 E59DC004          LDR       V9, [SP, #4]          ; [DPU_4_PIPE0] |384| 
     940 00000304 E580C0A8          STR       V9, [A1, #168]        ; [DPU_4_PIPE0] |384| 
     941                            .dwpsn  file "../hcg/source/HL_rti.c",line 385,column 2,is_stmt,isa 2
     942 00000308 E59D0000          LDR       A1, [SP, #0]          ; [DPU_4_PIPE0] |385| 
     943 0000030c E1DDC0B8          LDRH      V9, [SP, #8]          ; [DPU_4_PIPE0] |385| 
     944 00000310 E580C094          STR       V9, [A1, #148]        ; [DPU_4_PIPE0] |385| 
     945                            .dwpsn  file "../hcg/source/HL_rti.c",line 386,column 2,is_stmt,isa 2
     946 00000314 E59D0000          LDR       A1, [SP, #0]          ; [DPU_4_PIPE0] |386| 
     947 00000318 E5DDC00A          LDRB      V9, [SP, #10]         ; [DPU_4_PIPE0] |386| 
     948 0000031c E580C0A4          STR       V9, [A1, #164]        ; [DPU_4_PIPE0] |386| 
     949                            .dwpsn  file "../hcg/source/HL_rti.c",line 390,column 1,is_stmt,isa 2
     950 00000320 E28DD010          ADD       SP, SP, #16           ; [DPU_4_PIPE0] 
     951                            .dwcfi  cfa_offset, 0
     952                    $C$DW$63        .dwtag  DW_TAG_TI_branch
     953                            .dwattr $C$DW$63, DW_AT_low_pc(0x00)
     954                            .dwattr $C$DW$63, DW_AT_TI_return
     955                    
     956 00000324 E12FFF1E          BX        LR                    ; [DPU_4_PIPE1] 
     957                            ; BRANCH OCCURS                  ; [] 
     958                            .dwattr $C$DW$54, DW_AT_TI_end_file("../hcg/source/HL_rti.c")
     959                            .dwattr $C$DW$54, DW_AT_TI_end_line(0x186)
     960                            .dwattr $C$DW$54, DW_AT_TI_end_column(0x01)
     961                            .dwendentry
     962                            .dwendtag $C$DW$54
     963                    
     964 00000328                   .sect   ".text"
     965                            .clink
     966                            .armfunc dwwdGetCurrentDownCounter
     967 00000328                   .state32
     968                            .global dwwdGetCurrentDownCounter
     969                    
     970                    $C$DW$64        .dwtag  DW_TAG_subprogram
     971                            .dwattr $C$DW$64, DW_AT_name("dwwdGetCurrentDownCounter")
     972                            .dwattr $C$DW$64, DW_AT_low_pc(dwwdGetCurrentDownCounter)
     973                            .dwattr $C$DW$64, DW_AT_high_pc(0x00)
     974                            .dwattr $C$DW$64, DW_AT_TI_symbol_name("dwwdGetCurrentDownCounter")
     975                            .dwattr $C$DW$64, DW_AT_external
     976                            .dwattr $C$DW$64, DW_AT_type(*$C$DW$T$20)
     977                            .dwattr $C$DW$64, DW_AT_TI_begin_file("../hcg/source/HL_rti.c")
     978                            .dwattr $C$DW$64, DW_AT_TI_begin_line(0x190)
     979                            .dwattr $C$DW$64, DW_AT_TI_begin_column(0x08)
     980                            .dwattr $C$DW$64, DW_AT_decl_file("../hcg/source/HL_rti.c")
     981                            .dwattr $C$DW$64, DW_AT_decl_line(0x190)
     982                            .dwattr $C$DW$64, DW_AT_decl_column(0x08)
     983                            .dwattr $C$DW$64, DW_AT_TI_max_frame_size(0x08)
     984                            .dwpsn  file "../hcg/source/HL_rti.c",line 401,column 1,is_stmt,address dwwdGetCurrentDownCoun
     985                    
     986                            .dwfde $C$DW$CIE, dwwdGetCurrentDownCounter
     987                    $C$DW$65        .dwtag  DW_TAG_formal_parameter
     988                            .dwattr $C$DW$65, DW_AT_name("rtiREG")
     989                            .dwattr $C$DW$65, DW_AT_TI_symbol_name("rtiREG")
     990                            .dwattr $C$DW$65, DW_AT_type(*$C$DW$T$43)
TI ARM Assembler PC v16.9.0 Thu Feb 16 13:27:11 2017

Tools Copyright (c) 1996-2015 Texas Instruments Incorporated
C:\Users\bob\AppData\Local\Temp\1223210                              PAGE   19

     991                            .dwattr $C$DW$65, DW_AT_location[DW_OP_reg0]
     992                    
     993                    
     994                    ;*****************************************************************************
     995                    ;* FUNCTION NAME: dwwdGetCurrentDownCounter                                  *
     996                    ;*                                                                           *
     997                    ;*   Regs Modified     : A1,V9,SP                                            *
     998                    ;*   Regs Used         : A1,V9,SP,LR                                         *
     999                    ;*   Local Frame Size  : 0 Args + 4 Auto + 0 Save = 4 byte                   *
    1000                    ;*****************************************************************************
    1001 00000328           dwwdGetCurrentDownCounter:
    1002                    ;* --------------------------------------------------------------------------*
    1003                            .dwcfi  cfa_offset, 0
    1004 00000328 E24DD008          SUB       SP, SP, #8            ; [DPU_4_PIPE0] 
    1005                            .dwcfi  cfa_offset, 8
    1006                    $C$DW$66        .dwtag  DW_TAG_variable
    1007                            .dwattr $C$DW$66, DW_AT_name("rtiREG")
    1008                            .dwattr $C$DW$66, DW_AT_TI_symbol_name("rtiREG")
    1009                            .dwattr $C$DW$66, DW_AT_type(*$C$DW$T$43)
    1010                            .dwattr $C$DW$66, DW_AT_location[DW_OP_breg13 0]
    1011                    
    1012 0000032c E58D0000          STR       A1, [SP, #0]          ; [DPU_4_PIPE0] |401| 
    1013                            .dwpsn  file "../hcg/source/HL_rti.c",line 405,column 5,is_stmt,isa 2
    1014 00000330 E59DC000          LDR       V9, [SP, #0]          ; [DPU_4_PIPE0] |405| 
    1015 00000334 E59C00A0          LDR       A1, [V9, #160]        ; [DPU_4_PIPE0] |405| 
    1016                            .dwpsn  file "../hcg/source/HL_rti.c",line 409,column 1,is_stmt,isa 2
    1017 00000338 E28DD008          ADD       SP, SP, #8            ; [DPU_4_PIPE0] 
    1018                            .dwcfi  cfa_offset, 0
    1019                    $C$DW$67        .dwtag  DW_TAG_TI_branch
    1020                            .dwattr $C$DW$67, DW_AT_low_pc(0x00)
    1021                            .dwattr $C$DW$67, DW_AT_TI_return
    1022                    
    1023 0000033c E12FFF1E          BX        LR                    ; [DPU_4_PIPE1] 
    1024                            ; BRANCH OCCURS                  ; [] 
    1025                            .dwattr $C$DW$64, DW_AT_TI_end_file("../hcg/source/HL_rti.c")
    1026                            .dwattr $C$DW$64, DW_AT_TI_end_line(0x199)
    1027                            .dwattr $C$DW$64, DW_AT_TI_end_column(0x01)
    1028                            .dwendentry
    1029                            .dwendtag $C$DW$64
    1030                    
    1031 00000340                   .sect   ".text"
    1032                            .clink
    1033                            .armfunc dwdCounterEnable
    1034 00000340                   .state32
    1035                            .global dwdCounterEnable
    1036                    
    1037                    $C$DW$68        .dwtag  DW_TAG_subprogram
    1038                            .dwattr $C$DW$68, DW_AT_name("dwdCounterEnable")
    1039                            .dwattr $C$DW$68, DW_AT_low_pc(dwdCounterEnable)
    1040                            .dwattr $C$DW$68, DW_AT_high_pc(0x00)
    1041                            .dwattr $C$DW$68, DW_AT_TI_symbol_name("dwdCounterEnable")
    1042                            .dwattr $C$DW$68, DW_AT_external
    1043                            .dwattr $C$DW$68, DW_AT_TI_begin_file("../hcg/source/HL_rti.c")
    1044                            .dwattr $C$DW$68, DW_AT_TI_begin_line(0x1a2)
    1045                            .dwattr $C$DW$68, DW_AT_TI_begin_column(0x06)
TI ARM Assembler PC v16.9.0 Thu Feb 16 13:27:11 2017

Tools Copyright (c) 1996-2015 Texas Instruments Incorporated
C:\Users\bob\AppData\Local\Temp\1223210                              PAGE   20

    1046                            .dwattr $C$DW$68, DW_AT_decl_file("../hcg/source/HL_rti.c")
    1047                            .dwattr $C$DW$68, DW_AT_decl_line(0x1a2)
    1048                            .dwattr $C$DW$68, DW_AT_decl_column(0x06)
    1049                            .dwattr $C$DW$68, DW_AT_TI_max_frame_size(0x08)
    1050                            .dwpsn  file "../hcg/source/HL_rti.c",line 419,column 1,is_stmt,address dwdCounterEnable,isa 2
    1051                    
    1052                            .dwfde $C$DW$CIE, dwdCounterEnable
    1053                    $C$DW$69        .dwtag  DW_TAG_formal_parameter
    1054                            .dwattr $C$DW$69, DW_AT_name("rtiREG")
    1055                            .dwattr $C$DW$69, DW_AT_TI_symbol_name("rtiREG")
    1056                            .dwattr $C$DW$69, DW_AT_type(*$C$DW$T$43)
    1057                            .dwattr $C$DW$69, DW_AT_location[DW_OP_reg0]
    1058                    
    1059                    
    1060                    ;*****************************************************************************
    1061                    ;* FUNCTION NAME: dwdCounterEnable                                           *
    1062                    ;*                                                                           *
    1063                    ;*   Regs Modified     : A1,V9,SP                                            *
    1064                    ;*   Regs Used         : A1,V9,SP,LR                                         *
    1065                    ;*   Local Frame Size  : 0 Args + 4 Auto + 0 Save = 4 byte                   *
    1066                    ;*****************************************************************************
    1067 00000340           dwdCounterEnable:
    1068                    ;* --------------------------------------------------------------------------*
    1069                            .dwcfi  cfa_offset, 0
    1070 00000340 E24DD008          SUB       SP, SP, #8            ; [DPU_4_PIPE0] 
    1071                            .dwcfi  cfa_offset, 8
    1072                    $C$DW$70        .dwtag  DW_TAG_variable
    1073                            .dwattr $C$DW$70, DW_AT_name("rtiREG")
    1074                            .dwattr $C$DW$70, DW_AT_TI_symbol_name("rtiREG")
    1075                            .dwattr $C$DW$70, DW_AT_type(*$C$DW$T$43)
    1076                            .dwattr $C$DW$70, DW_AT_location[DW_OP_breg13 0]
    1077                    
    1078 00000344 E58D0000          STR       A1, [SP, #0]          ; [DPU_4_PIPE0] |419| 
    1079                            .dwpsn  file "../hcg/source/HL_rti.c",line 423,column 2,is_stmt,isa 2
    1080 00000348 E59DC000          LDR       V9, [SP, #0]          ; [DPU_4_PIPE0] |423| 
    1081 0000034c E59F0340          LDR       A1, $C$CON25          ; [DPU_4_PIPE0] |423| 
    1082 00000350 E58C0090          STR       A1, [V9, #144]        ; [DPU_4_PIPE0] |423| 
    1083                            .dwpsn  file "../hcg/source/HL_rti.c",line 427,column 1,is_stmt,isa 2
    1084 00000354 E28DD008          ADD       SP, SP, #8            ; [DPU_4_PIPE0] 
    1085                            .dwcfi  cfa_offset, 0
    1086                    $C$DW$71        .dwtag  DW_TAG_TI_branch
    1087                            .dwattr $C$DW$71, DW_AT_low_pc(0x00)
    1088                            .dwattr $C$DW$71, DW_AT_TI_return
    1089                    
    1090 00000358 E12FFF1E          BX        LR                    ; [DPU_4_PIPE1] 
    1091                            ; BRANCH OCCURS                  ; [] 
    1092                            .dwattr $C$DW$68, DW_AT_TI_end_file("../hcg/source/HL_rti.c")
    1093                            .dwattr $C$DW$68, DW_AT_TI_end_line(0x1ab)
    1094                            .dwattr $C$DW$68, DW_AT_TI_end_column(0x01)
    1095                            .dwendentry
    1096                            .dwendtag $C$DW$68
    1097                    
    1098 0000035c                   .sect   ".text"
    1099                            .clink
    1100                            .armfunc dwdSetPreload
TI ARM Assembler PC v16.9.0 Thu Feb 16 13:27:11 2017

Tools Copyright (c) 1996-2015 Texas Instruments Incorporated
C:\Users\bob\AppData\Local\Temp\1223210                              PAGE   21

    1101 0000035c                   .state32
    1102                            .global dwdSetPreload
    1103                    
    1104                    $C$DW$72        .dwtag  DW_TAG_subprogram
    1105                            .dwattr $C$DW$72, DW_AT_name("dwdSetPreload")
    1106                            .dwattr $C$DW$72, DW_AT_low_pc(dwdSetPreload)
    1107                            .dwattr $C$DW$72, DW_AT_high_pc(0x00)
    1108                            .dwattr $C$DW$72, DW_AT_TI_symbol_name("dwdSetPreload")
    1109                            .dwattr $C$DW$72, DW_AT_external
    1110                            .dwattr $C$DW$72, DW_AT_TI_begin_file("../hcg/source/HL_rti.c")
    1111                            .dwattr $C$DW$72, DW_AT_TI_begin_line(0x1b7)
    1112                            .dwattr $C$DW$72, DW_AT_TI_begin_column(0x06)
    1113                            .dwattr $C$DW$72, DW_AT_decl_file("../hcg/source/HL_rti.c")
    1114                            .dwattr $C$DW$72, DW_AT_decl_line(0x1b7)
    1115                            .dwattr $C$DW$72, DW_AT_decl_column(0x06)
    1116                            .dwattr $C$DW$72, DW_AT_TI_max_frame_size(0x08)
    1117                            .dwpsn  file "../hcg/source/HL_rti.c",line 440,column 1,is_stmt,address dwdSetPreload,isa 2
    1118                    
    1119                            .dwfde $C$DW$CIE, dwdSetPreload
    1120                    $C$DW$73        .dwtag  DW_TAG_formal_parameter
    1121                            .dwattr $C$DW$73, DW_AT_name("rtiREG")
    1122                            .dwattr $C$DW$73, DW_AT_TI_symbol_name("rtiREG")
    1123                            .dwattr $C$DW$73, DW_AT_type(*$C$DW$T$43)
    1124                            .dwattr $C$DW$73, DW_AT_location[DW_OP_reg0]
    1125                    
    1126                    $C$DW$74        .dwtag  DW_TAG_formal_parameter
    1127                            .dwattr $C$DW$74, DW_AT_name("dwdPreload")
    1128                            .dwattr $C$DW$74, DW_AT_TI_symbol_name("dwdPreload")
    1129                            .dwattr $C$DW$74, DW_AT_type(*$C$DW$T$47)
    1130                            .dwattr $C$DW$74, DW_AT_location[DW_OP_reg1]
    1131                    
    1132                    
    1133                    ;*****************************************************************************
    1134                    ;* FUNCTION NAME: dwdSetPreload                                              *
    1135                    ;*                                                                           *
    1136                    ;*   Regs Modified     : A1,V9,SP                                            *
    1137                    ;*   Regs Used         : A1,A2,V9,SP,LR                                      *
    1138                    ;*   Local Frame Size  : 0 Args + 8 Auto + 0 Save = 8 byte                   *
    1139                    ;*****************************************************************************
    1140 0000035c           dwdSetPreload:
    1141                    ;* --------------------------------------------------------------------------*
    1142                            .dwcfi  cfa_offset, 0
    1143 0000035c E24DD008          SUB       SP, SP, #8            ; [DPU_4_PIPE0] 
    1144                            .dwcfi  cfa_offset, 8
    1145                    $C$DW$75        .dwtag  DW_TAG_variable
    1146                            .dwattr $C$DW$75, DW_AT_name("rtiREG")
    1147                            .dwattr $C$DW$75, DW_AT_TI_symbol_name("rtiREG")
    1148                            .dwattr $C$DW$75, DW_AT_type(*$C$DW$T$43)
    1149                            .dwattr $C$DW$75, DW_AT_location[DW_OP_breg13 0]
    1150                    
    1151                    $C$DW$76        .dwtag  DW_TAG_variable
    1152                            .dwattr $C$DW$76, DW_AT_name("dwdPreload")
    1153                            .dwattr $C$DW$76, DW_AT_TI_symbol_name("dwdPreload")
    1154                            .dwattr $C$DW$76, DW_AT_type(*$C$DW$T$47)
    1155                            .dwattr $C$DW$76, DW_AT_location[DW_OP_breg13 4]
TI ARM Assembler PC v16.9.0 Thu Feb 16 13:27:11 2017

Tools Copyright (c) 1996-2015 Texas Instruments Incorporated
C:\Users\bob\AppData\Local\Temp\1223210                              PAGE   22

    1156                    
    1157 00000360 E1CD10B4          STRH      A2, [SP, #4]          ; [DPU_4_PIPE0] |440| 
    1158 00000364 E58D0000          STR       A1, [SP, #0]          ; [DPU_4_PIPE0] |440| 
    1159                            .dwpsn  file "../hcg/source/HL_rti.c",line 443,column 2,is_stmt,isa 2
    1160 00000368 E59D0000          LDR       A1, [SP, #0]          ; [DPU_4_PIPE0] |443| 
    1161 0000036c E1DDC0B4          LDRH      V9, [SP, #4]          ; [DPU_4_PIPE0] |443| 
    1162 00000370 E580C094          STR       V9, [A1, #148]        ; [DPU_4_PIPE0] |443| 
    1163                            .dwpsn  file "../hcg/source/HL_rti.c",line 446,column 1,is_stmt,isa 2
    1164 00000374 E28DD008          ADD       SP, SP, #8            ; [DPU_4_PIPE0] 
    1165                            .dwcfi  cfa_offset, 0
    1166                    $C$DW$77        .dwtag  DW_TAG_TI_branch
    1167                            .dwattr $C$DW$77, DW_AT_low_pc(0x00)
    1168                            .dwattr $C$DW$77, DW_AT_TI_return
    1169                    
    1170 00000378 E12FFF1E          BX        LR                    ; [DPU_4_PIPE1] 
    1171                            ; BRANCH OCCURS                  ; [] 
    1172                            .dwattr $C$DW$72, DW_AT_TI_end_file("../hcg/source/HL_rti.c")
    1173                            .dwattr $C$DW$72, DW_AT_TI_end_line(0x1be)
    1174                            .dwattr $C$DW$72, DW_AT_TI_end_column(0x01)
    1175                            .dwendentry
    1176                            .dwendtag $C$DW$72
    1177                    
    1178 0000037c                   .sect   ".text"
    1179                            .clink
    1180                            .armfunc dwdReset
    1181 0000037c                   .state32
    1182                            .global dwdReset
    1183                    
    1184                    $C$DW$78        .dwtag  DW_TAG_subprogram
    1185                            .dwattr $C$DW$78, DW_AT_name("dwdReset")
    1186                            .dwattr $C$DW$78, DW_AT_low_pc(dwdReset)
    1187                            .dwattr $C$DW$78, DW_AT_high_pc(0x00)
    1188                            .dwattr $C$DW$78, DW_AT_TI_symbol_name("dwdReset")
    1189                            .dwattr $C$DW$78, DW_AT_external
    1190                            .dwattr $C$DW$78, DW_AT_TI_begin_file("../hcg/source/HL_rti.c")
    1191                            .dwattr $C$DW$78, DW_AT_TI_begin_line(0x1c7)
    1192                            .dwattr $C$DW$78, DW_AT_TI_begin_column(0x06)
    1193                            .dwattr $C$DW$78, DW_AT_decl_file("../hcg/source/HL_rti.c")
    1194                            .dwattr $C$DW$78, DW_AT_decl_line(0x1c7)
    1195                            .dwattr $C$DW$78, DW_AT_decl_column(0x06)
    1196                            .dwattr $C$DW$78, DW_AT_TI_max_frame_size(0x08)
    1197                            .dwpsn  file "../hcg/source/HL_rti.c",line 456,column 1,is_stmt,address dwdReset,isa 2
    1198                    
    1199                            .dwfde $C$DW$CIE, dwdReset
    1200                    $C$DW$79        .dwtag  DW_TAG_formal_parameter
    1201                            .dwattr $C$DW$79, DW_AT_name("rtiREG")
    1202                            .dwattr $C$DW$79, DW_AT_TI_symbol_name("rtiREG")
    1203                            .dwattr $C$DW$79, DW_AT_type(*$C$DW$T$43)
    1204                            .dwattr $C$DW$79, DW_AT_location[DW_OP_reg0]
    1205                    
    1206                    
    1207                    ;*****************************************************************************
    1208                    ;* FUNCTION NAME: dwdReset                                                   *
    1209                    ;*                                                                           *
    1210                    ;*   Regs Modified     : A1,V9,SP                                            *
TI ARM Assembler PC v16.9.0 Thu Feb 16 13:27:11 2017

Tools Copyright (c) 1996-2015 Texas Instruments Incorporated
C:\Users\bob\AppData\Local\Temp\1223210                              PAGE   23

    1211                    ;*   Regs Used         : A1,V9,SP,LR                                         *
    1212                    ;*   Local Frame Size  : 0 Args + 4 Auto + 0 Save = 4 byte                   *
    1213                    ;*****************************************************************************
    1214 0000037c           dwdReset:
    1215                    ;* --------------------------------------------------------------------------*
    1216                            .dwcfi  cfa_offset, 0
    1217 0000037c E24DD008          SUB       SP, SP, #8            ; [DPU_4_PIPE0] 
    1218                            .dwcfi  cfa_offset, 8
    1219                    $C$DW$80        .dwtag  DW_TAG_variable
    1220                            .dwattr $C$DW$80, DW_AT_name("rtiREG")
    1221                            .dwattr $C$DW$80, DW_AT_TI_symbol_name("rtiREG")
    1222                            .dwattr $C$DW$80, DW_AT_type(*$C$DW$T$43)
    1223                            .dwattr $C$DW$80, DW_AT_location[DW_OP_breg13 0]
    1224                    
    1225 00000380 E58D0000          STR       A1, [SP, #0]          ; [DPU_4_PIPE0] |456| 
    1226                            .dwpsn  file "../hcg/source/HL_rti.c",line 459,column 2,is_stmt,isa 2
    1227 00000384 E59DC000          LDR       V9, [SP, #0]          ; [DPU_4_PIPE0] |459| 
    1228 00000388 E30E051A          MOV       A1, #58650            ; [DPU_4_PIPE0] |459| 
    1229 0000038c E58C009C          STR       A1, [V9, #156]        ; [DPU_4_PIPE0] |459| 
    1230                            .dwpsn  file "../hcg/source/HL_rti.c",line 460,column 2,is_stmt,isa 2
    1231 00000390 E59DC000          LDR       V9, [SP, #0]          ; [DPU_4_PIPE0] |460| 
    1232 00000394 E30A035C          MOV       A1, #41820            ; [DPU_4_PIPE0] |460| 
    1233 00000398 E58C009C          STR       A1, [V9, #156]        ; [DPU_4_PIPE0] |460| 
    1234                            .dwpsn  file "../hcg/source/HL_rti.c",line 463,column 1,is_stmt,isa 2
    1235 0000039c E28DD008          ADD       SP, SP, #8            ; [DPU_4_PIPE0] 
    1236                            .dwcfi  cfa_offset, 0
    1237                    $C$DW$81        .dwtag  DW_TAG_TI_branch
    1238                            .dwattr $C$DW$81, DW_AT_low_pc(0x00)
    1239                            .dwattr $C$DW$81, DW_AT_TI_return
    1240                    
    1241 000003a0 E12FFF1E          BX        LR                    ; [DPU_4_PIPE1] 
    1242                            ; BRANCH OCCURS                  ; [] 
    1243                            .dwattr $C$DW$78, DW_AT_TI_end_file("../hcg/source/HL_rti.c")
    1244                            .dwattr $C$DW$78, DW_AT_TI_end_line(0x1cf)
    1245                            .dwattr $C$DW$78, DW_AT_TI_end_column(0x01)
    1246                            .dwendentry
    1247                            .dwendtag $C$DW$78
    1248                    
    1249 000003a4                   .sect   ".text"
    1250                            .clink
    1251                            .armfunc dwdGenerateSysReset
    1252 000003a4                   .state32
    1253                            .global dwdGenerateSysReset
    1254                    
    1255                    $C$DW$82        .dwtag  DW_TAG_subprogram
    1256                            .dwattr $C$DW$82, DW_AT_name("dwdGenerateSysReset")
    1257                            .dwattr $C$DW$82, DW_AT_low_pc(dwdGenerateSysReset)
    1258                            .dwattr $C$DW$82, DW_AT_high_pc(0x00)
    1259                            .dwattr $C$DW$82, DW_AT_TI_symbol_name("dwdGenerateSysReset")
    1260                            .dwattr $C$DW$82, DW_AT_external
    1261                            .dwattr $C$DW$82, DW_AT_TI_begin_file("../hcg/source/HL_rti.c")
    1262                            .dwattr $C$DW$82, DW_AT_TI_begin_line(0x1d8)
    1263                            .dwattr $C$DW$82, DW_AT_TI_begin_column(0x06)
    1264                            .dwattr $C$DW$82, DW_AT_decl_file("../hcg/source/HL_rti.c")
    1265                            .dwattr $C$DW$82, DW_AT_decl_line(0x1d8)
TI ARM Assembler PC v16.9.0 Thu Feb 16 13:27:11 2017

Tools Copyright (c) 1996-2015 Texas Instruments Incorporated
C:\Users\bob\AppData\Local\Temp\1223210                              PAGE   24

    1266                            .dwattr $C$DW$82, DW_AT_decl_column(0x06)
    1267                            .dwattr $C$DW$82, DW_AT_TI_max_frame_size(0x08)
    1268                            .dwpsn  file "../hcg/source/HL_rti.c",line 473,column 1,is_stmt,address dwdGenerateSysReset,is
    1269                    
    1270                            .dwfde $C$DW$CIE, dwdGenerateSysReset
    1271                    $C$DW$83        .dwtag  DW_TAG_formal_parameter
    1272                            .dwattr $C$DW$83, DW_AT_name("rtiREG")
    1273                            .dwattr $C$DW$83, DW_AT_TI_symbol_name("rtiREG")
    1274                            .dwattr $C$DW$83, DW_AT_type(*$C$DW$T$43)
    1275                            .dwattr $C$DW$83, DW_AT_location[DW_OP_reg0]
    1276                    
    1277                    
    1278                    ;*****************************************************************************
    1279                    ;* FUNCTION NAME: dwdGenerateSysReset                                        *
    1280                    ;*                                                                           *
    1281                    ;*   Regs Modified     : A1,V9,SP                                            *
    1282                    ;*   Regs Used         : A1,V9,SP,LR                                         *
    1283                    ;*   Local Frame Size  : 0 Args + 4 Auto + 0 Save = 4 byte                   *
    1284                    ;*****************************************************************************
    1285 000003a4           dwdGenerateSysReset:
    1286                    ;* --------------------------------------------------------------------------*
    1287                            .dwcfi  cfa_offset, 0
    1288 000003a4 E24DD008          SUB       SP, SP, #8            ; [DPU_4_PIPE0] 
    1289                            .dwcfi  cfa_offset, 8
    1290                    $C$DW$84        .dwtag  DW_TAG_variable
    1291                            .dwattr $C$DW$84, DW_AT_name("rtiREG")
    1292                            .dwattr $C$DW$84, DW_AT_TI_symbol_name("rtiREG")
    1293                            .dwattr $C$DW$84, DW_AT_type(*$C$DW$T$43)
    1294                            .dwattr $C$DW$84, DW_AT_location[DW_OP_breg13 0]
    1295                    
    1296 000003a8 E58D0000          STR       A1, [SP, #0]          ; [DPU_4_PIPE0] |473| 
    1297                            .dwpsn  file "../hcg/source/HL_rti.c",line 476,column 2,is_stmt,isa 2
    1298 000003ac E59DC000          LDR       V9, [SP, #0]          ; [DPU_4_PIPE0] |476| 
    1299 000003b0 E30E051A          MOV       A1, #58650            ; [DPU_4_PIPE0] |476| 
    1300 000003b4 E58C009C          STR       A1, [V9, #156]        ; [DPU_4_PIPE0] |476| 
    1301                            .dwpsn  file "../hcg/source/HL_rti.c",line 477,column 2,is_stmt,isa 2
    1302 000003b8 E59DC000          LDR       V9, [SP, #0]          ; [DPU_4_PIPE0] |477| 
    1303 000003bc E3020345          MOV       A1, #9029             ; [DPU_4_PIPE0] |477| 
    1304 000003c0 E58C009C          STR       A1, [V9, #156]        ; [DPU_4_PIPE0] |477| 
    1305                            .dwpsn  file "../hcg/source/HL_rti.c",line 480,column 1,is_stmt,isa 2
    1306 000003c4 E28DD008          ADD       SP, SP, #8            ; [DPU_4_PIPE0] 
    1307                            .dwcfi  cfa_offset, 0
    1308                    $C$DW$85        .dwtag  DW_TAG_TI_branch
    1309                            .dwattr $C$DW$85, DW_AT_low_pc(0x00)
    1310                            .dwattr $C$DW$85, DW_AT_TI_return
    1311                    
    1312 000003c8 E12FFF1E          BX        LR                    ; [DPU_4_PIPE1] 
    1313                            ; BRANCH OCCURS                  ; [] 
    1314                            .dwattr $C$DW$82, DW_AT_TI_end_file("../hcg/source/HL_rti.c")
    1315                            .dwattr $C$DW$82, DW_AT_TI_end_line(0x1e0)
    1316                            .dwattr $C$DW$82, DW_AT_TI_end_column(0x01)
    1317                            .dwendentry
    1318                            .dwendtag $C$DW$82
    1319                    
    1320 000003cc                   .sect   ".text"
TI ARM Assembler PC v16.9.0 Thu Feb 16 13:27:11 2017

Tools Copyright (c) 1996-2015 Texas Instruments Incorporated
C:\Users\bob\AppData\Local\Temp\1223210                              PAGE   25

    1321                            .clink
    1322                            .armfunc IsdwdKeySequenceCorrect
    1323 000003cc                   .state32
    1324                            .global IsdwdKeySequenceCorrect
    1325                    
    1326                    $C$DW$86        .dwtag  DW_TAG_subprogram
    1327                            .dwattr $C$DW$86, DW_AT_name("IsdwdKeySequenceCorrect")
    1328                            .dwattr $C$DW$86, DW_AT_low_pc(IsdwdKeySequenceCorrect)
    1329                            .dwattr $C$DW$86, DW_AT_high_pc(0x00)
    1330                            .dwattr $C$DW$86, DW_AT_TI_symbol_name("IsdwdKeySequenceCorrect")
    1331                            .dwattr $C$DW$86, DW_AT_external
    1332                            .dwattr $C$DW$86, DW_AT_type(*$C$DW$T$98)
    1333                            .dwattr $C$DW$86, DW_AT_TI_begin_file("../hcg/source/HL_rti.c")
    1334                            .dwattr $C$DW$86, DW_AT_TI_begin_line(0x1ec)
    1335                            .dwattr $C$DW$86, DW_AT_TI_begin_column(0x09)
    1336                            .dwattr $C$DW$86, DW_AT_decl_file("../hcg/source/HL_rti.c")
    1337                            .dwattr $C$DW$86, DW_AT_decl_line(0x1ec)
    1338                            .dwattr $C$DW$86, DW_AT_decl_column(0x09)
    1339                            .dwattr $C$DW$86, DW_AT_TI_max_frame_size(0x08)
    1340                            .dwpsn  file "../hcg/source/HL_rti.c",line 493,column 1,is_stmt,address IsdwdKeySequenceCorrec
    1341                    
    1342                            .dwfde $C$DW$CIE, IsdwdKeySequenceCorrect
    1343                    $C$DW$87        .dwtag  DW_TAG_formal_parameter
    1344                            .dwattr $C$DW$87, DW_AT_name("rtiREG")
    1345                            .dwattr $C$DW$87, DW_AT_TI_symbol_name("rtiREG")
    1346                            .dwattr $C$DW$87, DW_AT_type(*$C$DW$T$43)
    1347                            .dwattr $C$DW$87, DW_AT_location[DW_OP_reg0]
    1348                    
    1349                    
    1350                    ;*****************************************************************************
    1351                    ;* FUNCTION NAME: IsdwdKeySequenceCorrect                                    *
    1352                    ;*                                                                           *
    1353                    ;*   Regs Modified     : A1,V9,SP,SR                                         *
    1354                    ;*   Regs Used         : A1,V9,SP,LR,SR                                      *
    1355                    ;*   Local Frame Size  : 0 Args + 8 Auto + 0 Save = 8 byte                   *
    1356                    ;*****************************************************************************
    1357 000003cc           IsdwdKeySequenceCorrect:
    1358                    ;* --------------------------------------------------------------------------*
    1359                            .dwcfi  cfa_offset, 0
    1360 000003cc E24DD008          SUB       SP, SP, #8            ; [DPU_4_PIPE0] 
    1361                            .dwcfi  cfa_offset, 8
    1362                    $C$DW$88        .dwtag  DW_TAG_variable
    1363                            .dwattr $C$DW$88, DW_AT_name("rtiREG")
    1364                            .dwattr $C$DW$88, DW_AT_TI_symbol_name("rtiREG")
    1365                            .dwattr $C$DW$88, DW_AT_type(*$C$DW$T$43)
    1366                            .dwattr $C$DW$88, DW_AT_location[DW_OP_breg13 0]
    1367                    
    1368                    $C$DW$89        .dwtag  DW_TAG_variable
    1369                            .dwattr $C$DW$89, DW_AT_name("Status")
    1370                            .dwattr $C$DW$89, DW_AT_TI_symbol_name("Status")
    1371                            .dwattr $C$DW$89, DW_AT_type(*$C$DW$T$98)
    1372                            .dwattr $C$DW$89, DW_AT_location[DW_OP_breg13 4]
    1373                    
    1374 000003d0 E58D0000          STR       A1, [SP, #0]          ; [DPU_4_PIPE0] |493| 
    1375                            .dwpsn  file "../hcg/source/HL_rti.c",line 499,column 2,is_stmt,isa 2
TI ARM Assembler PC v16.9.0 Thu Feb 16 13:27:11 2017

Tools Copyright (c) 1996-2015 Texas Instruments Incorporated
C:\Users\bob\AppData\Local\Temp\1223210                              PAGE   26

    1376 000003d4 E59DC000          LDR       V9, [SP, #0]          ; [DPU_4_PIPE0] |499| 
    1377 000003d8 E59CC098          LDR       V9, [V9, #152]        ; [DPU_4_PIPE0] |499| 
    1378 000003dc E31C0004          TST       V9, #4                ; [DPU_4_PIPE0] |499| 
    1379 000003e0 0AFFFFFE!         BEQ       ||$C$L4||             ; [DPU_4_PIPE1] |499| 
    1380                            ; BRANCHCC OCCURS {||$C$L4||}    ; [] |499| 
    1381                    ;* --------------------------------------------------------------------------*
    1382                            .dwpsn  file "../hcg/source/HL_rti.c",line 501,column 3,is_stmt,isa 2
    1383 000003e4 E3A0C000          MOV       V9, #0                ; [DPU_4_PIPE0] |501| 
    1384 000003e8 E5CDC004          STRB      V9, [SP, #4]          ; [DPU_4_PIPE0] |501| 
    1385                            .dwpsn  file "../hcg/source/HL_rti.c",line 502,column 2,is_stmt,isa 2
    1386 000003ec EAFFFFFE!         B         ||$C$L5||             ; [DPU_4_PIPE1] |502| 
    1387                            ; BRANCH OCCURS {||$C$L5||}      ; [] |502| 
    1388                    ;* --------------------------------------------------------------------------*
    1389 000003f0           ||$C$L4||:    
    1390                            .dwpsn  file "../hcg/source/HL_rti.c",line 505,column 3,is_stmt,isa 2
    1391 000003f0 E3A0C001          MOV       V9, #1                ; [DPU_4_PIPE0] |505| 
    1392 000003f4 E5CDC004          STRB      V9, [SP, #4]          ; [DPU_4_PIPE0] |505| 
    1393                    ;* --------------------------------------------------------------------------*
    1394 000003f8           ||$C$L5||:    
    1395                            .dwpsn  file "../hcg/source/HL_rti.c",line 511,column 2,is_stmt,isa 2
    1396 000003f8 E5DD0004          LDRB      A1, [SP, #4]          ; [DPU_4_PIPE0] |511| 
    1397                            .dwpsn  file "../hcg/source/HL_rti.c",line 512,column 1,is_stmt,isa 2
    1398 000003fc E28DD008          ADD       SP, SP, #8            ; [DPU_4_PIPE0] 
    1399                            .dwcfi  cfa_offset, 0
    1400                    $C$DW$90        .dwtag  DW_TAG_TI_branch
    1401                            .dwattr $C$DW$90, DW_AT_low_pc(0x00)
    1402                            .dwattr $C$DW$90, DW_AT_TI_return
    1403                    
    1404 00000400 E12FFF1E          BX        LR                    ; [DPU_4_PIPE1] 
    1405                            ; BRANCH OCCURS                  ; [] 
    1406                            .dwattr $C$DW$86, DW_AT_TI_end_file("../hcg/source/HL_rti.c")
    1407                            .dwattr $C$DW$86, DW_AT_TI_end_line(0x200)
    1408                            .dwattr $C$DW$86, DW_AT_TI_end_column(0x01)
    1409                            .dwendentry
    1410                            .dwendtag $C$DW$86
    1411                    
    1412 00000404                   .sect   ".text"
    1413                            .clink
    1414                            .armfunc dwdGetStatus
    1415 00000404                   .state32
    1416                            .global dwdGetStatus
    1417                    
    1418                    $C$DW$91        .dwtag  DW_TAG_subprogram
    1419                            .dwattr $C$DW$91, DW_AT_name("dwdGetStatus")
    1420                            .dwattr $C$DW$91, DW_AT_low_pc(dwdGetStatus)
    1421                            .dwattr $C$DW$91, DW_AT_high_pc(0x00)
    1422                            .dwattr $C$DW$91, DW_AT_TI_symbol_name("dwdGetStatus")
    1423                            .dwattr $C$DW$91, DW_AT_external
    1424                            .dwattr $C$DW$91, DW_AT_type(*$C$DW$T$102)
    1425                            .dwattr $C$DW$91, DW_AT_TI_begin_file("../hcg/source/HL_rti.c")
    1426                            .dwattr $C$DW$91, DW_AT_TI_begin_line(0x20c)
    1427                            .dwattr $C$DW$91, DW_AT_TI_begin_column(0x12)
    1428                            .dwattr $C$DW$91, DW_AT_decl_file("../hcg/source/HL_rti.c")
    1429                            .dwattr $C$DW$91, DW_AT_decl_line(0x20c)
    1430                            .dwattr $C$DW$91, DW_AT_decl_column(0x12)
TI ARM Assembler PC v16.9.0 Thu Feb 16 13:27:11 2017

Tools Copyright (c) 1996-2015 Texas Instruments Incorporated
C:\Users\bob\AppData\Local\Temp\1223210                              PAGE   27

    1431                            .dwattr $C$DW$91, DW_AT_TI_max_frame_size(0x08)
    1432                            .dwpsn  file "../hcg/source/HL_rti.c",line 525,column 1,is_stmt,address dwdGetStatus,isa 2
    1433                    
    1434                            .dwfde $C$DW$CIE, dwdGetStatus
    1435                    $C$DW$92        .dwtag  DW_TAG_formal_parameter
    1436                            .dwattr $C$DW$92, DW_AT_name("rtiREG")
    1437                            .dwattr $C$DW$92, DW_AT_TI_symbol_name("rtiREG")
    1438                            .dwattr $C$DW$92, DW_AT_type(*$C$DW$T$43)
    1439                            .dwattr $C$DW$92, DW_AT_location[DW_OP_reg0]
    1440                    
    1441                    
    1442                    ;*****************************************************************************
    1443                    ;* FUNCTION NAME: dwdGetStatus                                               *
    1444                    ;*                                                                           *
    1445                    ;*   Regs Modified     : A1,V9,SP,SR                                         *
    1446                    ;*   Regs Used         : A1,V9,SP,LR,SR                                      *
    1447                    ;*   Local Frame Size  : 0 Args + 8 Auto + 0 Save = 8 byte                   *
    1448                    ;*****************************************************************************
    1449 00000404           dwdGetStatus:
    1450                    ;* --------------------------------------------------------------------------*
    1451                            .dwcfi  cfa_offset, 0
    1452 00000404 E24DD008          SUB       SP, SP, #8            ; [DPU_4_PIPE0] 
    1453                            .dwcfi  cfa_offset, 8
    1454                    $C$DW$93        .dwtag  DW_TAG_variable
    1455                            .dwattr $C$DW$93, DW_AT_name("rtiREG")
    1456                            .dwattr $C$DW$93, DW_AT_TI_symbol_name("rtiREG")
    1457                            .dwattr $C$DW$93, DW_AT_type(*$C$DW$T$43)
    1458                            .dwattr $C$DW$93, DW_AT_location[DW_OP_breg13 0]
    1459                    
    1460                    $C$DW$94        .dwtag  DW_TAG_variable
    1461                            .dwattr $C$DW$94, DW_AT_name("Reset_Status")
    1462                            .dwattr $C$DW$94, DW_AT_TI_symbol_name("Reset_Status")
    1463                            .dwattr $C$DW$94, DW_AT_type(*$C$DW$T$102)
    1464                            .dwattr $C$DW$94, DW_AT_location[DW_OP_breg13 4]
    1465                    
    1466 00000408 E58D0000          STR       A1, [SP, #0]          ; [DPU_4_PIPE0] |525| 
    1467                            .dwpsn  file "../hcg/source/HL_rti.c",line 529,column 2,is_stmt,isa 2
    1468 0000040c E59DC000          LDR       V9, [SP, #0]          ; [DPU_4_PIPE0] |529| 
    1469 00000410 E59CC098          LDR       V9, [V9, #152]        ; [DPU_4_PIPE0] |529| 
    1470 00000414 E31C0002          TST       V9, #2                ; [DPU_4_PIPE0] |529| 
    1471 00000418 0AFFFFFE!         BEQ       ||$C$L6||             ; [DPU_4_PIPE1] |529| 
    1472                            ; BRANCHCC OCCURS {||$C$L6||}    ; [] |529| 
    1473                    ;* --------------------------------------------------------------------------*
    1474                            .dwpsn  file "../hcg/source/HL_rti.c",line 531,column 3,is_stmt,isa 2
    1475 0000041c E3A0C001          MOV       V9, #1                ; [DPU_4_PIPE0] |531| 
    1476 00000420 E5CDC004          STRB      V9, [SP, #4]          ; [DPU_4_PIPE0] |531| 
    1477                            .dwpsn  file "../hcg/source/HL_rti.c",line 532,column 2,is_stmt,isa 2
    1478 00000424 EAFFFFFE!         B         ||$C$L7||             ; [DPU_4_PIPE1] |532| 
    1479                            ; BRANCH OCCURS {||$C$L7||}      ; [] |532| 
    1480                    ;* --------------------------------------------------------------------------*
    1481 00000428           ||$C$L6||:    
    1482                            .dwpsn  file "../hcg/source/HL_rti.c",line 535,column 3,is_stmt,isa 2
    1483 00000428 E3A0C000          MOV       V9, #0                ; [DPU_4_PIPE0] |535| 
    1484 0000042c E5CDC004          STRB      V9, [SP, #4]          ; [DPU_4_PIPE0] |535| 
    1485                    ;* --------------------------------------------------------------------------*
TI ARM Assembler PC v16.9.0 Thu Feb 16 13:27:11 2017

Tools Copyright (c) 1996-2015 Texas Instruments Incorporated
C:\Users\bob\AppData\Local\Temp\1223210                              PAGE   28

    1486 00000430           ||$C$L7||:    
    1487                            .dwpsn  file "../hcg/source/HL_rti.c",line 540,column 2,is_stmt,isa 2
    1488 00000430 E5DD0004          LDRB      A1, [SP, #4]          ; [DPU_4_PIPE0] |540| 
    1489                            .dwpsn  file "../hcg/source/HL_rti.c",line 541,column 1,is_stmt,isa 2
    1490 00000434 E28DD008          ADD       SP, SP, #8            ; [DPU_4_PIPE0] 
    1491                            .dwcfi  cfa_offset, 0
    1492                    $C$DW$95        .dwtag  DW_TAG_TI_branch
    1493                            .dwattr $C$DW$95, DW_AT_low_pc(0x00)
    1494                            .dwattr $C$DW$95, DW_AT_TI_return
    1495                    
    1496 00000438 E12FFF1E          BX        LR                    ; [DPU_4_PIPE1] 
    1497                            ; BRANCH OCCURS                  ; [] 
    1498                            .dwattr $C$DW$91, DW_AT_TI_end_file("../hcg/source/HL_rti.c")
    1499                            .dwattr $C$DW$91, DW_AT_TI_end_line(0x21d)
    1500                            .dwattr $C$DW$91, DW_AT_TI_end_column(0x01)
    1501                            .dwendentry
    1502                            .dwendtag $C$DW$91
    1503                    
    1504 0000043c                   .sect   ".text"
    1505                            .clink
    1506                            .armfunc dwdClearFlag
    1507 0000043c                   .state32
    1508                            .global dwdClearFlag
    1509                    
    1510                    $C$DW$96        .dwtag  DW_TAG_subprogram
    1511                            .dwattr $C$DW$96, DW_AT_name("dwdClearFlag")
    1512                            .dwattr $C$DW$96, DW_AT_low_pc(dwdClearFlag)
    1513                            .dwattr $C$DW$96, DW_AT_high_pc(0x00)
    1514                            .dwattr $C$DW$96, DW_AT_TI_symbol_name("dwdClearFlag")
    1515                            .dwattr $C$DW$96, DW_AT_external
    1516                            .dwattr $C$DW$96, DW_AT_TI_begin_file("../hcg/source/HL_rti.c")
    1517                            .dwattr $C$DW$96, DW_AT_TI_begin_line(0x226)
    1518                            .dwattr $C$DW$96, DW_AT_TI_begin_column(0x06)
    1519                            .dwattr $C$DW$96, DW_AT_decl_file("../hcg/source/HL_rti.c")
    1520                            .dwattr $C$DW$96, DW_AT_decl_line(0x226)
    1521                            .dwattr $C$DW$96, DW_AT_decl_column(0x06)
    1522                            .dwattr $C$DW$96, DW_AT_TI_max_frame_size(0x08)
    1523                            .dwpsn  file "../hcg/source/HL_rti.c",line 551,column 1,is_stmt,address dwdClearFlag,isa 2
    1524                    
    1525                            .dwfde $C$DW$CIE, dwdClearFlag
    1526                    $C$DW$97        .dwtag  DW_TAG_formal_parameter
    1527                            .dwattr $C$DW$97, DW_AT_name("rtiREG")
    1528                            .dwattr $C$DW$97, DW_AT_TI_symbol_name("rtiREG")
    1529                            .dwattr $C$DW$97, DW_AT_type(*$C$DW$T$43)
    1530                            .dwattr $C$DW$97, DW_AT_location[DW_OP_reg0]
    1531                    
    1532                    
    1533                    ;*****************************************************************************
    1534                    ;* FUNCTION NAME: dwdClearFlag                                               *
    1535                    ;*                                                                           *
    1536                    ;*   Regs Modified     : A1,V9,SP                                            *
    1537                    ;*   Regs Used         : A1,V9,SP,LR                                         *
    1538                    ;*   Local Frame Size  : 0 Args + 4 Auto + 0 Save = 4 byte                   *
    1539                    ;*****************************************************************************
    1540 0000043c           dwdClearFlag:
TI ARM Assembler PC v16.9.0 Thu Feb 16 13:27:11 2017

Tools Copyright (c) 1996-2015 Texas Instruments Incorporated
C:\Users\bob\AppData\Local\Temp\1223210                              PAGE   29

    1541                    ;* --------------------------------------------------------------------------*
    1542                            .dwcfi  cfa_offset, 0
    1543 0000043c E24DD008          SUB       SP, SP, #8            ; [DPU_4_PIPE0] 
    1544                            .dwcfi  cfa_offset, 8
    1545                    $C$DW$98        .dwtag  DW_TAG_variable
    1546                            .dwattr $C$DW$98, DW_AT_name("rtiREG")
    1547                            .dwattr $C$DW$98, DW_AT_TI_symbol_name("rtiREG")
    1548                            .dwattr $C$DW$98, DW_AT_type(*$C$DW$T$43)
    1549                            .dwattr $C$DW$98, DW_AT_location[DW_OP_breg13 0]
    1550                    
    1551 00000440 E58D0000          STR       A1, [SP, #0]          ; [DPU_4_PIPE0] |551| 
    1552                            .dwpsn  file "../hcg/source/HL_rti.c",line 555,column 2,is_stmt,isa 2
    1553 00000444 E59DC000          LDR       V9, [SP, #0]          ; [DPU_4_PIPE0] |555| 
    1554 00000448 E3A000FF          MOV       A1, #255              ; [DPU_4_PIPE0] |555| 
    1555 0000044c E58C0098          STR       A1, [V9, #152]        ; [DPU_4_PIPE0] |555| 
    1556                            .dwpsn  file "../hcg/source/HL_rti.c",line 559,column 1,is_stmt,isa 2
    1557 00000450 E28DD008          ADD       SP, SP, #8            ; [DPU_4_PIPE0] 
    1558                            .dwcfi  cfa_offset, 0
    1559                    $C$DW$99        .dwtag  DW_TAG_TI_branch
    1560                            .dwattr $C$DW$99, DW_AT_low_pc(0x00)
    1561                            .dwattr $C$DW$99, DW_AT_TI_return
    1562                    
    1563 00000454 E12FFF1E          BX        LR                    ; [DPU_4_PIPE1] 
    1564                            ; BRANCH OCCURS                  ; [] 
    1565                            .dwattr $C$DW$96, DW_AT_TI_end_file("../hcg/source/HL_rti.c")
    1566                            .dwattr $C$DW$96, DW_AT_TI_end_line(0x22f)
    1567                            .dwattr $C$DW$96, DW_AT_TI_end_column(0x01)
    1568                            .dwendentry
    1569                            .dwendtag $C$DW$96
    1570                    
    1571 00000458                   .sect   ".text"
    1572                            .clink
    1573                            .armfunc dwdGetViolationStatus
    1574 00000458                   .state32
    1575                            .global dwdGetViolationStatus
    1576                    
    1577                    $C$DW$100       .dwtag  DW_TAG_subprogram
    1578                            .dwattr $C$DW$100, DW_AT_name("dwdGetViolationStatus")
    1579                            .dwattr $C$DW$100, DW_AT_low_pc(dwdGetViolationStatus)
    1580                            .dwattr $C$DW$100, DW_AT_high_pc(0x00)
    1581                            .dwattr $C$DW$100, DW_AT_TI_symbol_name("dwdGetViolationStatus")
    1582                            .dwattr $C$DW$100, DW_AT_external
    1583                            .dwattr $C$DW$100, DW_AT_type(*$C$DW$T$105)
    1584                            .dwattr $C$DW$100, DW_AT_TI_begin_file("../hcg/source/HL_rti.c")
    1585                            .dwattr $C$DW$100, DW_AT_TI_begin_line(0x23e)
    1586                            .dwattr $C$DW$100, DW_AT_TI_begin_column(0x10)
    1587                            .dwattr $C$DW$100, DW_AT_decl_file("../hcg/source/HL_rti.c")
    1588                            .dwattr $C$DW$100, DW_AT_decl_line(0x23e)
    1589                            .dwattr $C$DW$100, DW_AT_decl_column(0x10)
    1590                            .dwattr $C$DW$100, DW_AT_TI_max_frame_size(0x08)
    1591                            .dwpsn  file "../hcg/source/HL_rti.c",line 575,column 1,is_stmt,address dwdGetViolationStatus,
    1592                    
    1593                            .dwfde $C$DW$CIE, dwdGetViolationStatus
    1594                    $C$DW$101       .dwtag  DW_TAG_formal_parameter
    1595                            .dwattr $C$DW$101, DW_AT_name("rtiREG")
TI ARM Assembler PC v16.9.0 Thu Feb 16 13:27:11 2017

Tools Copyright (c) 1996-2015 Texas Instruments Incorporated
C:\Users\bob\AppData\Local\Temp\1223210                              PAGE   30

    1596                            .dwattr $C$DW$101, DW_AT_TI_symbol_name("rtiREG")
    1597                            .dwattr $C$DW$101, DW_AT_type(*$C$DW$T$43)
    1598                            .dwattr $C$DW$101, DW_AT_location[DW_OP_reg0]
    1599                    
    1600                    
    1601                    ;*****************************************************************************
    1602                    ;* FUNCTION NAME: dwdGetViolationStatus                                      *
    1603                    ;*                                                                           *
    1604                    ;*   Regs Modified     : A1,V9,SP,SR                                         *
    1605                    ;*   Regs Used         : A1,V9,SP,LR,SR                                      *
    1606                    ;*   Local Frame Size  : 0 Args + 8 Auto + 0 Save = 8 byte                   *
    1607                    ;*****************************************************************************
    1608 00000458           dwdGetViolationStatus:
    1609                    ;* --------------------------------------------------------------------------*
    1610                            .dwcfi  cfa_offset, 0
    1611 00000458 E24DD008          SUB       SP, SP, #8            ; [DPU_4_PIPE0] 
    1612                            .dwcfi  cfa_offset, 8
    1613                    $C$DW$102       .dwtag  DW_TAG_variable
    1614                            .dwattr $C$DW$102, DW_AT_name("rtiREG")
    1615                            .dwattr $C$DW$102, DW_AT_TI_symbol_name("rtiREG")
    1616                            .dwattr $C$DW$102, DW_AT_type(*$C$DW$T$43)
    1617                            .dwattr $C$DW$102, DW_AT_location[DW_OP_breg13 0]
    1618                    
    1619                    $C$DW$103       .dwtag  DW_TAG_variable
    1620                            .dwattr $C$DW$103, DW_AT_name("Violation_Status")
    1621                            .dwattr $C$DW$103, DW_AT_TI_symbol_name("Violation_Status")
    1622                            .dwattr $C$DW$103, DW_AT_type(*$C$DW$T$105)
    1623                            .dwattr $C$DW$103, DW_AT_location[DW_OP_breg13 4]
    1624                    
    1625 0000045c E58D0000          STR       A1, [SP, #0]          ; [DPU_4_PIPE0] |575| 
    1626                            .dwpsn  file "../hcg/source/HL_rti.c",line 580,column 2,is_stmt,isa 2
    1627 00000460 E59DC000          LDR       V9, [SP, #0]          ; [DPU_4_PIPE0] |580| 
    1628 00000464 E59CC098          LDR       V9, [V9, #152]        ; [DPU_4_PIPE0] |580| 
    1629 00000468 E31C0004          TST       V9, #4                ; [DPU_4_PIPE0] |580| 
    1630 0000046c 0AFFFFFE!         BEQ       ||$C$L8||             ; [DPU_4_PIPE1] |580| 
    1631                            ; BRANCHCC OCCURS {||$C$L8||}    ; [] |580| 
    1632                    ;* --------------------------------------------------------------------------*
    1633                            .dwpsn  file "../hcg/source/HL_rti.c",line 582,column 3,is_stmt,isa 2
    1634 00000470 E3A0C004          MOV       V9, #4                ; [DPU_4_PIPE0] |582| 
    1635 00000474 E5CDC004          STRB      V9, [SP, #4]          ; [DPU_4_PIPE0] |582| 
    1636                            .dwpsn  file "../hcg/source/HL_rti.c",line 583,column 2,is_stmt,isa 2
    1637 00000478 EAFFFFFE!         B         ||$C$L12||            ; [DPU_4_PIPE1] |583| 
    1638                            ; BRANCH OCCURS {||$C$L12||}     ; [] |583| 
    1639                    ;* --------------------------------------------------------------------------*
    1640 0000047c           ||$C$L8||:    
    1641                            .dwpsn  file "../hcg/source/HL_rti.c",line 584,column 7,is_stmt,isa 2
    1642 0000047c E59DC000          LDR       V9, [SP, #0]          ; [DPU_4_PIPE0] |584| 
    1643 00000480 E59CC098          LDR       V9, [V9, #152]        ; [DPU_4_PIPE0] |584| 
    1644 00000484 E31C0008          TST       V9, #8                ; [DPU_4_PIPE0] |584| 
    1645 00000488 0AFFFFFE!         BEQ       ||$C$L9||             ; [DPU_4_PIPE1] |584| 
    1646                            ; BRANCHCC OCCURS {||$C$L9||}    ; [] |584| 
    1647                    ;* --------------------------------------------------------------------------*
    1648                            .dwpsn  file "../hcg/source/HL_rti.c",line 586,column 3,is_stmt,isa 2
    1649 0000048c E3A0C003          MOV       V9, #3                ; [DPU_4_PIPE0] |586| 
    1650 00000490 E5CDC004          STRB      V9, [SP, #4]          ; [DPU_4_PIPE0] |586| 
TI ARM Assembler PC v16.9.0 Thu Feb 16 13:27:11 2017

Tools Copyright (c) 1996-2015 Texas Instruments Incorporated
C:\Users\bob\AppData\Local\Temp\1223210                              PAGE   31

    1651                            .dwpsn  file "../hcg/source/HL_rti.c",line 587,column 2,is_stmt,isa 2
    1652 00000494 EAFFFFFE!         B         ||$C$L12||            ; [DPU_4_PIPE1] |587| 
    1653                            ; BRANCH OCCURS {||$C$L12||}     ; [] |587| 
    1654                    ;* --------------------------------------------------------------------------*
    1655 00000498           ||$C$L9||:    
    1656                            .dwpsn  file "../hcg/source/HL_rti.c",line 588,column 7,is_stmt,isa 2
    1657 00000498 E59DC000          LDR       V9, [SP, #0]          ; [DPU_4_PIPE0] |588| 
    1658 0000049c E59CC098          LDR       V9, [V9, #152]        ; [DPU_4_PIPE0] |588| 
    1659 000004a0 E31C0010          TST       V9, #16               ; [DPU_4_PIPE0] |588| 
    1660 000004a4 0AFFFFFE!         BEQ       ||$C$L10||            ; [DPU_4_PIPE1] |588| 
    1661                            ; BRANCHCC OCCURS {||$C$L10||}   ; [] |588| 
    1662                    ;* --------------------------------------------------------------------------*
    1663                            .dwpsn  file "../hcg/source/HL_rti.c",line 590,column 3,is_stmt,isa 2
    1664 000004a8 E3A0C002          MOV       V9, #2                ; [DPU_4_PIPE0] |590| 
    1665 000004ac E5CDC004          STRB      V9, [SP, #4]          ; [DPU_4_PIPE0] |590| 
    1666                            .dwpsn  file "../hcg/source/HL_rti.c",line 591,column 2,is_stmt,isa 2
    1667 000004b0 EAFFFFFE!         B         ||$C$L12||            ; [DPU_4_PIPE1] |591| 
    1668                            ; BRANCH OCCURS {||$C$L12||}     ; [] |591| 
    1669                    ;* --------------------------------------------------------------------------*
    1670 000004b4           ||$C$L10||:    
    1671                            .dwpsn  file "../hcg/source/HL_rti.c",line 592,column 7,is_stmt,isa 2
    1672 000004b4 E59DC000          LDR       V9, [SP, #0]          ; [DPU_4_PIPE0] |592| 
    1673 000004b8 E59CC098          LDR       V9, [V9, #152]        ; [DPU_4_PIPE0] |592| 
    1674 000004bc E31C0020          TST       V9, #32               ; [DPU_4_PIPE0] |592| 
    1675 000004c0 0AFFFFFE!         BEQ       ||$C$L11||            ; [DPU_4_PIPE1] |592| 
    1676                            ; BRANCHCC OCCURS {||$C$L11||}   ; [] |592| 
    1677                    ;* --------------------------------------------------------------------------*
    1678                            .dwpsn  file "../hcg/source/HL_rti.c",line 594,column 3,is_stmt,isa 2
    1679 000004c4 E3A0C001          MOV       V9, #1                ; [DPU_4_PIPE0] |594| 
    1680 000004c8 E5CDC004          STRB      V9, [SP, #4]          ; [DPU_4_PIPE0] |594| 
    1681                            .dwpsn  file "../hcg/source/HL_rti.c",line 595,column 2,is_stmt,isa 2
    1682 000004cc EAFFFFFE!         B         ||$C$L12||            ; [DPU_4_PIPE1] |595| 
    1683                            ; BRANCH OCCURS {||$C$L12||}     ; [] |595| 
    1684                    ;* --------------------------------------------------------------------------*
    1685 000004d0           ||$C$L11||:    
    1686                            .dwpsn  file "../hcg/source/HL_rti.c",line 598,column 3,is_stmt,isa 2
    1687 000004d0 E3A0C000          MOV       V9, #0                ; [DPU_4_PIPE0] |598| 
    1688 000004d4 E5CDC004          STRB      V9, [SP, #4]          ; [DPU_4_PIPE0] |598| 
    1689                    ;* --------------------------------------------------------------------------*
    1690 000004d8           ||$C$L12||:    
    1691                            .dwpsn  file "../hcg/source/HL_rti.c",line 604,column 2,is_stmt,isa 2
    1692 000004d8 E5DD0004          LDRB      A1, [SP, #4]          ; [DPU_4_PIPE0] |604| 
    1693                            .dwpsn  file "../hcg/source/HL_rti.c",line 605,column 1,is_stmt,isa 2
    1694 000004dc E28DD008          ADD       SP, SP, #8            ; [DPU_4_PIPE0] 
    1695                            .dwcfi  cfa_offset, 0
    1696                    $C$DW$104       .dwtag  DW_TAG_TI_branch
    1697                            .dwattr $C$DW$104, DW_AT_low_pc(0x00)
    1698                            .dwattr $C$DW$104, DW_AT_TI_return
    1699                    
    1700 000004e0 E12FFF1E          BX        LR                    ; [DPU_4_PIPE1] 
    1701                            ; BRANCH OCCURS                  ; [] 
    1702                            .dwattr $C$DW$100, DW_AT_TI_end_file("../hcg/source/HL_rti.c")
    1703                            .dwattr $C$DW$100, DW_AT_TI_end_line(0x25d)
    1704                            .dwattr $C$DW$100, DW_AT_TI_end_column(0x01)
    1705                            .dwendentry
TI ARM Assembler PC v16.9.0 Thu Feb 16 13:27:11 2017

Tools Copyright (c) 1996-2015 Texas Instruments Incorporated
C:\Users\bob\AppData\Local\Temp\1223210                              PAGE   32

    1706                            .dwendtag $C$DW$100
    1707                    
    1708 000004e4                   .sect   ".text"
    1709                            .clink
    1710                            .armfunc rtiEnableNotification
    1711 000004e4                   .state32
    1712                            .global rtiEnableNotification
    1713                    
    1714                    $C$DW$105       .dwtag  DW_TAG_subprogram
    1715                            .dwattr $C$DW$105, DW_AT_name("rtiEnableNotification")
    1716                            .dwattr $C$DW$105, DW_AT_low_pc(rtiEnableNotification)
    1717                            .dwattr $C$DW$105, DW_AT_high_pc(0x00)
    1718                            .dwattr $C$DW$105, DW_AT_TI_symbol_name("rtiEnableNotification")
    1719                            .dwattr $C$DW$105, DW_AT_external
    1720                            .dwattr $C$DW$105, DW_AT_TI_begin_file("../hcg/source/HL_rti.c")
    1721                            .dwattr $C$DW$105, DW_AT_TI_begin_line(0x26f)
    1722                            .dwattr $C$DW$105, DW_AT_TI_begin_column(0x06)
    1723                            .dwattr $C$DW$105, DW_AT_decl_file("../hcg/source/HL_rti.c")
    1724                            .dwattr $C$DW$105, DW_AT_decl_line(0x26f)
    1725                            .dwattr $C$DW$105, DW_AT_decl_column(0x06)
    1726                            .dwattr $C$DW$105, DW_AT_TI_max_frame_size(0x08)
    1727                            .dwpsn  file "../hcg/source/HL_rti.c",line 624,column 1,is_stmt,address rtiEnableNotification,
    1728                    
    1729                            .dwfde $C$DW$CIE, rtiEnableNotification
    1730                    $C$DW$106       .dwtag  DW_TAG_formal_parameter
    1731                            .dwattr $C$DW$106, DW_AT_name("rtiREG")
    1732                            .dwattr $C$DW$106, DW_AT_TI_symbol_name("rtiREG")
    1733                            .dwattr $C$DW$106, DW_AT_type(*$C$DW$T$43)
    1734                            .dwattr $C$DW$106, DW_AT_location[DW_OP_reg0]
    1735                    
    1736                    $C$DW$107       .dwtag  DW_TAG_formal_parameter
    1737                            .dwattr $C$DW$107, DW_AT_name("notification")
    1738                            .dwattr $C$DW$107, DW_AT_TI_symbol_name("notification")
    1739                            .dwattr $C$DW$107, DW_AT_type(*$C$DW$T$20)
    1740                            .dwattr $C$DW$107, DW_AT_location[DW_OP_reg1]
    1741                    
    1742                    
    1743                    ;*****************************************************************************
    1744                    ;* FUNCTION NAME: rtiEnableNotification                                      *
    1745                    ;*                                                                           *
    1746                    ;*   Regs Modified     : A1,V9,SP                                            *
    1747                    ;*   Regs Used         : A1,A2,V9,SP,LR                                      *
    1748                    ;*   Local Frame Size  : 0 Args + 8 Auto + 0 Save = 8 byte                   *
    1749                    ;*****************************************************************************
    1750 000004e4           rtiEnableNotification:
    1751                    ;* --------------------------------------------------------------------------*
    1752                            .dwcfi  cfa_offset, 0
    1753 000004e4 E24DD008          SUB       SP, SP, #8            ; [DPU_4_PIPE0] 
    1754                            .dwcfi  cfa_offset, 8
    1755                    $C$DW$108       .dwtag  DW_TAG_variable
    1756                            .dwattr $C$DW$108, DW_AT_name("rtiREG")
    1757                            .dwattr $C$DW$108, DW_AT_TI_symbol_name("rtiREG")
    1758                            .dwattr $C$DW$108, DW_AT_type(*$C$DW$T$43)
    1759                            .dwattr $C$DW$108, DW_AT_location[DW_OP_breg13 0]
    1760                    
TI ARM Assembler PC v16.9.0 Thu Feb 16 13:27:11 2017

Tools Copyright (c) 1996-2015 Texas Instruments Incorporated
C:\Users\bob\AppData\Local\Temp\1223210                              PAGE   33

    1761                    $C$DW$109       .dwtag  DW_TAG_variable
    1762                            .dwattr $C$DW$109, DW_AT_name("notification")
    1763                            .dwattr $C$DW$109, DW_AT_TI_symbol_name("notification")
    1764                            .dwattr $C$DW$109, DW_AT_type(*$C$DW$T$20)
    1765                            .dwattr $C$DW$109, DW_AT_location[DW_OP_breg13 4]
    1766                    
    1767 000004e8 E58D1004          STR       A2, [SP, #4]          ; [DPU_4_PIPE0] |624| 
    1768 000004ec E58D0000          STR       A1, [SP, #0]          ; [DPU_4_PIPE0] |624| 
    1769                            .dwpsn  file "../hcg/source/HL_rti.c",line 628,column 5,is_stmt,isa 2
    1770 000004f0 E59D0000          LDR       A1, [SP, #0]          ; [DPU_4_PIPE0] |628| 
    1771 000004f4 E59DC004          LDR       V9, [SP, #4]          ; [DPU_4_PIPE0] |628| 
    1772 000004f8 E580C088          STR       V9, [A1, #136]        ; [DPU_4_PIPE0] |628| 
    1773                            .dwpsn  file "../hcg/source/HL_rti.c",line 629,column 5,is_stmt,isa 2
    1774 000004fc E59D0000          LDR       A1, [SP, #0]          ; [DPU_4_PIPE0] |629| 
    1775 00000500 E59DC004          LDR       V9, [SP, #4]          ; [DPU_4_PIPE0] |629| 
    1776 00000504 E580C080          STR       V9, [A1, #128]        ; [DPU_4_PIPE0] |629| 
    1777                            .dwpsn  file "../hcg/source/HL_rti.c",line 637,column 1,is_stmt,isa 2
    1778 00000508 E28DD008          ADD       SP, SP, #8            ; [DPU_4_PIPE0] 
    1779                            .dwcfi  cfa_offset, 0
    1780                    $C$DW$110       .dwtag  DW_TAG_TI_branch
    1781                            .dwattr $C$DW$110, DW_AT_low_pc(0x00)
    1782                            .dwattr $C$DW$110, DW_AT_TI_return
    1783                    
    1784 0000050c E12FFF1E          BX        LR                    ; [DPU_4_PIPE1] 
    1785                            ; BRANCH OCCURS                  ; [] 
    1786                            .dwattr $C$DW$105, DW_AT_TI_end_file("../hcg/source/HL_rti.c")
    1787                            .dwattr $C$DW$105, DW_AT_TI_end_line(0x27d)
    1788                            .dwattr $C$DW$105, DW_AT_TI_end_column(0x01)
    1789                            .dwendentry
    1790                            .dwendtag $C$DW$105
    1791                    
    1792 00000510                   .sect   ".text"
    1793                            .clink
    1794                            .armfunc rtiDisableNotification
    1795 00000510                   .state32
    1796                            .global rtiDisableNotification
    1797                    
    1798                    $C$DW$111       .dwtag  DW_TAG_subprogram
    1799                            .dwattr $C$DW$111, DW_AT_name("rtiDisableNotification")
    1800                            .dwattr $C$DW$111, DW_AT_low_pc(rtiDisableNotification)
    1801                            .dwattr $C$DW$111, DW_AT_high_pc(0x00)
    1802                            .dwattr $C$DW$111, DW_AT_TI_symbol_name("rtiDisableNotification")
    1803                            .dwattr $C$DW$111, DW_AT_external
    1804                            .dwattr $C$DW$111, DW_AT_TI_begin_file("../hcg/source/HL_rti.c")
    1805                            .dwattr $C$DW$111, DW_AT_TI_begin_line(0x28f)
    1806                            .dwattr $C$DW$111, DW_AT_TI_begin_column(0x06)
    1807                            .dwattr $C$DW$111, DW_AT_decl_file("../hcg/source/HL_rti.c")
    1808                            .dwattr $C$DW$111, DW_AT_decl_line(0x28f)
    1809                            .dwattr $C$DW$111, DW_AT_decl_column(0x06)
    1810                            .dwattr $C$DW$111, DW_AT_TI_max_frame_size(0x08)
    1811                            .dwpsn  file "../hcg/source/HL_rti.c",line 656,column 1,is_stmt,address rtiDisableNotification
    1812                    
    1813                            .dwfde $C$DW$CIE, rtiDisableNotification
    1814                    $C$DW$112       .dwtag  DW_TAG_formal_parameter
    1815                            .dwattr $C$DW$112, DW_AT_name("rtiREG")
TI ARM Assembler PC v16.9.0 Thu Feb 16 13:27:11 2017

Tools Copyright (c) 1996-2015 Texas Instruments Incorporated
C:\Users\bob\AppData\Local\Temp\1223210                              PAGE   34

    1816                            .dwattr $C$DW$112, DW_AT_TI_symbol_name("rtiREG")
    1817                            .dwattr $C$DW$112, DW_AT_type(*$C$DW$T$43)
    1818                            .dwattr $C$DW$112, DW_AT_location[DW_OP_reg0]
    1819                    
    1820                    $C$DW$113       .dwtag  DW_TAG_formal_parameter
    1821                            .dwattr $C$DW$113, DW_AT_name("notification")
    1822                            .dwattr $C$DW$113, DW_AT_TI_symbol_name("notification")
    1823                            .dwattr $C$DW$113, DW_AT_type(*$C$DW$T$20)
    1824                            .dwattr $C$DW$113, DW_AT_location[DW_OP_reg1]
    1825                    
    1826                    
    1827                    ;*****************************************************************************
    1828                    ;* FUNCTION NAME: rtiDisableNotification                                     *
    1829                    ;*                                                                           *
    1830                    ;*   Regs Modified     : A1,V9,SP                                            *
    1831                    ;*   Regs Used         : A1,A2,V9,SP,LR                                      *
    1832                    ;*   Local Frame Size  : 0 Args + 8 Auto + 0 Save = 8 byte                   *
    1833                    ;*****************************************************************************
    1834 00000510           rtiDisableNotification:
    1835                    ;* --------------------------------------------------------------------------*
    1836                            .dwcfi  cfa_offset, 0
    1837 00000510 E24DD008          SUB       SP, SP, #8            ; [DPU_4_PIPE0] 
    1838                            .dwcfi  cfa_offset, 8
    1839                    $C$DW$114       .dwtag  DW_TAG_variable
    1840                            .dwattr $C$DW$114, DW_AT_name("rtiREG")
    1841                            .dwattr $C$DW$114, DW_AT_TI_symbol_name("rtiREG")
    1842                            .dwattr $C$DW$114, DW_AT_type(*$C$DW$T$43)
    1843                            .dwattr $C$DW$114, DW_AT_location[DW_OP_breg13 0]
    1844                    
    1845                    $C$DW$115       .dwtag  DW_TAG_variable
    1846                            .dwattr $C$DW$115, DW_AT_name("notification")
    1847                            .dwattr $C$DW$115, DW_AT_TI_symbol_name("notification")
    1848                            .dwattr $C$DW$115, DW_AT_type(*$C$DW$T$20)
    1849                            .dwattr $C$DW$115, DW_AT_location[DW_OP_breg13 4]
    1850                    
    1851 00000514 E58D1004          STR       A2, [SP, #4]          ; [DPU_4_PIPE0] |656| 
    1852 00000518 E58D0000          STR       A1, [SP, #0]          ; [DPU_4_PIPE0] |656| 
    1853                            .dwpsn  file "../hcg/source/HL_rti.c",line 660,column 5,is_stmt,isa 2
    1854 0000051c E59D0000          LDR       A1, [SP, #0]          ; [DPU_4_PIPE0] |660| 
    1855 00000520 E59DC004          LDR       V9, [SP, #4]          ; [DPU_4_PIPE0] |660| 
    1856 00000524 E580C084          STR       V9, [A1, #132]        ; [DPU_4_PIPE0] |660| 
    1857                            .dwpsn  file "../hcg/source/HL_rti.c",line 668,column 1,is_stmt,isa 2
    1858 00000528 E28DD008          ADD       SP, SP, #8            ; [DPU_4_PIPE0] 
    1859                            .dwcfi  cfa_offset, 0
    1860                    $C$DW$116       .dwtag  DW_TAG_TI_branch
    1861                            .dwattr $C$DW$116, DW_AT_low_pc(0x00)
    1862                            .dwattr $C$DW$116, DW_AT_TI_return
    1863                    
    1864 0000052c E12FFF1E          BX        LR                    ; [DPU_4_PIPE1] 
    1865                            ; BRANCH OCCURS                  ; [] 
    1866                            .dwattr $C$DW$111, DW_AT_TI_end_file("../hcg/source/HL_rti.c")
    1867                            .dwattr $C$DW$111, DW_AT_TI_end_line(0x29c)
    1868                            .dwattr $C$DW$111, DW_AT_TI_end_column(0x01)
    1869                            .dwendentry
    1870                            .dwendtag $C$DW$111
TI ARM Assembler PC v16.9.0 Thu Feb 16 13:27:11 2017

Tools Copyright (c) 1996-2015 Texas Instruments Incorporated
C:\Users\bob\AppData\Local\Temp\1223210                              PAGE   35

    1871                    
    1872 00000530                   .sect   ".text"
    1873                            .clink
    1874                            .armfunc rtiGetConfigValue
    1875 00000530                   .state32
    1876                            .global rtiGetConfigValue
    1877                    
    1878                    $C$DW$117       .dwtag  DW_TAG_subprogram
    1879                            .dwattr $C$DW$117, DW_AT_name("rtiGetConfigValue")
    1880                            .dwattr $C$DW$117, DW_AT_low_pc(rtiGetConfigValue)
    1881                            .dwattr $C$DW$117, DW_AT_high_pc(0x00)
    1882                            .dwattr $C$DW$117, DW_AT_TI_symbol_name("rtiGetConfigValue")
    1883                            .dwattr $C$DW$117, DW_AT_external
    1884                            .dwattr $C$DW$117, DW_AT_TI_begin_file("../hcg/source/HL_rti.c")
    1885                            .dwattr $C$DW$117, DW_AT_TI_begin_line(0x2aa)
    1886                            .dwattr $C$DW$117, DW_AT_TI_begin_column(0x06)
    1887                            .dwattr $C$DW$117, DW_AT_decl_file("../hcg/source/HL_rti.c")
    1888                            .dwattr $C$DW$117, DW_AT_decl_line(0x2aa)
    1889                            .dwattr $C$DW$117, DW_AT_decl_column(0x06)
    1890                            .dwattr $C$DW$117, DW_AT_TI_max_frame_size(0x08)
    1891                            .dwpsn  file "../hcg/source/HL_rti.c",line 683,column 1,is_stmt,address rtiGetConfigValue,isa 
    1892                    
    1893                            .dwfde $C$DW$CIE, rtiGetConfigValue
    1894                    $C$DW$118       .dwtag  DW_TAG_formal_parameter
    1895                            .dwattr $C$DW$118, DW_AT_name("config_reg")
    1896                            .dwattr $C$DW$118, DW_AT_TI_symbol_name("config_reg")
    1897                            .dwattr $C$DW$118, DW_AT_type(*$C$DW$T$56)
    1898                            .dwattr $C$DW$118, DW_AT_location[DW_OP_reg0]
    1899                    
    1900                    $C$DW$119       .dwtag  DW_TAG_formal_parameter
    1901                            .dwattr $C$DW$119, DW_AT_name("type")
    1902                            .dwattr $C$DW$119, DW_AT_TI_symbol_name("type")
    1903                            .dwattr $C$DW$119, DW_AT_type(*$C$DW$T$58)
    1904                            .dwattr $C$DW$119, DW_AT_location[DW_OP_reg1]
    1905                    
    1906                    
    1907                    ;*****************************************************************************
    1908                    ;* FUNCTION NAME: rtiGetConfigValue                                          *
    1909                    ;*                                                                           *
    1910                    ;*   Regs Modified     : A1,V9,SP,SR                                         *
    1911                    ;*   Regs Used         : A1,A2,V9,SP,LR,SR                                   *
    1912                    ;*   Local Frame Size  : 0 Args + 8 Auto + 0 Save = 8 byte                   *
    1913                    ;*****************************************************************************
    1914 00000530           rtiGetConfigValue:
    1915                    ;* --------------------------------------------------------------------------*
    1916                            .dwcfi  cfa_offset, 0
    1917 00000530 E24DD008          SUB       SP, SP, #8            ; [DPU_4_PIPE0] 
    1918                            .dwcfi  cfa_offset, 8
    1919                    $C$DW$120       .dwtag  DW_TAG_variable
    1920                            .dwattr $C$DW$120, DW_AT_name("config_reg")
    1921                            .dwattr $C$DW$120, DW_AT_TI_symbol_name("config_reg")
    1922                            .dwattr $C$DW$120, DW_AT_type(*$C$DW$T$56)
    1923                            .dwattr $C$DW$120, DW_AT_location[DW_OP_breg13 0]
    1924                    
    1925                    $C$DW$121       .dwtag  DW_TAG_variable
TI ARM Assembler PC v16.9.0 Thu Feb 16 13:27:11 2017

Tools Copyright (c) 1996-2015 Texas Instruments Incorporated
C:\Users\bob\AppData\Local\Temp\1223210                              PAGE   36

    1926                            .dwattr $C$DW$121, DW_AT_name("type")
    1927                            .dwattr $C$DW$121, DW_AT_TI_symbol_name("type")
    1928                            .dwattr $C$DW$121, DW_AT_type(*$C$DW$T$58)
    1929                            .dwattr $C$DW$121, DW_AT_location[DW_OP_breg13 4]
    1930                    
    1931 00000534 E5CD1004          STRB      A2, [SP, #4]          ; [DPU_4_PIPE0] |683| 
    1932 00000538 E58D0000          STR       A1, [SP, #0]          ; [DPU_4_PIPE0] |683| 
    1933                            .dwpsn  file "../hcg/source/HL_rti.c",line 684,column 2,is_stmt,isa 2
    1934 0000053c E5DDC004          LDRB      V9, [SP, #4]          ; [DPU_4_PIPE0] |684| 
    1935 00000540 E35C0000          CMP       V9, #0                ; [DPU_4_PIPE0] |684| 
    1936 00000544 1AFFFFFE!         BNE       ||$C$L13||            ; [DPU_4_PIPE1] |684| 
    1937                            ; BRANCHCC OCCURS {||$C$L13||}   ; [] |684| 
    1938                    ;* --------------------------------------------------------------------------*
    1939                            .dwpsn  file "../hcg/source/HL_rti.c",line 686,column 3,is_stmt,isa 2
    1940 00000548 E59DC000          LDR       V9, [SP, #0]          ; [DPU_4_PIPE0] |686| 
    1941 0000054c E3A00805          MOV       A1, #327680           ; [DPU_4_PIPE0] |686| 
    1942 00000550 E58C0000          STR       A1, [V9, #0]          ; [DPU_4_PIPE0] |686| 
    1943                            .dwpsn  file "../hcg/source/HL_rti.c",line 687,column 3,is_stmt,isa 2
    1944 00000554 E59DC000          LDR       V9, [SP, #0]          ; [DPU_4_PIPE0] |687| 
    1945 00000558 E3A00000          MOV       A1, #0                ; [DPU_4_PIPE0] |687| 
    1946 0000055c E58C0004          STR       A1, [V9, #4]          ; [DPU_4_PIPE0] |687| 
    1947                            .dwpsn  file "../hcg/source/HL_rti.c",line 688,column 3,is_stmt,isa 2
    1948 00000560 E59DC000          LDR       V9, [SP, #0]          ; [DPU_4_PIPE0] |688| 
    1949 00000564 E3A00000          MOV       A1, #0                ; [DPU_4_PIPE0] |688| 
    1950 00000568 E58C0008          STR       A1, [V9, #8]          ; [DPU_4_PIPE0] |688| 
    1951                            .dwpsn  file "../hcg/source/HL_rti.c",line 689,column 3,is_stmt,isa 2
    1952 0000056c E59DC000          LDR       V9, [SP, #0]          ; [DPU_4_PIPE0] |689| 
    1953 00000570 E3A00000          MOV       A1, #0                ; [DPU_4_PIPE0] |689| 
    1954 00000574 E58C000C          STR       A1, [V9, #12]         ; [DPU_4_PIPE0] |689| 
    1955                            .dwpsn  file "../hcg/source/HL_rti.c",line 690,column 3,is_stmt,isa 2
    1956 00000578 E59DC000          LDR       V9, [SP, #0]          ; [DPU_4_PIPE0] |690| 
    1957 0000057c E3060DDD          MOV       A1, #28125            ; [DPU_4_PIPE0] |690| 
    1958 00000580 E58C0010          STR       A1, [V9, #16]         ; [DPU_4_PIPE0] |690| 
    1959                            .dwpsn  file "../hcg/source/HL_rti.c",line 691,column 3,is_stmt,isa 2
    1960 00000584 E59DC000          LDR       V9, [SP, #0]          ; [DPU_4_PIPE0] |691| 
    1961 00000588 E59F00D8          LDR       A1, $C$CON14          ; [DPU_4_PIPE0] |691| 
    1962 0000058c E58C0014          STR       A1, [V9, #20]         ; [DPU_4_PIPE0] |691| 
    1963                            .dwpsn  file "../hcg/source/HL_rti.c",line 692,column 3,is_stmt,isa 2
    1964 00000590 E59DC000          LDR       V9, [SP, #0]          ; [DPU_4_PIPE0] |692| 
    1965 00000594 E59F00D8          LDR       A1, $C$CON17          ; [DPU_4_PIPE0] |692| 
    1966 00000598 E58C0018          STR       A1, [V9, #24]         ; [DPU_4_PIPE0] |692| 
    1967                            .dwpsn  file "../hcg/source/HL_rti.c",line 693,column 3,is_stmt,isa 2
    1968 0000059c E59DC000          LDR       V9, [SP, #0]          ; [DPU_4_PIPE0] |693| 
    1969 000005a0 E59F00C0          LDR       A1, $C$CON14          ; [DPU_4_PIPE0] |693| 
    1970 000005a4 E58C001C          STR       A1, [V9, #28]         ; [DPU_4_PIPE0] |693| 
    1971                            .dwpsn  file "../hcg/source/HL_rti.c",line 694,column 2,is_stmt,isa 2
    1972 000005a8 EAFFFFFE!         B         ||$C$L14||            ; [DPU_4_PIPE1] |694| 
    1973                            ; BRANCH OCCURS {||$C$L14||}     ; [] |694| 
    1974                    ;* --------------------------------------------------------------------------*
    1975 000005ac           ||$C$L13||:    
    1976                            .dwpsn  file "../hcg/source/HL_rti.c",line 698,column 3,is_stmt,isa 2
    1977 000005ac E59FC080          LDR       V9, $C$CON1           ; [DPU_4_PIPE0] |698| 
    1978 000005b0 E59D0000          LDR       A1, [SP, #0]          ; [DPU_4_PIPE0] |698| 
    1979 000005b4 E59CC000          LDR       V9, [V9, #0]          ; [DPU_4_PIPE0] |698| 
    1980 000005b8 E580C000          STR       V9, [A1, #0]          ; [DPU_4_PIPE0] |698| 
TI ARM Assembler PC v16.9.0 Thu Feb 16 13:27:11 2017

Tools Copyright (c) 1996-2015 Texas Instruments Incorporated
C:\Users\bob\AppData\Local\Temp\1223210                              PAGE   37

    1981                            .dwpsn  file "../hcg/source/HL_rti.c",line 699,column 3,is_stmt,isa 2
    1982 000005bc E59FC074          LDR       V9, $C$CON2           ; [DPU_4_PIPE0] |699| 
    1983 000005c0 E59D0000          LDR       A1, [SP, #0]          ; [DPU_4_PIPE0] |699| 
    1984 000005c4 E59CC000          LDR       V9, [V9, #0]          ; [DPU_4_PIPE0] |699| 
    1985 000005c8 E580C004          STR       V9, [A1, #4]          ; [DPU_4_PIPE0] |699| 
    1986                            .dwpsn  file "../hcg/source/HL_rti.c",line 700,column 3,is_stmt,isa 2
    1987 000005cc E59FC068          LDR       V9, $C$CON3           ; [DPU_4_PIPE0] |700| 
    1988 000005d0 E59D0000          LDR       A1, [SP, #0]          ; [DPU_4_PIPE0] |700| 
    1989 000005d4 E59CC000          LDR       V9, [V9, #0]          ; [DPU_4_PIPE0] |700| 
    1990 000005d8 E580C008          STR       V9, [A1, #8]          ; [DPU_4_PIPE0] |700| 
    1991                            .dwpsn  file "../hcg/source/HL_rti.c",line 701,column 3,is_stmt,isa 2
    1992 000005dc E59FC05C          LDR       V9, $C$CON4           ; [DPU_4_PIPE0] |701| 
    1993 000005e0 E59D0000          LDR       A1, [SP, #0]          ; [DPU_4_PIPE0] |701| 
    1994 000005e4 E59CC000          LDR       V9, [V9, #0]          ; [DPU_4_PIPE0] |701| 
    1995 000005e8 E580C00C          STR       V9, [A1, #12]         ; [DPU_4_PIPE0] |701| 
    1996                            .dwpsn  file "../hcg/source/HL_rti.c",line 702,column 3,is_stmt,isa 2
    1997 000005ec E59FC06C          LDR       V9, $C$CON12          ; [DPU_4_PIPE0] |702| 
    1998 000005f0 E59D0000          LDR       A1, [SP, #0]          ; [DPU_4_PIPE0] |702| 
    1999 000005f4 E59CC000          LDR       V9, [V9, #0]          ; [DPU_4_PIPE0] |702| 
    2000 000005f8 E580C010          STR       V9, [A1, #16]         ; [DPU_4_PIPE0] |702| 
    2001                            .dwpsn  file "../hcg/source/HL_rti.c",line 703,column 3,is_stmt,isa 2
    2002 000005fc E59FC068          LDR       V9, $C$CON15          ; [DPU_4_PIPE0] |703| 
    2003 00000600 E59D0000          LDR       A1, [SP, #0]          ; [DPU_4_PIPE0] |703| 
    2004 00000604 E59CC000          LDR       V9, [V9, #0]          ; [DPU_4_PIPE0] |703| 
    2005 00000608 E580C014          STR       V9, [A1, #20]         ; [DPU_4_PIPE0] |703| 
    2006                            .dwpsn  file "../hcg/source/HL_rti.c",line 704,column 3,is_stmt,isa 2
    2007 0000060c E59FC064          LDR       V9, $C$CON18          ; [DPU_4_PIPE0] |704| 
    2008 00000610 E59D0000          LDR       A1, [SP, #0]          ; [DPU_4_PIPE0] |704| 
    2009 00000614 E59CC000          LDR       V9, [V9, #0]          ; [DPU_4_PIPE0] |704| 
    2010 00000618 E580C018          STR       V9, [A1, #24]         ; [DPU_4_PIPE0] |704| 
    2011                            .dwpsn  file "../hcg/source/HL_rti.c",line 705,column 3,is_stmt,isa 2
    2012 0000061c E59FC05C          LDR       V9, $C$CON20          ; [DPU_4_PIPE0] |705| 
    2013 00000620 E59D0000          LDR       A1, [SP, #0]          ; [DPU_4_PIPE0] |705| 
    2014 00000624 E59CC000          LDR       V9, [V9, #0]          ; [DPU_4_PIPE0] |705| 
    2015 00000628 E580C01C          STR       V9, [A1, #28]         ; [DPU_4_PIPE0] |705| 
    2016                            .dwpsn  file "../hcg/source/HL_rti.c",line 707,column 1,is_stmt,isa 2
    2017                    ;* --------------------------------------------------------------------------*
    2018 0000062c           ||$C$L14||:    
    2019 0000062c E28DD008          ADD       SP, SP, #8            ; [DPU_4_PIPE0] 
    2020                            .dwcfi  cfa_offset, 0
    2021                    $C$DW$122       .dwtag  DW_TAG_TI_branch
    2022                            .dwattr $C$DW$122, DW_AT_low_pc(0x00)
    2023                            .dwattr $C$DW$122, DW_AT_TI_return
    2024                    
    2025 00000630 E12FFF1E          BX        LR                    ; [DPU_4_PIPE1] 
    2026                            ; BRANCH OCCURS                  ; [] 
    2027                            .dwattr $C$DW$117, DW_AT_TI_end_file("../hcg/source/HL_rti.c")
    2028                            .dwattr $C$DW$117, DW_AT_TI_end_line(0x2c3)
    2029                            .dwattr $C$DW$117, DW_AT_TI_end_column(0x01)
    2030                            .dwendentry
    2031                            .dwendtag $C$DW$117
    2032                    
    2033 00000000                   .sect   ".text:retain"
    2034                            .retain
    2035                            .retainrefs
TI ARM Assembler PC v16.9.0 Thu Feb 16 13:27:11 2017

Tools Copyright (c) 1996-2015 Texas Instruments Incorporated
C:\Users\bob\AppData\Local\Temp\1223210                              PAGE   38

    2036                            .armfunc rtiCompare0Interrupt
    2037 00000000                   .state32
    2038                            .global rtiCompare0Interrupt
    2039                    
    2040                    $C$DW$123       .dwtag  DW_TAG_subprogram
    2041                            .dwattr $C$DW$123, DW_AT_name("rtiCompare0Interrupt")
    2042                            .dwattr $C$DW$123, DW_AT_low_pc(rtiCompare0Interrupt)
    2043                            .dwattr $C$DW$123, DW_AT_high_pc(0x00)
    2044                            .dwattr $C$DW$123, DW_AT_TI_symbol_name("rtiCompare0Interrupt")
    2045                            .dwattr $C$DW$123, DW_AT_external
    2046                            .dwattr $C$DW$123, DW_AT_TI_begin_file("../hcg/source/HL_rti.c")
    2047                            .dwattr $C$DW$123, DW_AT_TI_begin_line(0x2d1)
    2048                            .dwattr $C$DW$123, DW_AT_TI_begin_column(0x06)
    2049                            .dwattr $C$DW$123, DW_AT_decl_file("../hcg/source/HL_rti.c")
    2050                            .dwattr $C$DW$123, DW_AT_decl_line(0x2d1)
    2051                            .dwattr $C$DW$123, DW_AT_decl_column(0x06)
    2052                            .dwattr $C$DW$123, DW_AT_TI_interrupt
    2053                            .dwattr $C$DW$123, DW_AT_TI_max_frame_size(0x10)
    2054                            .dwpsn  file "../hcg/source/HL_rti.c",line 722,column 1,is_stmt,address rtiCompare0Interrupt,i
    2055                    
    2056                            .dwfde $C$DW$CIE, rtiCompare0Interrupt
    2057                    
    2058                    ;*****************************************************************************
    2059                    ;* FUNCTION NAME: rtiCompare0Interrupt                                       *
    2060                    ;*                                                                           *
    2061                    ;*   Regs Modified     : A1,V9,SP,LR,SR                                      *
    2062                    ;*   Regs Used         : A1,V9,SP,LR,SR                                      *
    2063                    ;*   Local Frame Size  : 0 Args + 0 Auto + 12 Save = 12 byte                 *
    2064                    ;*****************************************************************************
    2065 00000000           rtiCompare0Interrupt:
    2066                    ;* --------------------------------------------------------------------------*
    2067                            .dwcfi  cfa_offset, 0
    2068 00000000 E92D5001          STMFD     SP!, {A1, V9, LR}     ; [DPU_4_PIPE0] 
    2069                            .dwcfi  cfa_offset, 12
    2070                            .dwcfi  save_reg_to_mem, 14, -4
    2071                            .dwcfi  save_reg_to_mem, 12, -8
    2072                            .dwcfi  save_reg_to_mem, 0, -12
    2073 00000004 E24DD004          SUB       SP, SP, #4            ; [DPU_4_PIPE0] 
    2074                            .dwcfi  cfa_offset, 16
    2075                            .dwpsn  file "../hcg/source/HL_rti.c",line 726,column 5,is_stmt,isa 2
    2076 00000008 E59F0070          LDR       A1, $C$CON26          ; [DPU_4_PIPE0] |726| 
    2077 0000000c E3A0C001          MOV       V9, #1                ; [DPU_4_PIPE0] |726| 
    2078 00000010 E580C000          STR       V9, [A1, #0]          ; [DPU_4_PIPE0] |726| 
    2079                            .dwpsn  file "../hcg/source/HL_rti.c",line 731,column 1,is_stmt,isa 2
    2080 00000014 E28DD004          ADD       SP, SP, #4            ; [DPU_4_PIPE0] 
    2081                            .dwcfi  cfa_offset, 12
    2082 00000018 E8BD5001          LDMFD     SP!, {A1, V9, LR}     ; [DPU_4_PIPE0] 
    2083                            .dwcfi  cfa_offset, 0
    2084                            .dwcfi  restore_reg, 14
    2085                            .dwcfi  restore_reg, 12
    2086                            .dwcfi  restore_reg, 0
    2087                    $C$DW$124       .dwtag  DW_TAG_TI_branch
    2088                            .dwattr $C$DW$124, DW_AT_low_pc(0x00)
    2089                            .dwattr $C$DW$124, DW_AT_TI_return
    2090                    
TI ARM Assembler PC v16.9.0 Thu Feb 16 13:27:11 2017

Tools Copyright (c) 1996-2015 Texas Instruments Incorporated
C:\Users\bob\AppData\Local\Temp\1223210                              PAGE   39

    2091 0000001c E25EF004          SUBS      PC, LR, #4            ; [DPU_4_PIPE1] 
    2092                            ; BRANCH OCCURS                  ; [] 
    2093                            .dwattr $C$DW$123, DW_AT_TI_end_file("../hcg/source/HL_rti.c")
    2094                            .dwattr $C$DW$123, DW_AT_TI_end_line(0x2db)
    2095                            .dwattr $C$DW$123, DW_AT_TI_end_column(0x01)
    2096                            .dwendentry
    2097                            .dwendtag $C$DW$123
    2098                    
    2099 00000020                   .sect   ".text:retain"
    2100                            .retain
    2101                            .retainrefs
    2102                            .armfunc rtiCompare1Interrupt
    2103 00000020                   .state32
    2104                            .global rtiCompare1Interrupt
    2105                    
    2106                    $C$DW$125       .dwtag  DW_TAG_subprogram
    2107                            .dwattr $C$DW$125, DW_AT_name("rtiCompare1Interrupt")
    2108                            .dwattr $C$DW$125, DW_AT_low_pc(rtiCompare1Interrupt)
    2109                            .dwattr $C$DW$125, DW_AT_high_pc(0x00)
    2110                            .dwattr $C$DW$125, DW_AT_TI_symbol_name("rtiCompare1Interrupt")
    2111                            .dwattr $C$DW$125, DW_AT_external
    2112                            .dwattr $C$DW$125, DW_AT_TI_begin_file("../hcg/source/HL_rti.c")
    2113                            .dwattr $C$DW$125, DW_AT_TI_begin_line(0x2e9)
    2114                            .dwattr $C$DW$125, DW_AT_TI_begin_column(0x06)
    2115                            .dwattr $C$DW$125, DW_AT_decl_file("../hcg/source/HL_rti.c")
    2116                            .dwattr $C$DW$125, DW_AT_decl_line(0x2e9)
    2117                            .dwattr $C$DW$125, DW_AT_decl_column(0x06)
    2118                            .dwattr $C$DW$125, DW_AT_TI_interrupt
    2119                            .dwattr $C$DW$125, DW_AT_TI_max_frame_size(0x10)
    2120                            .dwpsn  file "../hcg/source/HL_rti.c",line 746,column 1,is_stmt,address rtiCompare1Interrupt,i
    2121                    
    2122                            .dwfde $C$DW$CIE, rtiCompare1Interrupt
    2123                    
    2124                    ;*****************************************************************************
    2125                    ;* FUNCTION NAME: rtiCompare1Interrupt                                       *
    2126                    ;*                                                                           *
    2127                    ;*   Regs Modified     : A1,V9,SP,LR,SR                                      *
    2128                    ;*   Regs Used         : A1,V9,SP,LR,SR                                      *
    2129                    ;*   Local Frame Size  : 0 Args + 0 Auto + 12 Save = 12 byte                 *
    2130                    ;*****************************************************************************
    2131 00000020           rtiCompare1Interrupt:
    2132                    ;* --------------------------------------------------------------------------*
    2133                            .dwcfi  cfa_offset, 0
    2134 00000020 E92D5001          STMFD     SP!, {A1, V9, LR}     ; [DPU_4_PIPE0] 
    2135                            .dwcfi  cfa_offset, 12
    2136                            .dwcfi  save_reg_to_mem, 14, -4
    2137                            .dwcfi  save_reg_to_mem, 12, -8
    2138                            .dwcfi  save_reg_to_mem, 0, -12
    2139 00000024 E24DD004          SUB       SP, SP, #4            ; [DPU_4_PIPE0] 
    2140                            .dwcfi  cfa_offset, 16
    2141                            .dwpsn  file "../hcg/source/HL_rti.c",line 750,column 5,is_stmt,isa 2
    2142 00000028 E59F0050          LDR       A1, $C$CON26          ; [DPU_4_PIPE0] |750| 
    2143 0000002c E3A0C002          MOV       V9, #2                ; [DPU_4_PIPE0] |750| 
    2144 00000030 E580C000          STR       V9, [A1, #0]          ; [DPU_4_PIPE0] |750| 
    2145                            .dwpsn  file "../hcg/source/HL_rti.c",line 755,column 1,is_stmt,isa 2
TI ARM Assembler PC v16.9.0 Thu Feb 16 13:27:11 2017

Tools Copyright (c) 1996-2015 Texas Instruments Incorporated
C:\Users\bob\AppData\Local\Temp\1223210                              PAGE   40

    2146 00000034 E28DD004          ADD       SP, SP, #4            ; [DPU_4_PIPE0] 
    2147                            .dwcfi  cfa_offset, 12
    2148 00000038 E8BD5001          LDMFD     SP!, {A1, V9, LR}     ; [DPU_4_PIPE0] 
    2149                            .dwcfi  cfa_offset, 0
    2150                            .dwcfi  restore_reg, 14
    2151                            .dwcfi  restore_reg, 12
    2152                            .dwcfi  restore_reg, 0
    2153                    $C$DW$126       .dwtag  DW_TAG_TI_branch
    2154                            .dwattr $C$DW$126, DW_AT_low_pc(0x00)
    2155                            .dwattr $C$DW$126, DW_AT_TI_return
    2156                    
    2157 0000003c E25EF004          SUBS      PC, LR, #4            ; [DPU_4_PIPE1] 
    2158                            ; BRANCH OCCURS                  ; [] 
    2159                            .dwattr $C$DW$125, DW_AT_TI_end_file("../hcg/source/HL_rti.c")
    2160                            .dwattr $C$DW$125, DW_AT_TI_end_line(0x2f3)
    2161                            .dwattr $C$DW$125, DW_AT_TI_end_column(0x01)
    2162                            .dwendentry
    2163                            .dwendtag $C$DW$125
    2164                    
    2165 00000040                   .sect   ".text:retain"
    2166                            .retain
    2167                            .retainrefs
    2168                            .armfunc rtiCompare2Interrupt
    2169 00000040                   .state32
    2170                            .global rtiCompare2Interrupt
    2171                    
    2172                    $C$DW$127       .dwtag  DW_TAG_subprogram
    2173                            .dwattr $C$DW$127, DW_AT_name("rtiCompare2Interrupt")
    2174                            .dwattr $C$DW$127, DW_AT_low_pc(rtiCompare2Interrupt)
    2175                            .dwattr $C$DW$127, DW_AT_high_pc(0x00)
    2176                            .dwattr $C$DW$127, DW_AT_TI_symbol_name("rtiCompare2Interrupt")
    2177                            .dwattr $C$DW$127, DW_AT_external
    2178                            .dwattr $C$DW$127, DW_AT_TI_begin_file("../hcg/source/HL_rti.c")
    2179                            .dwattr $C$DW$127, DW_AT_TI_begin_line(0x302)
    2180                            .dwattr $C$DW$127, DW_AT_TI_begin_column(0x06)
    2181                            .dwattr $C$DW$127, DW_AT_decl_file("../hcg/source/HL_rti.c")
    2182                            .dwattr $C$DW$127, DW_AT_decl_line(0x302)
    2183                            .dwattr $C$DW$127, DW_AT_decl_column(0x06)
    2184                            .dwattr $C$DW$127, DW_AT_TI_interrupt
    2185                            .dwattr $C$DW$127, DW_AT_TI_max_frame_size(0x10)
    2186                            .dwpsn  file "../hcg/source/HL_rti.c",line 771,column 1,is_stmt,address rtiCompare2Interrupt,i
    2187                    
    2188                            .dwfde $C$DW$CIE, rtiCompare2Interrupt
    2189                    
    2190                    ;*****************************************************************************
    2191                    ;* FUNCTION NAME: rtiCompare2Interrupt                                       *
    2192                    ;*                                                                           *
    2193                    ;*   Regs Modified     : A1,V9,SP,LR,SR                                      *
    2194                    ;*   Regs Used         : A1,V9,SP,LR,SR                                      *
    2195                    ;*   Local Frame Size  : 0 Args + 0 Auto + 12 Save = 12 byte                 *
    2196                    ;*****************************************************************************
    2197 00000040           rtiCompare2Interrupt:
    2198                    ;* --------------------------------------------------------------------------*
    2199                            .dwcfi  cfa_offset, 0
    2200 00000040 E92D5001          STMFD     SP!, {A1, V9, LR}     ; [DPU_4_PIPE0] 
TI ARM Assembler PC v16.9.0 Thu Feb 16 13:27:11 2017

Tools Copyright (c) 1996-2015 Texas Instruments Incorporated
C:\Users\bob\AppData\Local\Temp\1223210                              PAGE   41

    2201                            .dwcfi  cfa_offset, 12
    2202                            .dwcfi  save_reg_to_mem, 14, -4
    2203                            .dwcfi  save_reg_to_mem, 12, -8
    2204                            .dwcfi  save_reg_to_mem, 0, -12
    2205 00000044 E24DD004          SUB       SP, SP, #4            ; [DPU_4_PIPE0] 
    2206                            .dwcfi  cfa_offset, 16
    2207                            .dwpsn  file "../hcg/source/HL_rti.c",line 775,column 5,is_stmt,isa 2
    2208 00000048 E59F0030          LDR       A1, $C$CON26          ; [DPU_4_PIPE0] |775| 
    2209 0000004c E3A0C004          MOV       V9, #4                ; [DPU_4_PIPE0] |775| 
    2210 00000050 E580C000          STR       V9, [A1, #0]          ; [DPU_4_PIPE0] |775| 
    2211                            .dwpsn  file "../hcg/source/HL_rti.c",line 780,column 1,is_stmt,isa 2
    2212 00000054 E28DD004          ADD       SP, SP, #4            ; [DPU_4_PIPE0] 
    2213                            .dwcfi  cfa_offset, 12
    2214 00000058 E8BD5001          LDMFD     SP!, {A1, V9, LR}     ; [DPU_4_PIPE0] 
    2215                            .dwcfi  cfa_offset, 0
    2216                            .dwcfi  restore_reg, 14
    2217                            .dwcfi  restore_reg, 12
    2218                            .dwcfi  restore_reg, 0
    2219                    $C$DW$128       .dwtag  DW_TAG_TI_branch
    2220                            .dwattr $C$DW$128, DW_AT_low_pc(0x00)
    2221                            .dwattr $C$DW$128, DW_AT_TI_return
    2222                    
    2223 0000005c E25EF004          SUBS      PC, LR, #4            ; [DPU_4_PIPE1] 
    2224                            ; BRANCH OCCURS                  ; [] 
    2225                            .dwattr $C$DW$127, DW_AT_TI_end_file("../hcg/source/HL_rti.c")
    2226                            .dwattr $C$DW$127, DW_AT_TI_end_line(0x30c)
    2227                            .dwattr $C$DW$127, DW_AT_TI_end_column(0x01)
    2228                            .dwendentry
    2229                            .dwendtag $C$DW$127
    2230                    
    2231 00000060                   .sect   ".text:retain"
    2232                            .retain
    2233                            .retainrefs
    2234                            .armfunc rtiCompare3Interrupt
    2235 00000060                   .state32
    2236                            .global rtiCompare3Interrupt
    2237                    
    2238                    $C$DW$129       .dwtag  DW_TAG_subprogram
    2239                            .dwattr $C$DW$129, DW_AT_name("rtiCompare3Interrupt")
    2240                            .dwattr $C$DW$129, DW_AT_low_pc(rtiCompare3Interrupt)
    2241                            .dwattr $C$DW$129, DW_AT_high_pc(0x00)
    2242                            .dwattr $C$DW$129, DW_AT_TI_symbol_name("rtiCompare3Interrupt")
    2243                            .dwattr $C$DW$129, DW_AT_external
    2244                            .dwattr $C$DW$129, DW_AT_TI_begin_file("../hcg/source/HL_rti.c")
    2245                            .dwattr $C$DW$129, DW_AT_TI_begin_line(0x31b)
    2246                            .dwattr $C$DW$129, DW_AT_TI_begin_column(0x06)
    2247                            .dwattr $C$DW$129, DW_AT_decl_file("../hcg/source/HL_rti.c")
    2248                            .dwattr $C$DW$129, DW_AT_decl_line(0x31b)
    2249                            .dwattr $C$DW$129, DW_AT_decl_column(0x06)
    2250                            .dwattr $C$DW$129, DW_AT_TI_interrupt
    2251                            .dwattr $C$DW$129, DW_AT_TI_max_frame_size(0x10)
    2252                            .dwpsn  file "../hcg/source/HL_rti.c",line 796,column 1,is_stmt,address rtiCompare3Interrupt,i
    2253                    
    2254                            .dwfde $C$DW$CIE, rtiCompare3Interrupt
    2255                    
TI ARM Assembler PC v16.9.0 Thu Feb 16 13:27:11 2017

Tools Copyright (c) 1996-2015 Texas Instruments Incorporated
C:\Users\bob\AppData\Local\Temp\1223210                              PAGE   42

    2256                    ;*****************************************************************************
    2257                    ;* FUNCTION NAME: rtiCompare3Interrupt                                       *
    2258                    ;*                                                                           *
    2259                    ;*   Regs Modified     : A1,V9,SP,LR,SR                                      *
    2260                    ;*   Regs Used         : A1,V9,SP,LR,SR                                      *
    2261                    ;*   Local Frame Size  : 0 Args + 0 Auto + 12 Save = 12 byte                 *
    2262                    ;*****************************************************************************
    2263 00000060           rtiCompare3Interrupt:
    2264                    ;* --------------------------------------------------------------------------*
    2265                            .dwcfi  cfa_offset, 0
    2266 00000060 E92D5001          STMFD     SP!, {A1, V9, LR}     ; [DPU_4_PIPE0] 
    2267                            .dwcfi  cfa_offset, 12
    2268                            .dwcfi  save_reg_to_mem, 14, -4
    2269                            .dwcfi  save_reg_to_mem, 12, -8
    2270                            .dwcfi  save_reg_to_mem, 0, -12
    2271 00000064 E24DD004          SUB       SP, SP, #4            ; [DPU_4_PIPE0] 
    2272                            .dwcfi  cfa_offset, 16
    2273                            .dwpsn  file "../hcg/source/HL_rti.c",line 800,column 5,is_stmt,isa 2
    2274 00000068 E59F0010          LDR       A1, $C$CON26          ; [DPU_4_PIPE0] |800| 
    2275 0000006c E3A0C008          MOV       V9, #8                ; [DPU_4_PIPE0] |800| 
    2276 00000070 E580C000          STR       V9, [A1, #0]          ; [DPU_4_PIPE0] |800| 
    2277                            .dwpsn  file "../hcg/source/HL_rti.c",line 805,column 1,is_stmt,isa 2
    2278 00000074 E28DD004          ADD       SP, SP, #4            ; [DPU_4_PIPE0] 
    2279                            .dwcfi  cfa_offset, 12
    2280 00000078 E8BD5001          LDMFD     SP!, {A1, V9, LR}     ; [DPU_4_PIPE0] 
    2281                            .dwcfi  cfa_offset, 0
    2282                            .dwcfi  restore_reg, 14
    2283                            .dwcfi  restore_reg, 12
    2284                            .dwcfi  restore_reg, 0
    2285                    $C$DW$130       .dwtag  DW_TAG_TI_branch
    2286                            .dwattr $C$DW$130, DW_AT_low_pc(0x00)
    2287                            .dwattr $C$DW$130, DW_AT_TI_return
    2288                    
    2289 0000007c E25EF004          SUBS      PC, LR, #4            ; [DPU_4_PIPE1] 
    2290                            ; BRANCH OCCURS                  ; [] 
    2291                            .dwattr $C$DW$129, DW_AT_TI_end_file("../hcg/source/HL_rti.c")
    2292                            .dwattr $C$DW$129, DW_AT_TI_end_line(0x325)
    2293                            .dwattr $C$DW$129, DW_AT_TI_end_column(0x01)
    2294                            .dwendentry
    2295                            .dwendtag $C$DW$129
    2296                    
    2297                    ;******************************************************************************
    2298                    ;* CONSTANT TABLE                                                             *
    2299                    ;******************************************************************************
    2300 00000634                   .sect   ".text"
    2301                            .align  4
    2302 00000634 FFFFFC00  ||$C$CON1||:    .bits   -1024,32
    2303                            .align  4
    2304 00000638 FFFFFC04  ||$C$CON2||:    .bits   -1020,32
    2305                            .align  4
    2306 0000063c FFFFFC08  ||$C$CON3||:    .bits   -1016,32
    2307                            .align  4
    2308 00000640 FFFFFC0C  ||$C$CON4||:    .bits   -1012,32
    2309                            .align  4
    2310 00000644 FFFFFC14  ||$C$CON5||:    .bits   -1004,32
TI ARM Assembler PC v16.9.0 Thu Feb 16 13:27:11 2017

Tools Copyright (c) 1996-2015 Texas Instruments Incorporated
C:\Users\bob\AppData\Local\Temp\1223210                              PAGE   43

    2311                            .align  4
    2312 00000648 FFFFFC10  ||$C$CON6||:    .bits   -1008,32
    2313                            .align  4
    2314 0000064c FFFFFC18  ||$C$CON7||:    .bits   -1000,32
    2315                            .align  4
    2316 00000650 FFFFFC34  ||$C$CON8||:    .bits   -972,32
    2317                            .align  4
    2318 00000654 FFFFFC30  ||$C$CON9||:    .bits   -976,32
    2319                            .align  4
    2320 00000658 FFFFFC38  ||$C$CON10||:   .bits   -968,32
    2321                            .align  4
    2322 0000065c FFFFFC50  ||$C$CON11||:   .bits   -944,32
    2323                            .align  4
    2324 00000660 FFFFFC54  ||$C$CON12||:   .bits   -940,32
    2325                            .align  4
    2326 00000664 FFFFFC58  ||$C$CON13||:   .bits   -936,32
    2327                            .align  4
    2328 00000668 02CB4178  ||$C$CON14||:   .bits   46875000,32
    2329                            .align  4
    2330 0000066c FFFFFC5C  ||$C$CON15||:   .bits   -932,32
    2331                            .align  4
    2332 00000670 FFFFFC60  ||$C$CON16||:   .bits   -928,32
    2333                            .align  4
    2334 00000674 0047868C  ||$C$CON17||:   .bits   4687500,32
    2335                            .align  4
    2336 00000678 FFFFFC64  ||$C$CON18||:   .bits   -924,32
    2337                            .align  4
    2338 0000067c FFFFFC68  ||$C$CON19||:   .bits   -920,32
    2339                            .align  4
    2340 00000680 FFFFFC6C  ||$C$CON20||:   .bits   -916,32
    2341                            .align  4
    2342 00000684 FFFFFC88  ||$C$CON21||:   .bits   -888,32
    2343                            .align  4
    2344 00000688 0007000F  ||$C$CON22||:   .bits   458767,32
    2345                            .align  4
    2346 0000068c FFFFFC84  ||$C$CON23||:   .bits   -892,32
    2347                            .align  4
    2348 00000690 00070F0F  ||$C$CON24||:   .bits   462607,32
    2349                            .align  4
    2350 00000694 A98559DA  ||$C$CON25||:   .bits   -1450878502,32
    2351                    ;******************************************************************************
    2352                    ;* CONSTANT TABLE                                                             *
    2353                    ;******************************************************************************
    2354 00000080                   .sect   ".text:retain"
    2355                            .align  4
    2356 00000080 FFFFFC88  ||$C$CON26||:   .bits   -888,32
    2357                    
    2358                    ;******************************************************************************
    2359                    ;* BUILD ATTRIBUTES                                                           *
    2360                    ;******************************************************************************
    2361                            .battr "aeabi", Tag_File, 1, Tag_ABI_PCS_wchar_t(2)
    2362                            .battr "aeabi", Tag_File, 1, Tag_ABI_FP_rounding(0)
    2363                            .battr "aeabi", Tag_File, 1, Tag_ABI_FP_denormal(0)
    2364                            .battr "aeabi", Tag_File, 1, Tag_ABI_FP_exceptions(0)
    2365                            .battr "aeabi", Tag_File, 1, Tag_ABI_FP_number_model(1)
TI ARM Assembler PC v16.9.0 Thu Feb 16 13:27:11 2017

Tools Copyright (c) 1996-2015 Texas Instruments Incorporated
C:\Users\bob\AppData\Local\Temp\1223210                              PAGE   44

    2366                            .battr "aeabi", Tag_File, 1, Tag_ABI_enum_size(1)
    2367                            .battr "aeabi", Tag_File, 1, Tag_ABI_optimization_goals(5)
    2368                            .battr "aeabi", Tag_File, 1, Tag_ABI_FP_optimization_goals(0)
    2369                            .battr "TI", Tag_File, 1, Tag_Bitfield_layout(2)
    2370                            .battr "aeabi", Tag_File, 1, Tag_ABI_VFP_args(3)
    2371                            .battr "TI", Tag_File, 1, Tag_FP_interface(1)
    2372                    
    2373                    ;******************************************************************************
    2374                    ;* TYPE INFORMATION                                                           *
    2375                    ;******************************************************************************
    2376                    
    2377                    $C$DW$T$22      .dwtag  DW_TAG_structure_type
    2378                            .dwattr $C$DW$T$22, DW_AT_byte_size(0x20)
    2379                    $C$DW$131       .dwtag  DW_TAG_member
    2380                            .dwattr $C$DW$131, DW_AT_type(*$C$DW$T$20)
    2381                            .dwattr $C$DW$131, DW_AT_name("FRCx")
    2382                            .dwattr $C$DW$131, DW_AT_TI_symbol_name("FRCx")
    2383                            .dwattr $C$DW$131, DW_AT_data_member_location[DW_OP_plus_uconst 0x0]
    2384                            .dwattr $C$DW$131, DW_AT_accessibility(DW_ACCESS_public)
    2385                            .dwattr $C$DW$131, DW_AT_decl_file("C:\Users\bob\Documents\Projects\induct_forge\RM57Lx_test\P
    2386                            .dwattr $C$DW$131, DW_AT_decl_line(0x4e)
    2387                            .dwattr $C$DW$131, DW_AT_decl_column(0x10)
    2388                    
    2389                    $C$DW$132       .dwtag  DW_TAG_member
    2390                            .dwattr $C$DW$132, DW_AT_type(*$C$DW$T$20)
    2391                            .dwattr $C$DW$132, DW_AT_name("UCx")
    2392                            .dwattr $C$DW$132, DW_AT_TI_symbol_name("UCx")
    2393                            .dwattr $C$DW$132, DW_AT_data_member_location[DW_OP_plus_uconst 0x4]
    2394                            .dwattr $C$DW$132, DW_AT_accessibility(DW_ACCESS_public)
    2395                            .dwattr $C$DW$132, DW_AT_decl_file("C:\Users\bob\Documents\Projects\induct_forge\RM57Lx_test\P
    2396                            .dwattr $C$DW$132, DW_AT_decl_line(0x4f)
    2397                            .dwattr $C$DW$132, DW_AT_decl_column(0x10)
    2398                    
    2399                    $C$DW$133       .dwtag  DW_TAG_member
    2400                            .dwattr $C$DW$133, DW_AT_type(*$C$DW$T$20)
    2401                            .dwattr $C$DW$133, DW_AT_name("CPUCx")
    2402                            .dwattr $C$DW$133, DW_AT_TI_symbol_name("CPUCx")
    2403                            .dwattr $C$DW$133, DW_AT_data_member_location[DW_OP_plus_uconst 0x8]
    2404                            .dwattr $C$DW$133, DW_AT_accessibility(DW_ACCESS_public)
    2405                            .dwattr $C$DW$133, DW_AT_decl_file("C:\Users\bob\Documents\Projects\induct_forge\RM57Lx_test\P
    2406                            .dwattr $C$DW$133, DW_AT_decl_line(0x50)
    2407                            .dwattr $C$DW$133, DW_AT_decl_column(0x10)
    2408                    
    2409                    $C$DW$134       .dwtag  DW_TAG_member
    2410                            .dwattr $C$DW$134, DW_AT_type(*$C$DW$T$20)
    2411                            .dwattr $C$DW$134, DW_AT_name("rsvd1")
    2412                            .dwattr $C$DW$134, DW_AT_TI_symbol_name("rsvd1")
    2413                            .dwattr $C$DW$134, DW_AT_data_member_location[DW_OP_plus_uconst 0xc]
    2414                            .dwattr $C$DW$134, DW_AT_accessibility(DW_ACCESS_public)
    2415                            .dwattr $C$DW$134, DW_AT_decl_file("C:\Users\bob\Documents\Projects\induct_forge\RM57Lx_test\P
    2416                            .dwattr $C$DW$134, DW_AT_decl_line(0x51)
    2417                            .dwattr $C$DW$134, DW_AT_decl_column(0x12)
    2418                    
    2419                    $C$DW$135       .dwtag  DW_TAG_member
    2420                            .dwattr $C$DW$135, DW_AT_type(*$C$DW$T$20)
TI ARM Assembler PC v16.9.0 Thu Feb 16 13:27:11 2017

Tools Copyright (c) 1996-2015 Texas Instruments Incorporated
C:\Users\bob\AppData\Local\Temp\1223210                              PAGE   45

    2421                            .dwattr $C$DW$135, DW_AT_name("CAFRCx")
    2422                            .dwattr $C$DW$135, DW_AT_TI_symbol_name("CAFRCx")
    2423                            .dwattr $C$DW$135, DW_AT_data_member_location[DW_OP_plus_uconst 0x10]
    2424                            .dwattr $C$DW$135, DW_AT_accessibility(DW_ACCESS_public)
    2425                            .dwattr $C$DW$135, DW_AT_decl_file("C:\Users\bob\Documents\Projects\induct_forge\RM57Lx_test\P
    2426                            .dwattr $C$DW$135, DW_AT_decl_line(0x52)
    2427                            .dwattr $C$DW$135, DW_AT_decl_column(0x10)
    2428                    
    2429                    $C$DW$136       .dwtag  DW_TAG_member
    2430                            .dwattr $C$DW$136, DW_AT_type(*$C$DW$T$20)
    2431                            .dwattr $C$DW$136, DW_AT_name("CAUCx")
    2432                            .dwattr $C$DW$136, DW_AT_TI_symbol_name("CAUCx")
    2433                            .dwattr $C$DW$136, DW_AT_data_member_location[DW_OP_plus_uconst 0x14]
    2434                            .dwattr $C$DW$136, DW_AT_accessibility(DW_ACCESS_public)
    2435                            .dwattr $C$DW$136, DW_AT_decl_file("C:\Users\bob\Documents\Projects\induct_forge\RM57Lx_test\P
    2436                            .dwattr $C$DW$136, DW_AT_decl_line(0x53)
    2437                            .dwattr $C$DW$136, DW_AT_decl_column(0x10)
    2438                    
    2439                    $C$DW$137       .dwtag  DW_TAG_member
    2440                            .dwattr $C$DW$137, DW_AT_type(*$C$DW$T$21)
    2441                            .dwattr $C$DW$137, DW_AT_name("rsvd2")
    2442                            .dwattr $C$DW$137, DW_AT_TI_symbol_name("rsvd2")
    2443                            .dwattr $C$DW$137, DW_AT_data_member_location[DW_OP_plus_uconst 0x18]
    2444                            .dwattr $C$DW$137, DW_AT_accessibility(DW_ACCESS_public)
    2445                            .dwattr $C$DW$137, DW_AT_decl_file("C:\Users\bob\Documents\Projects\induct_forge\RM57Lx_test\P
    2446                            .dwattr $C$DW$137, DW_AT_decl_line(0x54)
    2447                            .dwattr $C$DW$137, DW_AT_decl_column(0x12)
    2448                    
    2449                            .dwattr $C$DW$T$22, DW_AT_decl_file("C:\Users\bob\Documents\Projects\induct_forge\RM57Lx_test\
    2450                            .dwattr $C$DW$T$22, DW_AT_decl_line(0x4d)
    2451                            .dwattr $C$DW$T$22, DW_AT_decl_column(0x05)
    2452                            .dwendtag $C$DW$T$22
    2453                    
    2454                    
    2455                    $C$DW$T$24      .dwtag  DW_TAG_array_type
    2456                            .dwattr $C$DW$T$24, DW_AT_type(*$C$DW$T$22)
    2457                            .dwattr $C$DW$T$24, DW_AT_language(DW_LANG_C)
    2458                            .dwattr $C$DW$T$24, DW_AT_byte_size(0x40)
    2459                    $C$DW$138       .dwtag  DW_TAG_subrange_type
    2460                            .dwattr $C$DW$138, DW_AT_upper_bound(0x01)
    2461                    
    2462                            .dwendtag $C$DW$T$24
    2463                    
    2464                    
    2465                    $C$DW$T$23      .dwtag  DW_TAG_structure_type
    2466                            .dwattr $C$DW$T$23, DW_AT_byte_size(0x08)
    2467                    $C$DW$139       .dwtag  DW_TAG_member
    2468                            .dwattr $C$DW$139, DW_AT_type(*$C$DW$T$20)
    2469                            .dwattr $C$DW$139, DW_AT_name("COMPx")
    2470                            .dwattr $C$DW$139, DW_AT_TI_symbol_name("COMPx")
    2471                            .dwattr $C$DW$139, DW_AT_data_member_location[DW_OP_plus_uconst 0x0]
    2472                            .dwattr $C$DW$139, DW_AT_accessibility(DW_ACCESS_public)
    2473                            .dwattr $C$DW$139, DW_AT_decl_file("C:\Users\bob\Documents\Projects\induct_forge\RM57Lx_test\P
    2474                            .dwattr $C$DW$139, DW_AT_decl_line(0x5a)
    2475                            .dwattr $C$DW$139, DW_AT_decl_column(0x10)
TI ARM Assembler PC v16.9.0 Thu Feb 16 13:27:11 2017

Tools Copyright (c) 1996-2015 Texas Instruments Incorporated
C:\Users\bob\AppData\Local\Temp\1223210                              PAGE   46

    2476                    
    2477                    $C$DW$140       .dwtag  DW_TAG_member
    2478                            .dwattr $C$DW$140, DW_AT_type(*$C$DW$T$20)
    2479                            .dwattr $C$DW$140, DW_AT_name("UDCPx")
    2480                            .dwattr $C$DW$140, DW_AT_TI_symbol_name("UDCPx")
    2481                            .dwattr $C$DW$140, DW_AT_data_member_location[DW_OP_plus_uconst 0x4]
    2482                            .dwattr $C$DW$140, DW_AT_accessibility(DW_ACCESS_public)
    2483                            .dwattr $C$DW$140, DW_AT_decl_file("C:\Users\bob\Documents\Projects\induct_forge\RM57Lx_test\P
    2484                            .dwattr $C$DW$140, DW_AT_decl_line(0x5b)
    2485                            .dwattr $C$DW$140, DW_AT_decl_column(0x10)
    2486                    
    2487                            .dwattr $C$DW$T$23, DW_AT_decl_file("C:\Users\bob\Documents\Projects\induct_forge\RM57Lx_test\
    2488                            .dwattr $C$DW$T$23, DW_AT_decl_line(0x59)
    2489                            .dwattr $C$DW$T$23, DW_AT_decl_column(0x05)
    2490                            .dwendtag $C$DW$T$23
    2491                    
    2492                    
    2493                    $C$DW$T$25      .dwtag  DW_TAG_array_type
    2494                            .dwattr $C$DW$T$25, DW_AT_type(*$C$DW$T$23)
    2495                            .dwattr $C$DW$T$25, DW_AT_language(DW_LANG_C)
    2496                            .dwattr $C$DW$T$25, DW_AT_byte_size(0x20)
    2497                    $C$DW$141       .dwtag  DW_TAG_subrange_type
    2498                            .dwattr $C$DW$141, DW_AT_upper_bound(0x03)
    2499                    
    2500                            .dwendtag $C$DW$T$25
    2501                    
    2502                    $C$DW$T$2       .dwtag  DW_TAG_unspecified_type
    2503                            .dwattr $C$DW$T$2, DW_AT_name("void")
    2504                    
    2505                    
    2506                    $C$DW$T$38      .dwtag  DW_TAG_subroutine_type
    2507                            .dwattr $C$DW$T$38, DW_AT_language(DW_LANG_C)
    2508                            .dwendtag $C$DW$T$38
    2509                    
    2510                    $C$DW$T$39      .dwtag  DW_TAG_pointer_type
    2511                            .dwattr $C$DW$T$39, DW_AT_type(*$C$DW$T$38)
    2512                            .dwattr $C$DW$T$39, DW_AT_address_class(0x20)
    2513                    
    2514                    $C$DW$T$40      .dwtag  DW_TAG_typedef
    2515                            .dwattr $C$DW$T$40, DW_AT_name("t_isrFuncPTR")
    2516                            .dwattr $C$DW$T$40, DW_AT_type(*$C$DW$T$39)
    2517                            .dwattr $C$DW$T$40, DW_AT_language(DW_LANG_C)
    2518                            .dwattr $C$DW$T$40, DW_AT_decl_file("C:/Users/bob/Documents/Projects/induct_forge/RM57Lx_test/
    2519                            .dwattr $C$DW$T$40, DW_AT_decl_line(0x40)
    2520                            .dwattr $C$DW$T$40, DW_AT_decl_column(0x10)
    2521                    
    2522                    $C$DW$T$4       .dwtag  DW_TAG_base_type
    2523                            .dwattr $C$DW$T$4, DW_AT_encoding(DW_ATE_boolean)
    2524                            .dwattr $C$DW$T$4, DW_AT_name("bool")
    2525                            .dwattr $C$DW$T$4, DW_AT_byte_size(0x01)
    2526                    
    2527                    $C$DW$T$5       .dwtag  DW_TAG_base_type
    2528                            .dwattr $C$DW$T$5, DW_AT_encoding(DW_ATE_signed_char)
    2529                            .dwattr $C$DW$T$5, DW_AT_name("signed char")
    2530                            .dwattr $C$DW$T$5, DW_AT_byte_size(0x01)
TI ARM Assembler PC v16.9.0 Thu Feb 16 13:27:11 2017

Tools Copyright (c) 1996-2015 Texas Instruments Incorporated
C:\Users\bob\AppData\Local\Temp\1223210                              PAGE   47

    2531                    
    2532                    $C$DW$T$60      .dwtag  DW_TAG_typedef
    2533                            .dwattr $C$DW$T$60, DW_AT_name("int8_t")
    2534                            .dwattr $C$DW$T$60, DW_AT_type(*$C$DW$T$5)
    2535                            .dwattr $C$DW$T$60, DW_AT_language(DW_LANG_C)
    2536                            .dwattr $C$DW$T$60, DW_AT_decl_file("C:/ti/ccsv7/tools/compiler/ti-cgt-arm_16.9.0.LTS/include/
    2537                            .dwattr $C$DW$T$60, DW_AT_decl_line(0x2a)
    2538                            .dwattr $C$DW$T$60, DW_AT_decl_column(0x1d)
    2539                    
    2540                    $C$DW$T$61      .dwtag  DW_TAG_typedef
    2541                            .dwattr $C$DW$T$61, DW_AT_name("int_least8_t")
    2542                            .dwattr $C$DW$T$61, DW_AT_type(*$C$DW$T$60)
    2543                            .dwattr $C$DW$T$61, DW_AT_language(DW_LANG_C)
    2544                            .dwattr $C$DW$T$61, DW_AT_decl_file("C:/ti/ccsv7/tools/compiler/ti-cgt-arm_16.9.0.LTS/include/
    2545                            .dwattr $C$DW$T$61, DW_AT_decl_line(0x37)
    2546                            .dwattr $C$DW$T$61, DW_AT_decl_column(0x17)
    2547                    
    2548                    $C$DW$T$62      .dwtag  DW_TAG_typedef
    2549                            .dwattr $C$DW$T$62, DW_AT_name("sint8")
    2550                            .dwattr $C$DW$T$62, DW_AT_type(*$C$DW$T$60)
    2551                            .dwattr $C$DW$T$62, DW_AT_language(DW_LANG_C)
    2552                            .dwattr $C$DW$T$62, DW_AT_decl_file("C:\Users\bob\Documents\Projects\induct_forge\RM57Lx_test\
    2553                            .dwattr $C$DW$T$62, DW_AT_decl_line(0x68)
    2554                            .dwattr $C$DW$T$62, DW_AT_decl_column(0x10)
    2555                    
    2556                    $C$DW$T$6       .dwtag  DW_TAG_base_type
    2557                            .dwattr $C$DW$T$6, DW_AT_encoding(DW_ATE_unsigned_char)
    2558                            .dwattr $C$DW$T$6, DW_AT_name("unsigned char")
    2559                            .dwattr $C$DW$T$6, DW_AT_byte_size(0x01)
    2560                    
    2561                    $C$DW$T$63      .dwtag  DW_TAG_typedef
    2562                            .dwattr $C$DW$T$63, DW_AT_name("uint8_t")
    2563                            .dwattr $C$DW$T$63, DW_AT_type(*$C$DW$T$6)
    2564                            .dwattr $C$DW$T$63, DW_AT_language(DW_LANG_C)
    2565                            .dwattr $C$DW$T$63, DW_AT_decl_file("C:/ti/ccsv7/tools/compiler/ti-cgt-arm_16.9.0.LTS/include/
    2566                            .dwattr $C$DW$T$63, DW_AT_decl_line(0x2b)
    2567                            .dwattr $C$DW$T$63, DW_AT_decl_column(0x1c)
    2568                    
    2569                    $C$DW$T$64      .dwtag  DW_TAG_typedef
    2570                            .dwattr $C$DW$T$64, DW_AT_name("uint8")
    2571                            .dwattr $C$DW$T$64, DW_AT_type(*$C$DW$T$63)
    2572                            .dwattr $C$DW$T$64, DW_AT_language(DW_LANG_C)
    2573                            .dwattr $C$DW$T$64, DW_AT_decl_file("C:\Users\bob\Documents\Projects\induct_forge\RM57Lx_test\
    2574                            .dwattr $C$DW$T$64, DW_AT_decl_line(0x4b)
    2575                            .dwattr $C$DW$T$64, DW_AT_decl_column(0x11)
    2576                    
    2577                    $C$DW$T$65      .dwtag  DW_TAG_typedef
    2578                            .dwattr $C$DW$T$65, DW_AT_name("uint_least8_t")
    2579                            .dwattr $C$DW$T$65, DW_AT_type(*$C$DW$T$63)
    2580                            .dwattr $C$DW$T$65, DW_AT_language(DW_LANG_C)
    2581                            .dwattr $C$DW$T$65, DW_AT_decl_file("C:/ti/ccsv7/tools/compiler/ti-cgt-arm_16.9.0.LTS/include/
    2582                            .dwattr $C$DW$T$65, DW_AT_decl_line(0x38)
    2583                            .dwattr $C$DW$T$65, DW_AT_decl_column(0x16)
    2584                    
    2585                    $C$DW$T$7       .dwtag  DW_TAG_base_type
TI ARM Assembler PC v16.9.0 Thu Feb 16 13:27:11 2017

Tools Copyright (c) 1996-2015 Texas Instruments Incorporated
C:\Users\bob\AppData\Local\Temp\1223210                              PAGE   48

    2586                            .dwattr $C$DW$T$7, DW_AT_encoding(DW_ATE_signed_char)
    2587                            .dwattr $C$DW$T$7, DW_AT_name("wchar_t")
    2588                            .dwattr $C$DW$T$7, DW_AT_byte_size(0x02)
    2589                    
    2590                    $C$DW$T$8       .dwtag  DW_TAG_base_type
    2591                            .dwattr $C$DW$T$8, DW_AT_encoding(DW_ATE_signed)
    2592                            .dwattr $C$DW$T$8, DW_AT_name("short")
    2593                            .dwattr $C$DW$T$8, DW_AT_byte_size(0x02)
    2594                    
    2595                    $C$DW$T$66      .dwtag  DW_TAG_typedef
    2596                            .dwattr $C$DW$T$66, DW_AT_name("int16_t")
    2597                            .dwattr $C$DW$T$66, DW_AT_type(*$C$DW$T$8)
    2598                            .dwattr $C$DW$T$66, DW_AT_language(DW_LANG_C)
    2599                            .dwattr $C$DW$T$66, DW_AT_decl_file("C:/ti/ccsv7/tools/compiler/ti-cgt-arm_16.9.0.LTS/include/
    2600                            .dwattr $C$DW$T$66, DW_AT_decl_line(0x2c)
    2601                            .dwattr $C$DW$T$66, DW_AT_decl_column(0x1d)
    2602                    
    2603                    $C$DW$T$67      .dwtag  DW_TAG_typedef
    2604                            .dwattr $C$DW$T$67, DW_AT_name("int_least16_t")
    2605                            .dwattr $C$DW$T$67, DW_AT_type(*$C$DW$T$66)
    2606                            .dwattr $C$DW$T$67, DW_AT_language(DW_LANG_C)
    2607                            .dwattr $C$DW$T$67, DW_AT_decl_file("C:/ti/ccsv7/tools/compiler/ti-cgt-arm_16.9.0.LTS/include/
    2608                            .dwattr $C$DW$T$67, DW_AT_decl_line(0x3a)
    2609                            .dwattr $C$DW$T$67, DW_AT_decl_column(0x17)
    2610                    
    2611                    $C$DW$T$68      .dwtag  DW_TAG_typedef
    2612                            .dwattr $C$DW$T$68, DW_AT_name("sint16")
    2613                            .dwattr $C$DW$T$68, DW_AT_type(*$C$DW$T$66)
    2614                            .dwattr $C$DW$T$68, DW_AT_language(DW_LANG_C)
    2615                            .dwattr $C$DW$T$68, DW_AT_decl_file("C:\Users\bob\Documents\Projects\induct_forge\RM57Lx_test\
    2616                            .dwattr $C$DW$T$68, DW_AT_decl_line(0x63)
    2617                            .dwattr $C$DW$T$68, DW_AT_decl_column(0x11)
    2618                    
    2619                    $C$DW$T$9       .dwtag  DW_TAG_base_type
    2620                            .dwattr $C$DW$T$9, DW_AT_encoding(DW_ATE_unsigned)
    2621                            .dwattr $C$DW$T$9, DW_AT_name("unsigned short")
    2622                            .dwattr $C$DW$T$9, DW_AT_byte_size(0x02)
    2623                    
    2624                    $C$DW$T$46      .dwtag  DW_TAG_typedef
    2625                            .dwattr $C$DW$T$46, DW_AT_name("uint16_t")
    2626                            .dwattr $C$DW$T$46, DW_AT_type(*$C$DW$T$9)
    2627                            .dwattr $C$DW$T$46, DW_AT_language(DW_LANG_C)
    2628                            .dwattr $C$DW$T$46, DW_AT_decl_file("C:/ti/ccsv7/tools/compiler/ti-cgt-arm_16.9.0.LTS/include/
    2629                            .dwattr $C$DW$T$46, DW_AT_decl_line(0x2d)
    2630                            .dwattr $C$DW$T$46, DW_AT_decl_column(0x1c)
    2631                    
    2632                    $C$DW$T$47      .dwtag  DW_TAG_typedef
    2633                            .dwattr $C$DW$T$47, DW_AT_name("uint16")
    2634                            .dwattr $C$DW$T$47, DW_AT_type(*$C$DW$T$46)
    2635                            .dwattr $C$DW$T$47, DW_AT_language(DW_LANG_C)
    2636                            .dwattr $C$DW$T$47, DW_AT_decl_file("C:\Users\bob\Documents\Projects\induct_forge\RM57Lx_test\
    2637                            .dwattr $C$DW$T$47, DW_AT_decl_line(0x46)
    2638                            .dwattr $C$DW$T$47, DW_AT_decl_column(0x12)
    2639                    
    2640                    $C$DW$T$69      .dwtag  DW_TAG_typedef
TI ARM Assembler PC v16.9.0 Thu Feb 16 13:27:11 2017

Tools Copyright (c) 1996-2015 Texas Instruments Incorporated
C:\Users\bob\AppData\Local\Temp\1223210                              PAGE   49

    2641                            .dwattr $C$DW$T$69, DW_AT_name("uint_least16_t")
    2642                            .dwattr $C$DW$T$69, DW_AT_type(*$C$DW$T$46)
    2643                            .dwattr $C$DW$T$69, DW_AT_language(DW_LANG_C)
    2644                            .dwattr $C$DW$T$69, DW_AT_decl_file("C:/ti/ccsv7/tools/compiler/ti-cgt-arm_16.9.0.LTS/include/
    2645                            .dwattr $C$DW$T$69, DW_AT_decl_line(0x3b)
    2646                            .dwattr $C$DW$T$69, DW_AT_decl_column(0x16)
    2647                    
    2648                    $C$DW$T$10      .dwtag  DW_TAG_base_type
    2649                            .dwattr $C$DW$T$10, DW_AT_encoding(DW_ATE_signed)
    2650                            .dwattr $C$DW$T$10, DW_AT_name("int")
    2651                            .dwattr $C$DW$T$10, DW_AT_byte_size(0x04)
    2652                    
    2653                    $C$DW$T$70      .dwtag  DW_TAG_typedef
    2654                            .dwattr $C$DW$T$70, DW_AT_name("int32_t")
    2655                            .dwattr $C$DW$T$70, DW_AT_type(*$C$DW$T$10)
    2656                            .dwattr $C$DW$T$70, DW_AT_language(DW_LANG_C)
    2657                            .dwattr $C$DW$T$70, DW_AT_decl_file("C:/ti/ccsv7/tools/compiler/ti-cgt-arm_16.9.0.LTS/include/
    2658                            .dwattr $C$DW$T$70, DW_AT_decl_line(0x2e)
    2659                            .dwattr $C$DW$T$70, DW_AT_decl_column(0x1d)
    2660                    
    2661                    $C$DW$T$71      .dwtag  DW_TAG_typedef
    2662                            .dwattr $C$DW$T$71, DW_AT_name("int_fast16_t")
    2663                            .dwattr $C$DW$T$71, DW_AT_type(*$C$DW$T$70)
    2664                            .dwattr $C$DW$T$71, DW_AT_language(DW_LANG_C)
    2665                            .dwattr $C$DW$T$71, DW_AT_decl_file("C:/ti/ccsv7/tools/compiler/ti-cgt-arm_16.9.0.LTS/include/
    2666                            .dwattr $C$DW$T$71, DW_AT_decl_line(0x47)
    2667                            .dwattr $C$DW$T$71, DW_AT_decl_column(0x17)
    2668                    
    2669                    $C$DW$T$72      .dwtag  DW_TAG_typedef
    2670                            .dwattr $C$DW$T$72, DW_AT_name("int_fast32_t")
    2671                            .dwattr $C$DW$T$72, DW_AT_type(*$C$DW$T$70)
    2672                            .dwattr $C$DW$T$72, DW_AT_language(DW_LANG_C)
    2673                            .dwattr $C$DW$T$72, DW_AT_decl_file("C:/ti/ccsv7/tools/compiler/ti-cgt-arm_16.9.0.LTS/include/
    2674                            .dwattr $C$DW$T$72, DW_AT_decl_line(0x4a)
    2675                            .dwattr $C$DW$T$72, DW_AT_decl_column(0x17)
    2676                    
    2677                    $C$DW$T$73      .dwtag  DW_TAG_typedef
    2678                            .dwattr $C$DW$T$73, DW_AT_name("int_fast8_t")
    2679                            .dwattr $C$DW$T$73, DW_AT_type(*$C$DW$T$70)
    2680                            .dwattr $C$DW$T$73, DW_AT_language(DW_LANG_C)
    2681                            .dwattr $C$DW$T$73, DW_AT_decl_file("C:/ti/ccsv7/tools/compiler/ti-cgt-arm_16.9.0.LTS/include/
    2682                            .dwattr $C$DW$T$73, DW_AT_decl_line(0x45)
    2683                            .dwattr $C$DW$T$73, DW_AT_decl_column(0x17)
    2684                    
    2685                    $C$DW$T$74      .dwtag  DW_TAG_typedef
    2686                            .dwattr $C$DW$T$74, DW_AT_name("int_least32_t")
    2687                            .dwattr $C$DW$T$74, DW_AT_type(*$C$DW$T$70)
    2688                            .dwattr $C$DW$T$74, DW_AT_language(DW_LANG_C)
    2689                            .dwattr $C$DW$T$74, DW_AT_decl_file("C:/ti/ccsv7/tools/compiler/ti-cgt-arm_16.9.0.LTS/include/
    2690                            .dwattr $C$DW$T$74, DW_AT_decl_line(0x3c)
    2691                            .dwattr $C$DW$T$74, DW_AT_decl_column(0x17)
    2692                    
    2693                    $C$DW$T$75      .dwtag  DW_TAG_typedef
    2694                            .dwattr $C$DW$T$75, DW_AT_name("sint32")
    2695                            .dwattr $C$DW$T$75, DW_AT_type(*$C$DW$T$70)
TI ARM Assembler PC v16.9.0 Thu Feb 16 13:27:11 2017

Tools Copyright (c) 1996-2015 Texas Instruments Incorporated
C:\Users\bob\AppData\Local\Temp\1223210                              PAGE   50

    2696                            .dwattr $C$DW$T$75, DW_AT_language(DW_LANG_C)
    2697                            .dwattr $C$DW$T$75, DW_AT_decl_file("C:\Users\bob\Documents\Projects\induct_forge\RM57Lx_test\
    2698                            .dwattr $C$DW$T$75, DW_AT_decl_line(0x5e)
    2699                            .dwattr $C$DW$T$75, DW_AT_decl_column(0x11)
    2700                    
    2701                    $C$DW$T$76      .dwtag  DW_TAG_typedef
    2702                            .dwattr $C$DW$T$76, DW_AT_name("intptr_t")
    2703                            .dwattr $C$DW$T$76, DW_AT_type(*$C$DW$T$10)
    2704                            .dwattr $C$DW$T$76, DW_AT_language(DW_LANG_C)
    2705                            .dwattr $C$DW$T$76, DW_AT_decl_file("C:/ti/ccsv7/tools/compiler/ti-cgt-arm_16.9.0.LTS/include/
    2706                            .dwattr $C$DW$T$76, DW_AT_decl_line(0x52)
    2707                            .dwattr $C$DW$T$76, DW_AT_decl_column(0x1a)
    2708                    
    2709                    $C$DW$T$11      .dwtag  DW_TAG_base_type
    2710                            .dwattr $C$DW$T$11, DW_AT_encoding(DW_ATE_unsigned)
    2711                            .dwattr $C$DW$T$11, DW_AT_name("unsigned int")
    2712                            .dwattr $C$DW$T$11, DW_AT_byte_size(0x04)
    2713                    
    2714                    $C$DW$T$19      .dwtag  DW_TAG_typedef
    2715                            .dwattr $C$DW$T$19, DW_AT_name("uint32_t")
    2716                            .dwattr $C$DW$T$19, DW_AT_type(*$C$DW$T$11)
    2717                            .dwattr $C$DW$T$19, DW_AT_language(DW_LANG_C)
    2718                            .dwattr $C$DW$T$19, DW_AT_decl_file("C:/ti/ccsv7/tools/compiler/ti-cgt-arm_16.9.0.LTS/include/
    2719                            .dwattr $C$DW$T$19, DW_AT_decl_line(0x2f)
    2720                            .dwattr $C$DW$T$19, DW_AT_decl_column(0x1c)
    2721                    
    2722                    $C$DW$T$20      .dwtag  DW_TAG_typedef
    2723                            .dwattr $C$DW$T$20, DW_AT_name("uint32")
    2724                            .dwattr $C$DW$T$20, DW_AT_type(*$C$DW$T$19)
    2725                            .dwattr $C$DW$T$20, DW_AT_language(DW_LANG_C)
    2726                            .dwattr $C$DW$T$20, DW_AT_decl_file("C:\Users\bob\Documents\Projects\induct_forge\RM57Lx_test\
    2727                            .dwattr $C$DW$T$20, DW_AT_decl_line(0x41)
    2728                            .dwattr $C$DW$T$20, DW_AT_decl_column(0x12)
    2729                    
    2730                    
    2731                    $C$DW$T$21      .dwtag  DW_TAG_array_type
    2732                            .dwattr $C$DW$T$21, DW_AT_type(*$C$DW$T$20)
    2733                            .dwattr $C$DW$T$21, DW_AT_language(DW_LANG_C)
    2734                            .dwattr $C$DW$T$21, DW_AT_byte_size(0x08)
    2735                    $C$DW$142       .dwtag  DW_TAG_subrange_type
    2736                            .dwattr $C$DW$142, DW_AT_upper_bound(0x01)
    2737                    
    2738                            .dwendtag $C$DW$T$21
    2739                    
    2740                    
    2741                    $C$DW$T$28      .dwtag  DW_TAG_array_type
    2742                            .dwattr $C$DW$T$28, DW_AT_type(*$C$DW$T$20)
    2743                            .dwattr $C$DW$T$28, DW_AT_language(DW_LANG_C)
    2744                            .dwattr $C$DW$T$28, DW_AT_byte_size(0xec)
    2745                    $C$DW$143       .dwtag  DW_TAG_subrange_type
    2746                            .dwattr $C$DW$143, DW_AT_upper_bound(0x3a)
    2747                    
    2748                            .dwendtag $C$DW$T$28
    2749                    
    2750                    
TI ARM Assembler PC v16.9.0 Thu Feb 16 13:27:11 2017

Tools Copyright (c) 1996-2015 Texas Instruments Incorporated
C:\Users\bob\AppData\Local\Temp\1223210                              PAGE   51

    2751                    $C$DW$T$29      .dwtag  DW_TAG_array_type
    2752                            .dwattr $C$DW$T$29, DW_AT_type(*$C$DW$T$20)
    2753                            .dwattr $C$DW$T$29, DW_AT_language(DW_LANG_C)
    2754                            .dwattr $C$DW$T$29, DW_AT_byte_size(0x60)
    2755                    $C$DW$144       .dwtag  DW_TAG_subrange_type
    2756                            .dwattr $C$DW$144, DW_AT_upper_bound(0x17)
    2757                    
    2758                            .dwendtag $C$DW$T$29
    2759                    
    2760                    $C$DW$T$80      .dwtag  DW_TAG_typedef
    2761                            .dwattr $C$DW$T$80, DW_AT_name("uint_fast16_t")
    2762                            .dwattr $C$DW$T$80, DW_AT_type(*$C$DW$T$19)
    2763                            .dwattr $C$DW$T$80, DW_AT_language(DW_LANG_C)
    2764                            .dwattr $C$DW$T$80, DW_AT_decl_file("C:/ti/ccsv7/tools/compiler/ti-cgt-arm_16.9.0.LTS/include/
    2765                            .dwattr $C$DW$T$80, DW_AT_decl_line(0x48)
    2766                            .dwattr $C$DW$T$80, DW_AT_decl_column(0x16)
    2767                    
    2768                    $C$DW$T$81      .dwtag  DW_TAG_typedef
    2769                            .dwattr $C$DW$T$81, DW_AT_name("uint_fast32_t")
    2770                            .dwattr $C$DW$T$81, DW_AT_type(*$C$DW$T$19)
    2771                            .dwattr $C$DW$T$81, DW_AT_language(DW_LANG_C)
    2772                            .dwattr $C$DW$T$81, DW_AT_decl_file("C:/ti/ccsv7/tools/compiler/ti-cgt-arm_16.9.0.LTS/include/
    2773                            .dwattr $C$DW$T$81, DW_AT_decl_line(0x4b)
    2774                            .dwattr $C$DW$T$81, DW_AT_decl_column(0x16)
    2775                    
    2776                    $C$DW$T$82      .dwtag  DW_TAG_typedef
    2777                            .dwattr $C$DW$T$82, DW_AT_name("uint_fast8_t")
    2778                            .dwattr $C$DW$T$82, DW_AT_type(*$C$DW$T$19)
    2779                            .dwattr $C$DW$T$82, DW_AT_language(DW_LANG_C)
    2780                            .dwattr $C$DW$T$82, DW_AT_decl_file("C:/ti/ccsv7/tools/compiler/ti-cgt-arm_16.9.0.LTS/include/
    2781                            .dwattr $C$DW$T$82, DW_AT_decl_line(0x46)
    2782                            .dwattr $C$DW$T$82, DW_AT_decl_column(0x16)
    2783                    
    2784                    $C$DW$T$83      .dwtag  DW_TAG_typedef
    2785                            .dwattr $C$DW$T$83, DW_AT_name("uint_least32_t")
    2786                            .dwattr $C$DW$T$83, DW_AT_type(*$C$DW$T$19)
    2787                            .dwattr $C$DW$T$83, DW_AT_language(DW_LANG_C)
    2788                            .dwattr $C$DW$T$83, DW_AT_decl_file("C:/ti/ccsv7/tools/compiler/ti-cgt-arm_16.9.0.LTS/include/
    2789                            .dwattr $C$DW$T$83, DW_AT_decl_line(0x3d)
    2790                            .dwattr $C$DW$T$83, DW_AT_decl_column(0x16)
    2791                    
    2792                    $C$DW$T$84      .dwtag  DW_TAG_typedef
    2793                            .dwattr $C$DW$T$84, DW_AT_name("uintptr_t")
    2794                            .dwattr $C$DW$T$84, DW_AT_type(*$C$DW$T$11)
    2795                            .dwattr $C$DW$T$84, DW_AT_language(DW_LANG_C)
    2796                            .dwattr $C$DW$T$84, DW_AT_decl_file("C:/ti/ccsv7/tools/compiler/ti-cgt-arm_16.9.0.LTS/include/
    2797                            .dwattr $C$DW$T$84, DW_AT_decl_line(0x53)
    2798                            .dwattr $C$DW$T$84, DW_AT_decl_column(0x1a)
    2799                    
    2800                    $C$DW$T$12      .dwtag  DW_TAG_base_type
    2801                            .dwattr $C$DW$T$12, DW_AT_encoding(DW_ATE_signed)
    2802                            .dwattr $C$DW$T$12, DW_AT_name("long")
    2803                            .dwattr $C$DW$T$12, DW_AT_byte_size(0x04)
    2804                    
    2805                    $C$DW$T$13      .dwtag  DW_TAG_base_type
TI ARM Assembler PC v16.9.0 Thu Feb 16 13:27:11 2017

Tools Copyright (c) 1996-2015 Texas Instruments Incorporated
C:\Users\bob\AppData\Local\Temp\1223210                              PAGE   52

    2806                            .dwattr $C$DW$T$13, DW_AT_encoding(DW_ATE_unsigned)
    2807                            .dwattr $C$DW$T$13, DW_AT_name("unsigned long")
    2808                            .dwattr $C$DW$T$13, DW_AT_byte_size(0x04)
    2809                    
    2810                    $C$DW$T$14      .dwtag  DW_TAG_base_type
    2811                            .dwattr $C$DW$T$14, DW_AT_encoding(DW_ATE_signed)
    2812                            .dwattr $C$DW$T$14, DW_AT_name("long long")
    2813                            .dwattr $C$DW$T$14, DW_AT_byte_size(0x08)
    2814                    
    2815                    $C$DW$T$85      .dwtag  DW_TAG_typedef
    2816                            .dwattr $C$DW$T$85, DW_AT_name("int64_t")
    2817                            .dwattr $C$DW$T$85, DW_AT_type(*$C$DW$T$14)
    2818                            .dwattr $C$DW$T$85, DW_AT_language(DW_LANG_C)
    2819                            .dwattr $C$DW$T$85, DW_AT_decl_file("C:/ti/ccsv7/tools/compiler/ti-cgt-arm_16.9.0.LTS/include/
    2820                            .dwattr $C$DW$T$85, DW_AT_decl_line(0x32)
    2821                            .dwattr $C$DW$T$85, DW_AT_decl_column(0x21)
    2822                    
    2823                    $C$DW$T$86      .dwtag  DW_TAG_typedef
    2824                            .dwattr $C$DW$T$86, DW_AT_name("int_fast64_t")
    2825                            .dwattr $C$DW$T$86, DW_AT_type(*$C$DW$T$85)
    2826                            .dwattr $C$DW$T$86, DW_AT_language(DW_LANG_C)
    2827                            .dwattr $C$DW$T$86, DW_AT_decl_file("C:/ti/ccsv7/tools/compiler/ti-cgt-arm_16.9.0.LTS/include/
    2828                            .dwattr $C$DW$T$86, DW_AT_decl_line(0x4e)
    2829                            .dwattr $C$DW$T$86, DW_AT_decl_column(0x17)
    2830                    
    2831                    $C$DW$T$87      .dwtag  DW_TAG_typedef
    2832                            .dwattr $C$DW$T$87, DW_AT_name("int_least64_t")
    2833                            .dwattr $C$DW$T$87, DW_AT_type(*$C$DW$T$85)
    2834                            .dwattr $C$DW$T$87, DW_AT_language(DW_LANG_C)
    2835                            .dwattr $C$DW$T$87, DW_AT_decl_file("C:/ti/ccsv7/tools/compiler/ti-cgt-arm_16.9.0.LTS/include/
    2836                            .dwattr $C$DW$T$87, DW_AT_decl_line(0x40)
    2837                            .dwattr $C$DW$T$87, DW_AT_decl_column(0x17)
    2838                    
    2839                    $C$DW$T$88      .dwtag  DW_TAG_typedef
    2840                            .dwattr $C$DW$T$88, DW_AT_name("sint64")
    2841                            .dwattr $C$DW$T$88, DW_AT_type(*$C$DW$T$85)
    2842                            .dwattr $C$DW$T$88, DW_AT_language(DW_LANG_C)
    2843                            .dwattr $C$DW$T$88, DW_AT_decl_file("C:\Users\bob\Documents\Projects\induct_forge\RM57Lx_test\
    2844                            .dwattr $C$DW$T$88, DW_AT_decl_line(0x59)
    2845                            .dwattr $C$DW$T$88, DW_AT_decl_column(0x11)
    2846                    
    2847                    $C$DW$T$89      .dwtag  DW_TAG_typedef
    2848                            .dwattr $C$DW$T$89, DW_AT_name("intmax_t")
    2849                            .dwattr $C$DW$T$89, DW_AT_type(*$C$DW$T$14)
    2850                            .dwattr $C$DW$T$89, DW_AT_language(DW_LANG_C)
    2851                            .dwattr $C$DW$T$89, DW_AT_decl_file("C:/ti/ccsv7/tools/compiler/ti-cgt-arm_16.9.0.LTS/include/
    2852                            .dwattr $C$DW$T$89, DW_AT_decl_line(0x56)
    2853                            .dwattr $C$DW$T$89, DW_AT_decl_column(0x20)
    2854                    
    2855                    $C$DW$T$15      .dwtag  DW_TAG_base_type
    2856                            .dwattr $C$DW$T$15, DW_AT_encoding(DW_ATE_unsigned)
    2857                            .dwattr $C$DW$T$15, DW_AT_name("unsigned long long")
    2858                            .dwattr $C$DW$T$15, DW_AT_byte_size(0x08)
    2859                    
    2860                    $C$DW$T$90      .dwtag  DW_TAG_typedef
TI ARM Assembler PC v16.9.0 Thu Feb 16 13:27:11 2017

Tools Copyright (c) 1996-2015 Texas Instruments Incorporated
C:\Users\bob\AppData\Local\Temp\1223210                              PAGE   53

    2861                            .dwattr $C$DW$T$90, DW_AT_name("uint64_t")
    2862                            .dwattr $C$DW$T$90, DW_AT_type(*$C$DW$T$15)
    2863                            .dwattr $C$DW$T$90, DW_AT_language(DW_LANG_C)
    2864                            .dwattr $C$DW$T$90, DW_AT_decl_file("C:/ti/ccsv7/tools/compiler/ti-cgt-arm_16.9.0.LTS/include/
    2865                            .dwattr $C$DW$T$90, DW_AT_decl_line(0x33)
    2866                            .dwattr $C$DW$T$90, DW_AT_decl_column(0x20)
    2867                    
    2868                    $C$DW$T$91      .dwtag  DW_TAG_typedef
    2869                            .dwattr $C$DW$T$91, DW_AT_name("uint64")
    2870                            .dwattr $C$DW$T$91, DW_AT_type(*$C$DW$T$90)
    2871                            .dwattr $C$DW$T$91, DW_AT_language(DW_LANG_C)
    2872                            .dwattr $C$DW$T$91, DW_AT_decl_file("C:\Users\bob\Documents\Projects\induct_forge\RM57Lx_test\
    2873                            .dwattr $C$DW$T$91, DW_AT_decl_line(0x3c)
    2874                            .dwattr $C$DW$T$91, DW_AT_decl_column(0x12)
    2875                    
    2876                    $C$DW$T$92      .dwtag  DW_TAG_typedef
    2877                            .dwattr $C$DW$T$92, DW_AT_name("uint_fast64_t")
    2878                            .dwattr $C$DW$T$92, DW_AT_type(*$C$DW$T$90)
    2879                            .dwattr $C$DW$T$92, DW_AT_language(DW_LANG_C)
    2880                            .dwattr $C$DW$T$92, DW_AT_decl_file("C:/ti/ccsv7/tools/compiler/ti-cgt-arm_16.9.0.LTS/include/
    2881                            .dwattr $C$DW$T$92, DW_AT_decl_line(0x4f)
    2882                            .dwattr $C$DW$T$92, DW_AT_decl_column(0x16)
    2883                    
    2884                    $C$DW$T$93      .dwtag  DW_TAG_typedef
    2885                            .dwattr $C$DW$T$93, DW_AT_name("uint_least64_t")
    2886                            .dwattr $C$DW$T$93, DW_AT_type(*$C$DW$T$90)
    2887                            .dwattr $C$DW$T$93, DW_AT_language(DW_LANG_C)
    2888                            .dwattr $C$DW$T$93, DW_AT_decl_file("C:/ti/ccsv7/tools/compiler/ti-cgt-arm_16.9.0.LTS/include/
    2889                            .dwattr $C$DW$T$93, DW_AT_decl_line(0x41)
    2890                            .dwattr $C$DW$T$93, DW_AT_decl_column(0x16)
    2891                    
    2892                    $C$DW$T$94      .dwtag  DW_TAG_typedef
    2893                            .dwattr $C$DW$T$94, DW_AT_name("uintmax_t")
    2894                            .dwattr $C$DW$T$94, DW_AT_type(*$C$DW$T$15)
    2895                            .dwattr $C$DW$T$94, DW_AT_language(DW_LANG_C)
    2896                            .dwattr $C$DW$T$94, DW_AT_decl_file("C:/ti/ccsv7/tools/compiler/ti-cgt-arm_16.9.0.LTS/include/
    2897                            .dwattr $C$DW$T$94, DW_AT_decl_line(0x57)
    2898                            .dwattr $C$DW$T$94, DW_AT_decl_column(0x20)
    2899                    
    2900                    $C$DW$T$16      .dwtag  DW_TAG_base_type
    2901                            .dwattr $C$DW$T$16, DW_AT_encoding(DW_ATE_float)
    2902                            .dwattr $C$DW$T$16, DW_AT_name("float")
    2903                            .dwattr $C$DW$T$16, DW_AT_byte_size(0x04)
    2904                    
    2905                    $C$DW$T$95      .dwtag  DW_TAG_typedef
    2906                            .dwattr $C$DW$T$95, DW_AT_name("float32")
    2907                            .dwattr $C$DW$T$95, DW_AT_type(*$C$DW$T$16)
    2908                            .dwattr $C$DW$T$95, DW_AT_language(DW_LANG_C)
    2909                            .dwattr $C$DW$T$95, DW_AT_decl_file("C:\Users\bob\Documents\Projects\induct_forge\RM57Lx_test\
    2910                            .dwattr $C$DW$T$95, DW_AT_decl_line(0x6d)
    2911                            .dwattr $C$DW$T$95, DW_AT_decl_column(0x0f)
    2912                    
    2913                    $C$DW$T$17      .dwtag  DW_TAG_base_type
    2914                            .dwattr $C$DW$T$17, DW_AT_encoding(DW_ATE_float)
    2915                            .dwattr $C$DW$T$17, DW_AT_name("double")
TI ARM Assembler PC v16.9.0 Thu Feb 16 13:27:11 2017

Tools Copyright (c) 1996-2015 Texas Instruments Incorporated
C:\Users\bob\AppData\Local\Temp\1223210                              PAGE   54

    2916                            .dwattr $C$DW$T$17, DW_AT_byte_size(0x08)
    2917                    
    2918                    $C$DW$T$96      .dwtag  DW_TAG_typedef
    2919                            .dwattr $C$DW$T$96, DW_AT_name("float64")
    2920                            .dwattr $C$DW$T$96, DW_AT_type(*$C$DW$T$17)
    2921                            .dwattr $C$DW$T$96, DW_AT_language(DW_LANG_C)
    2922                            .dwattr $C$DW$T$96, DW_AT_decl_file("C:\Users\bob\Documents\Projects\induct_forge\RM57Lx_test\
    2923                            .dwattr $C$DW$T$96, DW_AT_decl_line(0x72)
    2924                            .dwattr $C$DW$T$96, DW_AT_decl_column(0x10)
    2925                    
    2926                    $C$DW$T$18      .dwtag  DW_TAG_base_type
    2927                            .dwattr $C$DW$T$18, DW_AT_encoding(DW_ATE_float)
    2928                            .dwattr $C$DW$T$18, DW_AT_name("long double")
    2929                            .dwattr $C$DW$T$18, DW_AT_byte_size(0x08)
    2930                    
    2931                    $C$DW$T$97      .dwtag  DW_TAG_base_type
    2932                            .dwattr $C$DW$T$97, DW_AT_encoding(DW_ATE_unsigned_char)
    2933                            .dwattr $C$DW$T$97, DW_AT_name("unsigned char")
    2934                            .dwattr $C$DW$T$97, DW_AT_byte_size(0x01)
    2935                    
    2936                    $C$DW$T$98      .dwtag  DW_TAG_typedef
    2937                            .dwattr $C$DW$T$98, DW_AT_name("boolean")
    2938                            .dwattr $C$DW$T$98, DW_AT_type(*$C$DW$T$97)
    2939                            .dwattr $C$DW$T$98, DW_AT_language(DW_LANG_C)
    2940                            .dwattr $C$DW$T$98, DW_AT_decl_file("C:\Users\bob\Documents\Projects\induct_forge\RM57Lx_test\
    2941                            .dwattr $C$DW$T$98, DW_AT_decl_line(0x53)
    2942                            .dwattr $C$DW$T$98, DW_AT_decl_column(0x0f)
    2943                    
    2944                    $C$DW$T$100     .dwtag  DW_TAG_typedef
    2945                            .dwattr $C$DW$T$100, DW_AT_name("tBoolean")
    2946                            .dwattr $C$DW$T$100, DW_AT_type(*$C$DW$T$98)
    2947                            .dwattr $C$DW$T$100, DW_AT_language(DW_LANG_C)
    2948                            .dwattr $C$DW$T$100, DW_AT_decl_file("C:\Users\bob\Documents\Projects\induct_forge\RM57Lx_test
    2949                            .dwattr $C$DW$T$100, DW_AT_decl_line(0x40)
    2950                            .dwattr $C$DW$T$100, DW_AT_decl_column(0x11)
    2951                    
    2952                    
    2953                    $C$DW$T$57      .dwtag  DW_TAG_enumeration_type
    2954                            .dwattr $C$DW$T$57, DW_AT_name("config_value_type")
    2955                            .dwattr $C$DW$T$57, DW_AT_byte_size(0x01)
    2956                    $C$DW$145       .dwtag  DW_TAG_enumerator
    2957                            .dwattr $C$DW$145, DW_AT_name("InitialValue")
    2958                            .dwattr $C$DW$145, DW_AT_const_value(0x00)
    2959                            .dwattr $C$DW$145, DW_AT_decl_file("C:\Users\bob\Documents\Projects\induct_forge\RM57Lx_test\P
    2960                            .dwattr $C$DW$145, DW_AT_decl_line(0x5c)
    2961                            .dwattr $C$DW$145, DW_AT_decl_column(0x02)
    2962                    
    2963                    $C$DW$146       .dwtag  DW_TAG_enumerator
    2964                            .dwattr $C$DW$146, DW_AT_name("CurrentValue")
    2965                            .dwattr $C$DW$146, DW_AT_const_value(0x01)
    2966                            .dwattr $C$DW$146, DW_AT_decl_file("C:\Users\bob\Documents\Projects\induct_forge\RM57Lx_test\P
    2967                            .dwattr $C$DW$146, DW_AT_decl_line(0x5d)
    2968                            .dwattr $C$DW$146, DW_AT_decl_column(0x02)
    2969                    
    2970                            .dwattr $C$DW$T$57, DW_AT_decl_file("C:\Users\bob\Documents\Projects\induct_forge\RM57Lx_test\
TI ARM Assembler PC v16.9.0 Thu Feb 16 13:27:11 2017

Tools Copyright (c) 1996-2015 Texas Instruments Incorporated
C:\Users\bob\AppData\Local\Temp\1223210                              PAGE   55

    2971                            .dwattr $C$DW$T$57, DW_AT_decl_line(0x5a)
    2972                            .dwattr $C$DW$T$57, DW_AT_decl_column(0x0e)
    2973                            .dwendtag $C$DW$T$57
    2974                    
    2975                    $C$DW$T$58      .dwtag  DW_TAG_typedef
    2976                            .dwattr $C$DW$T$58, DW_AT_name("config_value_type_t")
    2977                            .dwattr $C$DW$T$58, DW_AT_type(*$C$DW$T$57)
    2978                            .dwattr $C$DW$T$58, DW_AT_language(DW_LANG_C)
    2979                            .dwattr $C$DW$T$58, DW_AT_decl_file("C:\Users\bob\Documents\Projects\induct_forge\RM57Lx_test\
    2980                            .dwattr $C$DW$T$58, DW_AT_decl_line(0x5e)
    2981                            .dwattr $C$DW$T$58, DW_AT_decl_column(0x02)
    2982                    
    2983                    
    2984                    $C$DW$T$101     .dwtag  DW_TAG_enumeration_type
    2985                            .dwattr $C$DW$T$101, DW_AT_name("dwdResetStatusTag")
    2986                            .dwattr $C$DW$T$101, DW_AT_byte_size(0x01)
    2987                    $C$DW$147       .dwtag  DW_TAG_enumerator
    2988                            .dwattr $C$DW$147, DW_AT_name("No_Reset_Generated")
    2989                            .dwattr $C$DW$147, DW_AT_const_value(0x00)
    2990                            .dwattr $C$DW$147, DW_AT_decl_file("C:/Users/bob/Documents/Projects/induct_forge/RM57Lx_test/P
    2991                            .dwattr $C$DW$147, DW_AT_decl_line(0xcc)
    2992                            .dwattr $C$DW$147, DW_AT_decl_column(0x02)
    2993                    
    2994                    $C$DW$148       .dwtag  DW_TAG_enumerator
    2995                            .dwattr $C$DW$148, DW_AT_name("Reset_Generated")
    2996                            .dwattr $C$DW$148, DW_AT_const_value(0x01)
    2997                            .dwattr $C$DW$148, DW_AT_decl_file("C:/Users/bob/Documents/Projects/induct_forge/RM57Lx_test/P
    2998                            .dwattr $C$DW$148, DW_AT_decl_line(0xcd)
    2999                            .dwattr $C$DW$148, DW_AT_decl_column(0x02)
    3000                    
    3001                            .dwattr $C$DW$T$101, DW_AT_decl_file("C:/Users/bob/Documents/Projects/induct_forge/RM57Lx_test
    3002                            .dwattr $C$DW$T$101, DW_AT_decl_line(0xca)
    3003                            .dwattr $C$DW$T$101, DW_AT_decl_column(0x0e)
    3004                            .dwendtag $C$DW$T$101
    3005                    
    3006                    $C$DW$T$102     .dwtag  DW_TAG_typedef
    3007                            .dwattr $C$DW$T$102, DW_AT_name("dwdResetStatus_t")
    3008                            .dwattr $C$DW$T$102, DW_AT_type(*$C$DW$T$101)
    3009                            .dwattr $C$DW$T$102, DW_AT_language(DW_LANG_C)
    3010                            .dwattr $C$DW$T$102, DW_AT_decl_file("C:/Users/bob/Documents/Projects/induct_forge/RM57Lx_test
    3011                            .dwattr $C$DW$T$102, DW_AT_decl_line(0xce)
    3012                            .dwattr $C$DW$T$102, DW_AT_decl_column(0x02)
    3013                    
    3014                    
    3015                    $C$DW$T$104     .dwtag  DW_TAG_enumeration_type
    3016                            .dwattr $C$DW$T$104, DW_AT_name("dwdViolationTag")
    3017                            .dwattr $C$DW$T$104, DW_AT_byte_size(0x01)
    3018                    $C$DW$149       .dwtag  DW_TAG_enumerator
    3019                            .dwattr $C$DW$149, DW_AT_name("NoTime_Violation")
    3020                            .dwattr $C$DW$149, DW_AT_const_value(0x00)
    3021                            .dwattr $C$DW$149, DW_AT_decl_file("C:/Users/bob/Documents/Projects/induct_forge/RM57Lx_test/P
    3022                            .dwattr $C$DW$149, DW_AT_decl_line(0xbd)
    3023                            .dwattr $C$DW$149, DW_AT_decl_column(0x02)
    3024                    
    3025                    $C$DW$150       .dwtag  DW_TAG_enumerator
TI ARM Assembler PC v16.9.0 Thu Feb 16 13:27:11 2017

Tools Copyright (c) 1996-2015 Texas Instruments Incorporated
C:\Users\bob\AppData\Local\Temp\1223210                              PAGE   56

    3026                            .dwattr $C$DW$150, DW_AT_name("Time_Window_Violation")
    3027                            .dwattr $C$DW$150, DW_AT_const_value(0x01)
    3028                            .dwattr $C$DW$150, DW_AT_decl_file("C:/Users/bob/Documents/Projects/induct_forge/RM57Lx_test/P
    3029                            .dwattr $C$DW$150, DW_AT_decl_line(0xbe)
    3030                            .dwattr $C$DW$150, DW_AT_decl_column(0x02)
    3031                    
    3032                    $C$DW$151       .dwtag  DW_TAG_enumerator
    3033                            .dwattr $C$DW$151, DW_AT_name("EndTime_Window_Violation")
    3034                            .dwattr $C$DW$151, DW_AT_const_value(0x02)
    3035                            .dwattr $C$DW$151, DW_AT_decl_file("C:/Users/bob/Documents/Projects/induct_forge/RM57Lx_test/P
    3036                            .dwattr $C$DW$151, DW_AT_decl_line(0xbf)
    3037                            .dwattr $C$DW$151, DW_AT_decl_column(0x02)
    3038                    
    3039                    $C$DW$152       .dwtag  DW_TAG_enumerator
    3040                            .dwattr $C$DW$152, DW_AT_name("StartTime_Window_Violation")
    3041                            .dwattr $C$DW$152, DW_AT_const_value(0x03)
    3042                            .dwattr $C$DW$152, DW_AT_decl_file("C:/Users/bob/Documents/Projects/induct_forge/RM57Lx_test/P
    3043                            .dwattr $C$DW$152, DW_AT_decl_line(0xc0)
    3044                            .dwattr $C$DW$152, DW_AT_decl_column(0x02)
    3045                    
    3046                    $C$DW$153       .dwtag  DW_TAG_enumerator
    3047                            .dwattr $C$DW$153, DW_AT_name("Key_Seq_Violation")
    3048                            .dwattr $C$DW$153, DW_AT_const_value(0x04)
    3049                            .dwattr $C$DW$153, DW_AT_decl_file("C:/Users/bob/Documents/Projects/induct_forge/RM57Lx_test/P
    3050                            .dwattr $C$DW$153, DW_AT_decl_line(0xc1)
    3051                            .dwattr $C$DW$153, DW_AT_decl_column(0x02)
    3052                    
    3053                            .dwattr $C$DW$T$104, DW_AT_decl_file("C:/Users/bob/Documents/Projects/induct_forge/RM57Lx_test
    3054                            .dwattr $C$DW$T$104, DW_AT_decl_line(0xbb)
    3055                            .dwattr $C$DW$T$104, DW_AT_decl_column(0x0e)
    3056                            .dwendtag $C$DW$T$104
    3057                    
    3058                    $C$DW$T$105     .dwtag  DW_TAG_typedef
    3059                            .dwattr $C$DW$T$105, DW_AT_name("dwdViolation_t")
    3060                            .dwattr $C$DW$T$105, DW_AT_type(*$C$DW$T$104)
    3061                            .dwattr $C$DW$T$105, DW_AT_language(DW_LANG_C)
    3062                            .dwattr $C$DW$T$105, DW_AT_decl_file("C:/Users/bob/Documents/Projects/induct_forge/RM57Lx_test
    3063                            .dwattr $C$DW$T$105, DW_AT_decl_line(0xc2)
    3064                            .dwattr $C$DW$T$105, DW_AT_decl_column(0x02)
    3065                    
    3066                    
    3067                    $C$DW$T$49      .dwtag  DW_TAG_enumeration_type
    3068                            .dwattr $C$DW$T$49, DW_AT_name("dwwdReactionTag")
    3069                            .dwattr $C$DW$T$49, DW_AT_byte_size(0x01)
    3070                    $C$DW$154       .dwtag  DW_TAG_enumerator
    3071                            .dwattr $C$DW$154, DW_AT_name("Generate_Reset")
    3072                            .dwattr $C$DW$154, DW_AT_const_value(0x05)
    3073                            .dwattr $C$DW$154, DW_AT_decl_file("C:/Users/bob/Documents/Projects/induct_forge/RM57Lx_test/P
    3074                            .dwattr $C$DW$154, DW_AT_decl_line(0xd8)
    3075                            .dwattr $C$DW$154, DW_AT_decl_column(0x02)
    3076                    
    3077                    $C$DW$155       .dwtag  DW_TAG_enumerator
    3078                            .dwattr $C$DW$155, DW_AT_name("Generate_NMI")
    3079                            .dwattr $C$DW$155, DW_AT_const_value(0x0a)
    3080                            .dwattr $C$DW$155, DW_AT_decl_file("C:/Users/bob/Documents/Projects/induct_forge/RM57Lx_test/P
TI ARM Assembler PC v16.9.0 Thu Feb 16 13:27:11 2017

Tools Copyright (c) 1996-2015 Texas Instruments Incorporated
C:\Users\bob\AppData\Local\Temp\1223210                              PAGE   57

    3081                            .dwattr $C$DW$155, DW_AT_decl_line(0xd9)
    3082                            .dwattr $C$DW$155, DW_AT_decl_column(0x02)
    3083                    
    3084                            .dwattr $C$DW$T$49, DW_AT_decl_file("C:/Users/bob/Documents/Projects/induct_forge/RM57Lx_test/
    3085                            .dwattr $C$DW$T$49, DW_AT_decl_line(0xd6)
    3086                            .dwattr $C$DW$T$49, DW_AT_decl_column(0x0e)
    3087                            .dwendtag $C$DW$T$49
