TI ARM Assembler PC v16.9.0 Thu Feb 16 13:27:12 2017

Tools Copyright (c) 1996-2015 Texas Instruments Incorporated
C:\Users\bob\AppData\Local\Temp\1183610                              PAGE    1

       1                    ;******************************************************************************
       2                    ;* TI ARM C/C++ Codegen                                        PC v16.9.0.LTS *
       3                    ;* Date/Time created: Thu Feb 16 13:27:11 2017                                *
       4                    ;******************************************************************************
       5                            .compiler_opts --abi=eabi --arm_vmrs_si_workaround=off --code_state=32 --diag_wrap=off --embed
       6 00000000                   .state32
       7                    
       8                    $C$DW$CU        .dwtag  DW_TAG_compile_unit
       9                            .dwattr $C$DW$CU, DW_AT_name("../hcg/source/HL_sys_pcr.c")
      10                            .dwattr $C$DW$CU, DW_AT_producer("TI TI ARM C/C++ Codegen PC v16.9.0.LTS Copyright (c) 1996-20
      11                            .dwattr $C$DW$CU, DW_AT_TI_version(0x01)
      12                            .dwattr $C$DW$CU, DW_AT_comp_dir("C:\Users\bob\Documents\Projects\induct_forge\RM57Lx_test\Pro
      13                    ;       C:\ti\ccsv7\tools\compiler\ti-cgt-arm_16.9.0.LTS\bin\armacpia.exe -@C:\\Users\\bob\\AppData\\L
      14 00000000                   .sect   ".text"
      15                            .clink
      16                            .armfunc peripheral_Memory_Protection_Set
      17 00000000                   .state32
      18                            .global peripheral_Memory_Protection_Set
      19                    
      20                    $C$DW$1 .dwtag  DW_TAG_subprogram
      21                            .dwattr $C$DW$1, DW_AT_name("peripheral_Memory_Protection_Set")
      22                            .dwattr $C$DW$1, DW_AT_low_pc(peripheral_Memory_Protection_Set)
      23                            .dwattr $C$DW$1, DW_AT_high_pc(0x00)
      24                            .dwattr $C$DW$1, DW_AT_TI_symbol_name("peripheral_Memory_Protection_Set")
      25                            .dwattr $C$DW$1, DW_AT_external
      26                            .dwattr $C$DW$1, DW_AT_TI_begin_file("../hcg/source/HL_sys_pcr.c")
      27                            .dwattr $C$DW$1, DW_AT_TI_begin_line(0x3b)
      28                            .dwattr $C$DW$1, DW_AT_TI_begin_column(0x06)
      29                            .dwattr $C$DW$1, DW_AT_decl_file("../hcg/source/HL_sys_pcr.c")
      30                            .dwattr $C$DW$1, DW_AT_decl_line(0x3b)
      31                            .dwattr $C$DW$1, DW_AT_decl_column(0x06)
      32                            .dwattr $C$DW$1, DW_AT_TI_max_frame_size(0x08)
      33                            .dwpsn  file "../hcg/source/HL_sys_pcr.c",line 60,column 1,is_stmt,address peripheral_Memory_P
      34                    
      35                            .dwfde $C$DW$CIE, peripheral_Memory_Protection_Set
      36                    $C$DW$2 .dwtag  DW_TAG_formal_parameter
      37                            .dwattr $C$DW$2, DW_AT_name("pcr")
      38                            .dwattr $C$DW$2, DW_AT_TI_symbol_name("pcr")
      39                            .dwattr $C$DW$2, DW_AT_type(*$C$DW$T$57)
      40                            .dwattr $C$DW$2, DW_AT_location[DW_OP_reg0]
      41                    
      42                    $C$DW$3 .dwtag  DW_TAG_formal_parameter
      43                            .dwattr $C$DW$3, DW_AT_name("PCS")
      44                            .dwattr $C$DW$3, DW_AT_TI_symbol_name("PCS")
      45                            .dwattr $C$DW$3, DW_AT_type(*$C$DW$T$35)
      46                            .dwattr $C$DW$3, DW_AT_location[DW_OP_reg1]
      47                    
      48                    
      49                    ;*****************************************************************************
      50                    ;* FUNCTION NAME: peripheral_Memory_Protection_Set                           *
      51                    ;*                                                                           *
      52                    ;*   Regs Modified     : A1,A2,V9,SP,SR                                      *
      53                    ;*   Regs Used         : A1,A2,V9,SP,LR,SR                                   *
      54                    ;*   Local Frame Size  : 0 Args + 8 Auto + 0 Save = 8 byte                   *
      55                    ;*****************************************************************************
TI ARM Assembler PC v16.9.0 Thu Feb 16 13:27:12 2017

Tools Copyright (c) 1996-2015 Texas Instruments Incorporated
C:\Users\bob\AppData\Local\Temp\1183610                              PAGE    2

      56 00000000           peripheral_Memory_Protection_Set:
      57                    ;* --------------------------------------------------------------------------*
      58                            .dwcfi  cfa_offset, 0
      59 00000000 E24DD008          SUB       SP, SP, #8            ; [DPU_4_PIPE0] 
      60                            .dwcfi  cfa_offset, 8
      61                    $C$DW$4 .dwtag  DW_TAG_variable
      62                            .dwattr $C$DW$4, DW_AT_name("pcr")
      63                            .dwattr $C$DW$4, DW_AT_TI_symbol_name("pcr")
      64                            .dwattr $C$DW$4, DW_AT_type(*$C$DW$T$57)
      65                            .dwattr $C$DW$4, DW_AT_location[DW_OP_breg13 0]
      66                    
      67                    $C$DW$5 .dwtag  DW_TAG_variable
      68                            .dwattr $C$DW$5, DW_AT_name("PCS")
      69                            .dwattr $C$DW$5, DW_AT_TI_symbol_name("PCS")
      70                            .dwattr $C$DW$5, DW_AT_type(*$C$DW$T$35)
      71                            .dwattr $C$DW$5, DW_AT_location[DW_OP_breg13 4]
      72                    
      73 00000004 E5CD1004          STRB      A2, [SP, #4]          ; [DPU_4_PIPE0] |60| 
      74 00000008 E58D0000          STR       A1, [SP, #0]          ; [DPU_4_PIPE0] |60| 
      75                            .dwpsn  file "../hcg/source/HL_sys_pcr.c",line 64,column 2,is_stmt,isa 2
      76 0000000c E5DDC004          LDRB      V9, [SP, #4]          ; [DPU_4_PIPE0] |64| 
      77 00000010 E35C0020          CMP       V9, #32               ; [DPU_4_PIPE0] |64| 
      78 00000014 2AFFFFFE!         BCS       ||$C$L1||             ; [DPU_4_PIPE1] |64| 
      79                            ; BRANCHCC OCCURS {||$C$L1||}    ; [] |64| 
      80                    ;* --------------------------------------------------------------------------*
      81                            .dwpsn  file "../hcg/source/HL_sys_pcr.c",line 66,column 3,is_stmt,isa 2
      82 00000018 E5DDC004          LDRB      V9, [SP, #4]          ; [DPU_4_PIPE0] |66| 
      83 0000001c E59D0000          LDR       A1, [SP, #0]          ; [DPU_4_PIPE0] |66| 
      84 00000020 E3A01001          MOV       A2, #1                ; [DPU_4_PIPE0] |66| 
      85 00000024 E1A0CC11          MOV       V9, A2, LSL V9        ; [DPU_4_PIPE0] |66| 
      86 00000028 E580C000          STR       V9, [A1, #0]          ; [DPU_4_PIPE0] |66| 
      87                            .dwpsn  file "../hcg/source/HL_sys_pcr.c",line 67,column 2,is_stmt,isa 2
      88 0000002c EAFFFFFE!         B         ||$C$L2||             ; [DPU_4_PIPE1] |67| 
      89                            ; BRANCH OCCURS {||$C$L2||}      ; [] |67| 
      90                    ;* --------------------------------------------------------------------------*
      91 00000030           ||$C$L1||:    
      92                            .dwpsn  file "../hcg/source/HL_sys_pcr.c",line 70,column 3,is_stmt,isa 2
      93 00000030 E5DDC004          LDRB      V9, [SP, #4]          ; [DPU_4_PIPE0] |70| 
      94 00000034 E59D0000          LDR       A1, [SP, #0]          ; [DPU_4_PIPE0] |70| 
      95 00000038 E3A01001          MOV       A2, #1                ; [DPU_4_PIPE0] |70| 
      96 0000003c E24CC020          SUB       V9, V9, #32           ; [DPU_4_PIPE0] |70| 
      97 00000040 E1A0CC11          MOV       V9, A2, LSL V9        ; [DPU_4_PIPE0] |70| 
      98 00000044 E580C004          STR       V9, [A1, #4]          ; [DPU_4_PIPE0] |70| 
      99                            .dwpsn  file "../hcg/source/HL_sys_pcr.c",line 75,column 1,is_stmt,isa 2
     100                    ;* --------------------------------------------------------------------------*
     101 00000048           ||$C$L2||:    
     102 00000048 E28DD008          ADD       SP, SP, #8            ; [DPU_4_PIPE0] 
     103                            .dwcfi  cfa_offset, 0
     104                    $C$DW$6 .dwtag  DW_TAG_TI_branch
     105                            .dwattr $C$DW$6, DW_AT_low_pc(0x00)
     106                            .dwattr $C$DW$6, DW_AT_TI_return
     107                    
     108 0000004c E12FFF1E          BX        LR                    ; [DPU_4_PIPE1] 
     109                            ; BRANCH OCCURS                  ; [] 
     110                            .dwattr $C$DW$1, DW_AT_TI_end_file("../hcg/source/HL_sys_pcr.c")
TI ARM Assembler PC v16.9.0 Thu Feb 16 13:27:12 2017

Tools Copyright (c) 1996-2015 Texas Instruments Incorporated
C:\Users\bob\AppData\Local\Temp\1183610                              PAGE    3

     111                            .dwattr $C$DW$1, DW_AT_TI_end_line(0x4b)
     112                            .dwattr $C$DW$1, DW_AT_TI_end_column(0x01)
     113                            .dwendentry
     114                            .dwendtag $C$DW$1
     115                    
     116 00000050                   .sect   ".text"
     117                            .clink
     118                            .armfunc peripheral_Memory_Protection_Clr
     119 00000050                   .state32
     120                            .global peripheral_Memory_Protection_Clr
     121                    
     122                    $C$DW$7 .dwtag  DW_TAG_subprogram
     123                            .dwattr $C$DW$7, DW_AT_name("peripheral_Memory_Protection_Clr")
     124                            .dwattr $C$DW$7, DW_AT_low_pc(peripheral_Memory_Protection_Clr)
     125                            .dwattr $C$DW$7, DW_AT_high_pc(0x00)
     126                            .dwattr $C$DW$7, DW_AT_TI_symbol_name("peripheral_Memory_Protection_Clr")
     127                            .dwattr $C$DW$7, DW_AT_external
     128                            .dwattr $C$DW$7, DW_AT_TI_begin_file("../hcg/source/HL_sys_pcr.c")
     129                            .dwattr $C$DW$7, DW_AT_TI_begin_line(0x56)
     130                            .dwattr $C$DW$7, DW_AT_TI_begin_column(0x06)
     131                            .dwattr $C$DW$7, DW_AT_decl_file("../hcg/source/HL_sys_pcr.c")
     132                            .dwattr $C$DW$7, DW_AT_decl_line(0x56)
     133                            .dwattr $C$DW$7, DW_AT_decl_column(0x06)
     134                            .dwattr $C$DW$7, DW_AT_TI_max_frame_size(0x08)
     135                            .dwpsn  file "../hcg/source/HL_sys_pcr.c",line 87,column 1,is_stmt,address peripheral_Memory_P
     136                    
     137                            .dwfde $C$DW$CIE, peripheral_Memory_Protection_Clr
     138                    $C$DW$8 .dwtag  DW_TAG_formal_parameter
     139                            .dwattr $C$DW$8, DW_AT_name("pcr")
     140                            .dwattr $C$DW$8, DW_AT_TI_symbol_name("pcr")
     141                            .dwattr $C$DW$8, DW_AT_type(*$C$DW$T$57)
     142                            .dwattr $C$DW$8, DW_AT_location[DW_OP_reg0]
     143                    
     144                    $C$DW$9 .dwtag  DW_TAG_formal_parameter
     145                            .dwattr $C$DW$9, DW_AT_name("PCS")
     146                            .dwattr $C$DW$9, DW_AT_TI_symbol_name("PCS")
     147                            .dwattr $C$DW$9, DW_AT_type(*$C$DW$T$35)
     148                            .dwattr $C$DW$9, DW_AT_location[DW_OP_reg1]
     149                    
     150                    
     151                    ;*****************************************************************************
     152                    ;* FUNCTION NAME: peripheral_Memory_Protection_Clr                           *
     153                    ;*                                                                           *
     154                    ;*   Regs Modified     : A1,A2,V9,SP,SR                                      *
     155                    ;*   Regs Used         : A1,A2,V9,SP,LR,SR                                   *
     156                    ;*   Local Frame Size  : 0 Args + 8 Auto + 0 Save = 8 byte                   *
     157                    ;*****************************************************************************
     158 00000050           peripheral_Memory_Protection_Clr:
     159                    ;* --------------------------------------------------------------------------*
     160                            .dwcfi  cfa_offset, 0
     161 00000050 E24DD008          SUB       SP, SP, #8            ; [DPU_4_PIPE0] 
     162                            .dwcfi  cfa_offset, 8
     163                    $C$DW$10        .dwtag  DW_TAG_variable
     164                            .dwattr $C$DW$10, DW_AT_name("pcr")
     165                            .dwattr $C$DW$10, DW_AT_TI_symbol_name("pcr")
TI ARM Assembler PC v16.9.0 Thu Feb 16 13:27:12 2017

Tools Copyright (c) 1996-2015 Texas Instruments Incorporated
C:\Users\bob\AppData\Local\Temp\1183610                              PAGE    4

     166                            .dwattr $C$DW$10, DW_AT_type(*$C$DW$T$57)
     167                            .dwattr $C$DW$10, DW_AT_location[DW_OP_breg13 0]
     168                    
     169                    $C$DW$11        .dwtag  DW_TAG_variable
     170                            .dwattr $C$DW$11, DW_AT_name("PCS")
     171                            .dwattr $C$DW$11, DW_AT_TI_symbol_name("PCS")
     172                            .dwattr $C$DW$11, DW_AT_type(*$C$DW$T$35)
     173                            .dwattr $C$DW$11, DW_AT_location[DW_OP_breg13 4]
     174                    
     175 00000054 E5CD1004          STRB      A2, [SP, #4]          ; [DPU_4_PIPE0] |87| 
     176 00000058 E58D0000          STR       A1, [SP, #0]          ; [DPU_4_PIPE0] |87| 
     177                            .dwpsn  file "../hcg/source/HL_sys_pcr.c",line 91,column 2,is_stmt,isa 2
     178 0000005c E5DDC004          LDRB      V9, [SP, #4]          ; [DPU_4_PIPE0] |91| 
     179 00000060 E35C0020          CMP       V9, #32               ; [DPU_4_PIPE0] |91| 
     180 00000064 2AFFFFFE!         BCS       ||$C$L3||             ; [DPU_4_PIPE1] |91| 
     181                            ; BRANCHCC OCCURS {||$C$L3||}    ; [] |91| 
     182                    ;* --------------------------------------------------------------------------*
     183                            .dwpsn  file "../hcg/source/HL_sys_pcr.c",line 93,column 3,is_stmt,isa 2
     184 00000068 E5DDC004          LDRB      V9, [SP, #4]          ; [DPU_4_PIPE0] |93| 
     185 0000006c E59D0000          LDR       A1, [SP, #0]          ; [DPU_4_PIPE0] |93| 
     186 00000070 E3A01001          MOV       A2, #1                ; [DPU_4_PIPE0] |93| 
     187 00000074 E1A0CC11          MOV       V9, A2, LSL V9        ; [DPU_4_PIPE0] |93| 
     188 00000078 E580C010          STR       V9, [A1, #16]         ; [DPU_4_PIPE0] |93| 
     189                            .dwpsn  file "../hcg/source/HL_sys_pcr.c",line 94,column 2,is_stmt,isa 2
     190 0000007c EAFFFFFE!         B         ||$C$L4||             ; [DPU_4_PIPE1] |94| 
     191                            ; BRANCH OCCURS {||$C$L4||}      ; [] |94| 
     192                    ;* --------------------------------------------------------------------------*
     193 00000080           ||$C$L3||:    
     194                            .dwpsn  file "../hcg/source/HL_sys_pcr.c",line 97,column 3,is_stmt,isa 2
     195 00000080 E5DDC004          LDRB      V9, [SP, #4]          ; [DPU_4_PIPE0] |97| 
     196 00000084 E59D0000          LDR       A1, [SP, #0]          ; [DPU_4_PIPE0] |97| 
     197 00000088 E3A01001          MOV       A2, #1                ; [DPU_4_PIPE0] |97| 
     198 0000008c E24CC020          SUB       V9, V9, #32           ; [DPU_4_PIPE0] |97| 
     199 00000090 E1A0CC11          MOV       V9, A2, LSL V9        ; [DPU_4_PIPE0] |97| 
     200 00000094 E580C014          STR       V9, [A1, #20]         ; [DPU_4_PIPE0] |97| 
     201                            .dwpsn  file "../hcg/source/HL_sys_pcr.c",line 102,column 1,is_stmt,isa 2
     202                    ;* --------------------------------------------------------------------------*
     203 00000098           ||$C$L4||:    
     204 00000098 E28DD008          ADD       SP, SP, #8            ; [DPU_4_PIPE0] 
     205                            .dwcfi  cfa_offset, 0
     206                    $C$DW$12        .dwtag  DW_TAG_TI_branch
     207                            .dwattr $C$DW$12, DW_AT_low_pc(0x00)
     208                            .dwattr $C$DW$12, DW_AT_TI_return
     209                    
     210 0000009c E12FFF1E          BX        LR                    ; [DPU_4_PIPE1] 
     211                            ; BRANCH OCCURS                  ; [] 
     212                            .dwattr $C$DW$7, DW_AT_TI_end_file("../hcg/source/HL_sys_pcr.c")
     213                            .dwattr $C$DW$7, DW_AT_TI_end_line(0x66)
     214                            .dwattr $C$DW$7, DW_AT_TI_end_column(0x01)
     215                            .dwendentry
     216                            .dwendtag $C$DW$7
     217                    
     218 000000a0                   .sect   ".text"
     219                            .clink
     220                            .armfunc peripheral_Frame_Protection_Set
TI ARM Assembler PC v16.9.0 Thu Feb 16 13:27:12 2017

Tools Copyright (c) 1996-2015 Texas Instruments Incorporated
C:\Users\bob\AppData\Local\Temp\1183610                              PAGE    5

     221 000000a0                   .state32
     222                            .global peripheral_Frame_Protection_Set
     223                    
     224                    $C$DW$13        .dwtag  DW_TAG_subprogram
     225                            .dwattr $C$DW$13, DW_AT_name("peripheral_Frame_Protection_Set")
     226                            .dwattr $C$DW$13, DW_AT_low_pc(peripheral_Frame_Protection_Set)
     227                            .dwattr $C$DW$13, DW_AT_high_pc(0x00)
     228                            .dwattr $C$DW$13, DW_AT_TI_symbol_name("peripheral_Frame_Protection_Set")
     229                            .dwattr $C$DW$13, DW_AT_external
     230                            .dwattr $C$DW$13, DW_AT_TI_begin_file("../hcg/source/HL_sys_pcr.c")
     231                            .dwattr $C$DW$13, DW_AT_TI_begin_line(0x76)
     232                            .dwattr $C$DW$13, DW_AT_TI_begin_column(0x06)
     233                            .dwattr $C$DW$13, DW_AT_decl_file("../hcg/source/HL_sys_pcr.c")
     234                            .dwattr $C$DW$13, DW_AT_decl_line(0x76)
     235                            .dwattr $C$DW$13, DW_AT_decl_column(0x06)
     236                            .dwattr $C$DW$13, DW_AT_TI_max_frame_size(0x10)
     237                            .dwpsn  file "../hcg/source/HL_sys_pcr.c",line 119,column 1,is_stmt,address peripheral_Frame_P
     238                    
     239                            .dwfde $C$DW$CIE, peripheral_Frame_Protection_Set
     240                    $C$DW$14        .dwtag  DW_TAG_formal_parameter
     241                            .dwattr $C$DW$14, DW_AT_name("pcr")
     242                            .dwattr $C$DW$14, DW_AT_TI_symbol_name("pcr")
     243                            .dwattr $C$DW$14, DW_AT_type(*$C$DW$T$57)
     244                            .dwattr $C$DW$14, DW_AT_location[DW_OP_reg0]
     245                    
     246                    $C$DW$15        .dwtag  DW_TAG_formal_parameter
     247                            .dwattr $C$DW$15, DW_AT_name("PS")
     248                            .dwattr $C$DW$15, DW_AT_TI_symbol_name("PS")
     249                            .dwattr $C$DW$15, DW_AT_type(*$C$DW$T$37)
     250                            .dwattr $C$DW$15, DW_AT_location[DW_OP_reg1]
     251                    
     252                    $C$DW$16        .dwtag  DW_TAG_formal_parameter
     253                            .dwattr $C$DW$16, DW_AT_name("quadrant")
     254                            .dwattr $C$DW$16, DW_AT_TI_symbol_name("quadrant")
     255                            .dwattr $C$DW$16, DW_AT_type(*$C$DW$T$20)
     256                            .dwattr $C$DW$16, DW_AT_location[DW_OP_reg2]
     257                    
     258                    
     259                    ;*****************************************************************************
     260                    ;* FUNCTION NAME: peripheral_Frame_Protection_Set                            *
     261                    ;*                                                                           *
     262                    ;*   Regs Modified     : A1,A2,V9,SP,SR                                      *
     263                    ;*   Regs Used         : A1,A2,A3,V9,SP,LR,SR                                *
     264                    ;*   Local Frame Size  : 0 Args + 12 Auto + 0 Save = 12 byte                 *
     265                    ;*****************************************************************************
     266 000000a0           peripheral_Frame_Protection_Set:
     267                    ;* --------------------------------------------------------------------------*
     268                            .dwcfi  cfa_offset, 0
     269 000000a0 E24DD010          SUB       SP, SP, #16           ; [DPU_4_PIPE0] 
     270                            .dwcfi  cfa_offset, 16
     271                    $C$DW$17        .dwtag  DW_TAG_variable
     272                            .dwattr $C$DW$17, DW_AT_name("pcr")
     273                            .dwattr $C$DW$17, DW_AT_TI_symbol_name("pcr")
     274                            .dwattr $C$DW$17, DW_AT_type(*$C$DW$T$57)
     275                            .dwattr $C$DW$17, DW_AT_location[DW_OP_breg13 0]
TI ARM Assembler PC v16.9.0 Thu Feb 16 13:27:12 2017

Tools Copyright (c) 1996-2015 Texas Instruments Incorporated
C:\Users\bob\AppData\Local\Temp\1183610                              PAGE    6

     276                    
     277                    $C$DW$18        .dwtag  DW_TAG_variable
     278                            .dwattr $C$DW$18, DW_AT_name("quadrant")
     279                            .dwattr $C$DW$18, DW_AT_TI_symbol_name("quadrant")
     280                            .dwattr $C$DW$18, DW_AT_type(*$C$DW$T$20)
     281                            .dwattr $C$DW$18, DW_AT_location[DW_OP_breg13 4]
     282                    
     283                    $C$DW$19        .dwtag  DW_TAG_variable
     284                            .dwattr $C$DW$19, DW_AT_name("PS")
     285                            .dwattr $C$DW$19, DW_AT_TI_symbol_name("PS")
     286                            .dwattr $C$DW$19, DW_AT_type(*$C$DW$T$37)
     287                            .dwattr $C$DW$19, DW_AT_location[DW_OP_breg13 8]
     288                    
     289 000000a4 E58D2004          STR       A3, [SP, #4]          ; [DPU_4_PIPE0] |119| 
     290 000000a8 E5CD1008          STRB      A2, [SP, #8]          ; [DPU_4_PIPE0] |119| 
     291 000000ac E58D0000          STR       A1, [SP, #0]          ; [DPU_4_PIPE0] |119| 
     292                            .dwpsn  file "../hcg/source/HL_sys_pcr.c",line 123,column 2,is_stmt,isa 2
     293 000000b0 E59DC004          LDR       V9, [SP, #4]          ; [DPU_4_PIPE0] |123| 
     294 000000b4 E20CC00F          AND       V9, V9, #15           ; [DPU_4_PIPE0] |123| 
     295 000000b8 E58DC004          STR       V9, [SP, #4]          ; [DPU_4_PIPE0] |123| 
     296                            .dwpsn  file "../hcg/source/HL_sys_pcr.c",line 125,column 2,is_stmt,isa 2
     297 000000bc E5DDC008          LDRB      V9, [SP, #8]          ; [DPU_4_PIPE0] |125| 
     298 000000c0 E35C0008          CMP       V9, #8                ; [DPU_4_PIPE0] |125| 
     299 000000c4 2AFFFFFE!         BCS       ||$C$L5||             ; [DPU_4_PIPE1] |125| 
     300                            ; BRANCHCC OCCURS {||$C$L5||}    ; [] |125| 
     301                    ;* --------------------------------------------------------------------------*
     302                            .dwpsn  file "../hcg/source/HL_sys_pcr.c",line 127,column 3,is_stmt,isa 2
     303 000000c8 E5DDC008          LDRB      V9, [SP, #8]          ; [DPU_4_PIPE0] |127| 
     304 000000cc E59D0004          LDR       A1, [SP, #4]          ; [DPU_4_PIPE0] |127| 
     305 000000d0 E59D1000          LDR       A2, [SP, #0]          ; [DPU_4_PIPE0] |127| 
     306 000000d4 E1A0C10C          MOV       V9, V9, LSL #2        ; [DPU_4_PIPE0] |127| 
     307 000000d8 E1A0CC10          MOV       V9, A1, LSL V9        ; [DPU_4_PIPE0] |127| 
     308 000000dc E581C020          STR       V9, [A2, #32]         ; [DPU_4_PIPE0] |127| 
     309                            .dwpsn  file "../hcg/source/HL_sys_pcr.c",line 128,column 2,is_stmt,isa 2
     310 000000e0 EAFFFFFE!         B         ||$C$L8||             ; [DPU_4_PIPE1] |128| 
     311                            ; BRANCH OCCURS {||$C$L8||}      ; [] |128| 
     312                    ;* --------------------------------------------------------------------------*
     313 000000e4           ||$C$L5||:    
     314                            .dwpsn  file "../hcg/source/HL_sys_pcr.c",line 129,column 7,is_stmt,isa 2
     315 000000e4 E5DDC008          LDRB      V9, [SP, #8]          ; [DPU_4_PIPE0] |129| 
     316 000000e8 E35C0010          CMP       V9, #16               ; [DPU_4_PIPE0] |129| 
     317 000000ec 2AFFFFFE!         BCS       ||$C$L6||             ; [DPU_4_PIPE1] |129| 
     318                            ; BRANCHCC OCCURS {||$C$L6||}    ; [] |129| 
     319                    ;* --------------------------------------------------------------------------*
     320                            .dwpsn  file "../hcg/source/HL_sys_pcr.c",line 131,column 3,is_stmt,isa 2
     321 000000f0 E5DDC008          LDRB      V9, [SP, #8]          ; [DPU_4_PIPE0] |131| 
     322 000000f4 E59D0004          LDR       A1, [SP, #4]          ; [DPU_4_PIPE0] |131| 
     323 000000f8 E59D1000          LDR       A2, [SP, #0]          ; [DPU_4_PIPE0] |131| 
     324 000000fc E24CC008          SUB       V9, V9, #8            ; [DPU_4_PIPE0] |131| 
     325 00000100 E1A0C10C          MOV       V9, V9, LSL #2        ; [DPU_4_PIPE0] |131| 
     326 00000104 E1A0CC10          MOV       V9, A1, LSL V9        ; [DPU_4_PIPE0] |131| 
     327 00000108 E581C024          STR       V9, [A2, #36]         ; [DPU_4_PIPE0] |131| 
     328                            .dwpsn  file "../hcg/source/HL_sys_pcr.c",line 132,column 2,is_stmt,isa 2
     329 0000010c EAFFFFFE!         B         ||$C$L8||             ; [DPU_4_PIPE1] |132| 
     330                            ; BRANCH OCCURS {||$C$L8||}      ; [] |132| 
TI ARM Assembler PC v16.9.0 Thu Feb 16 13:27:12 2017

Tools Copyright (c) 1996-2015 Texas Instruments Incorporated
C:\Users\bob\AppData\Local\Temp\1183610                              PAGE    7

     331                    ;* --------------------------------------------------------------------------*
     332 00000110           ||$C$L6||:    
     333                            .dwpsn  file "../hcg/source/HL_sys_pcr.c",line 133,column 7,is_stmt,isa 2
     334 00000110 E5DDC008          LDRB      V9, [SP, #8]          ; [DPU_4_PIPE0] |133| 
     335 00000114 E35C0018          CMP       V9, #24               ; [DPU_4_PIPE0] |133| 
     336 00000118 2AFFFFFE!         BCS       ||$C$L7||             ; [DPU_4_PIPE1] |133| 
     337                            ; BRANCHCC OCCURS {||$C$L7||}    ; [] |133| 
     338                    ;* --------------------------------------------------------------------------*
     339                            .dwpsn  file "../hcg/source/HL_sys_pcr.c",line 135,column 3,is_stmt,isa 2
     340 0000011c E5DDC008          LDRB      V9, [SP, #8]          ; [DPU_4_PIPE0] |135| 
     341 00000120 E59D0004          LDR       A1, [SP, #4]          ; [DPU_4_PIPE0] |135| 
     342 00000124 E59D1000          LDR       A2, [SP, #0]          ; [DPU_4_PIPE0] |135| 
     343 00000128 E24CC010          SUB       V9, V9, #16           ; [DPU_4_PIPE0] |135| 
     344 0000012c E1A0C10C          MOV       V9, V9, LSL #2        ; [DPU_4_PIPE0] |135| 
     345 00000130 E1A0CC10          MOV       V9, A1, LSL V9        ; [DPU_4_PIPE0] |135| 
     346 00000134 E581C028          STR       V9, [A2, #40]         ; [DPU_4_PIPE0] |135| 
     347                            .dwpsn  file "../hcg/source/HL_sys_pcr.c",line 136,column 2,is_stmt,isa 2
     348 00000138 EAFFFFFE!         B         ||$C$L8||             ; [DPU_4_PIPE1] |136| 
     349                            ; BRANCH OCCURS {||$C$L8||}      ; [] |136| 
     350                    ;* --------------------------------------------------------------------------*
     351 0000013c           ||$C$L7||:    
     352                            .dwpsn  file "../hcg/source/HL_sys_pcr.c",line 139,column 3,is_stmt,isa 2
     353 0000013c E5DDC008          LDRB      V9, [SP, #8]          ; [DPU_4_PIPE0] |139| 
     354 00000140 E59D0004          LDR       A1, [SP, #4]          ; [DPU_4_PIPE0] |139| 
     355 00000144 E59D1000          LDR       A2, [SP, #0]          ; [DPU_4_PIPE0] |139| 
     356 00000148 E24CC018          SUB       V9, V9, #24           ; [DPU_4_PIPE0] |139| 
     357 0000014c E1A0C10C          MOV       V9, V9, LSL #2        ; [DPU_4_PIPE0] |139| 
     358 00000150 E1A0CC10          MOV       V9, A1, LSL V9        ; [DPU_4_PIPE0] |139| 
     359 00000154 E581C02C          STR       V9, [A2, #44]         ; [DPU_4_PIPE0] |139| 
     360                            .dwpsn  file "../hcg/source/HL_sys_pcr.c",line 144,column 1,is_stmt,isa 2
     361                    ;* --------------------------------------------------------------------------*
     362 00000158           ||$C$L8||:    
     363 00000158 E28DD010          ADD       SP, SP, #16           ; [DPU_4_PIPE0] 
     364                            .dwcfi  cfa_offset, 0
     365                    $C$DW$20        .dwtag  DW_TAG_TI_branch
     366                            .dwattr $C$DW$20, DW_AT_low_pc(0x00)
     367                            .dwattr $C$DW$20, DW_AT_TI_return
     368                    
     369 0000015c E12FFF1E          BX        LR                    ; [DPU_4_PIPE1] 
     370                            ; BRANCH OCCURS                  ; [] 
     371                            .dwattr $C$DW$13, DW_AT_TI_end_file("../hcg/source/HL_sys_pcr.c")
     372                            .dwattr $C$DW$13, DW_AT_TI_end_line(0x90)
     373                            .dwattr $C$DW$13, DW_AT_TI_end_column(0x01)
     374                            .dwendentry
     375                            .dwendtag $C$DW$13
     376                    
     377 00000160                   .sect   ".text"
     378                            .clink
     379                            .armfunc peripheral_Frame_Protection_Clr
     380 00000160                   .state32
     381                            .global peripheral_Frame_Protection_Clr
     382                    
     383                    $C$DW$21        .dwtag  DW_TAG_subprogram
     384                            .dwattr $C$DW$21, DW_AT_name("peripheral_Frame_Protection_Clr")
     385                            .dwattr $C$DW$21, DW_AT_low_pc(peripheral_Frame_Protection_Clr)
TI ARM Assembler PC v16.9.0 Thu Feb 16 13:27:12 2017

Tools Copyright (c) 1996-2015 Texas Instruments Incorporated
C:\Users\bob\AppData\Local\Temp\1183610                              PAGE    8

     386                            .dwattr $C$DW$21, DW_AT_high_pc(0x00)
     387                            .dwattr $C$DW$21, DW_AT_TI_symbol_name("peripheral_Frame_Protection_Clr")
     388                            .dwattr $C$DW$21, DW_AT_external
     389                            .dwattr $C$DW$21, DW_AT_TI_begin_file("../hcg/source/HL_sys_pcr.c")
     390                            .dwattr $C$DW$21, DW_AT_TI_begin_line(0xa0)
     391                            .dwattr $C$DW$21, DW_AT_TI_begin_column(0x06)
     392                            .dwattr $C$DW$21, DW_AT_decl_file("../hcg/source/HL_sys_pcr.c")
     393                            .dwattr $C$DW$21, DW_AT_decl_line(0xa0)
     394                            .dwattr $C$DW$21, DW_AT_decl_column(0x06)
     395                            .dwattr $C$DW$21, DW_AT_TI_max_frame_size(0x10)
     396                            .dwpsn  file "../hcg/source/HL_sys_pcr.c",line 161,column 1,is_stmt,address peripheral_Frame_P
     397                    
     398                            .dwfde $C$DW$CIE, peripheral_Frame_Protection_Clr
     399                    $C$DW$22        .dwtag  DW_TAG_formal_parameter
     400                            .dwattr $C$DW$22, DW_AT_name("pcr")
     401                            .dwattr $C$DW$22, DW_AT_TI_symbol_name("pcr")
     402                            .dwattr $C$DW$22, DW_AT_type(*$C$DW$T$57)
     403                            .dwattr $C$DW$22, DW_AT_location[DW_OP_reg0]
     404                    
     405                    $C$DW$23        .dwtag  DW_TAG_formal_parameter
     406                            .dwattr $C$DW$23, DW_AT_name("PS")
     407                            .dwattr $C$DW$23, DW_AT_TI_symbol_name("PS")
     408                            .dwattr $C$DW$23, DW_AT_type(*$C$DW$T$37)
     409                            .dwattr $C$DW$23, DW_AT_location[DW_OP_reg1]
     410                    
     411                    $C$DW$24        .dwtag  DW_TAG_formal_parameter
     412                            .dwattr $C$DW$24, DW_AT_name("quadrant")
     413                            .dwattr $C$DW$24, DW_AT_TI_symbol_name("quadrant")
     414                            .dwattr $C$DW$24, DW_AT_type(*$C$DW$T$20)
     415                            .dwattr $C$DW$24, DW_AT_location[DW_OP_reg2]
     416                    
     417                    
     418                    ;*****************************************************************************
     419                    ;* FUNCTION NAME: peripheral_Frame_Protection_Clr                            *
     420                    ;*                                                                           *
     421                    ;*   Regs Modified     : A1,A2,V9,SP,SR                                      *
     422                    ;*   Regs Used         : A1,A2,A3,V9,SP,LR,SR                                *
     423                    ;*   Local Frame Size  : 0 Args + 12 Auto + 0 Save = 12 byte                 *
     424                    ;*****************************************************************************
     425 00000160           peripheral_Frame_Protection_Clr:
     426                    ;* --------------------------------------------------------------------------*
     427                            .dwcfi  cfa_offset, 0
     428 00000160 E24DD010          SUB       SP, SP, #16           ; [DPU_4_PIPE0] 
     429                            .dwcfi  cfa_offset, 16
     430                    $C$DW$25        .dwtag  DW_TAG_variable
     431                            .dwattr $C$DW$25, DW_AT_name("pcr")
     432                            .dwattr $C$DW$25, DW_AT_TI_symbol_name("pcr")
     433                            .dwattr $C$DW$25, DW_AT_type(*$C$DW$T$57)
     434                            .dwattr $C$DW$25, DW_AT_location[DW_OP_breg13 0]
     435                    
     436                    $C$DW$26        .dwtag  DW_TAG_variable
     437                            .dwattr $C$DW$26, DW_AT_name("quadrant")
     438                            .dwattr $C$DW$26, DW_AT_TI_symbol_name("quadrant")
     439                            .dwattr $C$DW$26, DW_AT_type(*$C$DW$T$20)
     440                            .dwattr $C$DW$26, DW_AT_location[DW_OP_breg13 4]
TI ARM Assembler PC v16.9.0 Thu Feb 16 13:27:12 2017

Tools Copyright (c) 1996-2015 Texas Instruments Incorporated
C:\Users\bob\AppData\Local\Temp\1183610                              PAGE    9

     441                    
     442                    $C$DW$27        .dwtag  DW_TAG_variable
     443                            .dwattr $C$DW$27, DW_AT_name("PS")
     444                            .dwattr $C$DW$27, DW_AT_TI_symbol_name("PS")
     445                            .dwattr $C$DW$27, DW_AT_type(*$C$DW$T$37)
     446                            .dwattr $C$DW$27, DW_AT_location[DW_OP_breg13 8]
     447                    
     448 00000164 E58D2004          STR       A3, [SP, #4]          ; [DPU_4_PIPE0] |161| 
     449 00000168 E5CD1008          STRB      A2, [SP, #8]          ; [DPU_4_PIPE0] |161| 
     450 0000016c E58D0000          STR       A1, [SP, #0]          ; [DPU_4_PIPE0] |161| 
     451                            .dwpsn  file "../hcg/source/HL_sys_pcr.c",line 165,column 2,is_stmt,isa 2
     452 00000170 E59DC004          LDR       V9, [SP, #4]          ; [DPU_4_PIPE0] |165| 
     453 00000174 E20CC00F          AND       V9, V9, #15           ; [DPU_4_PIPE0] |165| 
     454 00000178 E58DC004          STR       V9, [SP, #4]          ; [DPU_4_PIPE0] |165| 
     455                            .dwpsn  file "../hcg/source/HL_sys_pcr.c",line 167,column 2,is_stmt,isa 2
     456 0000017c E5DDC008          LDRB      V9, [SP, #8]          ; [DPU_4_PIPE0] |167| 
     457 00000180 E35C0008          CMP       V9, #8                ; [DPU_4_PIPE0] |167| 
     458 00000184 2AFFFFFE!         BCS       ||$C$L9||             ; [DPU_4_PIPE1] |167| 
     459                            ; BRANCHCC OCCURS {||$C$L9||}    ; [] |167| 
     460                    ;* --------------------------------------------------------------------------*
     461                            .dwpsn  file "../hcg/source/HL_sys_pcr.c",line 169,column 3,is_stmt,isa 2
     462 00000188 E5DDC008          LDRB      V9, [SP, #8]          ; [DPU_4_PIPE0] |169| 
     463 0000018c E59D0004          LDR       A1, [SP, #4]          ; [DPU_4_PIPE0] |169| 
     464 00000190 E59D1000          LDR       A2, [SP, #0]          ; [DPU_4_PIPE0] |169| 
     465 00000194 E1A0C10C          MOV       V9, V9, LSL #2        ; [DPU_4_PIPE0] |169| 
     466 00000198 E1A0CC10          MOV       V9, A1, LSL V9        ; [DPU_4_PIPE0] |169| 
     467 0000019c E581C040          STR       V9, [A2, #64]         ; [DPU_4_PIPE0] |169| 
     468                            .dwpsn  file "../hcg/source/HL_sys_pcr.c",line 170,column 2,is_stmt,isa 2
     469 000001a0 EAFFFFFE!         B         ||$C$L12||            ; [DPU_4_PIPE1] |170| 
     470                            ; BRANCH OCCURS {||$C$L12||}     ; [] |170| 
     471                    ;* --------------------------------------------------------------------------*
     472 000001a4           ||$C$L9||:    
     473                            .dwpsn  file "../hcg/source/HL_sys_pcr.c",line 171,column 7,is_stmt,isa 2
     474 000001a4 E5DDC008          LDRB      V9, [SP, #8]          ; [DPU_4_PIPE0] |171| 
     475 000001a8 E35C0010          CMP       V9, #16               ; [DPU_4_PIPE0] |171| 
     476 000001ac 2AFFFFFE!         BCS       ||$C$L10||            ; [DPU_4_PIPE1] |171| 
     477                            ; BRANCHCC OCCURS {||$C$L10||}   ; [] |171| 
     478                    ;* --------------------------------------------------------------------------*
     479                            .dwpsn  file "../hcg/source/HL_sys_pcr.c",line 173,column 3,is_stmt,isa 2
     480 000001b0 E5DDC008          LDRB      V9, [SP, #8]          ; [DPU_4_PIPE0] |173| 
     481 000001b4 E59D0004          LDR       A1, [SP, #4]          ; [DPU_4_PIPE0] |173| 
     482 000001b8 E59D1000          LDR       A2, [SP, #0]          ; [DPU_4_PIPE0] |173| 
     483 000001bc E24CC008          SUB       V9, V9, #8            ; [DPU_4_PIPE0] |173| 
     484 000001c0 E1A0C10C          MOV       V9, V9, LSL #2        ; [DPU_4_PIPE0] |173| 
     485 000001c4 E1A0CC10          MOV       V9, A1, LSL V9        ; [DPU_4_PIPE0] |173| 
     486 000001c8 E581C044          STR       V9, [A2, #68]         ; [DPU_4_PIPE0] |173| 
     487                            .dwpsn  file "../hcg/source/HL_sys_pcr.c",line 174,column 2,is_stmt,isa 2
     488 000001cc EAFFFFFE!         B         ||$C$L12||            ; [DPU_4_PIPE1] |174| 
     489                            ; BRANCH OCCURS {||$C$L12||}     ; [] |174| 
     490                    ;* --------------------------------------------------------------------------*
     491 000001d0           ||$C$L10||:    
     492                            .dwpsn  file "../hcg/source/HL_sys_pcr.c",line 175,column 7,is_stmt,isa 2
     493 000001d0 E5DDC008          LDRB      V9, [SP, #8]          ; [DPU_4_PIPE0] |175| 
     494 000001d4 E35C0018          CMP       V9, #24               ; [DPU_4_PIPE0] |175| 
     495 000001d8 2AFFFFFE!         BCS       ||$C$L11||            ; [DPU_4_PIPE1] |175| 
TI ARM Assembler PC v16.9.0 Thu Feb 16 13:27:12 2017

Tools Copyright (c) 1996-2015 Texas Instruments Incorporated
C:\Users\bob\AppData\Local\Temp\1183610                              PAGE   10

     496                            ; BRANCHCC OCCURS {||$C$L11||}   ; [] |175| 
     497                    ;* --------------------------------------------------------------------------*
     498                            .dwpsn  file "../hcg/source/HL_sys_pcr.c",line 177,column 3,is_stmt,isa 2
     499 000001dc E5DDC008          LDRB      V9, [SP, #8]          ; [DPU_4_PIPE0] |177| 
     500 000001e0 E59D0004          LDR       A1, [SP, #4]          ; [DPU_4_PIPE0] |177| 
     501 000001e4 E59D1000          LDR       A2, [SP, #0]          ; [DPU_4_PIPE0] |177| 
     502 000001e8 E24CC010          SUB       V9, V9, #16           ; [DPU_4_PIPE0] |177| 
     503 000001ec E1A0C10C          MOV       V9, V9, LSL #2        ; [DPU_4_PIPE0] |177| 
     504 000001f0 E1A0CC10          MOV       V9, A1, LSL V9        ; [DPU_4_PIPE0] |177| 
     505 000001f4 E581C048          STR       V9, [A2, #72]         ; [DPU_4_PIPE0] |177| 
     506                            .dwpsn  file "../hcg/source/HL_sys_pcr.c",line 178,column 2,is_stmt,isa 2
     507 000001f8 EAFFFFFE!         B         ||$C$L12||            ; [DPU_4_PIPE1] |178| 
     508                            ; BRANCH OCCURS {||$C$L12||}     ; [] |178| 
     509                    ;* --------------------------------------------------------------------------*
     510 000001fc           ||$C$L11||:    
     511                            .dwpsn  file "../hcg/source/HL_sys_pcr.c",line 181,column 3,is_stmt,isa 2
     512 000001fc E5DDC008          LDRB      V9, [SP, #8]          ; [DPU_4_PIPE0] |181| 
     513 00000200 E59D0004          LDR       A1, [SP, #4]          ; [DPU_4_PIPE0] |181| 
     514 00000204 E59D1000          LDR       A2, [SP, #0]          ; [DPU_4_PIPE0] |181| 
     515 00000208 E24CC018          SUB       V9, V9, #24           ; [DPU_4_PIPE0] |181| 
     516 0000020c E1A0C10C          MOV       V9, V9, LSL #2        ; [DPU_4_PIPE0] |181| 
     517 00000210 E1A0CC10          MOV       V9, A1, LSL V9        ; [DPU_4_PIPE0] |181| 
     518 00000214 E581C04C          STR       V9, [A2, #76]         ; [DPU_4_PIPE0] |181| 
     519                            .dwpsn  file "../hcg/source/HL_sys_pcr.c",line 186,column 1,is_stmt,isa 2
     520                    ;* --------------------------------------------------------------------------*
     521 00000218           ||$C$L12||:    
     522 00000218 E28DD010          ADD       SP, SP, #16           ; [DPU_4_PIPE0] 
     523                            .dwcfi  cfa_offset, 0
     524                    $C$DW$28        .dwtag  DW_TAG_TI_branch
     525                            .dwattr $C$DW$28, DW_AT_low_pc(0x00)
     526                            .dwattr $C$DW$28, DW_AT_TI_return
     527                    
     528 0000021c E12FFF1E          BX        LR                    ; [DPU_4_PIPE1] 
     529                            ; BRANCH OCCURS                  ; [] 
     530                            .dwattr $C$DW$21, DW_AT_TI_end_file("../hcg/source/HL_sys_pcr.c")
     531                            .dwattr $C$DW$21, DW_AT_TI_end_line(0xba)
     532                            .dwattr $C$DW$21, DW_AT_TI_end_column(0x01)
     533                            .dwendentry
     534                            .dwendtag $C$DW$21
     535                    
     536 00000220                   .sect   ".text"
     537                            .clink
     538                            .armfunc peripheral_Memory_PowerDown_Set
     539 00000220                   .state32
     540                            .global peripheral_Memory_PowerDown_Set
     541                    
     542                    $C$DW$29        .dwtag  DW_TAG_subprogram
     543                            .dwattr $C$DW$29, DW_AT_name("peripheral_Memory_PowerDown_Set")
     544                            .dwattr $C$DW$29, DW_AT_low_pc(peripheral_Memory_PowerDown_Set)
     545                            .dwattr $C$DW$29, DW_AT_high_pc(0x00)
     546                            .dwattr $C$DW$29, DW_AT_TI_symbol_name("peripheral_Memory_PowerDown_Set")
     547                            .dwattr $C$DW$29, DW_AT_external
     548                            .dwattr $C$DW$29, DW_AT_TI_begin_file("../hcg/source/HL_sys_pcr.c")
     549                            .dwattr $C$DW$29, DW_AT_TI_begin_line(0xc5)
     550                            .dwattr $C$DW$29, DW_AT_TI_begin_column(0x06)
TI ARM Assembler PC v16.9.0 Thu Feb 16 13:27:12 2017

Tools Copyright (c) 1996-2015 Texas Instruments Incorporated
C:\Users\bob\AppData\Local\Temp\1183610                              PAGE   11

     551                            .dwattr $C$DW$29, DW_AT_decl_file("../hcg/source/HL_sys_pcr.c")
     552                            .dwattr $C$DW$29, DW_AT_decl_line(0xc5)
     553                            .dwattr $C$DW$29, DW_AT_decl_column(0x06)
     554                            .dwattr $C$DW$29, DW_AT_TI_max_frame_size(0x08)
     555                            .dwpsn  file "../hcg/source/HL_sys_pcr.c",line 198,column 1,is_stmt,address peripheral_Memory_
     556                    
     557                            .dwfde $C$DW$CIE, peripheral_Memory_PowerDown_Set
     558                    $C$DW$30        .dwtag  DW_TAG_formal_parameter
     559                            .dwattr $C$DW$30, DW_AT_name("pcr")
     560                            .dwattr $C$DW$30, DW_AT_TI_symbol_name("pcr")
     561                            .dwattr $C$DW$30, DW_AT_type(*$C$DW$T$57)
     562                            .dwattr $C$DW$30, DW_AT_location[DW_OP_reg0]
     563                    
     564                    $C$DW$31        .dwtag  DW_TAG_formal_parameter
     565                            .dwattr $C$DW$31, DW_AT_name("PCS")
     566                            .dwattr $C$DW$31, DW_AT_TI_symbol_name("PCS")
     567                            .dwattr $C$DW$31, DW_AT_type(*$C$DW$T$35)
     568                            .dwattr $C$DW$31, DW_AT_location[DW_OP_reg1]
     569                    
     570                    
     571                    ;*****************************************************************************
     572                    ;* FUNCTION NAME: peripheral_Memory_PowerDown_Set                            *
     573                    ;*                                                                           *
     574                    ;*   Regs Modified     : A1,A2,V9,SP,SR                                      *
     575                    ;*   Regs Used         : A1,A2,V9,SP,LR,SR                                   *
     576                    ;*   Local Frame Size  : 0 Args + 8 Auto + 0 Save = 8 byte                   *
     577                    ;*****************************************************************************
     578 00000220           peripheral_Memory_PowerDown_Set:
     579                    ;* --------------------------------------------------------------------------*
     580                            .dwcfi  cfa_offset, 0
     581 00000220 E24DD008          SUB       SP, SP, #8            ; [DPU_4_PIPE0] 
     582                            .dwcfi  cfa_offset, 8
     583                    $C$DW$32        .dwtag  DW_TAG_variable
     584                            .dwattr $C$DW$32, DW_AT_name("pcr")
     585                            .dwattr $C$DW$32, DW_AT_TI_symbol_name("pcr")
     586                            .dwattr $C$DW$32, DW_AT_type(*$C$DW$T$57)
     587                            .dwattr $C$DW$32, DW_AT_location[DW_OP_breg13 0]
     588                    
     589                    $C$DW$33        .dwtag  DW_TAG_variable
     590                            .dwattr $C$DW$33, DW_AT_name("PCS")
     591                            .dwattr $C$DW$33, DW_AT_TI_symbol_name("PCS")
     592                            .dwattr $C$DW$33, DW_AT_type(*$C$DW$T$35)
     593                            .dwattr $C$DW$33, DW_AT_location[DW_OP_breg13 4]
     594                    
     595 00000224 E5CD1004          STRB      A2, [SP, #4]          ; [DPU_4_PIPE0] |198| 
     596 00000228 E58D0000          STR       A1, [SP, #0]          ; [DPU_4_PIPE0] |198| 
     597                            .dwpsn  file "../hcg/source/HL_sys_pcr.c",line 202,column 2,is_stmt,isa 2
     598 0000022c E5DDC004          LDRB      V9, [SP, #4]          ; [DPU_4_PIPE0] |202| 
     599 00000230 E35C0020          CMP       V9, #32               ; [DPU_4_PIPE0] |202| 
     600 00000234 2AFFFFFE!         BCS       ||$C$L13||            ; [DPU_4_PIPE1] |202| 
     601                            ; BRANCHCC OCCURS {||$C$L13||}   ; [] |202| 
     602                    ;* --------------------------------------------------------------------------*
     603                            .dwpsn  file "../hcg/source/HL_sys_pcr.c",line 204,column 3,is_stmt,isa 2
     604 00000238 E5DDC004          LDRB      V9, [SP, #4]          ; [DPU_4_PIPE0] |204| 
     605 0000023c E59D0000          LDR       A1, [SP, #0]          ; [DPU_4_PIPE0] |204| 
TI ARM Assembler PC v16.9.0 Thu Feb 16 13:27:12 2017

Tools Copyright (c) 1996-2015 Texas Instruments Incorporated
C:\Users\bob\AppData\Local\Temp\1183610                              PAGE   12

     606 00000240 E3A01001          MOV       A2, #1                ; [DPU_4_PIPE0] |204| 
     607 00000244 E1A0CC11          MOV       V9, A2, LSL V9        ; [DPU_4_PIPE0] |204| 
     608 00000248 E580C060          STR       V9, [A1, #96]         ; [DPU_4_PIPE0] |204| 
     609                            .dwpsn  file "../hcg/source/HL_sys_pcr.c",line 205,column 2,is_stmt,isa 2
     610 0000024c EAFFFFFE!         B         ||$C$L14||            ; [DPU_4_PIPE1] |205| 
     611                            ; BRANCH OCCURS {||$C$L14||}     ; [] |205| 
     612                    ;* --------------------------------------------------------------------------*
     613 00000250           ||$C$L13||:    
     614                            .dwpsn  file "../hcg/source/HL_sys_pcr.c",line 208,column 3,is_stmt,isa 2
     615 00000250 E5DDC004          LDRB      V9, [SP, #4]          ; [DPU_4_PIPE0] |208| 
     616 00000254 E59D0000          LDR       A1, [SP, #0]          ; [DPU_4_PIPE0] |208| 
     617 00000258 E3A01001          MOV       A2, #1                ; [DPU_4_PIPE0] |208| 
     618 0000025c E24CC020          SUB       V9, V9, #32           ; [DPU_4_PIPE0] |208| 
     619 00000260 E1A0CC11          MOV       V9, A2, LSL V9        ; [DPU_4_PIPE0] |208| 
     620 00000264 E580C064          STR       V9, [A1, #100]        ; [DPU_4_PIPE0] |208| 
     621                            .dwpsn  file "../hcg/source/HL_sys_pcr.c",line 213,column 1,is_stmt,isa 2
     622                    ;* --------------------------------------------------------------------------*
     623 00000268           ||$C$L14||:    
     624 00000268 E28DD008          ADD       SP, SP, #8            ; [DPU_4_PIPE0] 
     625                            .dwcfi  cfa_offset, 0
     626                    $C$DW$34        .dwtag  DW_TAG_TI_branch
     627                            .dwattr $C$DW$34, DW_AT_low_pc(0x00)
     628                            .dwattr $C$DW$34, DW_AT_TI_return
     629                    
     630 0000026c E12FFF1E          BX        LR                    ; [DPU_4_PIPE1] 
     631                            ; BRANCH OCCURS                  ; [] 
     632                            .dwattr $C$DW$29, DW_AT_TI_end_file("../hcg/source/HL_sys_pcr.c")
     633                            .dwattr $C$DW$29, DW_AT_TI_end_line(0xd5)
     634                            .dwattr $C$DW$29, DW_AT_TI_end_column(0x01)
     635                            .dwendentry
     636                            .dwendtag $C$DW$29
     637                    
     638 00000270                   .sect   ".text"
     639                            .clink
     640                            .armfunc peripheral_Memory_PowerDown_Clr
     641 00000270                   .state32
     642                            .global peripheral_Memory_PowerDown_Clr
     643                    
     644                    $C$DW$35        .dwtag  DW_TAG_subprogram
     645                            .dwattr $C$DW$35, DW_AT_name("peripheral_Memory_PowerDown_Clr")
     646                            .dwattr $C$DW$35, DW_AT_low_pc(peripheral_Memory_PowerDown_Clr)
     647                            .dwattr $C$DW$35, DW_AT_high_pc(0x00)
     648                            .dwattr $C$DW$35, DW_AT_TI_symbol_name("peripheral_Memory_PowerDown_Clr")
     649                            .dwattr $C$DW$35, DW_AT_external
     650                            .dwattr $C$DW$35, DW_AT_TI_begin_file("../hcg/source/HL_sys_pcr.c")
     651                            .dwattr $C$DW$35, DW_AT_TI_begin_line(0xe0)
     652                            .dwattr $C$DW$35, DW_AT_TI_begin_column(0x06)
     653                            .dwattr $C$DW$35, DW_AT_decl_file("../hcg/source/HL_sys_pcr.c")
     654                            .dwattr $C$DW$35, DW_AT_decl_line(0xe0)
     655                            .dwattr $C$DW$35, DW_AT_decl_column(0x06)
     656                            .dwattr $C$DW$35, DW_AT_TI_max_frame_size(0x08)
     657                            .dwpsn  file "../hcg/source/HL_sys_pcr.c",line 225,column 1,is_stmt,address peripheral_Memory_
     658                    
     659                            .dwfde $C$DW$CIE, peripheral_Memory_PowerDown_Clr
     660                    $C$DW$36        .dwtag  DW_TAG_formal_parameter
TI ARM Assembler PC v16.9.0 Thu Feb 16 13:27:12 2017

Tools Copyright (c) 1996-2015 Texas Instruments Incorporated
C:\Users\bob\AppData\Local\Temp\1183610                              PAGE   13

     661                            .dwattr $C$DW$36, DW_AT_name("pcr")
     662                            .dwattr $C$DW$36, DW_AT_TI_symbol_name("pcr")
     663                            .dwattr $C$DW$36, DW_AT_type(*$C$DW$T$57)
     664                            .dwattr $C$DW$36, DW_AT_location[DW_OP_reg0]
     665                    
     666                    $C$DW$37        .dwtag  DW_TAG_formal_parameter
     667                            .dwattr $C$DW$37, DW_AT_name("PCS")
     668                            .dwattr $C$DW$37, DW_AT_TI_symbol_name("PCS")
     669                            .dwattr $C$DW$37, DW_AT_type(*$C$DW$T$35)
     670                            .dwattr $C$DW$37, DW_AT_location[DW_OP_reg1]
     671                    
     672                    
     673                    ;*****************************************************************************
     674                    ;* FUNCTION NAME: peripheral_Memory_PowerDown_Clr                            *
     675                    ;*                                                                           *
     676                    ;*   Regs Modified     : A1,A2,V9,SP,SR                                      *
     677                    ;*   Regs Used         : A1,A2,V9,SP,LR,SR                                   *
     678                    ;*   Local Frame Size  : 0 Args + 8 Auto + 0 Save = 8 byte                   *
     679                    ;*****************************************************************************
     680 00000270           peripheral_Memory_PowerDown_Clr:
     681                    ;* --------------------------------------------------------------------------*
     682                            .dwcfi  cfa_offset, 0
     683 00000270 E24DD008          SUB       SP, SP, #8            ; [DPU_4_PIPE0] 
     684                            .dwcfi  cfa_offset, 8
     685                    $C$DW$38        .dwtag  DW_TAG_variable
     686                            .dwattr $C$DW$38, DW_AT_name("pcr")
     687                            .dwattr $C$DW$38, DW_AT_TI_symbol_name("pcr")
     688                            .dwattr $C$DW$38, DW_AT_type(*$C$DW$T$57)
     689                            .dwattr $C$DW$38, DW_AT_location[DW_OP_breg13 0]
     690                    
     691                    $C$DW$39        .dwtag  DW_TAG_variable
     692                            .dwattr $C$DW$39, DW_AT_name("PCS")
     693                            .dwattr $C$DW$39, DW_AT_TI_symbol_name("PCS")
     694                            .dwattr $C$DW$39, DW_AT_type(*$C$DW$T$35)
     695                            .dwattr $C$DW$39, DW_AT_location[DW_OP_breg13 4]
     696                    
     697 00000274 E5CD1004          STRB      A2, [SP, #4]          ; [DPU_4_PIPE0] |225| 
     698 00000278 E58D0000          STR       A1, [SP, #0]          ; [DPU_4_PIPE0] |225| 
     699                            .dwpsn  file "../hcg/source/HL_sys_pcr.c",line 229,column 2,is_stmt,isa 2
     700 0000027c E5DDC004          LDRB      V9, [SP, #4]          ; [DPU_4_PIPE0] |229| 
     701 00000280 E35C0020          CMP       V9, #32               ; [DPU_4_PIPE0] |229| 
     702 00000284 2AFFFFFE!         BCS       ||$C$L15||            ; [DPU_4_PIPE1] |229| 
     703                            ; BRANCHCC OCCURS {||$C$L15||}   ; [] |229| 
     704                    ;* --------------------------------------------------------------------------*
     705                            .dwpsn  file "../hcg/source/HL_sys_pcr.c",line 231,column 3,is_stmt,isa 2
     706 00000288 E5DDC004          LDRB      V9, [SP, #4]          ; [DPU_4_PIPE0] |231| 
     707 0000028c E59D0000          LDR       A1, [SP, #0]          ; [DPU_4_PIPE0] |231| 
     708 00000290 E3A01001          MOV       A2, #1                ; [DPU_4_PIPE0] |231| 
     709 00000294 E1A0CC11          MOV       V9, A2, LSL V9        ; [DPU_4_PIPE0] |231| 
     710 00000298 E580C070          STR       V9, [A1, #112]        ; [DPU_4_PIPE0] |231| 
     711                            .dwpsn  file "../hcg/source/HL_sys_pcr.c",line 232,column 2,is_stmt,isa 2
     712 0000029c EAFFFFFE!         B         ||$C$L16||            ; [DPU_4_PIPE1] |232| 
     713                            ; BRANCH OCCURS {||$C$L16||}     ; [] |232| 
     714                    ;* --------------------------------------------------------------------------*
     715 000002a0           ||$C$L15||:    
TI ARM Assembler PC v16.9.0 Thu Feb 16 13:27:12 2017

Tools Copyright (c) 1996-2015 Texas Instruments Incorporated
C:\Users\bob\AppData\Local\Temp\1183610                              PAGE   14

     716                            .dwpsn  file "../hcg/source/HL_sys_pcr.c",line 235,column 3,is_stmt,isa 2
     717 000002a0 E5DDC004          LDRB      V9, [SP, #4]          ; [DPU_4_PIPE0] |235| 
     718 000002a4 E59D0000          LDR       A1, [SP, #0]          ; [DPU_4_PIPE0] |235| 
     719 000002a8 E3A01001          MOV       A2, #1                ; [DPU_4_PIPE0] |235| 
     720 000002ac E24CC020          SUB       V9, V9, #32           ; [DPU_4_PIPE0] |235| 
     721 000002b0 E1A0CC11          MOV       V9, A2, LSL V9        ; [DPU_4_PIPE0] |235| 
     722 000002b4 E580C074          STR       V9, [A1, #116]        ; [DPU_4_PIPE0] |235| 
     723                            .dwpsn  file "../hcg/source/HL_sys_pcr.c",line 240,column 1,is_stmt,isa 2
     724                    ;* --------------------------------------------------------------------------*
     725 000002b8           ||$C$L16||:    
     726 000002b8 E28DD008          ADD       SP, SP, #8            ; [DPU_4_PIPE0] 
     727                            .dwcfi  cfa_offset, 0
     728                    $C$DW$40        .dwtag  DW_TAG_TI_branch
     729                            .dwattr $C$DW$40, DW_AT_low_pc(0x00)
     730                            .dwattr $C$DW$40, DW_AT_TI_return
     731                    
     732 000002bc E12FFF1E          BX        LR                    ; [DPU_4_PIPE1] 
     733                            ; BRANCH OCCURS                  ; [] 
     734                            .dwattr $C$DW$35, DW_AT_TI_end_file("../hcg/source/HL_sys_pcr.c")
     735                            .dwattr $C$DW$35, DW_AT_TI_end_line(0xf0)
     736                            .dwattr $C$DW$35, DW_AT_TI_end_column(0x01)
     737                            .dwendentry
     738                            .dwendtag $C$DW$35
     739                    
     740 000002c0                   .sect   ".text"
     741                            .clink
     742                            .armfunc peripheral_Frame_PowerDown_Set
     743 000002c0                   .state32
     744                            .global peripheral_Frame_PowerDown_Set
     745                    
     746                    $C$DW$41        .dwtag  DW_TAG_subprogram
     747                            .dwattr $C$DW$41, DW_AT_name("peripheral_Frame_PowerDown_Set")
     748                            .dwattr $C$DW$41, DW_AT_low_pc(peripheral_Frame_PowerDown_Set)
     749                            .dwattr $C$DW$41, DW_AT_high_pc(0x00)
     750                            .dwattr $C$DW$41, DW_AT_TI_symbol_name("peripheral_Frame_PowerDown_Set")
     751                            .dwattr $C$DW$41, DW_AT_external
     752                            .dwattr $C$DW$41, DW_AT_TI_begin_file("../hcg/source/HL_sys_pcr.c")
     753                            .dwattr $C$DW$41, DW_AT_TI_begin_line(0x100)
     754                            .dwattr $C$DW$41, DW_AT_TI_begin_column(0x06)
     755                            .dwattr $C$DW$41, DW_AT_decl_file("../hcg/source/HL_sys_pcr.c")
     756                            .dwattr $C$DW$41, DW_AT_decl_line(0x100)
     757                            .dwattr $C$DW$41, DW_AT_decl_column(0x06)
     758                            .dwattr $C$DW$41, DW_AT_TI_max_frame_size(0x10)
     759                            .dwpsn  file "../hcg/source/HL_sys_pcr.c",line 257,column 1,is_stmt,address peripheral_Frame_P
     760                    
     761                            .dwfde $C$DW$CIE, peripheral_Frame_PowerDown_Set
     762                    $C$DW$42        .dwtag  DW_TAG_formal_parameter
     763                            .dwattr $C$DW$42, DW_AT_name("pcr")
     764                            .dwattr $C$DW$42, DW_AT_TI_symbol_name("pcr")
     765                            .dwattr $C$DW$42, DW_AT_type(*$C$DW$T$57)
     766                            .dwattr $C$DW$42, DW_AT_location[DW_OP_reg0]
     767                    
     768                    $C$DW$43        .dwtag  DW_TAG_formal_parameter
     769                            .dwattr $C$DW$43, DW_AT_name("PS")
     770                            .dwattr $C$DW$43, DW_AT_TI_symbol_name("PS")
TI ARM Assembler PC v16.9.0 Thu Feb 16 13:27:12 2017

Tools Copyright (c) 1996-2015 Texas Instruments Incorporated
C:\Users\bob\AppData\Local\Temp\1183610                              PAGE   15

     771                            .dwattr $C$DW$43, DW_AT_type(*$C$DW$T$37)
     772                            .dwattr $C$DW$43, DW_AT_location[DW_OP_reg1]
     773                    
     774                    $C$DW$44        .dwtag  DW_TAG_formal_parameter
     775                            .dwattr $C$DW$44, DW_AT_name("quadrant")
     776                            .dwattr $C$DW$44, DW_AT_TI_symbol_name("quadrant")
     777                            .dwattr $C$DW$44, DW_AT_type(*$C$DW$T$20)
     778                            .dwattr $C$DW$44, DW_AT_location[DW_OP_reg2]
     779                    
     780                    
     781                    ;*****************************************************************************
     782                    ;* FUNCTION NAME: peripheral_Frame_PowerDown_Set                             *
     783                    ;*                                                                           *
     784                    ;*   Regs Modified     : A1,A2,V9,SP,SR                                      *
     785                    ;*   Regs Used         : A1,A2,A3,V9,SP,LR,SR                                *
     786                    ;*   Local Frame Size  : 0 Args + 12 Auto + 0 Save = 12 byte                 *
     787                    ;*****************************************************************************
     788 000002c0           peripheral_Frame_PowerDown_Set:
     789                    ;* --------------------------------------------------------------------------*
     790                            .dwcfi  cfa_offset, 0
     791 000002c0 E24DD010          SUB       SP, SP, #16           ; [DPU_4_PIPE0] 
     792                            .dwcfi  cfa_offset, 16
     793                    $C$DW$45        .dwtag  DW_TAG_variable
     794                            .dwattr $C$DW$45, DW_AT_name("pcr")
     795                            .dwattr $C$DW$45, DW_AT_TI_symbol_name("pcr")
     796                            .dwattr $C$DW$45, DW_AT_type(*$C$DW$T$57)
     797                            .dwattr $C$DW$45, DW_AT_location[DW_OP_breg13 0]
     798                    
     799                    $C$DW$46        .dwtag  DW_TAG_variable
     800                            .dwattr $C$DW$46, DW_AT_name("quadrant")
     801                            .dwattr $C$DW$46, DW_AT_TI_symbol_name("quadrant")
     802                            .dwattr $C$DW$46, DW_AT_type(*$C$DW$T$20)
     803                            .dwattr $C$DW$46, DW_AT_location[DW_OP_breg13 4]
     804                    
     805                    $C$DW$47        .dwtag  DW_TAG_variable
     806                            .dwattr $C$DW$47, DW_AT_name("PS")
     807                            .dwattr $C$DW$47, DW_AT_TI_symbol_name("PS")
     808                            .dwattr $C$DW$47, DW_AT_type(*$C$DW$T$37)
     809                            .dwattr $C$DW$47, DW_AT_location[DW_OP_breg13 8]
     810                    
     811 000002c4 E58D2004          STR       A3, [SP, #4]          ; [DPU_4_PIPE0] |257| 
     812 000002c8 E5CD1008          STRB      A2, [SP, #8]          ; [DPU_4_PIPE0] |257| 
     813 000002cc E58D0000          STR       A1, [SP, #0]          ; [DPU_4_PIPE0] |257| 
     814                            .dwpsn  file "../hcg/source/HL_sys_pcr.c",line 261,column 2,is_stmt,isa 2
     815 000002d0 E59DC004          LDR       V9, [SP, #4]          ; [DPU_4_PIPE0] |261| 
     816 000002d4 E20CC00F          AND       V9, V9, #15           ; [DPU_4_PIPE0] |261| 
     817 000002d8 E58DC004          STR       V9, [SP, #4]          ; [DPU_4_PIPE0] |261| 
     818                            .dwpsn  file "../hcg/source/HL_sys_pcr.c",line 263,column 2,is_stmt,isa 2
     819 000002dc E5DDC008          LDRB      V9, [SP, #8]          ; [DPU_4_PIPE0] |263| 
     820 000002e0 E35C0008          CMP       V9, #8                ; [DPU_4_PIPE0] |263| 
     821 000002e4 2AFFFFFE!         BCS       ||$C$L17||            ; [DPU_4_PIPE1] |263| 
     822                            ; BRANCHCC OCCURS {||$C$L17||}   ; [] |263| 
     823                    ;* --------------------------------------------------------------------------*
     824                            .dwpsn  file "../hcg/source/HL_sys_pcr.c",line 265,column 3,is_stmt,isa 2
     825 000002e8 E5DDC008          LDRB      V9, [SP, #8]          ; [DPU_4_PIPE0] |265| 
TI ARM Assembler PC v16.9.0 Thu Feb 16 13:27:12 2017

Tools Copyright (c) 1996-2015 Texas Instruments Incorporated
C:\Users\bob\AppData\Local\Temp\1183610                              PAGE   16

     826 000002ec E59D0004          LDR       A1, [SP, #4]          ; [DPU_4_PIPE0] |265| 
     827 000002f0 E59D1000          LDR       A2, [SP, #0]          ; [DPU_4_PIPE0] |265| 
     828 000002f4 E1A0C10C          MOV       V9, V9, LSL #2        ; [DPU_4_PIPE0] |265| 
     829 000002f8 E1A0CC10          MOV       V9, A1, LSL V9        ; [DPU_4_PIPE0] |265| 
     830 000002fc E581C080          STR       V9, [A2, #128]        ; [DPU_4_PIPE0] |265| 
     831                            .dwpsn  file "../hcg/source/HL_sys_pcr.c",line 266,column 2,is_stmt,isa 2
     832 00000300 EAFFFFFE!         B         ||$C$L20||            ; [DPU_4_PIPE1] |266| 
     833                            ; BRANCH OCCURS {||$C$L20||}     ; [] |266| 
     834                    ;* --------------------------------------------------------------------------*
     835 00000304           ||$C$L17||:    
     836                            .dwpsn  file "../hcg/source/HL_sys_pcr.c",line 267,column 7,is_stmt,isa 2
     837 00000304 E5DDC008          LDRB      V9, [SP, #8]          ; [DPU_4_PIPE0] |267| 
     838 00000308 E35C0010          CMP       V9, #16               ; [DPU_4_PIPE0] |267| 
     839 0000030c 2AFFFFFE!         BCS       ||$C$L18||            ; [DPU_4_PIPE1] |267| 
     840                            ; BRANCHCC OCCURS {||$C$L18||}   ; [] |267| 
     841                    ;* --------------------------------------------------------------------------*
     842                            .dwpsn  file "../hcg/source/HL_sys_pcr.c",line 269,column 3,is_stmt,isa 2
     843 00000310 E5DDC008          LDRB      V9, [SP, #8]          ; [DPU_4_PIPE0] |269| 
     844 00000314 E59D0004          LDR       A1, [SP, #4]          ; [DPU_4_PIPE0] |269| 
     845 00000318 E59D1000          LDR       A2, [SP, #0]          ; [DPU_4_PIPE0] |269| 
     846 0000031c E24CC008          SUB       V9, V9, #8            ; [DPU_4_PIPE0] |269| 
     847 00000320 E1A0C10C          MOV       V9, V9, LSL #2        ; [DPU_4_PIPE0] |269| 
     848 00000324 E1A0CC10          MOV       V9, A1, LSL V9        ; [DPU_4_PIPE0] |269| 
     849 00000328 E581C084          STR       V9, [A2, #132]        ; [DPU_4_PIPE0] |269| 
     850                            .dwpsn  file "../hcg/source/HL_sys_pcr.c",line 270,column 2,is_stmt,isa 2
     851 0000032c EAFFFFFE!         B         ||$C$L20||            ; [DPU_4_PIPE1] |270| 
     852                            ; BRANCH OCCURS {||$C$L20||}     ; [] |270| 
     853                    ;* --------------------------------------------------------------------------*
     854 00000330           ||$C$L18||:    
     855                            .dwpsn  file "../hcg/source/HL_sys_pcr.c",line 271,column 7,is_stmt,isa 2
     856 00000330 E5DDC008          LDRB      V9, [SP, #8]          ; [DPU_4_PIPE0] |271| 
     857 00000334 E35C0018          CMP       V9, #24               ; [DPU_4_PIPE0] |271| 
     858 00000338 2AFFFFFE!         BCS       ||$C$L19||            ; [DPU_4_PIPE1] |271| 
     859                            ; BRANCHCC OCCURS {||$C$L19||}   ; [] |271| 
     860                    ;* --------------------------------------------------------------------------*
     861                            .dwpsn  file "../hcg/source/HL_sys_pcr.c",line 273,column 3,is_stmt,isa 2
     862 0000033c E5DDC008          LDRB      V9, [SP, #8]          ; [DPU_4_PIPE0] |273| 
     863 00000340 E59D0004          LDR       A1, [SP, #4]          ; [DPU_4_PIPE0] |273| 
     864 00000344 E59D1000          LDR       A2, [SP, #0]          ; [DPU_4_PIPE0] |273| 
     865 00000348 E24CC010          SUB       V9, V9, #16           ; [DPU_4_PIPE0] |273| 
     866 0000034c E1A0C10C          MOV       V9, V9, LSL #2        ; [DPU_4_PIPE0] |273| 
     867 00000350 E1A0CC10          MOV       V9, A1, LSL V9        ; [DPU_4_PIPE0] |273| 
     868 00000354 E581C088          STR       V9, [A2, #136]        ; [DPU_4_PIPE0] |273| 
     869                            .dwpsn  file "../hcg/source/HL_sys_pcr.c",line 274,column 2,is_stmt,isa 2
     870 00000358 EAFFFFFE!         B         ||$C$L20||            ; [DPU_4_PIPE1] |274| 
     871                            ; BRANCH OCCURS {||$C$L20||}     ; [] |274| 
     872                    ;* --------------------------------------------------------------------------*
     873 0000035c           ||$C$L19||:    
     874                            .dwpsn  file "../hcg/source/HL_sys_pcr.c",line 277,column 3,is_stmt,isa 2
     875 0000035c E5DDC008          LDRB      V9, [SP, #8]          ; [DPU_4_PIPE0] |277| 
     876 00000360 E59D0004          LDR       A1, [SP, #4]          ; [DPU_4_PIPE0] |277| 
     877 00000364 E59D1000          LDR       A2, [SP, #0]          ; [DPU_4_PIPE0] |277| 
     878 00000368 E24CC018          SUB       V9, V9, #24           ; [DPU_4_PIPE0] |277| 
     879 0000036c E1A0C10C          MOV       V9, V9, LSL #2        ; [DPU_4_PIPE0] |277| 
     880 00000370 E1A0CC10          MOV       V9, A1, LSL V9        ; [DPU_4_PIPE0] |277| 
TI ARM Assembler PC v16.9.0 Thu Feb 16 13:27:12 2017

Tools Copyright (c) 1996-2015 Texas Instruments Incorporated
C:\Users\bob\AppData\Local\Temp\1183610                              PAGE   17

     881 00000374 E581C08C          STR       V9, [A2, #140]        ; [DPU_4_PIPE0] |277| 
     882                            .dwpsn  file "../hcg/source/HL_sys_pcr.c",line 282,column 1,is_stmt,isa 2
     883                    ;* --------------------------------------------------------------------------*
     884 00000378           ||$C$L20||:    
     885 00000378 E28DD010          ADD       SP, SP, #16           ; [DPU_4_PIPE0] 
     886                            .dwcfi  cfa_offset, 0
     887                    $C$DW$48        .dwtag  DW_TAG_TI_branch
     888                            .dwattr $C$DW$48, DW_AT_low_pc(0x00)
     889                            .dwattr $C$DW$48, DW_AT_TI_return
     890                    
     891 0000037c E12FFF1E          BX        LR                    ; [DPU_4_PIPE1] 
     892                            ; BRANCH OCCURS                  ; [] 
     893                            .dwattr $C$DW$41, DW_AT_TI_end_file("../hcg/source/HL_sys_pcr.c")
     894                            .dwattr $C$DW$41, DW_AT_TI_end_line(0x11a)
     895                            .dwattr $C$DW$41, DW_AT_TI_end_column(0x01)
     896                            .dwendentry
     897                            .dwendtag $C$DW$41
     898                    
     899 00000380                   .sect   ".text"
     900                            .clink
     901                            .armfunc peripheral_Frame_PowerDown_Clr
     902 00000380                   .state32
     903                            .global peripheral_Frame_PowerDown_Clr
     904                    
     905                    $C$DW$49        .dwtag  DW_TAG_subprogram
     906                            .dwattr $C$DW$49, DW_AT_name("peripheral_Frame_PowerDown_Clr")
     907                            .dwattr $C$DW$49, DW_AT_low_pc(peripheral_Frame_PowerDown_Clr)
     908                            .dwattr $C$DW$49, DW_AT_high_pc(0x00)
     909                            .dwattr $C$DW$49, DW_AT_TI_symbol_name("peripheral_Frame_PowerDown_Clr")
     910                            .dwattr $C$DW$49, DW_AT_external
     911                            .dwattr $C$DW$49, DW_AT_TI_begin_file("../hcg/source/HL_sys_pcr.c")
     912                            .dwattr $C$DW$49, DW_AT_TI_begin_line(0x12a)
     913                            .dwattr $C$DW$49, DW_AT_TI_begin_column(0x06)
     914                            .dwattr $C$DW$49, DW_AT_decl_file("../hcg/source/HL_sys_pcr.c")
     915                            .dwattr $C$DW$49, DW_AT_decl_line(0x12a)
     916                            .dwattr $C$DW$49, DW_AT_decl_column(0x06)
     917                            .dwattr $C$DW$49, DW_AT_TI_max_frame_size(0x10)
     918                            .dwpsn  file "../hcg/source/HL_sys_pcr.c",line 299,column 1,is_stmt,address peripheral_Frame_P
     919                    
     920                            .dwfde $C$DW$CIE, peripheral_Frame_PowerDown_Clr
     921                    $C$DW$50        .dwtag  DW_TAG_formal_parameter
     922                            .dwattr $C$DW$50, DW_AT_name("pcr")
     923                            .dwattr $C$DW$50, DW_AT_TI_symbol_name("pcr")
     924                            .dwattr $C$DW$50, DW_AT_type(*$C$DW$T$57)
     925                            .dwattr $C$DW$50, DW_AT_location[DW_OP_reg0]
     926                    
     927                    $C$DW$51        .dwtag  DW_TAG_formal_parameter
     928                            .dwattr $C$DW$51, DW_AT_name("PS")
     929                            .dwattr $C$DW$51, DW_AT_TI_symbol_name("PS")
     930                            .dwattr $C$DW$51, DW_AT_type(*$C$DW$T$37)
     931                            .dwattr $C$DW$51, DW_AT_location[DW_OP_reg1]
     932                    
     933                    $C$DW$52        .dwtag  DW_TAG_formal_parameter
     934                            .dwattr $C$DW$52, DW_AT_name("quadrant")
     935                            .dwattr $C$DW$52, DW_AT_TI_symbol_name("quadrant")
TI ARM Assembler PC v16.9.0 Thu Feb 16 13:27:12 2017

Tools Copyright (c) 1996-2015 Texas Instruments Incorporated
C:\Users\bob\AppData\Local\Temp\1183610                              PAGE   18

     936                            .dwattr $C$DW$52, DW_AT_type(*$C$DW$T$20)
     937                            .dwattr $C$DW$52, DW_AT_location[DW_OP_reg2]
     938                    
     939                    
     940                    ;*****************************************************************************
     941                    ;* FUNCTION NAME: peripheral_Frame_PowerDown_Clr                             *
     942                    ;*                                                                           *
     943                    ;*   Regs Modified     : A1,A2,V9,SP,SR                                      *
     944                    ;*   Regs Used         : A1,A2,A3,V9,SP,LR,SR                                *
     945                    ;*   Local Frame Size  : 0 Args + 12 Auto + 0 Save = 12 byte                 *
     946                    ;*****************************************************************************
     947 00000380           peripheral_Frame_PowerDown_Clr:
     948                    ;* --------------------------------------------------------------------------*
     949                            .dwcfi  cfa_offset, 0
     950 00000380 E24DD010          SUB       SP, SP, #16           ; [DPU_4_PIPE0] 
     951                            .dwcfi  cfa_offset, 16
     952                    $C$DW$53        .dwtag  DW_TAG_variable
     953                            .dwattr $C$DW$53, DW_AT_name("pcr")
     954                            .dwattr $C$DW$53, DW_AT_TI_symbol_name("pcr")
     955                            .dwattr $C$DW$53, DW_AT_type(*$C$DW$T$57)
     956                            .dwattr $C$DW$53, DW_AT_location[DW_OP_breg13 0]
     957                    
     958                    $C$DW$54        .dwtag  DW_TAG_variable
     959                            .dwattr $C$DW$54, DW_AT_name("quadrant")
     960                            .dwattr $C$DW$54, DW_AT_TI_symbol_name("quadrant")
     961                            .dwattr $C$DW$54, DW_AT_type(*$C$DW$T$20)
     962                            .dwattr $C$DW$54, DW_AT_location[DW_OP_breg13 4]
     963                    
     964                    $C$DW$55        .dwtag  DW_TAG_variable
     965                            .dwattr $C$DW$55, DW_AT_name("PS")
     966                            .dwattr $C$DW$55, DW_AT_TI_symbol_name("PS")
     967                            .dwattr $C$DW$55, DW_AT_type(*$C$DW$T$37)
     968                            .dwattr $C$DW$55, DW_AT_location[DW_OP_breg13 8]
     969                    
     970 00000384 E58D2004          STR       A3, [SP, #4]          ; [DPU_4_PIPE0] |299| 
     971 00000388 E5CD1008          STRB      A2, [SP, #8]          ; [DPU_4_PIPE0] |299| 
     972 0000038c E58D0000          STR       A1, [SP, #0]          ; [DPU_4_PIPE0] |299| 
     973                            .dwpsn  file "../hcg/source/HL_sys_pcr.c",line 303,column 2,is_stmt,isa 2
     974 00000390 E59DC004          LDR       V9, [SP, #4]          ; [DPU_4_PIPE0] |303| 
     975 00000394 E20CC00F          AND       V9, V9, #15           ; [DPU_4_PIPE0] |303| 
     976 00000398 E58DC004          STR       V9, [SP, #4]          ; [DPU_4_PIPE0] |303| 
     977                            .dwpsn  file "../hcg/source/HL_sys_pcr.c",line 305,column 2,is_stmt,isa 2
     978 0000039c E5DDC008          LDRB      V9, [SP, #8]          ; [DPU_4_PIPE0] |305| 
     979 000003a0 E35C0008          CMP       V9, #8                ; [DPU_4_PIPE0] |305| 
     980 000003a4 2AFFFFFE!         BCS       ||$C$L21||            ; [DPU_4_PIPE1] |305| 
     981                            ; BRANCHCC OCCURS {||$C$L21||}   ; [] |305| 
     982                    ;* --------------------------------------------------------------------------*
     983                            .dwpsn  file "../hcg/source/HL_sys_pcr.c",line 307,column 3,is_stmt,isa 2
     984 000003a8 E5DDC008          LDRB      V9, [SP, #8]          ; [DPU_4_PIPE0] |307| 
     985 000003ac E59D0004          LDR       A1, [SP, #4]          ; [DPU_4_PIPE0] |307| 
     986 000003b0 E59D1000          LDR       A2, [SP, #0]          ; [DPU_4_PIPE0] |307| 
     987 000003b4 E1A0C10C          MOV       V9, V9, LSL #2        ; [DPU_4_PIPE0] |307| 
     988 000003b8 E1A0CC10          MOV       V9, A1, LSL V9        ; [DPU_4_PIPE0] |307| 
     989 000003bc E581C0A0          STR       V9, [A2, #160]        ; [DPU_4_PIPE0] |307| 
     990                            .dwpsn  file "../hcg/source/HL_sys_pcr.c",line 308,column 2,is_stmt,isa 2
TI ARM Assembler PC v16.9.0 Thu Feb 16 13:27:12 2017

Tools Copyright (c) 1996-2015 Texas Instruments Incorporated
C:\Users\bob\AppData\Local\Temp\1183610                              PAGE   19

     991 000003c0 EAFFFFFE!         B         ||$C$L24||            ; [DPU_4_PIPE1] |308| 
     992                            ; BRANCH OCCURS {||$C$L24||}     ; [] |308| 
     993                    ;* --------------------------------------------------------------------------*
     994 000003c4           ||$C$L21||:    
     995                            .dwpsn  file "../hcg/source/HL_sys_pcr.c",line 309,column 7,is_stmt,isa 2
     996 000003c4 E5DDC008          LDRB      V9, [SP, #8]          ; [DPU_4_PIPE0] |309| 
     997 000003c8 E35C0010          CMP       V9, #16               ; [DPU_4_PIPE0] |309| 
     998 000003cc 2AFFFFFE!         BCS       ||$C$L22||            ; [DPU_4_PIPE1] |309| 
     999                            ; BRANCHCC OCCURS {||$C$L22||}   ; [] |309| 
    1000                    ;* --------------------------------------------------------------------------*
    1001                            .dwpsn  file "../hcg/source/HL_sys_pcr.c",line 311,column 3,is_stmt,isa 2
    1002 000003d0 E5DDC008          LDRB      V9, [SP, #8]          ; [DPU_4_PIPE0] |311| 
    1003 000003d4 E59D0004          LDR       A1, [SP, #4]          ; [DPU_4_PIPE0] |311| 
    1004 000003d8 E59D1000          LDR       A2, [SP, #0]          ; [DPU_4_PIPE0] |311| 
    1005 000003dc E24CC008          SUB       V9, V9, #8            ; [DPU_4_PIPE0] |311| 
    1006 000003e0 E1A0C10C          MOV       V9, V9, LSL #2        ; [DPU_4_PIPE0] |311| 
    1007 000003e4 E1A0CC10          MOV       V9, A1, LSL V9        ; [DPU_4_PIPE0] |311| 
    1008 000003e8 E581C0A4          STR       V9, [A2, #164]        ; [DPU_4_PIPE0] |311| 
    1009                            .dwpsn  file "../hcg/source/HL_sys_pcr.c",line 312,column 2,is_stmt,isa 2
    1010 000003ec EAFFFFFE!         B         ||$C$L24||            ; [DPU_4_PIPE1] |312| 
    1011                            ; BRANCH OCCURS {||$C$L24||}     ; [] |312| 
    1012                    ;* --------------------------------------------------------------------------*
    1013 000003f0           ||$C$L22||:    
    1014                            .dwpsn  file "../hcg/source/HL_sys_pcr.c",line 313,column 7,is_stmt,isa 2
    1015 000003f0 E5DDC008          LDRB      V9, [SP, #8]          ; [DPU_4_PIPE0] |313| 
    1016 000003f4 E35C0018          CMP       V9, #24               ; [DPU_4_PIPE0] |313| 
    1017 000003f8 2AFFFFFE!         BCS       ||$C$L23||            ; [DPU_4_PIPE1] |313| 
    1018                            ; BRANCHCC OCCURS {||$C$L23||}   ; [] |313| 
    1019                    ;* --------------------------------------------------------------------------*
    1020                            .dwpsn  file "../hcg/source/HL_sys_pcr.c",line 315,column 3,is_stmt,isa 2
    1021 000003fc E5DDC008          LDRB      V9, [SP, #8]          ; [DPU_4_PIPE0] |315| 
    1022 00000400 E59D0004          LDR       A1, [SP, #4]          ; [DPU_4_PIPE0] |315| 
    1023 00000404 E59D1000          LDR       A2, [SP, #0]          ; [DPU_4_PIPE0] |315| 
    1024 00000408 E24CC010          SUB       V9, V9, #16           ; [DPU_4_PIPE0] |315| 
    1025 0000040c E1A0C10C          MOV       V9, V9, LSL #2        ; [DPU_4_PIPE0] |315| 
    1026 00000410 E1A0CC10          MOV       V9, A1, LSL V9        ; [DPU_4_PIPE0] |315| 
    1027 00000414 E581C0A8          STR       V9, [A2, #168]        ; [DPU_4_PIPE0] |315| 
    1028                            .dwpsn  file "../hcg/source/HL_sys_pcr.c",line 316,column 2,is_stmt,isa 2
    1029 00000418 EAFFFFFE!         B         ||$C$L24||            ; [DPU_4_PIPE1] |316| 
    1030                            ; BRANCH OCCURS {||$C$L24||}     ; [] |316| 
    1031                    ;* --------------------------------------------------------------------------*
    1032 0000041c           ||$C$L23||:    
    1033                            .dwpsn  file "../hcg/source/HL_sys_pcr.c",line 319,column 3,is_stmt,isa 2
    1034 0000041c E5DDC008          LDRB      V9, [SP, #8]          ; [DPU_4_PIPE0] |319| 
    1035 00000420 E59D0004          LDR       A1, [SP, #4]          ; [DPU_4_PIPE0] |319| 
    1036 00000424 E59D1000          LDR       A2, [SP, #0]          ; [DPU_4_PIPE0] |319| 
    1037 00000428 E24CC018          SUB       V9, V9, #24           ; [DPU_4_PIPE0] |319| 
    1038 0000042c E1A0C10C          MOV       V9, V9, LSL #2        ; [DPU_4_PIPE0] |319| 
    1039 00000430 E1A0CC10          MOV       V9, A1, LSL V9        ; [DPU_4_PIPE0] |319| 
    1040 00000434 E581C0AC          STR       V9, [A2, #172]        ; [DPU_4_PIPE0] |319| 
    1041                            .dwpsn  file "../hcg/source/HL_sys_pcr.c",line 324,column 1,is_stmt,isa 2
    1042                    ;* --------------------------------------------------------------------------*
    1043 00000438           ||$C$L24||:    
    1044 00000438 E28DD010          ADD       SP, SP, #16           ; [DPU_4_PIPE0] 
    1045                            .dwcfi  cfa_offset, 0
TI ARM Assembler PC v16.9.0 Thu Feb 16 13:27:12 2017

Tools Copyright (c) 1996-2015 Texas Instruments Incorporated
C:\Users\bob\AppData\Local\Temp\1183610                              PAGE   20

    1046                    $C$DW$56        .dwtag  DW_TAG_TI_branch
    1047                            .dwattr $C$DW$56, DW_AT_low_pc(0x00)
    1048                            .dwattr $C$DW$56, DW_AT_TI_return
    1049                    
    1050 0000043c E12FFF1E          BX        LR                    ; [DPU_4_PIPE1] 
    1051                            ; BRANCH OCCURS                  ; [] 
    1052                            .dwattr $C$DW$49, DW_AT_TI_end_file("../hcg/source/HL_sys_pcr.c")
    1053                            .dwattr $C$DW$49, DW_AT_TI_end_line(0x144)
    1054                            .dwattr $C$DW$49, DW_AT_TI_end_column(0x01)
    1055                            .dwendentry
    1056                            .dwendtag $C$DW$49
    1057                    
    1058 00000440                   .sect   ".text"
    1059                            .clink
    1060                            .armfunc peripheral_Frame_MasterIDFilter_Enable
    1061 00000440                   .state32
    1062                            .global peripheral_Frame_MasterIDFilter_Enable
    1063                    
    1064                    $C$DW$57        .dwtag  DW_TAG_subprogram
    1065                            .dwattr $C$DW$57, DW_AT_name("peripheral_Frame_MasterIDFilter_Enable")
    1066                            .dwattr $C$DW$57, DW_AT_low_pc(peripheral_Frame_MasterIDFilter_Enable)
    1067                            .dwattr $C$DW$57, DW_AT_high_pc(0x00)
    1068                            .dwattr $C$DW$57, DW_AT_TI_symbol_name("peripheral_Frame_MasterIDFilter_Enable")
    1069                            .dwattr $C$DW$57, DW_AT_external
    1070                            .dwattr $C$DW$57, DW_AT_TI_begin_file("../hcg/source/HL_sys_pcr.c")
    1071                            .dwattr $C$DW$57, DW_AT_TI_begin_line(0x15e)
    1072                            .dwattr $C$DW$57, DW_AT_TI_begin_column(0x06)
    1073                            .dwattr $C$DW$57, DW_AT_decl_file("../hcg/source/HL_sys_pcr.c")
    1074                            .dwattr $C$DW$57, DW_AT_decl_line(0x15e)
    1075                            .dwattr $C$DW$57, DW_AT_decl_column(0x06)
    1076                            .dwattr $C$DW$57, DW_AT_TI_max_frame_size(0x10)
    1077                            .dwpsn  file "../hcg/source/HL_sys_pcr.c",line 351,column 1,is_stmt,address peripheral_Frame_M
    1078                    
    1079                            .dwfde $C$DW$CIE, peripheral_Frame_MasterIDFilter_Enable
    1080                    $C$DW$58        .dwtag  DW_TAG_formal_parameter
    1081                            .dwattr $C$DW$58, DW_AT_name("pcr")
    1082                            .dwattr $C$DW$58, DW_AT_TI_symbol_name("pcr")
    1083                            .dwattr $C$DW$58, DW_AT_type(*$C$DW$T$57)
    1084                            .dwattr $C$DW$58, DW_AT_location[DW_OP_reg0]
    1085                    
    1086                    $C$DW$59        .dwtag  DW_TAG_formal_parameter
    1087                            .dwattr $C$DW$59, DW_AT_name("PS")
    1088                            .dwattr $C$DW$59, DW_AT_TI_symbol_name("PS")
    1089                            .dwattr $C$DW$59, DW_AT_type(*$C$DW$T$37)
    1090                            .dwattr $C$DW$59, DW_AT_location[DW_OP_reg1]
    1091                    
    1092                    $C$DW$60        .dwtag  DW_TAG_formal_parameter
    1093                            .dwattr $C$DW$60, DW_AT_name("quadrant")
    1094                            .dwattr $C$DW$60, DW_AT_TI_symbol_name("quadrant")
    1095                            .dwattr $C$DW$60, DW_AT_type(*$C$DW$T$20)
    1096                            .dwattr $C$DW$60, DW_AT_location[DW_OP_reg2]
    1097                    
    1098                    $C$DW$61        .dwtag  DW_TAG_formal_parameter
    1099                            .dwattr $C$DW$61, DW_AT_name("master")
    1100                            .dwattr $C$DW$61, DW_AT_TI_symbol_name("master")
TI ARM Assembler PC v16.9.0 Thu Feb 16 13:27:12 2017

Tools Copyright (c) 1996-2015 Texas Instruments Incorporated
C:\Users\bob\AppData\Local\Temp\1183610                              PAGE   21

    1101                            .dwattr $C$DW$61, DW_AT_type(*$C$DW$T$39)
    1102                            .dwattr $C$DW$61, DW_AT_location[DW_OP_reg3]
    1103                    
    1104                    
    1105                    ;*****************************************************************************
    1106                    ;* FUNCTION NAME: peripheral_Frame_MasterIDFilter_Enable                     *
    1107                    ;*                                                                           *
    1108                    ;*   Regs Modified     : A1,A2,A3,A4,V9,SP,SR                                *
    1109                    ;*   Regs Used         : A1,A2,A3,A4,V9,SP,LR,SR                             *
    1110                    ;*   Local Frame Size  : 0 Args + 12 Auto + 0 Save = 12 byte                 *
    1111                    ;*****************************************************************************
    1112 00000440           peripheral_Frame_MasterIDFilter_Enable:
    1113                    ;* --------------------------------------------------------------------------*
    1114                            .dwcfi  cfa_offset, 0
    1115 00000440 E24DD010          SUB       SP, SP, #16           ; [DPU_4_PIPE0] 
    1116                            .dwcfi  cfa_offset, 16
    1117                    $C$DW$62        .dwtag  DW_TAG_variable
    1118                            .dwattr $C$DW$62, DW_AT_name("pcr")
    1119                            .dwattr $C$DW$62, DW_AT_TI_symbol_name("pcr")
    1120                            .dwattr $C$DW$62, DW_AT_type(*$C$DW$T$57)
    1121                            .dwattr $C$DW$62, DW_AT_location[DW_OP_breg13 0]
    1122                    
    1123                    $C$DW$63        .dwtag  DW_TAG_variable
    1124                            .dwattr $C$DW$63, DW_AT_name("quadrant")
    1125                            .dwattr $C$DW$63, DW_AT_TI_symbol_name("quadrant")
    1126                            .dwattr $C$DW$63, DW_AT_type(*$C$DW$T$20)
    1127                            .dwattr $C$DW$63, DW_AT_location[DW_OP_breg13 4]
    1128                    
    1129                    $C$DW$64        .dwtag  DW_TAG_variable
    1130                            .dwattr $C$DW$64, DW_AT_name("PS")
    1131                            .dwattr $C$DW$64, DW_AT_TI_symbol_name("PS")
    1132                            .dwattr $C$DW$64, DW_AT_type(*$C$DW$T$37)
    1133                            .dwattr $C$DW$64, DW_AT_location[DW_OP_breg13 8]
    1134                    
    1135                    $C$DW$65        .dwtag  DW_TAG_variable
    1136                            .dwattr $C$DW$65, DW_AT_name("master")
    1137                            .dwattr $C$DW$65, DW_AT_TI_symbol_name("master")
    1138                            .dwattr $C$DW$65, DW_AT_type(*$C$DW$T$39)
    1139                            .dwattr $C$DW$65, DW_AT_location[DW_OP_breg13 9]
    1140                    
    1141 00000444 E5CD3009          STRB      A4, [SP, #9]          ; [DPU_4_PIPE0] |351| 
    1142 00000448 E58D2004          STR       A3, [SP, #4]          ; [DPU_4_PIPE0] |351| 
    1143 0000044c E5CD1008          STRB      A2, [SP, #8]          ; [DPU_4_PIPE0] |351| 
    1144 00000450 E58D0000          STR       A1, [SP, #0]          ; [DPU_4_PIPE0] |351| 
    1145                            .dwpsn  file "../hcg/source/HL_sys_pcr.c",line 355,column 2,is_stmt,isa 2
    1146 00000454 E59DC004          LDR       V9, [SP, #4]          ; [DPU_4_PIPE0] |355| 
    1147 00000458 E20CC00F          AND       V9, V9, #15           ; [DPU_4_PIPE0] |355| 
    1148 0000045c E58DC004          STR       V9, [SP, #4]          ; [DPU_4_PIPE0] |355| 
    1149                            .dwpsn  file "../hcg/source/HL_sys_pcr.c",line 358,column 2,is_stmt,isa 2
    1150 00000460 E59DC000          LDR       V9, [SP, #0]          ; [DPU_4_PIPE0] |358| 
    1151 00000464 E3A0000A          MOV       A1, #10               ; [DPU_4_PIPE0] |358| 
    1152 00000468 E58C0200          STR       A1, [V9, #512]        ; [DPU_4_PIPE0] |358| 
    1153                            .dwpsn  file "../hcg/source/HL_sys_pcr.c",line 360,column 2,is_stmt,isa 2
    1154 0000046c E59DC004          LDR       V9, [SP, #4]          ; [DPU_4_PIPE0] |360| 
    1155 00000470 E31C0001          TST       V9, #1                ; [DPU_4_PIPE0] |360| 
TI ARM Assembler PC v16.9.0 Thu Feb 16 13:27:12 2017

Tools Copyright (c) 1996-2015 Texas Instruments Incorporated
C:\Users\bob\AppData\Local\Temp\1183610                              PAGE   22

    1156 00000474 0AFFFFFE!         BEQ       ||$C$L25||            ; [DPU_4_PIPE1] |360| 
    1157                            ; BRANCHCC OCCURS {||$C$L25||}   ; [] |360| 
    1158                    ;* --------------------------------------------------------------------------*
    1159                            .dwpsn  file "../hcg/source/HL_sys_pcr.c",line 363,column 3,is_stmt,isa 2
    1160 00000478 E5DDC008          LDRB      V9, [SP, #8]          ; [DPU_4_PIPE0] |363| 
    1161 0000047c E59D0000          LDR       A1, [SP, #0]          ; [DPU_4_PIPE0] |363| 
    1162 00000480 E1A0C18C          MOV       V9, V9, LSL #3        ; [DPU_4_PIPE0] |363| 
    1163 00000484 E2800C03          ADD       A1, A1, #768          ; [DPU_4_PIPE0] |363| 
    1164 00000488 E5DD1009          LDRB      A2, [SP, #9]          ; [DPU_4_PIPE0] |363| 
    1165 0000048c E3A03001          MOV       A4, #1                ; [DPU_4_PIPE0] |363| 
    1166 00000490 E79C2000          LDR       A3, [V9, +A1]         ; [DPU_4_PIPE0] |363| 
    1167 00000494 E1821113          ORR       A2, A3, A4, LSL A2    ; [DPU_4_PIPE0] |363| 
    1168 00000498 E78C1000          STR       A2, [V9, +A1]         ; [DPU_4_PIPE0] |363| 
    1169                    ;* --------------------------------------------------------------------------*
    1170 0000049c           ||$C$L25||:    
    1171                            .dwpsn  file "../hcg/source/HL_sys_pcr.c",line 366,column 2,is_stmt,isa 2
    1172 0000049c E59DC004          LDR       V9, [SP, #4]          ; [DPU_4_PIPE0] |366| 
    1173 000004a0 E31C0002          TST       V9, #2                ; [DPU_4_PIPE0] |366| 
    1174 000004a4 0AFFFFFE!         BEQ       ||$C$L26||            ; [DPU_4_PIPE1] |366| 
    1175                            ; BRANCHCC OCCURS {||$C$L26||}   ; [] |366| 
    1176                    ;* --------------------------------------------------------------------------*
    1177                            .dwpsn  file "../hcg/source/HL_sys_pcr.c",line 369,column 3,is_stmt,isa 2
    1178 000004a8 E5DDC008          LDRB      V9, [SP, #8]          ; [DPU_4_PIPE0] |369| 
    1179 000004ac E59D0000          LDR       A1, [SP, #0]          ; [DPU_4_PIPE0] |369| 
    1180 000004b0 E1A0C18C          MOV       V9, V9, LSL #3        ; [DPU_4_PIPE0] |369| 
    1181 000004b4 E5DD1009          LDRB      A2, [SP, #9]          ; [DPU_4_PIPE0] |369| 
    1182 000004b8 E2800C03          ADD       A1, A1, #768          ; [DPU_4_PIPE1] |369| 
    1183 000004bc E3A03001          MOV       A4, #1                ; [DPU_4_PIPE0] |369| 
    1184 000004c0 E2811010          ADD       A2, A2, #16           ; [DPU_4_PIPE0] |369| 
    1185 000004c4 E79C2000          LDR       A3, [V9, +A1]         ; [DPU_4_PIPE0] |369| 
    1186 000004c8 E1821113          ORR       A2, A3, A4, LSL A2    ; [DPU_4_PIPE0] |369| 
    1187 000004cc E78C1000          STR       A2, [V9, +A1]         ; [DPU_4_PIPE0] |369| 
    1188                    ;* --------------------------------------------------------------------------*
    1189 000004d0           ||$C$L26||:    
    1190                            .dwpsn  file "../hcg/source/HL_sys_pcr.c",line 372,column 2,is_stmt,isa 2
    1191 000004d0 E59DC004          LDR       V9, [SP, #4]          ; [DPU_4_PIPE0] |372| 
    1192 000004d4 E31C0004          TST       V9, #4                ; [DPU_4_PIPE0] |372| 
    1193 000004d8 0AFFFFFE!         BEQ       ||$C$L27||            ; [DPU_4_PIPE1] |372| 
    1194                            ; BRANCHCC OCCURS {||$C$L27||}   ; [] |372| 
    1195                    ;* --------------------------------------------------------------------------*
    1196                            .dwpsn  file "../hcg/source/HL_sys_pcr.c",line 375,column 3,is_stmt,isa 2
    1197 000004dc E5DDC008          LDRB      V9, [SP, #8]          ; [DPU_4_PIPE0] |375| 
    1198 000004e0 E59D0000          LDR       A1, [SP, #0]          ; [DPU_4_PIPE0] |375| 
    1199 000004e4 E080C18C          ADD       V9, A1, V9, LSL #3    ; [DPU_4_PIPE0] |375| 
    1200 000004e8 E28CCC03          ADD       V9, V9, #768          ; [DPU_4_PIPE0] |375| 
    1201 000004ec E5DD0009          LDRB      A1, [SP, #9]          ; [DPU_4_PIPE0] |375| 
    1202 000004f0 E3A02001          MOV       A3, #1                ; [DPU_4_PIPE0] |375| 
    1203 000004f4 E59C1004          LDR       A2, [V9, #4]          ; [DPU_4_PIPE0] |375| 
    1204 000004f8 E1810012          ORR       A1, A2, A3, LSL A1    ; [DPU_4_PIPE0] |375| 
    1205 000004fc E58C0004          STR       A1, [V9, #4]          ; [DPU_4_PIPE0] |375| 
    1206                    ;* --------------------------------------------------------------------------*
    1207 00000500           ||$C$L27||:    
    1208                            .dwpsn  file "../hcg/source/HL_sys_pcr.c",line 378,column 2,is_stmt,isa 2
    1209 00000500 E59DC004          LDR       V9, [SP, #4]          ; [DPU_4_PIPE0] |378| 
    1210 00000504 E31C0008          TST       V9, #8                ; [DPU_4_PIPE0] |378| 
TI ARM Assembler PC v16.9.0 Thu Feb 16 13:27:12 2017

Tools Copyright (c) 1996-2015 Texas Instruments Incorporated
C:\Users\bob\AppData\Local\Temp\1183610                              PAGE   23

    1211 00000508 0AFFFFFE!         BEQ       ||$C$L28||            ; [DPU_4_PIPE1] |378| 
    1212                            ; BRANCHCC OCCURS {||$C$L28||}   ; [] |378| 
    1213                    ;* --------------------------------------------------------------------------*
    1214                            .dwpsn  file "../hcg/source/HL_sys_pcr.c",line 381,column 3,is_stmt,isa 2
    1215 0000050c E5DDC008          LDRB      V9, [SP, #8]          ; [DPU_4_PIPE0] |381| 
    1216 00000510 E59D0000          LDR       A1, [SP, #0]          ; [DPU_4_PIPE0] |381| 
    1217 00000514 E080C18C          ADD       V9, A1, V9, LSL #3    ; [DPU_4_PIPE0] |381| 
    1218 00000518 E28CCC03          ADD       V9, V9, #768          ; [DPU_4_PIPE0] |381| 
    1219 0000051c E5DD0009          LDRB      A1, [SP, #9]          ; [DPU_4_PIPE0] |381| 
    1220 00000520 E59C1004          LDR       A2, [V9, #4]          ; [DPU_4_PIPE0] |381| 
    1221 00000524 E3A02001          MOV       A3, #1                ; [DPU_4_PIPE1] |381| 
    1222 00000528 E2800010          ADD       A1, A1, #16           ; [DPU_4_PIPE0] |381| 
    1223 0000052c E1810012          ORR       A1, A2, A3, LSL A1    ; [DPU_4_PIPE0] |381| 
    1224 00000530 E58C0004          STR       A1, [V9, #4]          ; [DPU_4_PIPE0] |381| 
    1225                    ;* --------------------------------------------------------------------------*
    1226 00000534           ||$C$L28||:    
    1227                            .dwpsn  file "../hcg/source/HL_sys_pcr.c",line 385,column 2,is_stmt,isa 2
    1228 00000534 E59DC000          LDR       V9, [SP, #0]          ; [DPU_4_PIPE0] |385| 
    1229 00000538 E3A00005          MOV       A1, #5                ; [DPU_4_PIPE0] |385| 
    1230 0000053c E58C0200          STR       A1, [V9, #512]        ; [DPU_4_PIPE0] |385| 
    1231                            .dwpsn  file "../hcg/source/HL_sys_pcr.c",line 389,column 1,is_stmt,isa 2
    1232 00000540 E28DD010          ADD       SP, SP, #16           ; [DPU_4_PIPE0] 
    1233                            .dwcfi  cfa_offset, 0
    1234                    $C$DW$66        .dwtag  DW_TAG_TI_branch
    1235                            .dwattr $C$DW$66, DW_AT_low_pc(0x00)
    1236                            .dwattr $C$DW$66, DW_AT_TI_return
    1237                    
    1238 00000544 E12FFF1E          BX        LR                    ; [DPU_4_PIPE1] 
    1239                            ; BRANCH OCCURS                  ; [] 
    1240                            .dwattr $C$DW$57, DW_AT_TI_end_file("../hcg/source/HL_sys_pcr.c")
    1241                            .dwattr $C$DW$57, DW_AT_TI_end_line(0x185)
    1242                            .dwattr $C$DW$57, DW_AT_TI_end_column(0x01)
    1243                            .dwendentry
    1244                            .dwendtag $C$DW$57
    1245                    
    1246 00000548                   .sect   ".text"
    1247                            .clink
    1248                            .armfunc peripheral_Frame_MasterIDFilter_Disable
    1249 00000548                   .state32
    1250                            .global peripheral_Frame_MasterIDFilter_Disable
    1251                    
    1252                    $C$DW$67        .dwtag  DW_TAG_subprogram
    1253                            .dwattr $C$DW$67, DW_AT_name("peripheral_Frame_MasterIDFilter_Disable")
    1254                            .dwattr $C$DW$67, DW_AT_low_pc(peripheral_Frame_MasterIDFilter_Disable)
    1255                            .dwattr $C$DW$67, DW_AT_high_pc(0x00)
    1256                            .dwattr $C$DW$67, DW_AT_TI_symbol_name("peripheral_Frame_MasterIDFilter_Disable")
    1257                            .dwattr $C$DW$67, DW_AT_external
    1258                            .dwattr $C$DW$67, DW_AT_TI_begin_file("../hcg/source/HL_sys_pcr.c")
    1259                            .dwattr $C$DW$67, DW_AT_TI_begin_line(0x19f)
    1260                            .dwattr $C$DW$67, DW_AT_TI_begin_column(0x06)
    1261                            .dwattr $C$DW$67, DW_AT_decl_file("../hcg/source/HL_sys_pcr.c")
    1262                            .dwattr $C$DW$67, DW_AT_decl_line(0x19f)
    1263                            .dwattr $C$DW$67, DW_AT_decl_column(0x06)
    1264                            .dwattr $C$DW$67, DW_AT_TI_max_frame_size(0x10)
    1265                            .dwpsn  file "../hcg/source/HL_sys_pcr.c",line 416,column 1,is_stmt,address peripheral_Frame_M
TI ARM Assembler PC v16.9.0 Thu Feb 16 13:27:12 2017

Tools Copyright (c) 1996-2015 Texas Instruments Incorporated
C:\Users\bob\AppData\Local\Temp\1183610                              PAGE   24

    1266                    
    1267                            .dwfde $C$DW$CIE, peripheral_Frame_MasterIDFilter_Disable
    1268                    $C$DW$68        .dwtag  DW_TAG_formal_parameter
    1269                            .dwattr $C$DW$68, DW_AT_name("pcr")
    1270                            .dwattr $C$DW$68, DW_AT_TI_symbol_name("pcr")
    1271                            .dwattr $C$DW$68, DW_AT_type(*$C$DW$T$57)
    1272                            .dwattr $C$DW$68, DW_AT_location[DW_OP_reg0]
    1273                    
    1274                    $C$DW$69        .dwtag  DW_TAG_formal_parameter
    1275                            .dwattr $C$DW$69, DW_AT_name("PS")
    1276                            .dwattr $C$DW$69, DW_AT_TI_symbol_name("PS")
    1277                            .dwattr $C$DW$69, DW_AT_type(*$C$DW$T$37)
    1278                            .dwattr $C$DW$69, DW_AT_location[DW_OP_reg1]
    1279                    
    1280                    $C$DW$70        .dwtag  DW_TAG_formal_parameter
    1281                            .dwattr $C$DW$70, DW_AT_name("quadrant")
    1282                            .dwattr $C$DW$70, DW_AT_TI_symbol_name("quadrant")
    1283                            .dwattr $C$DW$70, DW_AT_type(*$C$DW$T$20)
    1284                            .dwattr $C$DW$70, DW_AT_location[DW_OP_reg2]
    1285                    
    1286                    $C$DW$71        .dwtag  DW_TAG_formal_parameter
    1287                            .dwattr $C$DW$71, DW_AT_name("master")
    1288                            .dwattr $C$DW$71, DW_AT_TI_symbol_name("master")
    1289                            .dwattr $C$DW$71, DW_AT_type(*$C$DW$T$39)
    1290                            .dwattr $C$DW$71, DW_AT_location[DW_OP_reg3]
    1291                    
    1292                    
    1293                    ;*****************************************************************************
    1294                    ;* FUNCTION NAME: peripheral_Frame_MasterIDFilter_Disable                    *
    1295                    ;*                                                                           *
    1296                    ;*   Regs Modified     : A1,A2,A3,A4,V9,SP,SR                                *
    1297                    ;*   Regs Used         : A1,A2,A3,A4,V9,SP,LR,SR                             *
    1298                    ;*   Local Frame Size  : 0 Args + 12 Auto + 0 Save = 12 byte                 *
    1299                    ;*****************************************************************************
    1300 00000548           peripheral_Frame_MasterIDFilter_Disable:
    1301                    ;* --------------------------------------------------------------------------*
    1302                            .dwcfi  cfa_offset, 0
    1303 00000548 E24DD010          SUB       SP, SP, #16           ; [DPU_4_PIPE0] 
    1304                            .dwcfi  cfa_offset, 16
    1305                    $C$DW$72        .dwtag  DW_TAG_variable
    1306                            .dwattr $C$DW$72, DW_AT_name("pcr")
    1307                            .dwattr $C$DW$72, DW_AT_TI_symbol_name("pcr")
    1308                            .dwattr $C$DW$72, DW_AT_type(*$C$DW$T$57)
    1309                            .dwattr $C$DW$72, DW_AT_location[DW_OP_breg13 0]
    1310                    
    1311                    $C$DW$73        .dwtag  DW_TAG_variable
    1312                            .dwattr $C$DW$73, DW_AT_name("quadrant")
    1313                            .dwattr $C$DW$73, DW_AT_TI_symbol_name("quadrant")
    1314                            .dwattr $C$DW$73, DW_AT_type(*$C$DW$T$20)
    1315                            .dwattr $C$DW$73, DW_AT_location[DW_OP_breg13 4]
    1316                    
    1317                    $C$DW$74        .dwtag  DW_TAG_variable
    1318                            .dwattr $C$DW$74, DW_AT_name("PS")
    1319                            .dwattr $C$DW$74, DW_AT_TI_symbol_name("PS")
    1320                            .dwattr $C$DW$74, DW_AT_type(*$C$DW$T$37)
TI ARM Assembler PC v16.9.0 Thu Feb 16 13:27:12 2017

Tools Copyright (c) 1996-2015 Texas Instruments Incorporated
C:\Users\bob\AppData\Local\Temp\1183610                              PAGE   25

    1321                            .dwattr $C$DW$74, DW_AT_location[DW_OP_breg13 8]
    1322                    
    1323                    $C$DW$75        .dwtag  DW_TAG_variable
    1324                            .dwattr $C$DW$75, DW_AT_name("master")
    1325                            .dwattr $C$DW$75, DW_AT_TI_symbol_name("master")
    1326                            .dwattr $C$DW$75, DW_AT_type(*$C$DW$T$39)
    1327                            .dwattr $C$DW$75, DW_AT_location[DW_OP_breg13 9]
    1328                    
    1329 0000054c E5CD3009          STRB      A4, [SP, #9]          ; [DPU_4_PIPE0] |416| 
    1330 00000550 E58D2004          STR       A3, [SP, #4]          ; [DPU_4_PIPE0] |416| 
    1331 00000554 E5CD1008          STRB      A2, [SP, #8]          ; [DPU_4_PIPE0] |416| 
    1332 00000558 E58D0000          STR       A1, [SP, #0]          ; [DPU_4_PIPE0] |416| 
    1333                            .dwpsn  file "../hcg/source/HL_sys_pcr.c",line 420,column 2,is_stmt,isa 2
    1334 0000055c E59DC004          LDR       V9, [SP, #4]          ; [DPU_4_PIPE0] |420| 
    1335 00000560 E20CC00F          AND       V9, V9, #15           ; [DPU_4_PIPE0] |420| 
    1336 00000564 E58DC004          STR       V9, [SP, #4]          ; [DPU_4_PIPE0] |420| 
    1337                            .dwpsn  file "../hcg/source/HL_sys_pcr.c",line 423,column 2,is_stmt,isa 2
    1338 00000568 E59DC000          LDR       V9, [SP, #0]          ; [DPU_4_PIPE0] |423| 
    1339 0000056c E3A0000A          MOV       A1, #10               ; [DPU_4_PIPE0] |423| 
    1340 00000570 E58C0200          STR       A1, [V9, #512]        ; [DPU_4_PIPE0] |423| 
    1341                            .dwpsn  file "../hcg/source/HL_sys_pcr.c",line 425,column 2,is_stmt,isa 2
    1342 00000574 E59DC004          LDR       V9, [SP, #4]          ; [DPU_4_PIPE0] |425| 
    1343 00000578 E31C0001          TST       V9, #1                ; [DPU_4_PIPE0] |425| 
    1344 0000057c 0AFFFFFE!         BEQ       ||$C$L29||            ; [DPU_4_PIPE1] |425| 
    1345                            ; BRANCHCC OCCURS {||$C$L29||}   ; [] |425| 
    1346                    ;* --------------------------------------------------------------------------*
    1347                            .dwpsn  file "../hcg/source/HL_sys_pcr.c",line 428,column 3,is_stmt,isa 2
    1348 00000580 E5DDC008          LDRB      V9, [SP, #8]          ; [DPU_4_PIPE0] |428| 
    1349 00000584 E59D0000          LDR       A1, [SP, #0]          ; [DPU_4_PIPE0] |428| 
    1350 00000588 E1A0C18C          MOV       V9, V9, LSL #3        ; [DPU_4_PIPE0] |428| 
    1351 0000058c E2800C03          ADD       A1, A1, #768          ; [DPU_4_PIPE0] |428| 
    1352 00000590 E5DD1009          LDRB      A2, [SP, #9]          ; [DPU_4_PIPE0] |428| 
    1353 00000594 E3A03001          MOV       A4, #1                ; [DPU_4_PIPE0] |428| 
    1354 00000598 E79C2000          LDR       A3, [V9, +A1]         ; [DPU_4_PIPE0] |428| 
    1355 0000059c E1C21113          BIC       A2, A3, A4, LSL A2    ; [DPU_4_PIPE0] |428| 
    1356 000005a0 E78C1000          STR       A2, [V9, +A1]         ; [DPU_4_PIPE0] |428| 
    1357                    ;* --------------------------------------------------------------------------*
    1358 000005a4           ||$C$L29||:    
    1359                            .dwpsn  file "../hcg/source/HL_sys_pcr.c",line 431,column 2,is_stmt,isa 2
    1360 000005a4 E59DC004          LDR       V9, [SP, #4]          ; [DPU_4_PIPE0] |431| 
    1361 000005a8 E31C0002          TST       V9, #2                ; [DPU_4_PIPE0] |431| 
    1362 000005ac 0AFFFFFE!         BEQ       ||$C$L30||            ; [DPU_4_PIPE1] |431| 
    1363                            ; BRANCHCC OCCURS {||$C$L30||}   ; [] |431| 
    1364                    ;* --------------------------------------------------------------------------*
    1365                            .dwpsn  file "../hcg/source/HL_sys_pcr.c",line 434,column 3,is_stmt,isa 2
    1366 000005b0 E5DDC008          LDRB      V9, [SP, #8]          ; [DPU_4_PIPE0] |434| 
    1367 000005b4 E59D0000          LDR       A1, [SP, #0]          ; [DPU_4_PIPE0] |434| 
    1368 000005b8 E1A0C18C          MOV       V9, V9, LSL #3        ; [DPU_4_PIPE0] |434| 
    1369 000005bc E5DD1009          LDRB      A2, [SP, #9]          ; [DPU_4_PIPE0] |434| 
    1370 000005c0 E2800C03          ADD       A1, A1, #768          ; [DPU_4_PIPE1] |434| 
    1371 000005c4 E3A03001          MOV       A4, #1                ; [DPU_4_PIPE0] |434| 
    1372 000005c8 E2811010          ADD       A2, A2, #16           ; [DPU_4_PIPE0] |434| 
    1373 000005cc E79C2000          LDR       A3, [V9, +A1]         ; [DPU_4_PIPE0] |434| 
    1374 000005d0 E1C21113          BIC       A2, A3, A4, LSL A2    ; [DPU_4_PIPE0] |434| 
    1375 000005d4 E78C1000          STR       A2, [V9, +A1]         ; [DPU_4_PIPE0] |434| 
TI ARM Assembler PC v16.9.0 Thu Feb 16 13:27:12 2017

Tools Copyright (c) 1996-2015 Texas Instruments Incorporated
C:\Users\bob\AppData\Local\Temp\1183610                              PAGE   26

    1376                    ;* --------------------------------------------------------------------------*
    1377 000005d8           ||$C$L30||:    
    1378                            .dwpsn  file "../hcg/source/HL_sys_pcr.c",line 437,column 2,is_stmt,isa 2
    1379 000005d8 E59DC004          LDR       V9, [SP, #4]          ; [DPU_4_PIPE0] |437| 
    1380 000005dc E31C0004          TST       V9, #4                ; [DPU_4_PIPE0] |437| 
    1381 000005e0 0AFFFFFE!         BEQ       ||$C$L31||            ; [DPU_4_PIPE1] |437| 
    1382                            ; BRANCHCC OCCURS {||$C$L31||}   ; [] |437| 
    1383                    ;* --------------------------------------------------------------------------*
    1384                            .dwpsn  file "../hcg/source/HL_sys_pcr.c",line 440,column 3,is_stmt,isa 2
    1385 000005e4 E5DDC008          LDRB      V9, [SP, #8]          ; [DPU_4_PIPE0] |440| 
    1386 000005e8 E59D0000          LDR       A1, [SP, #0]          ; [DPU_4_PIPE0] |440| 
    1387 000005ec E080C18C          ADD       V9, A1, V9, LSL #3    ; [DPU_4_PIPE0] |440| 
    1388 000005f0 E28CCC03          ADD       V9, V9, #768          ; [DPU_4_PIPE0] |440| 
    1389 000005f4 E5DD0009          LDRB      A1, [SP, #9]          ; [DPU_4_PIPE0] |440| 
    1390 000005f8 E3A02001          MOV       A3, #1                ; [DPU_4_PIPE0] |440| 
    1391 000005fc E59C1004          LDR       A2, [V9, #4]          ; [DPU_4_PIPE0] |440| 
    1392 00000600 E1C10012          BIC       A1, A2, A3, LSL A1    ; [DPU_4_PIPE0] |440| 
    1393 00000604 E58C0004          STR       A1, [V9, #4]          ; [DPU_4_PIPE0] |440| 
    1394                    ;* --------------------------------------------------------------------------*
    1395 00000608           ||$C$L31||:    
    1396                            .dwpsn  file "../hcg/source/HL_sys_pcr.c",line 443,column 2,is_stmt,isa 2
    1397 00000608 E59DC004          LDR       V9, [SP, #4]          ; [DPU_4_PIPE0] |443| 
    1398 0000060c E31C0008          TST       V9, #8                ; [DPU_4_PIPE0] |443| 
    1399 00000610 0AFFFFFE!         BEQ       ||$C$L32||            ; [DPU_4_PIPE1] |443| 
    1400                            ; BRANCHCC OCCURS {||$C$L32||}   ; [] |443| 
    1401                    ;* --------------------------------------------------------------------------*
    1402                            .dwpsn  file "../hcg/source/HL_sys_pcr.c",line 446,column 3,is_stmt,isa 2
    1403 00000614 E5DDC008          LDRB      V9, [SP, #8]          ; [DPU_4_PIPE0] |446| 
    1404 00000618 E59D0000          LDR       A1, [SP, #0]          ; [DPU_4_PIPE0] |446| 
    1405 0000061c E080C18C          ADD       V9, A1, V9, LSL #3    ; [DPU_4_PIPE0] |446| 
    1406 00000620 E28CCC03          ADD       V9, V9, #768          ; [DPU_4_PIPE0] |446| 
    1407 00000624 E5DD0009          LDRB      A1, [SP, #9]          ; [DPU_4_PIPE0] |446| 
    1408 00000628 E59C1004          LDR       A2, [V9, #4]          ; [DPU_4_PIPE0] |446| 
    1409 0000062c E3A02001          MOV       A3, #1                ; [DPU_4_PIPE1] |446| 
    1410 00000630 E2800010          ADD       A1, A1, #16           ; [DPU_4_PIPE0] |446| 
    1411 00000634 E1C10012          BIC       A1, A2, A3, LSL A1    ; [DPU_4_PIPE0] |446| 
    1412 00000638 E58C0004          STR       A1, [V9, #4]          ; [DPU_4_PIPE0] |446| 
    1413                    ;* --------------------------------------------------------------------------*
    1414 0000063c           ||$C$L32||:    
    1415                            .dwpsn  file "../hcg/source/HL_sys_pcr.c",line 450,column 2,is_stmt,isa 2
    1416 0000063c E59DC000          LDR       V9, [SP, #0]          ; [DPU_4_PIPE0] |450| 
    1417 00000640 E3A00005          MOV       A1, #5                ; [DPU_4_PIPE0] |450| 
    1418 00000644 E58C0200          STR       A1, [V9, #512]        ; [DPU_4_PIPE0] |450| 
    1419                            .dwpsn  file "../hcg/source/HL_sys_pcr.c",line 454,column 1,is_stmt,isa 2
    1420 00000648 E28DD010          ADD       SP, SP, #16           ; [DPU_4_PIPE0] 
    1421                            .dwcfi  cfa_offset, 0
    1422                    $C$DW$76        .dwtag  DW_TAG_TI_branch
    1423                            .dwattr $C$DW$76, DW_AT_low_pc(0x00)
    1424                            .dwattr $C$DW$76, DW_AT_TI_return
    1425                    
    1426 0000064c E12FFF1E          BX        LR                    ; [DPU_4_PIPE1] 
    1427                            ; BRANCH OCCURS                  ; [] 
    1428                            .dwattr $C$DW$67, DW_AT_TI_end_file("../hcg/source/HL_sys_pcr.c")
    1429                            .dwattr $C$DW$67, DW_AT_TI_end_line(0x1c6)
    1430                            .dwattr $C$DW$67, DW_AT_TI_end_column(0x01)
TI ARM Assembler PC v16.9.0 Thu Feb 16 13:27:12 2017

Tools Copyright (c) 1996-2015 Texas Instruments Incorporated
C:\Users\bob\AppData\Local\Temp\1183610                              PAGE   27

    1431                            .dwendentry
    1432                            .dwendtag $C$DW$67
    1433                    
    1434 00000650                   .sect   ".text"
    1435                            .clink
    1436                            .armfunc privileged_Peripheral_Frame_MasterIDFilter_Enable
    1437 00000650                   .state32
    1438                            .global privileged_Peripheral_Frame_MasterIDFilter_Enable
    1439                    
    1440                    $C$DW$77        .dwtag  DW_TAG_subprogram
    1441                            .dwattr $C$DW$77, DW_AT_name("privileged_Peripheral_Frame_MasterIDFilter_Enable")
    1442                            .dwattr $C$DW$77, DW_AT_low_pc(privileged_Peripheral_Frame_MasterIDFilter_Enable)
    1443                            .dwattr $C$DW$77, DW_AT_high_pc(0x00)
    1444                            .dwattr $C$DW$77, DW_AT_TI_symbol_name("privileged_Peripheral_Frame_MasterIDFilter_Enable")
    1445                            .dwattr $C$DW$77, DW_AT_external
    1446                            .dwattr $C$DW$77, DW_AT_TI_begin_file("../hcg/source/HL_sys_pcr.c")
    1447                            .dwattr $C$DW$77, DW_AT_TI_begin_line(0x1e0)
    1448                            .dwattr $C$DW$77, DW_AT_TI_begin_column(0x06)
    1449                            .dwattr $C$DW$77, DW_AT_decl_file("../hcg/source/HL_sys_pcr.c")
    1450                            .dwattr $C$DW$77, DW_AT_decl_line(0x1e0)
    1451                            .dwattr $C$DW$77, DW_AT_decl_column(0x06)
    1452                            .dwattr $C$DW$77, DW_AT_TI_max_frame_size(0x10)
    1453                            .dwpsn  file "../hcg/source/HL_sys_pcr.c",line 481,column 1,is_stmt,address privileged_Periphe
    1454                    
    1455                            .dwfde $C$DW$CIE, privileged_Peripheral_Frame_MasterIDFilter_Enable
    1456                    $C$DW$78        .dwtag  DW_TAG_formal_parameter
    1457                            .dwattr $C$DW$78, DW_AT_name("pcr")
    1458                            .dwattr $C$DW$78, DW_AT_TI_symbol_name("pcr")
    1459                            .dwattr $C$DW$78, DW_AT_type(*$C$DW$T$57)
    1460                            .dwattr $C$DW$78, DW_AT_location[DW_OP_reg0]
    1461                    
    1462                    $C$DW$79        .dwtag  DW_TAG_formal_parameter
    1463                            .dwattr $C$DW$79, DW_AT_name("PPS")
    1464                            .dwattr $C$DW$79, DW_AT_TI_symbol_name("PPS")
    1465                            .dwattr $C$DW$79, DW_AT_type(*$C$DW$T$41)
    1466                            .dwattr $C$DW$79, DW_AT_location[DW_OP_reg1]
    1467                    
    1468                    $C$DW$80        .dwtag  DW_TAG_formal_parameter
    1469                            .dwattr $C$DW$80, DW_AT_name("quadrant")
    1470                            .dwattr $C$DW$80, DW_AT_TI_symbol_name("quadrant")
    1471                            .dwattr $C$DW$80, DW_AT_type(*$C$DW$T$20)
    1472                            .dwattr $C$DW$80, DW_AT_location[DW_OP_reg2]
    1473                    
    1474                    $C$DW$81        .dwtag  DW_TAG_formal_parameter
    1475                            .dwattr $C$DW$81, DW_AT_name("master")
    1476                            .dwattr $C$DW$81, DW_AT_TI_symbol_name("master")
    1477                            .dwattr $C$DW$81, DW_AT_type(*$C$DW$T$39)
    1478                            .dwattr $C$DW$81, DW_AT_location[DW_OP_reg3]
    1479                    
    1480                    
    1481                    ;*****************************************************************************
    1482                    ;* FUNCTION NAME: privileged_Peripheral_Frame_MasterIDFilter_Enable          *
    1483                    ;*                                                                           *
    1484                    ;*   Regs Modified     : A1,A2,A3,A4,V9,SP,SR                                *
    1485                    ;*   Regs Used         : A1,A2,A3,A4,V9,SP,LR,SR                             *
TI ARM Assembler PC v16.9.0 Thu Feb 16 13:27:12 2017

Tools Copyright (c) 1996-2015 Texas Instruments Incorporated
C:\Users\bob\AppData\Local\Temp\1183610                              PAGE   28

    1486                    ;*   Local Frame Size  : 0 Args + 12 Auto + 0 Save = 12 byte                 *
    1487                    ;*****************************************************************************
    1488 00000650           privileged_Peripheral_Frame_MasterIDFilter_Enable:
    1489                    ;* --------------------------------------------------------------------------*
    1490                            .dwcfi  cfa_offset, 0
    1491 00000650 E24DD010          SUB       SP, SP, #16           ; [DPU_4_PIPE0] 
    1492                            .dwcfi  cfa_offset, 16
    1493                    $C$DW$82        .dwtag  DW_TAG_variable
    1494                            .dwattr $C$DW$82, DW_AT_name("pcr")
    1495                            .dwattr $C$DW$82, DW_AT_TI_symbol_name("pcr")
    1496                            .dwattr $C$DW$82, DW_AT_type(*$C$DW$T$57)
    1497                            .dwattr $C$DW$82, DW_AT_location[DW_OP_breg13 0]
    1498                    
    1499                    $C$DW$83        .dwtag  DW_TAG_variable
    1500                            .dwattr $C$DW$83, DW_AT_name("quadrant")
    1501                            .dwattr $C$DW$83, DW_AT_TI_symbol_name("quadrant")
    1502                            .dwattr $C$DW$83, DW_AT_type(*$C$DW$T$20)
    1503                            .dwattr $C$DW$83, DW_AT_location[DW_OP_breg13 4]
    1504                    
    1505                    $C$DW$84        .dwtag  DW_TAG_variable
    1506                            .dwattr $C$DW$84, DW_AT_name("PPS")
    1507                            .dwattr $C$DW$84, DW_AT_TI_symbol_name("PPS")
    1508                            .dwattr $C$DW$84, DW_AT_type(*$C$DW$T$41)
    1509                            .dwattr $C$DW$84, DW_AT_location[DW_OP_breg13 8]
    1510                    
    1511                    $C$DW$85        .dwtag  DW_TAG_variable
    1512                            .dwattr $C$DW$85, DW_AT_name("master")
    1513                            .dwattr $C$DW$85, DW_AT_TI_symbol_name("master")
    1514                            .dwattr $C$DW$85, DW_AT_type(*$C$DW$T$39)
    1515                            .dwattr $C$DW$85, DW_AT_location[DW_OP_breg13 9]
    1516                    
    1517 00000654 E5CD3009          STRB      A4, [SP, #9]          ; [DPU_4_PIPE0] |481| 
    1518 00000658 E58D2004          STR       A3, [SP, #4]          ; [DPU_4_PIPE0] |481| 
    1519 0000065c E5CD1008          STRB      A2, [SP, #8]          ; [DPU_4_PIPE0] |481| 
    1520 00000660 E58D0000          STR       A1, [SP, #0]          ; [DPU_4_PIPE0] |481| 
    1521                            .dwpsn  file "../hcg/source/HL_sys_pcr.c",line 485,column 2,is_stmt,isa 2
    1522 00000664 E59DC004          LDR       V9, [SP, #4]          ; [DPU_4_PIPE0] |485| 
    1523 00000668 E20CC00F          AND       V9, V9, #15           ; [DPU_4_PIPE0] |485| 
    1524 0000066c E58DC004          STR       V9, [SP, #4]          ; [DPU_4_PIPE0] |485| 
    1525                            .dwpsn  file "../hcg/source/HL_sys_pcr.c",line 488,column 2,is_stmt,isa 2
    1526 00000670 E59DC000          LDR       V9, [SP, #0]          ; [DPU_4_PIPE0] |488| 
    1527 00000674 E3A0000A          MOV       A1, #10               ; [DPU_4_PIPE0] |488| 
    1528 00000678 E58C0200          STR       A1, [V9, #512]        ; [DPU_4_PIPE0] |488| 
    1529                            .dwpsn  file "../hcg/source/HL_sys_pcr.c",line 490,column 2,is_stmt,isa 2
    1530 0000067c E59DC004          LDR       V9, [SP, #4]          ; [DPU_4_PIPE0] |490| 
    1531 00000680 E31C0001          TST       V9, #1                ; [DPU_4_PIPE0] |490| 
    1532 00000684 0AFFFFFE!         BEQ       ||$C$L33||            ; [DPU_4_PIPE1] |490| 
    1533                            ; BRANCHCC OCCURS {||$C$L33||}   ; [] |490| 
    1534                    ;* --------------------------------------------------------------------------*
    1535                            .dwpsn  file "../hcg/source/HL_sys_pcr.c",line 493,column 3,is_stmt,isa 2
    1536 00000688 E5DDC008          LDRB      V9, [SP, #8]          ; [DPU_4_PIPE0] |493| 
    1537 0000068c E59D0000          LDR       A1, [SP, #0]          ; [DPU_4_PIPE0] |493| 
    1538 00000690 E1A0C18C          MOV       V9, V9, LSL #3        ; [DPU_4_PIPE0] |493| 
    1539 00000694 E2800B01          ADD       A1, A1, #1024         ; [DPU_4_PIPE0] |493| 
    1540 00000698 E5DD1009          LDRB      A2, [SP, #9]          ; [DPU_4_PIPE0] |493| 
TI ARM Assembler PC v16.9.0 Thu Feb 16 13:27:12 2017

Tools Copyright (c) 1996-2015 Texas Instruments Incorporated
C:\Users\bob\AppData\Local\Temp\1183610                              PAGE   29

    1541 0000069c E3A03001          MOV       A4, #1                ; [DPU_4_PIPE0] |493| 
    1542 000006a0 E79C2000          LDR       A3, [V9, +A1]         ; [DPU_4_PIPE0] |493| 
    1543 000006a4 E1821113          ORR       A2, A3, A4, LSL A2    ; [DPU_4_PIPE0] |493| 
    1544 000006a8 E78C1000          STR       A2, [V9, +A1]         ; [DPU_4_PIPE0] |493| 
    1545                    ;* --------------------------------------------------------------------------*
    1546 000006ac           ||$C$L33||:    
    1547                            .dwpsn  file "../hcg/source/HL_sys_pcr.c",line 496,column 2,is_stmt,isa 2
    1548 000006ac E59DC004          LDR       V9, [SP, #4]          ; [DPU_4_PIPE0] |496| 
    1549 000006b0 E31C0002          TST       V9, #2                ; [DPU_4_PIPE0] |496| 
    1550 000006b4 0AFFFFFE!         BEQ       ||$C$L34||            ; [DPU_4_PIPE1] |496| 
    1551                            ; BRANCHCC OCCURS {||$C$L34||}   ; [] |496| 
    1552                    ;* --------------------------------------------------------------------------*
    1553                            .dwpsn  file "../hcg/source/HL_sys_pcr.c",line 499,column 3,is_stmt,isa 2
    1554 000006b8 E5DDC008          LDRB      V9, [SP, #8]          ; [DPU_4_PIPE0] |499| 
    1555 000006bc E59D0000          LDR       A1, [SP, #0]          ; [DPU_4_PIPE0] |499| 
    1556 000006c0 E1A0C18C          MOV       V9, V9, LSL #3        ; [DPU_4_PIPE0] |499| 
    1557 000006c4 E5DD1009          LDRB      A2, [SP, #9]          ; [DPU_4_PIPE0] |499| 
    1558 000006c8 E2800B01          ADD       A1, A1, #1024         ; [DPU_4_PIPE1] |499| 
    1559 000006cc E3A03001          MOV       A4, #1                ; [DPU_4_PIPE0] |499| 
    1560 000006d0 E2811010          ADD       A2, A2, #16           ; [DPU_4_PIPE0] |499| 
    1561 000006d4 E79C2000          LDR       A3, [V9, +A1]         ; [DPU_4_PIPE0] |499| 
    1562 000006d8 E1821113          ORR       A2, A3, A4, LSL A2    ; [DPU_4_PIPE0] |499| 
    1563 000006dc E78C1000          STR       A2, [V9, +A1]         ; [DPU_4_PIPE0] |499| 
    1564                    ;* --------------------------------------------------------------------------*
    1565 000006e0           ||$C$L34||:    
    1566                            .dwpsn  file "../hcg/source/HL_sys_pcr.c",line 502,column 2,is_stmt,isa 2
    1567 000006e0 E59DC004          LDR       V9, [SP, #4]          ; [DPU_4_PIPE0] |502| 
    1568 000006e4 E31C0004          TST       V9, #4                ; [DPU_4_PIPE0] |502| 
    1569 000006e8 0AFFFFFE!         BEQ       ||$C$L35||            ; [DPU_4_PIPE1] |502| 
    1570                            ; BRANCHCC OCCURS {||$C$L35||}   ; [] |502| 
    1571                    ;* --------------------------------------------------------------------------*
    1572                            .dwpsn  file "../hcg/source/HL_sys_pcr.c",line 505,column 3,is_stmt,isa 2
    1573 000006ec E5DDC008          LDRB      V9, [SP, #8]          ; [DPU_4_PIPE0] |505| 
    1574 000006f0 E59D0000          LDR       A1, [SP, #0]          ; [DPU_4_PIPE0] |505| 
    1575 000006f4 E080C18C          ADD       V9, A1, V9, LSL #3    ; [DPU_4_PIPE0] |505| 
    1576 000006f8 E28CCB01          ADD       V9, V9, #1024         ; [DPU_4_PIPE0] |505| 
    1577 000006fc E5DD0009          LDRB      A1, [SP, #9]          ; [DPU_4_PIPE0] |505| 
    1578 00000700 E3A02001          MOV       A3, #1                ; [DPU_4_PIPE0] |505| 
    1579 00000704 E59C1004          LDR       A2, [V9, #4]          ; [DPU_4_PIPE0] |505| 
    1580 00000708 E1810012          ORR       A1, A2, A3, LSL A1    ; [DPU_4_PIPE0] |505| 
    1581 0000070c E58C0004          STR       A1, [V9, #4]          ; [DPU_4_PIPE0] |505| 
    1582                    ;* --------------------------------------------------------------------------*
    1583 00000710           ||$C$L35||:    
    1584                            .dwpsn  file "../hcg/source/HL_sys_pcr.c",line 508,column 2,is_stmt,isa 2
    1585 00000710 E59DC004          LDR       V9, [SP, #4]          ; [DPU_4_PIPE0] |508| 
    1586 00000714 E31C0008          TST       V9, #8                ; [DPU_4_PIPE0] |508| 
    1587 00000718 0AFFFFFE!         BEQ       ||$C$L36||            ; [DPU_4_PIPE1] |508| 
    1588                            ; BRANCHCC OCCURS {||$C$L36||}   ; [] |508| 
    1589                    ;* --------------------------------------------------------------------------*
    1590                            .dwpsn  file "../hcg/source/HL_sys_pcr.c",line 511,column 3,is_stmt,isa 2
    1591 0000071c E5DDC008          LDRB      V9, [SP, #8]          ; [DPU_4_PIPE0] |511| 
    1592 00000720 E59D0000          LDR       A1, [SP, #0]          ; [DPU_4_PIPE0] |511| 
    1593 00000724 E080C18C          ADD       V9, A1, V9, LSL #3    ; [DPU_4_PIPE0] |511| 
    1594 00000728 E28CCB01          ADD       V9, V9, #1024         ; [DPU_4_PIPE0] |511| 
    1595 0000072c E5DD0009          LDRB      A1, [SP, #9]          ; [DPU_4_PIPE0] |511| 
TI ARM Assembler PC v16.9.0 Thu Feb 16 13:27:12 2017

Tools Copyright (c) 1996-2015 Texas Instruments Incorporated
C:\Users\bob\AppData\Local\Temp\1183610                              PAGE   30

    1596 00000730 E59C1004          LDR       A2, [V9, #4]          ; [DPU_4_PIPE0] |511| 
    1597 00000734 E3A02001          MOV       A3, #1                ; [DPU_4_PIPE1] |511| 
    1598 00000738 E2800010          ADD       A1, A1, #16           ; [DPU_4_PIPE0] |511| 
    1599 0000073c E1810012          ORR       A1, A2, A3, LSL A1    ; [DPU_4_PIPE0] |511| 
    1600 00000740 E58C0004          STR       A1, [V9, #4]          ; [DPU_4_PIPE0] |511| 
    1601                    ;* --------------------------------------------------------------------------*
    1602 00000744           ||$C$L36||:    
    1603                            .dwpsn  file "../hcg/source/HL_sys_pcr.c",line 515,column 2,is_stmt,isa 2
    1604 00000744 E59DC000          LDR       V9, [SP, #0]          ; [DPU_4_PIPE0] |515| 
    1605 00000748 E3A00005          MOV       A1, #5                ; [DPU_4_PIPE0] |515| 
    1606 0000074c E58C0200          STR       A1, [V9, #512]        ; [DPU_4_PIPE0] |515| 
    1607                            .dwpsn  file "../hcg/source/HL_sys_pcr.c",line 519,column 1,is_stmt,isa 2
    1608 00000750 E28DD010          ADD       SP, SP, #16           ; [DPU_4_PIPE0] 
    1609                            .dwcfi  cfa_offset, 0
    1610                    $C$DW$86        .dwtag  DW_TAG_TI_branch
    1611                            .dwattr $C$DW$86, DW_AT_low_pc(0x00)
    1612                            .dwattr $C$DW$86, DW_AT_TI_return
    1613                    
    1614 00000754 E12FFF1E          BX        LR                    ; [DPU_4_PIPE1] 
    1615                            ; BRANCH OCCURS                  ; [] 
    1616                            .dwattr $C$DW$77, DW_AT_TI_end_file("../hcg/source/HL_sys_pcr.c")
    1617                            .dwattr $C$DW$77, DW_AT_TI_end_line(0x207)
    1618                            .dwattr $C$DW$77, DW_AT_TI_end_column(0x01)
    1619                            .dwendentry
    1620                            .dwendtag $C$DW$77
    1621                    
    1622 00000758                   .sect   ".text"
    1623                            .clink
    1624                            .armfunc privileged_Peripheral_Frame_MasterIDFilter_Disable
    1625 00000758                   .state32
    1626                            .global privileged_Peripheral_Frame_MasterIDFilter_Disable
    1627                    
    1628                    $C$DW$87        .dwtag  DW_TAG_subprogram
    1629                            .dwattr $C$DW$87, DW_AT_name("privileged_Peripheral_Frame_MasterIDFilter_Disable")
    1630                            .dwattr $C$DW$87, DW_AT_low_pc(privileged_Peripheral_Frame_MasterIDFilter_Disable)
    1631                            .dwattr $C$DW$87, DW_AT_high_pc(0x00)
    1632                            .dwattr $C$DW$87, DW_AT_TI_symbol_name("privileged_Peripheral_Frame_MasterIDFilter_Disable")
    1633                            .dwattr $C$DW$87, DW_AT_external
    1634                            .dwattr $C$DW$87, DW_AT_TI_begin_file("../hcg/source/HL_sys_pcr.c")
    1635                            .dwattr $C$DW$87, DW_AT_TI_begin_line(0x221)
    1636                            .dwattr $C$DW$87, DW_AT_TI_begin_column(0x06)
    1637                            .dwattr $C$DW$87, DW_AT_decl_file("../hcg/source/HL_sys_pcr.c")
    1638                            .dwattr $C$DW$87, DW_AT_decl_line(0x221)
    1639                            .dwattr $C$DW$87, DW_AT_decl_column(0x06)
    1640                            .dwattr $C$DW$87, DW_AT_TI_max_frame_size(0x10)
    1641                            .dwpsn  file "../hcg/source/HL_sys_pcr.c",line 546,column 1,is_stmt,address privileged_Periphe
    1642                    
    1643                            .dwfde $C$DW$CIE, privileged_Peripheral_Frame_MasterIDFilter_Disable
    1644                    $C$DW$88        .dwtag  DW_TAG_formal_parameter
    1645                            .dwattr $C$DW$88, DW_AT_name("pcr")
    1646                            .dwattr $C$DW$88, DW_AT_TI_symbol_name("pcr")
    1647                            .dwattr $C$DW$88, DW_AT_type(*$C$DW$T$57)
    1648                            .dwattr $C$DW$88, DW_AT_location[DW_OP_reg0]
    1649                    
    1650                    $C$DW$89        .dwtag  DW_TAG_formal_parameter
TI ARM Assembler PC v16.9.0 Thu Feb 16 13:27:12 2017

Tools Copyright (c) 1996-2015 Texas Instruments Incorporated
C:\Users\bob\AppData\Local\Temp\1183610                              PAGE   31

    1651                            .dwattr $C$DW$89, DW_AT_name("PPS")
    1652                            .dwattr $C$DW$89, DW_AT_TI_symbol_name("PPS")
    1653                            .dwattr $C$DW$89, DW_AT_type(*$C$DW$T$41)
    1654                            .dwattr $C$DW$89, DW_AT_location[DW_OP_reg1]
    1655                    
    1656                    $C$DW$90        .dwtag  DW_TAG_formal_parameter
    1657                            .dwattr $C$DW$90, DW_AT_name("quadrant")
    1658                            .dwattr $C$DW$90, DW_AT_TI_symbol_name("quadrant")
    1659                            .dwattr $C$DW$90, DW_AT_type(*$C$DW$T$20)
    1660                            .dwattr $C$DW$90, DW_AT_location[DW_OP_reg2]
    1661                    
    1662                    $C$DW$91        .dwtag  DW_TAG_formal_parameter
    1663                            .dwattr $C$DW$91, DW_AT_name("master")
    1664                            .dwattr $C$DW$91, DW_AT_TI_symbol_name("master")
    1665                            .dwattr $C$DW$91, DW_AT_type(*$C$DW$T$39)
    1666                            .dwattr $C$DW$91, DW_AT_location[DW_OP_reg3]
    1667                    
    1668                    
    1669                    ;*****************************************************************************
    1670                    ;* FUNCTION NAME: privileged_Peripheral_Frame_MasterIDFilter_Disable         *
    1671                    ;*                                                                           *
    1672                    ;*   Regs Modified     : A1,A2,A3,A4,V9,SP,SR                                *
    1673                    ;*   Regs Used         : A1,A2,A3,A4,V9,SP,LR,SR                             *
    1674                    ;*   Local Frame Size  : 0 Args + 12 Auto + 0 Save = 12 byte                 *
    1675                    ;*****************************************************************************
    1676 00000758           privileged_Peripheral_Frame_MasterIDFilter_Disable:
    1677                    ;* --------------------------------------------------------------------------*
    1678                            .dwcfi  cfa_offset, 0
    1679 00000758 E24DD010          SUB       SP, SP, #16           ; [DPU_4_PIPE0] 
    1680                            .dwcfi  cfa_offset, 16
    1681                    $C$DW$92        .dwtag  DW_TAG_variable
    1682                            .dwattr $C$DW$92, DW_AT_name("pcr")
    1683                            .dwattr $C$DW$92, DW_AT_TI_symbol_name("pcr")
    1684                            .dwattr $C$DW$92, DW_AT_type(*$C$DW$T$57)
    1685                            .dwattr $C$DW$92, DW_AT_location[DW_OP_breg13 0]
    1686                    
    1687                    $C$DW$93        .dwtag  DW_TAG_variable
    1688                            .dwattr $C$DW$93, DW_AT_name("quadrant")
    1689                            .dwattr $C$DW$93, DW_AT_TI_symbol_name("quadrant")
    1690                            .dwattr $C$DW$93, DW_AT_type(*$C$DW$T$20)
    1691                            .dwattr $C$DW$93, DW_AT_location[DW_OP_breg13 4]
    1692                    
    1693                    $C$DW$94        .dwtag  DW_TAG_variable
    1694                            .dwattr $C$DW$94, DW_AT_name("PPS")
    1695                            .dwattr $C$DW$94, DW_AT_TI_symbol_name("PPS")
    1696                            .dwattr $C$DW$94, DW_AT_type(*$C$DW$T$41)
    1697                            .dwattr $C$DW$94, DW_AT_location[DW_OP_breg13 8]
    1698                    
    1699                    $C$DW$95        .dwtag  DW_TAG_variable
    1700                            .dwattr $C$DW$95, DW_AT_name("master")
    1701                            .dwattr $C$DW$95, DW_AT_TI_symbol_name("master")
    1702                            .dwattr $C$DW$95, DW_AT_type(*$C$DW$T$39)
    1703                            .dwattr $C$DW$95, DW_AT_location[DW_OP_breg13 9]
    1704                    
    1705 0000075c E5CD3009          STRB      A4, [SP, #9]          ; [DPU_4_PIPE0] |546| 
TI ARM Assembler PC v16.9.0 Thu Feb 16 13:27:12 2017

Tools Copyright (c) 1996-2015 Texas Instruments Incorporated
C:\Users\bob\AppData\Local\Temp\1183610                              PAGE   32

    1706 00000760 E58D2004          STR       A3, [SP, #4]          ; [DPU_4_PIPE0] |546| 
    1707 00000764 E5CD1008          STRB      A2, [SP, #8]          ; [DPU_4_PIPE0] |546| 
    1708 00000768 E58D0000          STR       A1, [SP, #0]          ; [DPU_4_PIPE0] |546| 
    1709                            .dwpsn  file "../hcg/source/HL_sys_pcr.c",line 550,column 2,is_stmt,isa 2
    1710 0000076c E59DC004          LDR       V9, [SP, #4]          ; [DPU_4_PIPE0] |550| 
    1711 00000770 E20CC00F          AND       V9, V9, #15           ; [DPU_4_PIPE0] |550| 
    1712 00000774 E58DC004          STR       V9, [SP, #4]          ; [DPU_4_PIPE0] |550| 
    1713                            .dwpsn  file "../hcg/source/HL_sys_pcr.c",line 553,column 2,is_stmt,isa 2
    1714 00000778 E59DC000          LDR       V9, [SP, #0]          ; [DPU_4_PIPE0] |553| 
    1715 0000077c E3A0000A          MOV       A1, #10               ; [DPU_4_PIPE0] |553| 
    1716 00000780 E58C0200          STR       A1, [V9, #512]        ; [DPU_4_PIPE0] |553| 
    1717                            .dwpsn  file "../hcg/source/HL_sys_pcr.c",line 555,column 2,is_stmt,isa 2
    1718 00000784 E59DC004          LDR       V9, [SP, #4]          ; [DPU_4_PIPE0] |555| 
    1719 00000788 E31C0001          TST       V9, #1                ; [DPU_4_PIPE0] |555| 
    1720 0000078c 0AFFFFFE!         BEQ       ||$C$L37||            ; [DPU_4_PIPE1] |555| 
    1721                            ; BRANCHCC OCCURS {||$C$L37||}   ; [] |555| 
    1722                    ;* --------------------------------------------------------------------------*
    1723                            .dwpsn  file "../hcg/source/HL_sys_pcr.c",line 558,column 3,is_stmt,isa 2
    1724 00000790 E5DDC008          LDRB      V9, [SP, #8]          ; [DPU_4_PIPE0] |558| 
    1725 00000794 E59D0000          LDR       A1, [SP, #0]          ; [DPU_4_PIPE0] |558| 
    1726 00000798 E1A0C18C          MOV       V9, V9, LSL #3        ; [DPU_4_PIPE0] |558| 
    1727 0000079c E2800B01          ADD       A1, A1, #1024         ; [DPU_4_PIPE0] |558| 
    1728 000007a0 E5DD1009          LDRB      A2, [SP, #9]          ; [DPU_4_PIPE0] |558| 
    1729 000007a4 E3A03001          MOV       A4, #1                ; [DPU_4_PIPE0] |558| 
    1730 000007a8 E79C2000          LDR       A3, [V9, +A1]         ; [DPU_4_PIPE0] |558| 
    1731 000007ac E1C21113          BIC       A2, A3, A4, LSL A2    ; [DPU_4_PIPE0] |558| 
    1732 000007b0 E78C1000          STR       A2, [V9, +A1]         ; [DPU_4_PIPE0] |558| 
    1733                    ;* --------------------------------------------------------------------------*
    1734 000007b4           ||$C$L37||:    
    1735                            .dwpsn  file "../hcg/source/HL_sys_pcr.c",line 561,column 2,is_stmt,isa 2
    1736 000007b4 E59DC004          LDR       V9, [SP, #4]          ; [DPU_4_PIPE0] |561| 
    1737 000007b8 E31C0002          TST       V9, #2                ; [DPU_4_PIPE0] |561| 
    1738 000007bc 0AFFFFFE!         BEQ       ||$C$L38||            ; [DPU_4_PIPE1] |561| 
    1739                            ; BRANCHCC OCCURS {||$C$L38||}   ; [] |561| 
    1740                    ;* --------------------------------------------------------------------------*
    1741                            .dwpsn  file "../hcg/source/HL_sys_pcr.c",line 564,column 3,is_stmt,isa 2
    1742 000007c0 E5DDC008          LDRB      V9, [SP, #8]          ; [DPU_4_PIPE0] |564| 
    1743 000007c4 E59D0000          LDR       A1, [SP, #0]          ; [DPU_4_PIPE0] |564| 
    1744 000007c8 E1A0C18C          MOV       V9, V9, LSL #3        ; [DPU_4_PIPE0] |564| 
    1745 000007cc E5DD1009          LDRB      A2, [SP, #9]          ; [DPU_4_PIPE0] |564| 
    1746 000007d0 E2800B01          ADD       A1, A1, #1024         ; [DPU_4_PIPE1] |564| 
    1747 000007d4 E3A03001          MOV       A4, #1                ; [DPU_4_PIPE0] |564| 
    1748 000007d8 E2811010          ADD       A2, A2, #16           ; [DPU_4_PIPE0] |564| 
    1749 000007dc E79C2000          LDR       A3, [V9, +A1]         ; [DPU_4_PIPE0] |564| 
    1750 000007e0 E1C21113          BIC       A2, A3, A4, LSL A2    ; [DPU_4_PIPE0] |564| 
    1751 000007e4 E78C1000          STR       A2, [V9, +A1]         ; [DPU_4_PIPE0] |564| 
    1752                    ;* --------------------------------------------------------------------------*
    1753 000007e8           ||$C$L38||:    
    1754                            .dwpsn  file "../hcg/source/HL_sys_pcr.c",line 567,column 2,is_stmt,isa 2
    1755 000007e8 E59DC004          LDR       V9, [SP, #4]          ; [DPU_4_PIPE0] |567| 
    1756 000007ec E31C0004          TST       V9, #4                ; [DPU_4_PIPE0] |567| 
    1757 000007f0 0AFFFFFE!         BEQ       ||$C$L39||            ; [DPU_4_PIPE1] |567| 
    1758                            ; BRANCHCC OCCURS {||$C$L39||}   ; [] |567| 
    1759                    ;* --------------------------------------------------------------------------*
    1760                            .dwpsn  file "../hcg/source/HL_sys_pcr.c",line 570,column 3,is_stmt,isa 2
TI ARM Assembler PC v16.9.0 Thu Feb 16 13:27:12 2017

Tools Copyright (c) 1996-2015 Texas Instruments Incorporated
C:\Users\bob\AppData\Local\Temp\1183610                              PAGE   33

    1761 000007f4 E5DDC008          LDRB      V9, [SP, #8]          ; [DPU_4_PIPE0] |570| 
    1762 000007f8 E59D0000          LDR       A1, [SP, #0]          ; [DPU_4_PIPE0] |570| 
    1763 000007fc E080C18C          ADD       V9, A1, V9, LSL #3    ; [DPU_4_PIPE0] |570| 
    1764 00000800 E28CCB01          ADD       V9, V9, #1024         ; [DPU_4_PIPE0] |570| 
    1765 00000804 E5DD0009          LDRB      A1, [SP, #9]          ; [DPU_4_PIPE0] |570| 
    1766 00000808 E3A02001          MOV       A3, #1                ; [DPU_4_PIPE0] |570| 
    1767 0000080c E59C1004          LDR       A2, [V9, #4]          ; [DPU_4_PIPE0] |570| 
    1768 00000810 E1C10012          BIC       A1, A2, A3, LSL A1    ; [DPU_4_PIPE0] |570| 
    1769 00000814 E58C0004          STR       A1, [V9, #4]          ; [DPU_4_PIPE0] |570| 
    1770                    ;* --------------------------------------------------------------------------*
    1771 00000818           ||$C$L39||:    
    1772                            .dwpsn  file "../hcg/source/HL_sys_pcr.c",line 573,column 2,is_stmt,isa 2
    1773 00000818 E59DC004          LDR       V9, [SP, #4]          ; [DPU_4_PIPE0] |573| 
    1774 0000081c E31C0008          TST       V9, #8                ; [DPU_4_PIPE0] |573| 
    1775 00000820 0AFFFFFE!         BEQ       ||$C$L40||            ; [DPU_4_PIPE1] |573| 
    1776                            ; BRANCHCC OCCURS {||$C$L40||}   ; [] |573| 
    1777                    ;* --------------------------------------------------------------------------*
    1778                            .dwpsn  file "../hcg/source/HL_sys_pcr.c",line 576,column 3,is_stmt,isa 2
    1779 00000824 E5DDC008          LDRB      V9, [SP, #8]          ; [DPU_4_PIPE0] |576| 
    1780 00000828 E59D0000          LDR       A1, [SP, #0]          ; [DPU_4_PIPE0] |576| 
    1781 0000082c E080C18C          ADD       V9, A1, V9, LSL #3    ; [DPU_4_PIPE0] |576| 
    1782 00000830 E28CCB01          ADD       V9, V9, #1024         ; [DPU_4_PIPE0] |576| 
    1783 00000834 E5DD0009          LDRB      A1, [SP, #9]          ; [DPU_4_PIPE0] |576| 
    1784 00000838 E59C1004          LDR       A2, [V9, #4]          ; [DPU_4_PIPE0] |576| 
    1785 0000083c E3A02001          MOV       A3, #1                ; [DPU_4_PIPE1] |576| 
    1786 00000840 E2800010          ADD       A1, A1, #16           ; [DPU_4_PIPE0] |576| 
    1787 00000844 E1C10012          BIC       A1, A2, A3, LSL A1    ; [DPU_4_PIPE0] |576| 
    1788 00000848 E58C0004          STR       A1, [V9, #4]          ; [DPU_4_PIPE0] |576| 
    1789                    ;* --------------------------------------------------------------------------*
    1790 0000084c           ||$C$L40||:    
    1791                            .dwpsn  file "../hcg/source/HL_sys_pcr.c",line 580,column 2,is_stmt,isa 2
    1792 0000084c E59DC000          LDR       V9, [SP, #0]          ; [DPU_4_PIPE0] |580| 
    1793 00000850 E3A00005          MOV       A1, #5                ; [DPU_4_PIPE0] |580| 
    1794 00000854 E58C0200          STR       A1, [V9, #512]        ; [DPU_4_PIPE0] |580| 
    1795                            .dwpsn  file "../hcg/source/HL_sys_pcr.c",line 584,column 1,is_stmt,isa 2
    1796 00000858 E28DD010          ADD       SP, SP, #16           ; [DPU_4_PIPE0] 
    1797                            .dwcfi  cfa_offset, 0
    1798                    $C$DW$96        .dwtag  DW_TAG_TI_branch
    1799                            .dwattr $C$DW$96, DW_AT_low_pc(0x00)
    1800                            .dwattr $C$DW$96, DW_AT_TI_return
    1801                    
    1802 0000085c E12FFF1E          BX        LR                    ; [DPU_4_PIPE1] 
    1803                            ; BRANCH OCCURS                  ; [] 
    1804                            .dwattr $C$DW$87, DW_AT_TI_end_file("../hcg/source/HL_sys_pcr.c")
    1805                            .dwattr $C$DW$87, DW_AT_TI_end_line(0x248)
    1806                            .dwattr $C$DW$87, DW_AT_TI_end_column(0x01)
    1807                            .dwendentry
    1808                            .dwendtag $C$DW$87
    1809                    
    1810 00000860                   .sect   ".text"
    1811                            .clink
    1812                            .armfunc privileged_Peripheral_Extended_Frame_MasterIDFilter_Enable
    1813 00000860                   .state32
    1814                            .global privileged_Peripheral_Extended_Frame_MasterIDFilter_Enable
    1815                    
TI ARM Assembler PC v16.9.0 Thu Feb 16 13:27:12 2017

Tools Copyright (c) 1996-2015 Texas Instruments Incorporated
C:\Users\bob\AppData\Local\Temp\1183610                              PAGE   34

    1816                    $C$DW$97        .dwtag  DW_TAG_subprogram
    1817                            .dwattr $C$DW$97, DW_AT_name("privileged_Peripheral_Extended_Frame_MasterIDFilter_Enable")
    1818                            .dwattr $C$DW$97, DW_AT_low_pc(privileged_Peripheral_Extended_Frame_MasterIDFilter_Enable)
    1819                            .dwattr $C$DW$97, DW_AT_high_pc(0x00)
    1820                            .dwattr $C$DW$97, DW_AT_TI_symbol_name("privileged_Peripheral_Extended_Frame_MasterIDFilter_En
    1821                            .dwattr $C$DW$97, DW_AT_external
    1822                            .dwattr $C$DW$97, DW_AT_TI_begin_file("../hcg/source/HL_sys_pcr.c")
    1823                            .dwattr $C$DW$97, DW_AT_TI_begin_line(0x262)
    1824                            .dwattr $C$DW$97, DW_AT_TI_begin_column(0x06)
    1825                            .dwattr $C$DW$97, DW_AT_decl_file("../hcg/source/HL_sys_pcr.c")
    1826                            .dwattr $C$DW$97, DW_AT_decl_line(0x262)
    1827                            .dwattr $C$DW$97, DW_AT_decl_column(0x06)
    1828                            .dwattr $C$DW$97, DW_AT_TI_max_frame_size(0x10)
    1829                            .dwpsn  file "../hcg/source/HL_sys_pcr.c",line 611,column 1,is_stmt,address privileged_Periphe
    1830                    
    1831                            .dwfde $C$DW$CIE, privileged_Peripheral_Extended_Frame_MasterIDFilter_Enable
    1832                    $C$DW$98        .dwtag  DW_TAG_formal_parameter
    1833                            .dwattr $C$DW$98, DW_AT_name("pcr")
    1834                            .dwattr $C$DW$98, DW_AT_TI_symbol_name("pcr")
    1835                            .dwattr $C$DW$98, DW_AT_type(*$C$DW$T$57)
    1836                            .dwattr $C$DW$98, DW_AT_location[DW_OP_reg0]
    1837                    
    1838                    $C$DW$99        .dwtag  DW_TAG_formal_parameter
    1839                            .dwattr $C$DW$99, DW_AT_name("PPSE")
    1840                            .dwattr $C$DW$99, DW_AT_TI_symbol_name("PPSE")
    1841                            .dwattr $C$DW$99, DW_AT_type(*$C$DW$T$43)
    1842                            .dwattr $C$DW$99, DW_AT_location[DW_OP_reg1]
    1843                    
    1844                    $C$DW$100       .dwtag  DW_TAG_formal_parameter
    1845                            .dwattr $C$DW$100, DW_AT_name("quadrant")
    1846                            .dwattr $C$DW$100, DW_AT_TI_symbol_name("quadrant")
    1847                            .dwattr $C$DW$100, DW_AT_type(*$C$DW$T$20)
    1848                            .dwattr $C$DW$100, DW_AT_location[DW_OP_reg2]
    1849                    
    1850                    $C$DW$101       .dwtag  DW_TAG_formal_parameter
    1851                            .dwattr $C$DW$101, DW_AT_name("master")
    1852                            .dwattr $C$DW$101, DW_AT_TI_symbol_name("master")
    1853                            .dwattr $C$DW$101, DW_AT_type(*$C$DW$T$39)
    1854                            .dwattr $C$DW$101, DW_AT_location[DW_OP_reg3]
    1855                    
    1856                    
    1857                    ;*****************************************************************************
    1858                    ;* FUNCTION NAME: privileged_Peripheral_Extended_Frame_MasterIDFilter_Enable *
    1859                    ;*                                                                           *
    1860                    ;*   Regs Modified     : A1,A2,A3,A4,V9,SP,SR                                *
    1861                    ;*   Regs Used         : A1,A2,A3,A4,V9,SP,LR,SR                             *
    1862                    ;*   Local Frame Size  : 0 Args + 12 Auto + 0 Save = 12 byte                 *
    1863                    ;*****************************************************************************
    1864 00000860           privileged_Peripheral_Extended_Frame_MasterIDFilter_Enable:
    1865                    ;* --------------------------------------------------------------------------*
    1866                            .dwcfi  cfa_offset, 0
    1867 00000860 E24DD010          SUB       SP, SP, #16           ; [DPU_4_PIPE0] 
    1868                            .dwcfi  cfa_offset, 16
    1869                    $C$DW$102       .dwtag  DW_TAG_variable
    1870                            .dwattr $C$DW$102, DW_AT_name("pcr")
TI ARM Assembler PC v16.9.0 Thu Feb 16 13:27:12 2017

Tools Copyright (c) 1996-2015 Texas Instruments Incorporated
C:\Users\bob\AppData\Local\Temp\1183610                              PAGE   35

    1871                            .dwattr $C$DW$102, DW_AT_TI_symbol_name("pcr")
    1872                            .dwattr $C$DW$102, DW_AT_type(*$C$DW$T$57)
    1873                            .dwattr $C$DW$102, DW_AT_location[DW_OP_breg13 0]
    1874                    
    1875                    $C$DW$103       .dwtag  DW_TAG_variable
    1876                            .dwattr $C$DW$103, DW_AT_name("quadrant")
    1877                            .dwattr $C$DW$103, DW_AT_TI_symbol_name("quadrant")
    1878                            .dwattr $C$DW$103, DW_AT_type(*$C$DW$T$20)
    1879                            .dwattr $C$DW$103, DW_AT_location[DW_OP_breg13 4]
    1880                    
    1881                    $C$DW$104       .dwtag  DW_TAG_variable
    1882                            .dwattr $C$DW$104, DW_AT_name("PPSE")
    1883                            .dwattr $C$DW$104, DW_AT_TI_symbol_name("PPSE")
    1884                            .dwattr $C$DW$104, DW_AT_type(*$C$DW$T$43)
    1885                            .dwattr $C$DW$104, DW_AT_location[DW_OP_breg13 8]
    1886                    
    1887                    $C$DW$105       .dwtag  DW_TAG_variable
    1888                            .dwattr $C$DW$105, DW_AT_name("master")
    1889                            .dwattr $C$DW$105, DW_AT_TI_symbol_name("master")
    1890                            .dwattr $C$DW$105, DW_AT_type(*$C$DW$T$39)
    1891                            .dwattr $C$DW$105, DW_AT_location[DW_OP_breg13 9]
    1892                    
    1893 00000864 E5CD3009          STRB      A4, [SP, #9]          ; [DPU_4_PIPE0] |611| 
    1894 00000868 E58D2004          STR       A3, [SP, #4]          ; [DPU_4_PIPE0] |611| 
    1895 0000086c E5CD1008          STRB      A2, [SP, #8]          ; [DPU_4_PIPE0] |611| 
    1896 00000870 E58D0000          STR       A1, [SP, #0]          ; [DPU_4_PIPE0] |611| 
    1897                            .dwpsn  file "../hcg/source/HL_sys_pcr.c",line 615,column 2,is_stmt,isa 2
    1898 00000874 E59DC004          LDR       V9, [SP, #4]          ; [DPU_4_PIPE0] |615| 
    1899 00000878 E20CC00F          AND       V9, V9, #15           ; [DPU_4_PIPE0] |615| 
    1900 0000087c E58DC004          STR       V9, [SP, #4]          ; [DPU_4_PIPE0] |615| 
    1901                            .dwpsn  file "../hcg/source/HL_sys_pcr.c",line 618,column 2,is_stmt,isa 2
    1902 00000880 E59DC000          LDR       V9, [SP, #0]          ; [DPU_4_PIPE0] |618| 
    1903 00000884 E3A0000A          MOV       A1, #10               ; [DPU_4_PIPE0] |618| 
    1904 00000888 E58C0200          STR       A1, [V9, #512]        ; [DPU_4_PIPE0] |618| 
    1905                            .dwpsn  file "../hcg/source/HL_sys_pcr.c",line 620,column 2,is_stmt,isa 2
    1906 0000088c E59DC004          LDR       V9, [SP, #4]          ; [DPU_4_PIPE0] |620| 
    1907 00000890 E31C0001          TST       V9, #1                ; [DPU_4_PIPE0] |620| 
    1908 00000894 0AFFFFFE!         BEQ       ||$C$L41||            ; [DPU_4_PIPE1] |620| 
    1909                            ; BRANCHCC OCCURS {||$C$L41||}   ; [] |620| 
    1910                    ;* --------------------------------------------------------------------------*
    1911                            .dwpsn  file "../hcg/source/HL_sys_pcr.c",line 623,column 3,is_stmt,isa 2
    1912 00000898 E5DDC008          LDRB      V9, [SP, #8]          ; [DPU_4_PIPE0] |623| 
    1913 0000089c E59D0000          LDR       A1, [SP, #0]          ; [DPU_4_PIPE0] |623| 
    1914 000008a0 E1A0C18C          MOV       V9, V9, LSL #3        ; [DPU_4_PIPE0] |623| 
    1915 000008a4 E2800D11          ADD       A1, A1, #1088         ; [DPU_4_PIPE0] |623| 
    1916 000008a8 E5DD1009          LDRB      A2, [SP, #9]          ; [DPU_4_PIPE0] |623| 
    1917 000008ac E3A03001          MOV       A4, #1                ; [DPU_4_PIPE0] |623| 
    1918 000008b0 E79C2000          LDR       A3, [V9, +A1]         ; [DPU_4_PIPE0] |623| 
    1919 000008b4 E1821113          ORR       A2, A3, A4, LSL A2    ; [DPU_4_PIPE0] |623| 
    1920 000008b8 E78C1000          STR       A2, [V9, +A1]         ; [DPU_4_PIPE0] |623| 
    1921                    ;* --------------------------------------------------------------------------*
    1922 000008bc           ||$C$L41||:    
    1923                            .dwpsn  file "../hcg/source/HL_sys_pcr.c",line 626,column 2,is_stmt,isa 2
    1924 000008bc E59DC004          LDR       V9, [SP, #4]          ; [DPU_4_PIPE0] |626| 
    1925 000008c0 E31C0002          TST       V9, #2                ; [DPU_4_PIPE0] |626| 
TI ARM Assembler PC v16.9.0 Thu Feb 16 13:27:12 2017

Tools Copyright (c) 1996-2015 Texas Instruments Incorporated
C:\Users\bob\AppData\Local\Temp\1183610                              PAGE   36

    1926 000008c4 0AFFFFFE!         BEQ       ||$C$L42||            ; [DPU_4_PIPE1] |626| 
    1927                            ; BRANCHCC OCCURS {||$C$L42||}   ; [] |626| 
    1928                    ;* --------------------------------------------------------------------------*
    1929                            .dwpsn  file "../hcg/source/HL_sys_pcr.c",line 629,column 3,is_stmt,isa 2
    1930 000008c8 E5DDC008          LDRB      V9, [SP, #8]          ; [DPU_4_PIPE0] |629| 
    1931 000008cc E59D0000          LDR       A1, [SP, #0]          ; [DPU_4_PIPE0] |629| 
    1932 000008d0 E1A0C18C          MOV       V9, V9, LSL #3        ; [DPU_4_PIPE0] |629| 
    1933 000008d4 E5DD1009          LDRB      A2, [SP, #9]          ; [DPU_4_PIPE0] |629| 
    1934 000008d8 E2800D11          ADD       A1, A1, #1088         ; [DPU_4_PIPE1] |629| 
    1935 000008dc E3A03001          MOV       A4, #1                ; [DPU_4_PIPE0] |629| 
    1936 000008e0 E2811010          ADD       A2, A2, #16           ; [DPU_4_PIPE0] |629| 
    1937 000008e4 E79C2000          LDR       A3, [V9, +A1]         ; [DPU_4_PIPE0] |629| 
    1938 000008e8 E1821113          ORR       A2, A3, A4, LSL A2    ; [DPU_4_PIPE0] |629| 
    1939 000008ec E78C1000          STR       A2, [V9, +A1]         ; [DPU_4_PIPE0] |629| 
    1940                    ;* --------------------------------------------------------------------------*
    1941 000008f0           ||$C$L42||:    
    1942                            .dwpsn  file "../hcg/source/HL_sys_pcr.c",line 632,column 2,is_stmt,isa 2
    1943 000008f0 E59DC004          LDR       V9, [SP, #4]          ; [DPU_4_PIPE0] |632| 
    1944 000008f4 E31C0004          TST       V9, #4                ; [DPU_4_PIPE0] |632| 
    1945 000008f8 0AFFFFFE!         BEQ       ||$C$L43||            ; [DPU_4_PIPE1] |632| 
    1946                            ; BRANCHCC OCCURS {||$C$L43||}   ; [] |632| 
    1947                    ;* --------------------------------------------------------------------------*
    1948                            .dwpsn  file "../hcg/source/HL_sys_pcr.c",line 635,column 3,is_stmt,isa 2
    1949 000008fc E5DDC008          LDRB      V9, [SP, #8]          ; [DPU_4_PIPE0] |635| 
    1950 00000900 E59D0000          LDR       A1, [SP, #0]          ; [DPU_4_PIPE0] |635| 
    1951 00000904 E080C18C          ADD       V9, A1, V9, LSL #3    ; [DPU_4_PIPE0] |635| 
    1952 00000908 E28CCD11          ADD       V9, V9, #1088         ; [DPU_4_PIPE0] |635| 
    1953 0000090c E5DD0009          LDRB      A1, [SP, #9]          ; [DPU_4_PIPE0] |635| 
    1954 00000910 E3A02001          MOV       A3, #1                ; [DPU_4_PIPE0] |635| 
    1955 00000914 E59C1004          LDR       A2, [V9, #4]          ; [DPU_4_PIPE0] |635| 
    1956 00000918 E1810012          ORR       A1, A2, A3, LSL A1    ; [DPU_4_PIPE0] |635| 
    1957 0000091c E58C0004          STR       A1, [V9, #4]          ; [DPU_4_PIPE0] |635| 
    1958                    ;* --------------------------------------------------------------------------*
    1959 00000920           ||$C$L43||:    
    1960                            .dwpsn  file "../hcg/source/HL_sys_pcr.c",line 638,column 2,is_stmt,isa 2
    1961 00000920 E59DC004          LDR       V9, [SP, #4]          ; [DPU_4_PIPE0] |638| 
    1962 00000924 E31C0008          TST       V9, #8                ; [DPU_4_PIPE0] |638| 
    1963 00000928 0AFFFFFE!         BEQ       ||$C$L44||            ; [DPU_4_PIPE1] |638| 
    1964                            ; BRANCHCC OCCURS {||$C$L44||}   ; [] |638| 
    1965                    ;* --------------------------------------------------------------------------*
    1966                            .dwpsn  file "../hcg/source/HL_sys_pcr.c",line 641,column 3,is_stmt,isa 2
    1967 0000092c E5DDC008          LDRB      V9, [SP, #8]          ; [DPU_4_PIPE0] |641| 
    1968 00000930 E59D0000          LDR       A1, [SP, #0]          ; [DPU_4_PIPE0] |641| 
    1969 00000934 E080C18C          ADD       V9, A1, V9, LSL #3    ; [DPU_4_PIPE0] |641| 
    1970 00000938 E28CCD11          ADD       V9, V9, #1088         ; [DPU_4_PIPE0] |641| 
    1971 0000093c E5DD0009          LDRB      A1, [SP, #9]          ; [DPU_4_PIPE0] |641| 
    1972 00000940 E59C1004          LDR       A2, [V9, #4]          ; [DPU_4_PIPE0] |641| 
    1973 00000944 E3A02001          MOV       A3, #1                ; [DPU_4_PIPE1] |641| 
    1974 00000948 E2800010          ADD       A1, A1, #16           ; [DPU_4_PIPE0] |641| 
    1975 0000094c E1810012          ORR       A1, A2, A3, LSL A1    ; [DPU_4_PIPE0] |641| 
    1976 00000950 E58C0004          STR       A1, [V9, #4]          ; [DPU_4_PIPE0] |641| 
    1977                    ;* --------------------------------------------------------------------------*
    1978 00000954           ||$C$L44||:    
    1979                            .dwpsn  file "../hcg/source/HL_sys_pcr.c",line 645,column 2,is_stmt,isa 2
    1980 00000954 E59DC000          LDR       V9, [SP, #0]          ; [DPU_4_PIPE0] |645| 
TI ARM Assembler PC v16.9.0 Thu Feb 16 13:27:12 2017

Tools Copyright (c) 1996-2015 Texas Instruments Incorporated
C:\Users\bob\AppData\Local\Temp\1183610                              PAGE   37

    1981 00000958 E3A00005          MOV       A1, #5                ; [DPU_4_PIPE0] |645| 
    1982 0000095c E58C0200          STR       A1, [V9, #512]        ; [DPU_4_PIPE0] |645| 
    1983                            .dwpsn  file "../hcg/source/HL_sys_pcr.c",line 649,column 1,is_stmt,isa 2
    1984 00000960 E28DD010          ADD       SP, SP, #16           ; [DPU_4_PIPE0] 
    1985                            .dwcfi  cfa_offset, 0
    1986                    $C$DW$106       .dwtag  DW_TAG_TI_branch
    1987                            .dwattr $C$DW$106, DW_AT_low_pc(0x00)
    1988                            .dwattr $C$DW$106, DW_AT_TI_return
    1989                    
    1990 00000964 E12FFF1E          BX        LR                    ; [DPU_4_PIPE1] 
    1991                            ; BRANCH OCCURS                  ; [] 
    1992                            .dwattr $C$DW$97, DW_AT_TI_end_file("../hcg/source/HL_sys_pcr.c")
    1993                            .dwattr $C$DW$97, DW_AT_TI_end_line(0x289)
    1994                            .dwattr $C$DW$97, DW_AT_TI_end_column(0x01)
    1995                            .dwendentry
    1996                            .dwendtag $C$DW$97
    1997                    
    1998 00000968                   .sect   ".text"
    1999                            .clink
    2000                            .armfunc privileged_Peripheral_Extended_Frame_MasterIDFilter_Disable
    2001 00000968                   .state32
    2002                            .global privileged_Peripheral_Extended_Frame_MasterIDFilter_Disable
    2003                    
    2004                    $C$DW$107       .dwtag  DW_TAG_subprogram
    2005                            .dwattr $C$DW$107, DW_AT_name("privileged_Peripheral_Extended_Frame_MasterIDFilter_Disable")
    2006                            .dwattr $C$DW$107, DW_AT_low_pc(privileged_Peripheral_Extended_Frame_MasterIDFilter_Disable)
    2007                            .dwattr $C$DW$107, DW_AT_high_pc(0x00)
    2008                            .dwattr $C$DW$107, DW_AT_TI_symbol_name("privileged_Peripheral_Extended_Frame_MasterIDFilter_D
    2009                            .dwattr $C$DW$107, DW_AT_external
    2010                            .dwattr $C$DW$107, DW_AT_TI_begin_file("../hcg/source/HL_sys_pcr.c")
    2011                            .dwattr $C$DW$107, DW_AT_TI_begin_line(0x2a3)
    2012                            .dwattr $C$DW$107, DW_AT_TI_begin_column(0x06)
    2013                            .dwattr $C$DW$107, DW_AT_decl_file("../hcg/source/HL_sys_pcr.c")
    2014                            .dwattr $C$DW$107, DW_AT_decl_line(0x2a3)
    2015                            .dwattr $C$DW$107, DW_AT_decl_column(0x06)
    2016                            .dwattr $C$DW$107, DW_AT_TI_max_frame_size(0x10)
    2017                            .dwpsn  file "../hcg/source/HL_sys_pcr.c",line 676,column 1,is_stmt,address privileged_Periphe
    2018                    
    2019                            .dwfde $C$DW$CIE, privileged_Peripheral_Extended_Frame_MasterIDFilter_Disable
    2020                    $C$DW$108       .dwtag  DW_TAG_formal_parameter
    2021                            .dwattr $C$DW$108, DW_AT_name("pcr")
    2022                            .dwattr $C$DW$108, DW_AT_TI_symbol_name("pcr")
    2023                            .dwattr $C$DW$108, DW_AT_type(*$C$DW$T$57)
    2024                            .dwattr $C$DW$108, DW_AT_location[DW_OP_reg0]
    2025                    
    2026                    $C$DW$109       .dwtag  DW_TAG_formal_parameter
    2027                            .dwattr $C$DW$109, DW_AT_name("PPSE")
    2028                            .dwattr $C$DW$109, DW_AT_TI_symbol_name("PPSE")
    2029                            .dwattr $C$DW$109, DW_AT_type(*$C$DW$T$43)
    2030                            .dwattr $C$DW$109, DW_AT_location[DW_OP_reg1]
    2031                    
    2032                    $C$DW$110       .dwtag  DW_TAG_formal_parameter
    2033                            .dwattr $C$DW$110, DW_AT_name("quadrant")
    2034                            .dwattr $C$DW$110, DW_AT_TI_symbol_name("quadrant")
    2035                            .dwattr $C$DW$110, DW_AT_type(*$C$DW$T$20)
TI ARM Assembler PC v16.9.0 Thu Feb 16 13:27:12 2017

Tools Copyright (c) 1996-2015 Texas Instruments Incorporated
C:\Users\bob\AppData\Local\Temp\1183610                              PAGE   38

    2036                            .dwattr $C$DW$110, DW_AT_location[DW_OP_reg2]
    2037                    
    2038                    $C$DW$111       .dwtag  DW_TAG_formal_parameter
    2039                            .dwattr $C$DW$111, DW_AT_name("master")
    2040                            .dwattr $C$DW$111, DW_AT_TI_symbol_name("master")
    2041                            .dwattr $C$DW$111, DW_AT_type(*$C$DW$T$39)
    2042                            .dwattr $C$DW$111, DW_AT_location[DW_OP_reg3]
    2043                    
    2044                    
    2045                    ;*****************************************************************************
    2046                    ;* FUNCTION NAME: privileged_Peripheral_Extended_Frame_MasterIDFilter_Disable*
    2047                    ;*                                                                           *
    2048                    ;*   Regs Modified     : A1,A2,A3,A4,V9,SP,SR                                *
    2049                    ;*   Regs Used         : A1,A2,A3,A4,V9,SP,LR,SR                             *
    2050                    ;*   Local Frame Size  : 0 Args + 12 Auto + 0 Save = 12 byte                 *
    2051                    ;*****************************************************************************
    2052 00000968           privileged_Peripheral_Extended_Frame_MasterIDFilter_Disable:
    2053                    ;* --------------------------------------------------------------------------*
    2054                            .dwcfi  cfa_offset, 0
    2055 00000968 E24DD010          SUB       SP, SP, #16           ; [DPU_4_PIPE0] 
    2056                            .dwcfi  cfa_offset, 16
    2057                    $C$DW$112       .dwtag  DW_TAG_variable
    2058                            .dwattr $C$DW$112, DW_AT_name("pcr")
    2059                            .dwattr $C$DW$112, DW_AT_TI_symbol_name("pcr")
    2060                            .dwattr $C$DW$112, DW_AT_type(*$C$DW$T$57)
    2061                            .dwattr $C$DW$112, DW_AT_location[DW_OP_breg13 0]
    2062                    
    2063                    $C$DW$113       .dwtag  DW_TAG_variable
    2064                            .dwattr $C$DW$113, DW_AT_name("quadrant")
    2065                            .dwattr $C$DW$113, DW_AT_TI_symbol_name("quadrant")
    2066                            .dwattr $C$DW$113, DW_AT_type(*$C$DW$T$20)
    2067                            .dwattr $C$DW$113, DW_AT_location[DW_OP_breg13 4]
    2068                    
    2069                    $C$DW$114       .dwtag  DW_TAG_variable
    2070                            .dwattr $C$DW$114, DW_AT_name("PPSE")
    2071                            .dwattr $C$DW$114, DW_AT_TI_symbol_name("PPSE")
    2072                            .dwattr $C$DW$114, DW_AT_type(*$C$DW$T$43)
    2073                            .dwattr $C$DW$114, DW_AT_location[DW_OP_breg13 8]
    2074                    
    2075                    $C$DW$115       .dwtag  DW_TAG_variable
    2076                            .dwattr $C$DW$115, DW_AT_name("master")
    2077                            .dwattr $C$DW$115, DW_AT_TI_symbol_name("master")
    2078                            .dwattr $C$DW$115, DW_AT_type(*$C$DW$T$39)
    2079                            .dwattr $C$DW$115, DW_AT_location[DW_OP_breg13 9]
    2080                    
    2081 0000096c E5CD3009          STRB      A4, [SP, #9]          ; [DPU_4_PIPE0] |676| 
    2082 00000970 E58D2004          STR       A3, [SP, #4]          ; [DPU_4_PIPE0] |676| 
    2083 00000974 E5CD1008          STRB      A2, [SP, #8]          ; [DPU_4_PIPE0] |676| 
    2084 00000978 E58D0000          STR       A1, [SP, #0]          ; [DPU_4_PIPE0] |676| 
    2085                            .dwpsn  file "../hcg/source/HL_sys_pcr.c",line 680,column 2,is_stmt,isa 2
    2086 0000097c E59DC004          LDR       V9, [SP, #4]          ; [DPU_4_PIPE0] |680| 
    2087 00000980 E20CC00F          AND       V9, V9, #15           ; [DPU_4_PIPE0] |680| 
    2088 00000984 E58DC004          STR       V9, [SP, #4]          ; [DPU_4_PIPE0] |680| 
    2089                            .dwpsn  file "../hcg/source/HL_sys_pcr.c",line 683,column 2,is_stmt,isa 2
    2090 00000988 E59DC000          LDR       V9, [SP, #0]          ; [DPU_4_PIPE0] |683| 
TI ARM Assembler PC v16.9.0 Thu Feb 16 13:27:12 2017

Tools Copyright (c) 1996-2015 Texas Instruments Incorporated
C:\Users\bob\AppData\Local\Temp\1183610                              PAGE   39

    2091 0000098c E3A0000A          MOV       A1, #10               ; [DPU_4_PIPE0] |683| 
    2092 00000990 E58C0200          STR       A1, [V9, #512]        ; [DPU_4_PIPE0] |683| 
    2093                            .dwpsn  file "../hcg/source/HL_sys_pcr.c",line 685,column 2,is_stmt,isa 2
    2094 00000994 E59DC004          LDR       V9, [SP, #4]          ; [DPU_4_PIPE0] |685| 
    2095 00000998 E31C0001          TST       V9, #1                ; [DPU_4_PIPE0] |685| 
    2096 0000099c 0AFFFFFE!         BEQ       ||$C$L45||            ; [DPU_4_PIPE1] |685| 
    2097                            ; BRANCHCC OCCURS {||$C$L45||}   ; [] |685| 
    2098                    ;* --------------------------------------------------------------------------*
    2099                            .dwpsn  file "../hcg/source/HL_sys_pcr.c",line 688,column 3,is_stmt,isa 2
    2100 000009a0 E5DDC008          LDRB      V9, [SP, #8]          ; [DPU_4_PIPE0] |688| 
    2101 000009a4 E59D0000          LDR       A1, [SP, #0]          ; [DPU_4_PIPE0] |688| 
    2102 000009a8 E1A0C18C          MOV       V9, V9, LSL #3        ; [DPU_4_PIPE0] |688| 
    2103 000009ac E2800D11          ADD       A1, A1, #1088         ; [DPU_4_PIPE0] |688| 
    2104 000009b0 E5DD1009          LDRB      A2, [SP, #9]          ; [DPU_4_PIPE0] |688| 
    2105 000009b4 E3A03001          MOV       A4, #1                ; [DPU_4_PIPE0] |688| 
    2106 000009b8 E79C2000          LDR       A3, [V9, +A1]         ; [DPU_4_PIPE0] |688| 
    2107 000009bc E1C21113          BIC       A2, A3, A4, LSL A2    ; [DPU_4_PIPE0] |688| 
    2108 000009c0 E78C1000          STR       A2, [V9, +A1]         ; [DPU_4_PIPE0] |688| 
    2109                    ;* --------------------------------------------------------------------------*
    2110 000009c4           ||$C$L45||:    
    2111                            .dwpsn  file "../hcg/source/HL_sys_pcr.c",line 691,column 2,is_stmt,isa 2
    2112 000009c4 E59DC004          LDR       V9, [SP, #4]          ; [DPU_4_PIPE0] |691| 
    2113 000009c8 E31C0002          TST       V9, #2                ; [DPU_4_PIPE0] |691| 
    2114 000009cc 0AFFFFFE!         BEQ       ||$C$L46||            ; [DPU_4_PIPE1] |691| 
    2115                            ; BRANCHCC OCCURS {||$C$L46||}   ; [] |691| 
    2116                    ;* --------------------------------------------------------------------------*
    2117                            .dwpsn  file "../hcg/source/HL_sys_pcr.c",line 694,column 3,is_stmt,isa 2
    2118 000009d0 E5DDC008          LDRB      V9, [SP, #8]          ; [DPU_4_PIPE0] |694| 
    2119 000009d4 E59D0000          LDR       A1, [SP, #0]          ; [DPU_4_PIPE0] |694| 
    2120 000009d8 E1A0C18C          MOV       V9, V9, LSL #3        ; [DPU_4_PIPE0] |694| 
    2121 000009dc E5DD1009          LDRB      A2, [SP, #9]          ; [DPU_4_PIPE0] |694| 
    2122 000009e0 E2800D11          ADD       A1, A1, #1088         ; [DPU_4_PIPE1] |694| 
    2123 000009e4 E3A03001          MOV       A4, #1                ; [DPU_4_PIPE0] |694| 
    2124 000009e8 E2811010          ADD       A2, A2, #16           ; [DPU_4_PIPE0] |694| 
    2125 000009ec E79C2000          LDR       A3, [V9, +A1]         ; [DPU_4_PIPE0] |694| 
    2126 000009f0 E1C21113          BIC       A2, A3, A4, LSL A2    ; [DPU_4_PIPE0] |694| 
    2127 000009f4 E78C1000          STR       A2, [V9, +A1]         ; [DPU_4_PIPE0] |694| 
    2128                    ;* --------------------------------------------------------------------------*
    2129 000009f8           ||$C$L46||:    
    2130                            .dwpsn  file "../hcg/source/HL_sys_pcr.c",line 697,column 2,is_stmt,isa 2
    2131 000009f8 E59DC004          LDR       V9, [SP, #4]          ; [DPU_4_PIPE0] |697| 
    2132 000009fc E31C0004          TST       V9, #4                ; [DPU_4_PIPE0] |697| 
    2133 00000a00 0AFFFFFE!         BEQ       ||$C$L47||            ; [DPU_4_PIPE1] |697| 
    2134                            ; BRANCHCC OCCURS {||$C$L47||}   ; [] |697| 
    2135                    ;* --------------------------------------------------------------------------*
    2136                            .dwpsn  file "../hcg/source/HL_sys_pcr.c",line 700,column 3,is_stmt,isa 2
    2137 00000a04 E5DDC008          LDRB      V9, [SP, #8]          ; [DPU_4_PIPE0] |700| 
    2138 00000a08 E59D0000          LDR       A1, [SP, #0]          ; [DPU_4_PIPE0] |700| 
    2139 00000a0c E080C18C          ADD       V9, A1, V9, LSL #3    ; [DPU_4_PIPE0] |700| 
    2140 00000a10 E28CCD11          ADD       V9, V9, #1088         ; [DPU_4_PIPE0] |700| 
    2141 00000a14 E5DD0009          LDRB      A1, [SP, #9]          ; [DPU_4_PIPE0] |700| 
    2142 00000a18 E3A02001          MOV       A3, #1                ; [DPU_4_PIPE0] |700| 
    2143 00000a1c E59C1004          LDR       A2, [V9, #4]          ; [DPU_4_PIPE0] |700| 
    2144 00000a20 E1C10012          BIC       A1, A2, A3, LSL A1    ; [DPU_4_PIPE0] |700| 
    2145 00000a24 E58C0004          STR       A1, [V9, #4]          ; [DPU_4_PIPE0] |700| 
TI ARM Assembler PC v16.9.0 Thu Feb 16 13:27:12 2017

Tools Copyright (c) 1996-2015 Texas Instruments Incorporated
C:\Users\bob\AppData\Local\Temp\1183610                              PAGE   40

    2146                    ;* --------------------------------------------------------------------------*
    2147 00000a28           ||$C$L47||:    
    2148                            .dwpsn  file "../hcg/source/HL_sys_pcr.c",line 703,column 2,is_stmt,isa 2
    2149 00000a28 E59DC004          LDR       V9, [SP, #4]          ; [DPU_4_PIPE0] |703| 
    2150 00000a2c E31C0008          TST       V9, #8                ; [DPU_4_PIPE0] |703| 
    2151 00000a30 0AFFFFFE!         BEQ       ||$C$L48||            ; [DPU_4_PIPE1] |703| 
    2152                            ; BRANCHCC OCCURS {||$C$L48||}   ; [] |703| 
    2153                    ;* --------------------------------------------------------------------------*
    2154                            .dwpsn  file "../hcg/source/HL_sys_pcr.c",line 706,column 3,is_stmt,isa 2
    2155 00000a34 E5DDC008          LDRB      V9, [SP, #8]          ; [DPU_4_PIPE0] |706| 
    2156 00000a38 E59D0000          LDR       A1, [SP, #0]          ; [DPU_4_PIPE0] |706| 
    2157 00000a3c E080C18C          ADD       V9, A1, V9, LSL #3    ; [DPU_4_PIPE0] |706| 
    2158 00000a40 E28CCD11          ADD       V9, V9, #1088         ; [DPU_4_PIPE0] |706| 
    2159 00000a44 E5DD0009          LDRB      A1, [SP, #9]          ; [DPU_4_PIPE0] |706| 
    2160 00000a48 E59C1004          LDR       A2, [V9, #4]          ; [DPU_4_PIPE0] |706| 
    2161 00000a4c E3A02001          MOV       A3, #1                ; [DPU_4_PIPE1] |706| 
    2162 00000a50 E2800010          ADD       A1, A1, #16           ; [DPU_4_PIPE0] |706| 
    2163 00000a54 E1C10012          BIC       A1, A2, A3, LSL A1    ; [DPU_4_PIPE0] |706| 
    2164 00000a58 E58C0004          STR       A1, [V9, #4]          ; [DPU_4_PIPE0] |706| 
    2165                    ;* --------------------------------------------------------------------------*
    2166 00000a5c           ||$C$L48||:    
    2167                            .dwpsn  file "../hcg/source/HL_sys_pcr.c",line 710,column 2,is_stmt,isa 2
    2168 00000a5c E59DC000          LDR       V9, [SP, #0]          ; [DPU_4_PIPE0] |710| 
    2169 00000a60 E3A00005          MOV       A1, #5                ; [DPU_4_PIPE0] |710| 
    2170 00000a64 E58C0200          STR       A1, [V9, #512]        ; [DPU_4_PIPE0] |710| 
    2171                            .dwpsn  file "../hcg/source/HL_sys_pcr.c",line 714,column 1,is_stmt,isa 2
    2172 00000a68 E28DD010          ADD       SP, SP, #16           ; [DPU_4_PIPE0] 
    2173                            .dwcfi  cfa_offset, 0
    2174                    $C$DW$116       .dwtag  DW_TAG_TI_branch
    2175                            .dwattr $C$DW$116, DW_AT_low_pc(0x00)
    2176                            .dwattr $C$DW$116, DW_AT_TI_return
    2177                    
    2178 00000a6c E12FFF1E          BX        LR                    ; [DPU_4_PIPE1] 
    2179                            ; BRANCH OCCURS                  ; [] 
    2180                            .dwattr $C$DW$107, DW_AT_TI_end_file("../hcg/source/HL_sys_pcr.c")
    2181                            .dwattr $C$DW$107, DW_AT_TI_end_line(0x2ca)
    2182                            .dwattr $C$DW$107, DW_AT_TI_end_column(0x01)
    2183                            .dwendentry
    2184                            .dwendtag $C$DW$107
    2185                    
    2186 00000a70                   .sect   ".text"
    2187                            .clink
    2188                            .armfunc peripheral_Memory_MasterIDFilter_Enable
    2189 00000a70                   .state32
    2190                            .global peripheral_Memory_MasterIDFilter_Enable
    2191                    
    2192                    $C$DW$117       .dwtag  DW_TAG_subprogram
    2193                            .dwattr $C$DW$117, DW_AT_name("peripheral_Memory_MasterIDFilter_Enable")
    2194                            .dwattr $C$DW$117, DW_AT_low_pc(peripheral_Memory_MasterIDFilter_Enable)
    2195                            .dwattr $C$DW$117, DW_AT_high_pc(0x00)
    2196                            .dwattr $C$DW$117, DW_AT_TI_symbol_name("peripheral_Memory_MasterIDFilter_Enable")
    2197                            .dwattr $C$DW$117, DW_AT_external
    2198                            .dwattr $C$DW$117, DW_AT_TI_begin_file("../hcg/source/HL_sys_pcr.c")
    2199                            .dwattr $C$DW$117, DW_AT_TI_begin_line(0x2df)
    2200                            .dwattr $C$DW$117, DW_AT_TI_begin_column(0x06)
TI ARM Assembler PC v16.9.0 Thu Feb 16 13:27:12 2017

Tools Copyright (c) 1996-2015 Texas Instruments Incorporated
C:\Users\bob\AppData\Local\Temp\1183610                              PAGE   41

    2201                            .dwattr $C$DW$117, DW_AT_decl_file("../hcg/source/HL_sys_pcr.c")
    2202                            .dwattr $C$DW$117, DW_AT_decl_line(0x2df)
    2203                            .dwattr $C$DW$117, DW_AT_decl_column(0x06)
    2204                            .dwattr $C$DW$117, DW_AT_TI_max_frame_size(0x08)
    2205                            .dwpsn  file "../hcg/source/HL_sys_pcr.c",line 736,column 1,is_stmt,address peripheral_Memory_
    2206                    
    2207                            .dwfde $C$DW$CIE, peripheral_Memory_MasterIDFilter_Enable
    2208                    $C$DW$118       .dwtag  DW_TAG_formal_parameter
    2209                            .dwattr $C$DW$118, DW_AT_name("pcr")
    2210                            .dwattr $C$DW$118, DW_AT_TI_symbol_name("pcr")
    2211                            .dwattr $C$DW$118, DW_AT_type(*$C$DW$T$57)
    2212                            .dwattr $C$DW$118, DW_AT_location[DW_OP_reg0]
    2213                    
    2214                    $C$DW$119       .dwtag  DW_TAG_formal_parameter
    2215                            .dwattr $C$DW$119, DW_AT_name("PCS")
    2216                            .dwattr $C$DW$119, DW_AT_TI_symbol_name("PCS")
    2217                            .dwattr $C$DW$119, DW_AT_type(*$C$DW$T$35)
    2218                            .dwattr $C$DW$119, DW_AT_location[DW_OP_reg1]
    2219                    
    2220                    $C$DW$120       .dwtag  DW_TAG_formal_parameter
    2221                            .dwattr $C$DW$120, DW_AT_name("master")
    2222                            .dwattr $C$DW$120, DW_AT_TI_symbol_name("master")
    2223                            .dwattr $C$DW$120, DW_AT_type(*$C$DW$T$39)
    2224                            .dwattr $C$DW$120, DW_AT_location[DW_OP_reg2]
    2225                    
    2226                    
    2227                    ;*****************************************************************************
    2228                    ;* FUNCTION NAME: peripheral_Memory_MasterIDFilter_Enable                    *
    2229                    ;*                                                                           *
    2230                    ;*   Regs Modified     : A1,A2,A3,A4,V9,SP                                   *
    2231                    ;*   Regs Used         : A1,A2,A3,A4,V9,SP,LR                                *
    2232                    ;*   Local Frame Size  : 0 Args + 8 Auto + 0 Save = 8 byte                   *
    2233                    ;*****************************************************************************
    2234 00000a70           peripheral_Memory_MasterIDFilter_Enable:
    2235                    ;* --------------------------------------------------------------------------*
    2236                            .dwcfi  cfa_offset, 0
    2237 00000a70 E24DD008          SUB       SP, SP, #8            ; [DPU_4_PIPE0] 
    2238                            .dwcfi  cfa_offset, 8
    2239                    $C$DW$121       .dwtag  DW_TAG_variable
    2240                            .dwattr $C$DW$121, DW_AT_name("pcr")
    2241                            .dwattr $C$DW$121, DW_AT_TI_symbol_name("pcr")
    2242                            .dwattr $C$DW$121, DW_AT_type(*$C$DW$T$57)
    2243                            .dwattr $C$DW$121, DW_AT_location[DW_OP_breg13 0]
    2244                    
    2245                    $C$DW$122       .dwtag  DW_TAG_variable
    2246                            .dwattr $C$DW$122, DW_AT_name("PCS")
    2247                            .dwattr $C$DW$122, DW_AT_TI_symbol_name("PCS")
    2248                            .dwattr $C$DW$122, DW_AT_type(*$C$DW$T$35)
    2249                            .dwattr $C$DW$122, DW_AT_location[DW_OP_breg13 4]
    2250                    
    2251                    $C$DW$123       .dwtag  DW_TAG_variable
    2252                            .dwattr $C$DW$123, DW_AT_name("master")
    2253                            .dwattr $C$DW$123, DW_AT_TI_symbol_name("master")
    2254                            .dwattr $C$DW$123, DW_AT_type(*$C$DW$T$39)
    2255                            .dwattr $C$DW$123, DW_AT_location[DW_OP_breg13 5]
TI ARM Assembler PC v16.9.0 Thu Feb 16 13:27:12 2017

Tools Copyright (c) 1996-2015 Texas Instruments Incorporated
C:\Users\bob\AppData\Local\Temp\1183610                              PAGE   42

    2256                    
    2257                    $C$DW$124       .dwtag  DW_TAG_variable
    2258                            .dwattr $C$DW$124, DW_AT_name("i")
    2259                            .dwattr $C$DW$124, DW_AT_TI_symbol_name("i")
    2260                            .dwattr $C$DW$124, DW_AT_type(*$C$DW$T$70)
    2261                            .dwattr $C$DW$124, DW_AT_location[DW_OP_breg13 6]
    2262                    
    2263                    $C$DW$125       .dwtag  DW_TAG_variable
    2264                            .dwattr $C$DW$125, DW_AT_name("j")
    2265                            .dwattr $C$DW$125, DW_AT_TI_symbol_name("j")
    2266                            .dwattr $C$DW$125, DW_AT_type(*$C$DW$T$70)
    2267                            .dwattr $C$DW$125, DW_AT_location[DW_OP_breg13 7]
    2268                    
    2269 00000a74 E5CD2005          STRB      A3, [SP, #5]          ; [DPU_4_PIPE0] |736| 
    2270 00000a78 E5CD1004          STRB      A2, [SP, #4]          ; [DPU_4_PIPE0] |736| 
    2271 00000a7c E58D0000          STR       A1, [SP, #0]          ; [DPU_4_PIPE0] |736| 
    2272                            .dwpsn  file "../hcg/source/HL_sys_pcr.c",line 743,column 2,is_stmt,isa 2
    2273 00000a80 E59DC000          LDR       V9, [SP, #0]          ; [DPU_4_PIPE0] |743| 
    2274 00000a84 E3A0000A          MOV       A1, #10               ; [DPU_4_PIPE0] |743| 
    2275 00000a88 E58C0200          STR       A1, [V9, #512]        ; [DPU_4_PIPE0] |743| 
    2276                            .dwpsn  file "../hcg/source/HL_sys_pcr.c",line 745,column 2,is_stmt,isa 2
    2277 00000a8c E5DDC004          LDRB      V9, [SP, #4]          ; [DPU_4_PIPE0] |745| 
    2278 00000a90 E1A0C0AC          MOV       V9, V9, LSR #1        ; [DPU_4_PIPE0] |745| 
    2279 00000a94 E5CDC006          STRB      V9, [SP, #6]          ; [DPU_4_PIPE0] |745| 
    2280                            .dwpsn  file "../hcg/source/HL_sys_pcr.c",line 746,column 2,is_stmt,isa 2
    2281 00000a98 E5DDC004          LDRB      V9, [SP, #4]          ; [DPU_4_PIPE0] |746| 
    2282 00000a9c E20CC001          AND       V9, V9, #1            ; [DPU_4_PIPE0] |746| 
    2283 00000aa0 E5CDC007          STRB      V9, [SP, #7]          ; [DPU_4_PIPE0] |746| 
    2284                            .dwpsn  file "../hcg/source/HL_sys_pcr.c",line 747,column 2,is_stmt,isa 2
    2285 00000aa4 E5DDC007          LDRB      V9, [SP, #7]          ; [DPU_4_PIPE0] |747| 
    2286 00000aa8 E1A0C20C          MOV       V9, V9, LSL #4        ; [DPU_4_PIPE0] |747| 
    2287 00000aac E5CDC007          STRB      V9, [SP, #7]          ; [DPU_4_PIPE0] |747| 
    2288                            .dwpsn  file "../hcg/source/HL_sys_pcr.c",line 749,column 2,is_stmt,isa 2
    2289 00000ab0 E5DDC006          LDRB      V9, [SP, #6]          ; [DPU_4_PIPE0] |749| 
    2290 00000ab4 E59D0000          LDR       A1, [SP, #0]          ; [DPU_4_PIPE0] |749| 
    2291 00000ab8 E5DD1005          LDRB      A2, [SP, #5]          ; [DPU_4_PIPE0] |749| 
    2292 00000abc E1A0C10C          MOV       V9, V9, LSL #2        ; [DPU_4_PIPE1] |749| 
    2293 00000ac0 E5DD2007          LDRB      A3, [SP, #7]          ; [DPU_4_PIPE0] |749| 
    2294 00000ac4 E2800D15          ADD       A1, A1, #1344         ; [DPU_4_PIPE1] |749| 
    2295 00000ac8 E3A03001          MOV       A4, #1                ; [DPU_4_PIPE0] |749| 
    2296 00000acc E0821001          ADD       A2, A3, A2            ; [DPU_4_PIPE0] |749| 
    2297 00000ad0 E79C2000          LDR       A3, [V9, +A1]         ; [DPU_4_PIPE0] |749| 
    2298 00000ad4 E1821113          ORR       A2, A3, A4, LSL A2    ; [DPU_4_PIPE0] |749| 
    2299 00000ad8 E78C1000          STR       A2, [V9, +A1]         ; [DPU_4_PIPE0] |749| 
    2300                            .dwpsn  file "../hcg/source/HL_sys_pcr.c",line 752,column 2,is_stmt,isa 2
    2301 00000adc E59DC000          LDR       V9, [SP, #0]          ; [DPU_4_PIPE0] |752| 
    2302 00000ae0 E3A00005          MOV       A1, #5                ; [DPU_4_PIPE0] |752| 
    2303 00000ae4 E58C0200          STR       A1, [V9, #512]        ; [DPU_4_PIPE0] |752| 
    2304                            .dwpsn  file "../hcg/source/HL_sys_pcr.c",line 756,column 1,is_stmt,isa 2
    2305 00000ae8 E28DD008          ADD       SP, SP, #8            ; [DPU_4_PIPE0] 
    2306                            .dwcfi  cfa_offset, 0
    2307                    $C$DW$126       .dwtag  DW_TAG_TI_branch
    2308                            .dwattr $C$DW$126, DW_AT_low_pc(0x00)
    2309                            .dwattr $C$DW$126, DW_AT_TI_return
    2310                    
TI ARM Assembler PC v16.9.0 Thu Feb 16 13:27:12 2017

Tools Copyright (c) 1996-2015 Texas Instruments Incorporated
C:\Users\bob\AppData\Local\Temp\1183610                              PAGE   43

    2311 00000aec E12FFF1E          BX        LR                    ; [DPU_4_PIPE1] 
    2312                            ; BRANCH OCCURS                  ; [] 
    2313                            .dwattr $C$DW$117, DW_AT_TI_end_file("../hcg/source/HL_sys_pcr.c")
    2314                            .dwattr $C$DW$117, DW_AT_TI_end_line(0x2f4)
    2315                            .dwattr $C$DW$117, DW_AT_TI_end_column(0x01)
    2316                            .dwendentry
    2317                            .dwendtag $C$DW$117
    2318                    
    2319 00000af0                   .sect   ".text"
    2320                            .clink
    2321                            .armfunc peripheral_Memory_MasterIDFilter_Disable
    2322 00000af0                   .state32
    2323                            .global peripheral_Memory_MasterIDFilter_Disable
    2324                    
    2325                    $C$DW$127       .dwtag  DW_TAG_subprogram
    2326                            .dwattr $C$DW$127, DW_AT_name("peripheral_Memory_MasterIDFilter_Disable")
    2327                            .dwattr $C$DW$127, DW_AT_low_pc(peripheral_Memory_MasterIDFilter_Disable)
    2328                            .dwattr $C$DW$127, DW_AT_high_pc(0x00)
    2329                            .dwattr $C$DW$127, DW_AT_TI_symbol_name("peripheral_Memory_MasterIDFilter_Disable")
    2330                            .dwattr $C$DW$127, DW_AT_external
    2331                            .dwattr $C$DW$127, DW_AT_TI_begin_file("../hcg/source/HL_sys_pcr.c")
    2332                            .dwattr $C$DW$127, DW_AT_TI_begin_line(0x309)
    2333                            .dwattr $C$DW$127, DW_AT_TI_begin_column(0x06)
    2334                            .dwattr $C$DW$127, DW_AT_decl_file("../hcg/source/HL_sys_pcr.c")
    2335                            .dwattr $C$DW$127, DW_AT_decl_line(0x309)
    2336                            .dwattr $C$DW$127, DW_AT_decl_column(0x06)
    2337                            .dwattr $C$DW$127, DW_AT_TI_max_frame_size(0x08)
    2338                            .dwpsn  file "../hcg/source/HL_sys_pcr.c",line 778,column 1,is_stmt,address peripheral_Memory_
    2339                    
    2340                            .dwfde $C$DW$CIE, peripheral_Memory_MasterIDFilter_Disable
    2341                    $C$DW$128       .dwtag  DW_TAG_formal_parameter
    2342                            .dwattr $C$DW$128, DW_AT_name("pcr")
    2343                            .dwattr $C$DW$128, DW_AT_TI_symbol_name("pcr")
    2344                            .dwattr $C$DW$128, DW_AT_type(*$C$DW$T$57)
    2345                            .dwattr $C$DW$128, DW_AT_location[DW_OP_reg0]
    2346                    
    2347                    $C$DW$129       .dwtag  DW_TAG_formal_parameter
    2348                            .dwattr $C$DW$129, DW_AT_name("PCS")
    2349                            .dwattr $C$DW$129, DW_AT_TI_symbol_name("PCS")
    2350                            .dwattr $C$DW$129, DW_AT_type(*$C$DW$T$35)
    2351                            .dwattr $C$DW$129, DW_AT_location[DW_OP_reg1]
    2352                    
    2353                    $C$DW$130       .dwtag  DW_TAG_formal_parameter
    2354                            .dwattr $C$DW$130, DW_AT_name("master")
    2355                            .dwattr $C$DW$130, DW_AT_TI_symbol_name("master")
    2356                            .dwattr $C$DW$130, DW_AT_type(*$C$DW$T$39)
    2357                            .dwattr $C$DW$130, DW_AT_location[DW_OP_reg2]
    2358                    
    2359                    
    2360                    ;*****************************************************************************
    2361                    ;* FUNCTION NAME: peripheral_Memory_MasterIDFilter_Disable                   *
    2362                    ;*                                                                           *
    2363                    ;*   Regs Modified     : A1,A2,A3,A4,V9,SP                                   *
    2364                    ;*   Regs Used         : A1,A2,A3,A4,V9,SP,LR                                *
    2365                    ;*   Local Frame Size  : 0 Args + 8 Auto + 0 Save = 8 byte                   *
TI ARM Assembler PC v16.9.0 Thu Feb 16 13:27:12 2017

Tools Copyright (c) 1996-2015 Texas Instruments Incorporated
C:\Users\bob\AppData\Local\Temp\1183610                              PAGE   44

    2366                    ;*****************************************************************************
    2367 00000af0           peripheral_Memory_MasterIDFilter_Disable:
    2368                    ;* --------------------------------------------------------------------------*
    2369                            .dwcfi  cfa_offset, 0
    2370 00000af0 E24DD008          SUB       SP, SP, #8            ; [DPU_4_PIPE0] 
    2371                            .dwcfi  cfa_offset, 8
    2372                    $C$DW$131       .dwtag  DW_TAG_variable
    2373                            .dwattr $C$DW$131, DW_AT_name("pcr")
    2374                            .dwattr $C$DW$131, DW_AT_TI_symbol_name("pcr")
    2375                            .dwattr $C$DW$131, DW_AT_type(*$C$DW$T$57)
    2376                            .dwattr $C$DW$131, DW_AT_location[DW_OP_breg13 0]
    2377                    
    2378                    $C$DW$132       .dwtag  DW_TAG_variable
    2379                            .dwattr $C$DW$132, DW_AT_name("PCS")
    2380                            .dwattr $C$DW$132, DW_AT_TI_symbol_name("PCS")
    2381                            .dwattr $C$DW$132, DW_AT_type(*$C$DW$T$35)
    2382                            .dwattr $C$DW$132, DW_AT_location[DW_OP_breg13 4]
    2383                    
    2384                    $C$DW$133       .dwtag  DW_TAG_variable
    2385                            .dwattr $C$DW$133, DW_AT_name("master")
    2386                            .dwattr $C$DW$133, DW_AT_TI_symbol_name("master")
    2387                            .dwattr $C$DW$133, DW_AT_type(*$C$DW$T$39)
    2388                            .dwattr $C$DW$133, DW_AT_location[DW_OP_breg13 5]
    2389                    
    2390                    $C$DW$134       .dwtag  DW_TAG_variable
    2391                            .dwattr $C$DW$134, DW_AT_name("i")
    2392                            .dwattr $C$DW$134, DW_AT_TI_symbol_name("i")
    2393                            .dwattr $C$DW$134, DW_AT_type(*$C$DW$T$70)
    2394                            .dwattr $C$DW$134, DW_AT_location[DW_OP_breg13 6]
    2395                    
    2396                    $C$DW$135       .dwtag  DW_TAG_variable
    2397                            .dwattr $C$DW$135, DW_AT_name("j")
    2398                            .dwattr $C$DW$135, DW_AT_TI_symbol_name("j")
    2399                            .dwattr $C$DW$135, DW_AT_type(*$C$DW$T$70)
    2400                            .dwattr $C$DW$135, DW_AT_location[DW_OP_breg13 7]
    2401                    
    2402 00000af4 E5CD2005          STRB      A3, [SP, #5]          ; [DPU_4_PIPE0] |778| 
    2403 00000af8 E5CD1004          STRB      A2, [SP, #4]          ; [DPU_4_PIPE0] |778| 
    2404 00000afc E58D0000          STR       A1, [SP, #0]          ; [DPU_4_PIPE0] |778| 
    2405                            .dwpsn  file "../hcg/source/HL_sys_pcr.c",line 785,column 2,is_stmt,isa 2
    2406 00000b00 E59DC000          LDR       V9, [SP, #0]          ; [DPU_4_PIPE0] |785| 
    2407 00000b04 E3A0000A          MOV       A1, #10               ; [DPU_4_PIPE0] |785| 
    2408 00000b08 E58C0200          STR       A1, [V9, #512]        ; [DPU_4_PIPE0] |785| 
    2409                            .dwpsn  file "../hcg/source/HL_sys_pcr.c",line 787,column 2,is_stmt,isa 2
    2410 00000b0c E5DDC004          LDRB      V9, [SP, #4]          ; [DPU_4_PIPE0] |787| 
    2411 00000b10 E1A0C0AC          MOV       V9, V9, LSR #1        ; [DPU_4_PIPE0] |787| 
    2412 00000b14 E5CDC006          STRB      V9, [SP, #6]          ; [DPU_4_PIPE0] |787| 
    2413                            .dwpsn  file "../hcg/source/HL_sys_pcr.c",line 788,column 2,is_stmt,isa 2
    2414 00000b18 E5DDC004          LDRB      V9, [SP, #4]          ; [DPU_4_PIPE0] |788| 
    2415 00000b1c E20CC001          AND       V9, V9, #1            ; [DPU_4_PIPE0] |788| 
    2416 00000b20 E5CDC007          STRB      V9, [SP, #7]          ; [DPU_4_PIPE0] |788| 
    2417                            .dwpsn  file "../hcg/source/HL_sys_pcr.c",line 789,column 2,is_stmt,isa 2
    2418 00000b24 E5DDC007          LDRB      V9, [SP, #7]          ; [DPU_4_PIPE0] |789| 
    2419 00000b28 E1A0C20C          MOV       V9, V9, LSL #4        ; [DPU_4_PIPE0] |789| 
    2420 00000b2c E5CDC007          STRB      V9, [SP, #7]          ; [DPU_4_PIPE0] |789| 
TI ARM Assembler PC v16.9.0 Thu Feb 16 13:27:12 2017

Tools Copyright (c) 1996-2015 Texas Instruments Incorporated
C:\Users\bob\AppData\Local\Temp\1183610                              PAGE   45

    2421                            .dwpsn  file "../hcg/source/HL_sys_pcr.c",line 791,column 2,is_stmt,isa 2
    2422 00000b30 E5DDC006          LDRB      V9, [SP, #6]          ; [DPU_4_PIPE0] |791| 
    2423 00000b34 E59D0000          LDR       A1, [SP, #0]          ; [DPU_4_PIPE0] |791| 
    2424 00000b38 E5DD1005          LDRB      A2, [SP, #5]          ; [DPU_4_PIPE0] |791| 
    2425 00000b3c E1A0C10C          MOV       V9, V9, LSL #2        ; [DPU_4_PIPE1] |791| 
    2426 00000b40 E5DD2007          LDRB      A3, [SP, #7]          ; [DPU_4_PIPE0] |791| 
    2427 00000b44 E2800D15          ADD       A1, A1, #1344         ; [DPU_4_PIPE1] |791| 
    2428 00000b48 E3A03001          MOV       A4, #1                ; [DPU_4_PIPE0] |791| 
    2429 00000b4c E0821001          ADD       A2, A3, A2            ; [DPU_4_PIPE0] |791| 
    2430 00000b50 E79C2000          LDR       A3, [V9, +A1]         ; [DPU_4_PIPE0] |791| 
    2431 00000b54 E1C21113          BIC       A2, A3, A4, LSL A2    ; [DPU_4_PIPE0] |791| 
    2432 00000b58 E78C1000          STR       A2, [V9, +A1]         ; [DPU_4_PIPE0] |791| 
    2433                            .dwpsn  file "../hcg/source/HL_sys_pcr.c",line 794,column 2,is_stmt,isa 2
    2434 00000b5c E59DC000          LDR       V9, [SP, #0]          ; [DPU_4_PIPE0] |794| 
    2435 00000b60 E3A00005          MOV       A1, #5                ; [DPU_4_PIPE0] |794| 
    2436 00000b64 E58C0200          STR       A1, [V9, #512]        ; [DPU_4_PIPE0] |794| 
    2437                            .dwpsn  file "../hcg/source/HL_sys_pcr.c",line 798,column 1,is_stmt,isa 2
    2438 00000b68 E28DD008          ADD       SP, SP, #8            ; [DPU_4_PIPE0] 
    2439                            .dwcfi  cfa_offset, 0
    2440                    $C$DW$136       .dwtag  DW_TAG_TI_branch
    2441                            .dwattr $C$DW$136, DW_AT_low_pc(0x00)
    2442                            .dwattr $C$DW$136, DW_AT_TI_return
    2443                    
    2444 00000b6c E12FFF1E          BX        LR                    ; [DPU_4_PIPE1] 
    2445                            ; BRANCH OCCURS                  ; [] 
    2446                            .dwattr $C$DW$127, DW_AT_TI_end_file("../hcg/source/HL_sys_pcr.c")
    2447                            .dwattr $C$DW$127, DW_AT_TI_end_line(0x31e)
    2448                            .dwattr $C$DW$127, DW_AT_TI_end_column(0x01)
    2449                            .dwendentry
    2450                            .dwendtag $C$DW$127
    2451                    
    2452 00000b70                   .sect   ".text"
    2453                            .clink
    2454                            .armfunc privileged_Peripheral_Memory_MasterIDFilter_Enable
    2455 00000b70                   .state32
    2456                            .global privileged_Peripheral_Memory_MasterIDFilter_Enable
    2457                    
    2458                    $C$DW$137       .dwtag  DW_TAG_subprogram
    2459                            .dwattr $C$DW$137, DW_AT_name("privileged_Peripheral_Memory_MasterIDFilter_Enable")
    2460                            .dwattr $C$DW$137, DW_AT_low_pc(privileged_Peripheral_Memory_MasterIDFilter_Enable)
    2461                            .dwattr $C$DW$137, DW_AT_high_pc(0x00)
    2462                            .dwattr $C$DW$137, DW_AT_TI_symbol_name("privileged_Peripheral_Memory_MasterIDFilter_Enable")
    2463                            .dwattr $C$DW$137, DW_AT_external
    2464                            .dwattr $C$DW$137, DW_AT_TI_begin_file("../hcg/source/HL_sys_pcr.c")
    2465                            .dwattr $C$DW$137, DW_AT_TI_begin_line(0x333)
    2466                            .dwattr $C$DW$137, DW_AT_TI_begin_column(0x06)
    2467                            .dwattr $C$DW$137, DW_AT_decl_file("../hcg/source/HL_sys_pcr.c")
    2468                            .dwattr $C$DW$137, DW_AT_decl_line(0x333)
    2469                            .dwattr $C$DW$137, DW_AT_decl_column(0x06)
    2470                            .dwattr $C$DW$137, DW_AT_TI_max_frame_size(0x08)
    2471                            .dwpsn  file "../hcg/source/HL_sys_pcr.c",line 820,column 1,is_stmt,address privileged_Periphe
    2472                    
    2473                            .dwfde $C$DW$CIE, privileged_Peripheral_Memory_MasterIDFilter_Enable
    2474                    $C$DW$138       .dwtag  DW_TAG_formal_parameter
    2475                            .dwattr $C$DW$138, DW_AT_name("pcr")
TI ARM Assembler PC v16.9.0 Thu Feb 16 13:27:12 2017

Tools Copyright (c) 1996-2015 Texas Instruments Incorporated
C:\Users\bob\AppData\Local\Temp\1183610                              PAGE   46

    2476                            .dwattr $C$DW$138, DW_AT_TI_symbol_name("pcr")
    2477                            .dwattr $C$DW$138, DW_AT_type(*$C$DW$T$57)
    2478                            .dwattr $C$DW$138, DW_AT_location[DW_OP_reg0]
    2479                    
    2480                    $C$DW$139       .dwtag  DW_TAG_formal_parameter
    2481                            .dwattr $C$DW$139, DW_AT_name("PPCS")
    2482                            .dwattr $C$DW$139, DW_AT_TI_symbol_name("PPCS")
    2483                            .dwattr $C$DW$139, DW_AT_type(*$C$DW$T$45)
    2484                            .dwattr $C$DW$139, DW_AT_location[DW_OP_reg1]
    2485                    
    2486                    $C$DW$140       .dwtag  DW_TAG_formal_parameter
    2487                            .dwattr $C$DW$140, DW_AT_name("master")
    2488                            .dwattr $C$DW$140, DW_AT_TI_symbol_name("master")
    2489                            .dwattr $C$DW$140, DW_AT_type(*$C$DW$T$39)
    2490                            .dwattr $C$DW$140, DW_AT_location[DW_OP_reg2]
    2491                    
    2492                    
    2493                    ;*****************************************************************************
    2494                    ;* FUNCTION NAME: privileged_Peripheral_Memory_MasterIDFilter_Enable         *
    2495                    ;*                                                                           *
    2496                    ;*   Regs Modified     : A1,A2,A3,A4,V9,SP                                   *
    2497                    ;*   Regs Used         : A1,A2,A3,A4,V9,SP,LR                                *
    2498                    ;*   Local Frame Size  : 0 Args + 8 Auto + 0 Save = 8 byte                   *
    2499                    ;*****************************************************************************
    2500 00000b70           privileged_Peripheral_Memory_MasterIDFilter_Enable:
    2501                    ;* --------------------------------------------------------------------------*
    2502                            .dwcfi  cfa_offset, 0
    2503 00000b70 E24DD008          SUB       SP, SP, #8            ; [DPU_4_PIPE0] 
    2504                            .dwcfi  cfa_offset, 8
    2505                    $C$DW$141       .dwtag  DW_TAG_variable
    2506                            .dwattr $C$DW$141, DW_AT_name("pcr")
    2507                            .dwattr $C$DW$141, DW_AT_TI_symbol_name("pcr")
    2508                            .dwattr $C$DW$141, DW_AT_type(*$C$DW$T$57)
    2509                            .dwattr $C$DW$141, DW_AT_location[DW_OP_breg13 0]
    2510                    
    2511                    $C$DW$142       .dwtag  DW_TAG_variable
    2512                            .dwattr $C$DW$142, DW_AT_name("PPCS")
    2513                            .dwattr $C$DW$142, DW_AT_TI_symbol_name("PPCS")
    2514                            .dwattr $C$DW$142, DW_AT_type(*$C$DW$T$45)
    2515                            .dwattr $C$DW$142, DW_AT_location[DW_OP_breg13 4]
    2516                    
    2517                    $C$DW$143       .dwtag  DW_TAG_variable
    2518                            .dwattr $C$DW$143, DW_AT_name("master")
    2519                            .dwattr $C$DW$143, DW_AT_TI_symbol_name("master")
    2520                            .dwattr $C$DW$143, DW_AT_type(*$C$DW$T$39)
    2521                            .dwattr $C$DW$143, DW_AT_location[DW_OP_breg13 5]
    2522                    
    2523                    $C$DW$144       .dwtag  DW_TAG_variable
    2524                            .dwattr $C$DW$144, DW_AT_name("i")
    2525                            .dwattr $C$DW$144, DW_AT_TI_symbol_name("i")
    2526                            .dwattr $C$DW$144, DW_AT_type(*$C$DW$T$70)
    2527                            .dwattr $C$DW$144, DW_AT_location[DW_OP_breg13 6]
    2528                    
    2529                    $C$DW$145       .dwtag  DW_TAG_variable
    2530                            .dwattr $C$DW$145, DW_AT_name("j")
TI ARM Assembler PC v16.9.0 Thu Feb 16 13:27:12 2017

Tools Copyright (c) 1996-2015 Texas Instruments Incorporated
C:\Users\bob\AppData\Local\Temp\1183610                              PAGE   47

    2531                            .dwattr $C$DW$145, DW_AT_TI_symbol_name("j")
    2532                            .dwattr $C$DW$145, DW_AT_type(*$C$DW$T$70)
    2533                            .dwattr $C$DW$145, DW_AT_location[DW_OP_breg13 7]
    2534                    
    2535 00000b74 E5CD2005          STRB      A3, [SP, #5]          ; [DPU_4_PIPE0] |820| 
    2536 00000b78 E5CD1004          STRB      A2, [SP, #4]          ; [DPU_4_PIPE0] |820| 
    2537 00000b7c E58D0000          STR       A1, [SP, #0]          ; [DPU_4_PIPE0] |820| 
    2538                            .dwpsn  file "../hcg/source/HL_sys_pcr.c",line 827,column 2,is_stmt,isa 2
    2539 00000b80 E59DC000          LDR       V9, [SP, #0]          ; [DPU_4_PIPE0] |827| 
    2540 00000b84 E3A0000A          MOV       A1, #10               ; [DPU_4_PIPE0] |827| 
    2541 00000b88 E58C0200          STR       A1, [V9, #512]        ; [DPU_4_PIPE0] |827| 
    2542                            .dwpsn  file "../hcg/source/HL_sys_pcr.c",line 829,column 2,is_stmt,isa 2
    2543 00000b8c E5DDC004          LDRB      V9, [SP, #4]          ; [DPU_4_PIPE0] |829| 
    2544 00000b90 E1A0C0AC          MOV       V9, V9, LSR #1        ; [DPU_4_PIPE0] |829| 
    2545 00000b94 E5CDC006          STRB      V9, [SP, #6]          ; [DPU_4_PIPE0] |829| 
    2546                            .dwpsn  file "../hcg/source/HL_sys_pcr.c",line 830,column 2,is_stmt,isa 2
    2547 00000b98 E5DDC004          LDRB      V9, [SP, #4]          ; [DPU_4_PIPE0] |830| 
    2548 00000b9c E20CC001          AND       V9, V9, #1            ; [DPU_4_PIPE0] |830| 
    2549 00000ba0 E5CDC007          STRB      V9, [SP, #7]          ; [DPU_4_PIPE0] |830| 
    2550                            .dwpsn  file "../hcg/source/HL_sys_pcr.c",line 831,column 2,is_stmt,isa 2
    2551 00000ba4 E5DDC007          LDRB      V9, [SP, #7]          ; [DPU_4_PIPE0] |831| 
    2552 00000ba8 E1A0C20C          MOV       V9, V9, LSL #4        ; [DPU_4_PIPE0] |831| 
    2553 00000bac E5CDC007          STRB      V9, [SP, #7]          ; [DPU_4_PIPE0] |831| 
    2554                            .dwpsn  file "../hcg/source/HL_sys_pcr.c",line 833,column 2,is_stmt,isa 2
    2555 00000bb0 E5DDC006          LDRB      V9, [SP, #6]          ; [DPU_4_PIPE0] |833| 
    2556 00000bb4 E59D0000          LDR       A1, [SP, #0]          ; [DPU_4_PIPE0] |833| 
    2557 00000bb8 E5DD1005          LDRB      A2, [SP, #5]          ; [DPU_4_PIPE0] |833| 
    2558 00000bbc E1A0C10C          MOV       V9, V9, LSL #2        ; [DPU_4_PIPE1] |833| 
    2559 00000bc0 E5DD2007          LDRB      A3, [SP, #7]          ; [DPU_4_PIPE0] |833| 
    2560 00000bc4 E2800D17          ADD       A1, A1, #1472         ; [DPU_4_PIPE1] |833| 
    2561 00000bc8 E3A03001          MOV       A4, #1                ; [DPU_4_PIPE0] |833| 
    2562 00000bcc E0821001          ADD       A2, A3, A2            ; [DPU_4_PIPE0] |833| 
    2563 00000bd0 E79C2000          LDR       A3, [V9, +A1]         ; [DPU_4_PIPE0] |833| 
    2564 00000bd4 E1821113          ORR       A2, A3, A4, LSL A2    ; [DPU_4_PIPE0] |833| 
    2565 00000bd8 E78C1000          STR       A2, [V9, +A1]         ; [DPU_4_PIPE0] |833| 
    2566                            .dwpsn  file "../hcg/source/HL_sys_pcr.c",line 836,column 2,is_stmt,isa 2
    2567 00000bdc E59DC000          LDR       V9, [SP, #0]          ; [DPU_4_PIPE0] |836| 
    2568 00000be0 E3A00005          MOV       A1, #5                ; [DPU_4_PIPE0] |836| 
    2569 00000be4 E58C0200          STR       A1, [V9, #512]        ; [DPU_4_PIPE0] |836| 
    2570                            .dwpsn  file "../hcg/source/HL_sys_pcr.c",line 840,column 1,is_stmt,isa 2
    2571 00000be8 E28DD008          ADD       SP, SP, #8            ; [DPU_4_PIPE0] 
    2572                            .dwcfi  cfa_offset, 0
    2573                    $C$DW$146       .dwtag  DW_TAG_TI_branch
    2574                            .dwattr $C$DW$146, DW_AT_low_pc(0x00)
    2575                            .dwattr $C$DW$146, DW_AT_TI_return
    2576                    
    2577 00000bec E12FFF1E          BX        LR                    ; [DPU_4_PIPE1] 
    2578                            ; BRANCH OCCURS                  ; [] 
    2579                            .dwattr $C$DW$137, DW_AT_TI_end_file("../hcg/source/HL_sys_pcr.c")
    2580                            .dwattr $C$DW$137, DW_AT_TI_end_line(0x348)
    2581                            .dwattr $C$DW$137, DW_AT_TI_end_column(0x01)
    2582                            .dwendentry
    2583                            .dwendtag $C$DW$137
    2584                    
    2585 00000bf0                   .sect   ".text"
TI ARM Assembler PC v16.9.0 Thu Feb 16 13:27:12 2017

Tools Copyright (c) 1996-2015 Texas Instruments Incorporated
C:\Users\bob\AppData\Local\Temp\1183610                              PAGE   48

    2586                            .clink
    2587                            .armfunc privileged_Peripheral_Memory_MasterIDFilter_Disable
    2588 00000bf0                   .state32
    2589                            .global privileged_Peripheral_Memory_MasterIDFilter_Disable
    2590                    
    2591                    $C$DW$147       .dwtag  DW_TAG_subprogram
    2592                            .dwattr $C$DW$147, DW_AT_name("privileged_Peripheral_Memory_MasterIDFilter_Disable")
    2593                            .dwattr $C$DW$147, DW_AT_low_pc(privileged_Peripheral_Memory_MasterIDFilter_Disable)
    2594                            .dwattr $C$DW$147, DW_AT_high_pc(0x00)
    2595                            .dwattr $C$DW$147, DW_AT_TI_symbol_name("privileged_Peripheral_Memory_MasterIDFilter_Disable")
    2596                            .dwattr $C$DW$147, DW_AT_external
    2597                            .dwattr $C$DW$147, DW_AT_TI_begin_file("../hcg/source/HL_sys_pcr.c")
    2598                            .dwattr $C$DW$147, DW_AT_TI_begin_line(0x35d)
    2599                            .dwattr $C$DW$147, DW_AT_TI_begin_column(0x06)
    2600                            .dwattr $C$DW$147, DW_AT_decl_file("../hcg/source/HL_sys_pcr.c")
    2601                            .dwattr $C$DW$147, DW_AT_decl_line(0x35d)
    2602                            .dwattr $C$DW$147, DW_AT_decl_column(0x06)
    2603                            .dwattr $C$DW$147, DW_AT_TI_max_frame_size(0x08)
    2604                            .dwpsn  file "../hcg/source/HL_sys_pcr.c",line 862,column 1,is_stmt,address privileged_Periphe
    2605                    
    2606                            .dwfde $C$DW$CIE, privileged_Peripheral_Memory_MasterIDFilter_Disable
    2607                    $C$DW$148       .dwtag  DW_TAG_formal_parameter
    2608                            .dwattr $C$DW$148, DW_AT_name("pcr")
    2609                            .dwattr $C$DW$148, DW_AT_TI_symbol_name("pcr")
    2610                            .dwattr $C$DW$148, DW_AT_type(*$C$DW$T$57)
    2611                            .dwattr $C$DW$148, DW_AT_location[DW_OP_reg0]
    2612                    
    2613                    $C$DW$149       .dwtag  DW_TAG_formal_parameter
    2614                            .dwattr $C$DW$149, DW_AT_name("PPCS")
    2615                            .dwattr $C$DW$149, DW_AT_TI_symbol_name("PPCS")
    2616                            .dwattr $C$DW$149, DW_AT_type(*$C$DW$T$45)
    2617                            .dwattr $C$DW$149, DW_AT_location[DW_OP_reg1]
    2618                    
    2619                    $C$DW$150       .dwtag  DW_TAG_formal_parameter
    2620                            .dwattr $C$DW$150, DW_AT_name("master")
    2621                            .dwattr $C$DW$150, DW_AT_TI_symbol_name("master")
    2622                            .dwattr $C$DW$150, DW_AT_type(*$C$DW$T$39)
    2623                            .dwattr $C$DW$150, DW_AT_location[DW_OP_reg2]
    2624                    
    2625                    
    2626                    ;*****************************************************************************
    2627                    ;* FUNCTION NAME: privileged_Peripheral_Memory_MasterIDFilter_Disable        *
    2628                    ;*                                                                           *
    2629                    ;*   Regs Modified     : A1,A2,A3,A4,V9,SP                                   *
    2630                    ;*   Regs Used         : A1,A2,A3,A4,V9,SP,LR                                *
    2631                    ;*   Local Frame Size  : 0 Args + 8 Auto + 0 Save = 8 byte                   *
    2632                    ;*****************************************************************************
    2633 00000bf0           privileged_Peripheral_Memory_MasterIDFilter_Disable:
    2634                    ;* --------------------------------------------------------------------------*
    2635                            .dwcfi  cfa_offset, 0
    2636 00000bf0 E24DD008          SUB       SP, SP, #8            ; [DPU_4_PIPE0] 
    2637                            .dwcfi  cfa_offset, 8
    2638                    $C$DW$151       .dwtag  DW_TAG_variable
    2639                            .dwattr $C$DW$151, DW_AT_name("pcr")
    2640                            .dwattr $C$DW$151, DW_AT_TI_symbol_name("pcr")
TI ARM Assembler PC v16.9.0 Thu Feb 16 13:27:12 2017

Tools Copyright (c) 1996-2015 Texas Instruments Incorporated
C:\Users\bob\AppData\Local\Temp\1183610                              PAGE   49

    2641                            .dwattr $C$DW$151, DW_AT_type(*$C$DW$T$57)
    2642                            .dwattr $C$DW$151, DW_AT_location[DW_OP_breg13 0]
    2643                    
    2644                    $C$DW$152       .dwtag  DW_TAG_variable
    2645                            .dwattr $C$DW$152, DW_AT_name("PPCS")
    2646                            .dwattr $C$DW$152, DW_AT_TI_symbol_name("PPCS")
    2647                            .dwattr $C$DW$152, DW_AT_type(*$C$DW$T$45)
    2648                            .dwattr $C$DW$152, DW_AT_location[DW_OP_breg13 4]
    2649                    
    2650                    $C$DW$153       .dwtag  DW_TAG_variable
    2651                            .dwattr $C$DW$153, DW_AT_name("master")
    2652                            .dwattr $C$DW$153, DW_AT_TI_symbol_name("master")
    2653                            .dwattr $C$DW$153, DW_AT_type(*$C$DW$T$39)
    2654                            .dwattr $C$DW$153, DW_AT_location[DW_OP_breg13 5]
    2655                    
    2656                    $C$DW$154       .dwtag  DW_TAG_variable
    2657                            .dwattr $C$DW$154, DW_AT_name("i")
    2658                            .dwattr $C$DW$154, DW_AT_TI_symbol_name("i")
    2659                            .dwattr $C$DW$154, DW_AT_type(*$C$DW$T$70)
    2660                            .dwattr $C$DW$154, DW_AT_location[DW_OP_breg13 6]
    2661                    
    2662                    $C$DW$155       .dwtag  DW_TAG_variable
    2663                            .dwattr $C$DW$155, DW_AT_name("j")
    2664                            .dwattr $C$DW$155, DW_AT_TI_symbol_name("j")
    2665                            .dwattr $C$DW$155, DW_AT_type(*$C$DW$T$70)
    2666                            .dwattr $C$DW$155, DW_AT_location[DW_OP_breg13 7]
    2667                    
    2668 00000bf4 E5CD2005          STRB      A3, [SP, #5]          ; [DPU_4_PIPE0] |862| 
    2669 00000bf8 E5CD1004          STRB      A2, [SP, #4]          ; [DPU_4_PIPE0] |862| 
    2670 00000bfc E58D0000          STR       A1, [SP, #0]          ; [DPU_4_PIPE0] |862| 
    2671                            .dwpsn  file "../hcg/source/HL_sys_pcr.c",line 869,column 2,is_stmt,isa 2
    2672 00000c00 E59DC000          LDR       V9, [SP, #0]          ; [DPU_4_PIPE0] |869| 
    2673 00000c04 E3A0000A          MOV       A1, #10               ; [DPU_4_PIPE0] |869| 
    2674 00000c08 E58C0200          STR       A1, [V9, #512]        ; [DPU_4_PIPE0] |869| 
    2675                            .dwpsn  file "../hcg/source/HL_sys_pcr.c",line 871,column 2,is_stmt,isa 2
    2676 00000c0c E5DDC004          LDRB      V9, [SP, #4]          ; [DPU_4_PIPE0] |871| 
    2677 00000c10 E1A0C0AC          MOV       V9, V9, LSR #1        ; [DPU_4_PIPE0] |871| 
    2678 00000c14 E5CDC006          STRB      V9, [SP, #6]          ; [DPU_4_PIPE0] |871| 
    2679                            .dwpsn  file "../hcg/source/HL_sys_pcr.c",line 872,column 2,is_stmt,isa 2
    2680 00000c18 E5DDC004          LDRB      V9, [SP, #4]          ; [DPU_4_PIPE0] |872| 
    2681 00000c1c E20CC001          AND       V9, V9, #1            ; [DPU_4_PIPE0] |872| 
    2682 00000c20 E5CDC007          STRB      V9, [SP, #7]          ; [DPU_4_PIPE0] |872| 
    2683                            .dwpsn  file "../hcg/source/HL_sys_pcr.c",line 873,column 2,is_stmt,isa 2
    2684 00000c24 E5DDC007          LDRB      V9, [SP, #7]          ; [DPU_4_PIPE0] |873| 
    2685 00000c28 E1A0C20C          MOV       V9, V9, LSL #4        ; [DPU_4_PIPE0] |873| 
    2686 00000c2c E5CDC007          STRB      V9, [SP, #7]          ; [DPU_4_PIPE0] |873| 
    2687                            .dwpsn  file "../hcg/source/HL_sys_pcr.c",line 875,column 2,is_stmt,isa 2
    2688 00000c30 E5DDC006          LDRB      V9, [SP, #6]          ; [DPU_4_PIPE0] |875| 
    2689 00000c34 E59D0000          LDR       A1, [SP, #0]          ; [DPU_4_PIPE0] |875| 
    2690 00000c38 E5DD1005          LDRB      A2, [SP, #5]          ; [DPU_4_PIPE0] |875| 
    2691 00000c3c E1A0C10C          MOV       V9, V9, LSL #2        ; [DPU_4_PIPE1] |875| 
    2692 00000c40 E5DD2007          LDRB      A3, [SP, #7]          ; [DPU_4_PIPE0] |875| 
    2693 00000c44 E2800D17          ADD       A1, A1, #1472         ; [DPU_4_PIPE1] |875| 
    2694 00000c48 E3A03001          MOV       A4, #1                ; [DPU_4_PIPE0] |875| 
    2695 00000c4c E0821001          ADD       A2, A3, A2            ; [DPU_4_PIPE0] |875| 
TI ARM Assembler PC v16.9.0 Thu Feb 16 13:27:12 2017

Tools Copyright (c) 1996-2015 Texas Instruments Incorporated
C:\Users\bob\AppData\Local\Temp\1183610                              PAGE   50

    2696 00000c50 E79C2000          LDR       A3, [V9, +A1]         ; [DPU_4_PIPE0] |875| 
    2697 00000c54 E1C21113          BIC       A2, A3, A4, LSL A2    ; [DPU_4_PIPE0] |875| 
    2698 00000c58 E78C1000          STR       A2, [V9, +A1]         ; [DPU_4_PIPE0] |875| 
    2699                            .dwpsn  file "../hcg/source/HL_sys_pcr.c",line 878,column 2,is_stmt,isa 2
    2700 00000c5c E59DC000          LDR       V9, [SP, #0]          ; [DPU_4_PIPE0] |878| 
    2701 00000c60 E3A00005          MOV       A1, #5                ; [DPU_4_PIPE0] |878| 
    2702 00000c64 E58C0200          STR       A1, [V9, #512]        ; [DPU_4_PIPE0] |878| 
    2703                            .dwpsn  file "../hcg/source/HL_sys_pcr.c",line 882,column 1,is_stmt,isa 2
    2704 00000c68 E28DD008          ADD       SP, SP, #8            ; [DPU_4_PIPE0] 
    2705                            .dwcfi  cfa_offset, 0
    2706                    $C$DW$156       .dwtag  DW_TAG_TI_branch
    2707                            .dwattr $C$DW$156, DW_AT_low_pc(0x00)
    2708                            .dwattr $C$DW$156, DW_AT_TI_return
    2709                    
    2710 00000c6c E12FFF1E          BX        LR                    ; [DPU_4_PIPE1] 
    2711                            ; BRANCH OCCURS                  ; [] 
    2712                            .dwattr $C$DW$147, DW_AT_TI_end_file("../hcg/source/HL_sys_pcr.c")
    2713                            .dwattr $C$DW$147, DW_AT_TI_end_line(0x372)
    2714                            .dwattr $C$DW$147, DW_AT_TI_end_column(0x01)
    2715                            .dwendentry
    2716                            .dwendtag $C$DW$147
    2717                    
    2718 00000c70                   .sect   ".text"
    2719                            .clink
    2720                            .armfunc pcrEnableMasterIDCheck
    2721 00000c70                   .state32
    2722                            .global pcrEnableMasterIDCheck
    2723                    
    2724                    $C$DW$157       .dwtag  DW_TAG_subprogram
    2725                            .dwattr $C$DW$157, DW_AT_name("pcrEnableMasterIDCheck")
    2726                            .dwattr $C$DW$157, DW_AT_low_pc(pcrEnableMasterIDCheck)
    2727                            .dwattr $C$DW$157, DW_AT_high_pc(0x00)
    2728                            .dwattr $C$DW$157, DW_AT_TI_symbol_name("pcrEnableMasterIDCheck")
    2729                            .dwattr $C$DW$157, DW_AT_external
    2730                            .dwattr $C$DW$157, DW_AT_TI_begin_file("../hcg/source/HL_sys_pcr.c")
    2731                            .dwattr $C$DW$157, DW_AT_TI_begin_line(0x37b)
    2732                            .dwattr $C$DW$157, DW_AT_TI_begin_column(0x06)
    2733                            .dwattr $C$DW$157, DW_AT_decl_file("../hcg/source/HL_sys_pcr.c")
    2734                            .dwattr $C$DW$157, DW_AT_decl_line(0x37b)
    2735                            .dwattr $C$DW$157, DW_AT_decl_column(0x06)
    2736                            .dwattr $C$DW$157, DW_AT_TI_max_frame_size(0x08)
    2737                            .dwpsn  file "../hcg/source/HL_sys_pcr.c",line 892,column 1,is_stmt,address pcrEnableMasterIDC
    2738                    
    2739                            .dwfde $C$DW$CIE, pcrEnableMasterIDCheck
    2740                    $C$DW$158       .dwtag  DW_TAG_formal_parameter
    2741                            .dwattr $C$DW$158, DW_AT_name("pcr")
    2742                            .dwattr $C$DW$158, DW_AT_TI_symbol_name("pcr")
    2743                            .dwattr $C$DW$158, DW_AT_type(*$C$DW$T$57)
    2744                            .dwattr $C$DW$158, DW_AT_location[DW_OP_reg0]
    2745                    
    2746                    
    2747                    ;*****************************************************************************
    2748                    ;* FUNCTION NAME: pcrEnableMasterIDCheck                                     *
    2749                    ;*                                                                           *
    2750                    ;*   Regs Modified     : A1,V9,SP                                            *
TI ARM Assembler PC v16.9.0 Thu Feb 16 13:27:12 2017

Tools Copyright (c) 1996-2015 Texas Instruments Incorporated
C:\Users\bob\AppData\Local\Temp\1183610                              PAGE   51

    2751                    ;*   Regs Used         : A1,V9,SP,LR                                         *
    2752                    ;*   Local Frame Size  : 0 Args + 4 Auto + 0 Save = 4 byte                   *
    2753                    ;*****************************************************************************
    2754 00000c70           pcrEnableMasterIDCheck:
    2755                    ;* --------------------------------------------------------------------------*
    2756                            .dwcfi  cfa_offset, 0
    2757 00000c70 E24DD008          SUB       SP, SP, #8            ; [DPU_4_PIPE0] 
    2758                            .dwcfi  cfa_offset, 8
    2759                    $C$DW$159       .dwtag  DW_TAG_variable
    2760                            .dwattr $C$DW$159, DW_AT_name("pcr")
    2761                            .dwattr $C$DW$159, DW_AT_TI_symbol_name("pcr")
    2762                            .dwattr $C$DW$159, DW_AT_type(*$C$DW$T$57)
    2763                            .dwattr $C$DW$159, DW_AT_location[DW_OP_breg13 0]
    2764                    
    2765 00000c74 E58D0000          STR       A1, [SP, #0]          ; [DPU_4_PIPE0] |892| 
    2766                            .dwpsn  file "../hcg/source/HL_sys_pcr.c",line 896,column 2,is_stmt,isa 2
    2767 00000c78 E59DC000          LDR       V9, [SP, #0]          ; [DPU_4_PIPE0] |896| 
    2768 00000c7c E3A0000A          MOV       A1, #10               ; [DPU_4_PIPE0] |896| 
    2769 00000c80 E58C0204          STR       A1, [V9, #516]        ; [DPU_4_PIPE0] |896| 
    2770                            .dwpsn  file "../hcg/source/HL_sys_pcr.c",line 900,column 1,is_stmt,isa 2
    2771 00000c84 E28DD008          ADD       SP, SP, #8            ; [DPU_4_PIPE0] 
    2772                            .dwcfi  cfa_offset, 0
    2773                    $C$DW$160       .dwtag  DW_TAG_TI_branch
    2774                            .dwattr $C$DW$160, DW_AT_low_pc(0x00)
    2775                            .dwattr $C$DW$160, DW_AT_TI_return
    2776                    
    2777 00000c88 E12FFF1E          BX        LR                    ; [DPU_4_PIPE1] 
    2778                            ; BRANCH OCCURS                  ; [] 
    2779                            .dwattr $C$DW$157, DW_AT_TI_end_file("../hcg/source/HL_sys_pcr.c")
    2780                            .dwattr $C$DW$157, DW_AT_TI_end_line(0x384)
    2781                            .dwattr $C$DW$157, DW_AT_TI_end_column(0x01)
    2782                            .dwendentry
    2783                            .dwendtag $C$DW$157
    2784                    
    2785 00000c8c                   .sect   ".text"
    2786                            .clink
    2787                            .armfunc pcrDisableMasterIDCheck
    2788 00000c8c                   .state32
    2789                            .global pcrDisableMasterIDCheck
    2790                    
    2791                    $C$DW$161       .dwtag  DW_TAG_subprogram
    2792                            .dwattr $C$DW$161, DW_AT_name("pcrDisableMasterIDCheck")
    2793                            .dwattr $C$DW$161, DW_AT_low_pc(pcrDisableMasterIDCheck)
    2794                            .dwattr $C$DW$161, DW_AT_high_pc(0x00)
    2795                            .dwattr $C$DW$161, DW_AT_TI_symbol_name("pcrDisableMasterIDCheck")
    2796                            .dwattr $C$DW$161, DW_AT_external
    2797                            .dwattr $C$DW$161, DW_AT_TI_begin_file("../hcg/source/HL_sys_pcr.c")
    2798                            .dwattr $C$DW$161, DW_AT_TI_begin_line(0x38d)
    2799                            .dwattr $C$DW$161, DW_AT_TI_begin_column(0x06)
    2800                            .dwattr $C$DW$161, DW_AT_decl_file("../hcg/source/HL_sys_pcr.c")
    2801                            .dwattr $C$DW$161, DW_AT_decl_line(0x38d)
    2802                            .dwattr $C$DW$161, DW_AT_decl_column(0x06)
    2803                            .dwattr $C$DW$161, DW_AT_TI_max_frame_size(0x08)
    2804                            .dwpsn  file "../hcg/source/HL_sys_pcr.c",line 910,column 1,is_stmt,address pcrDisableMasterID
    2805                    
TI ARM Assembler PC v16.9.0 Thu Feb 16 13:27:12 2017

Tools Copyright (c) 1996-2015 Texas Instruments Incorporated
C:\Users\bob\AppData\Local\Temp\1183610                              PAGE   52

    2806                            .dwfde $C$DW$CIE, pcrDisableMasterIDCheck
    2807                    $C$DW$162       .dwtag  DW_TAG_formal_parameter
    2808                            .dwattr $C$DW$162, DW_AT_name("pcr")
    2809                            .dwattr $C$DW$162, DW_AT_TI_symbol_name("pcr")
    2810                            .dwattr $C$DW$162, DW_AT_type(*$C$DW$T$57)
    2811                            .dwattr $C$DW$162, DW_AT_location[DW_OP_reg0]
    2812                    
    2813                    
    2814                    ;*****************************************************************************
    2815                    ;* FUNCTION NAME: pcrDisableMasterIDCheck                                    *
    2816                    ;*                                                                           *
    2817                    ;*   Regs Modified     : A1,V9,SP                                            *
    2818                    ;*   Regs Used         : A1,V9,SP,LR                                         *
    2819                    ;*   Local Frame Size  : 0 Args + 4 Auto + 0 Save = 4 byte                   *
    2820                    ;*****************************************************************************
    2821 00000c8c           pcrDisableMasterIDCheck:
    2822                    ;* --------------------------------------------------------------------------*
    2823                            .dwcfi  cfa_offset, 0
    2824 00000c8c E24DD008          SUB       SP, SP, #8            ; [DPU_4_PIPE0] 
    2825                            .dwcfi  cfa_offset, 8
    2826                    $C$DW$163       .dwtag  DW_TAG_variable
    2827                            .dwattr $C$DW$163, DW_AT_name("pcr")
    2828                            .dwattr $C$DW$163, DW_AT_TI_symbol_name("pcr")
    2829                            .dwattr $C$DW$163, DW_AT_type(*$C$DW$T$57)
    2830                            .dwattr $C$DW$163, DW_AT_location[DW_OP_breg13 0]
    2831                    
    2832 00000c90 E58D0000          STR       A1, [SP, #0]          ; [DPU_4_PIPE0] |910| 
    2833                            .dwpsn  file "../hcg/source/HL_sys_pcr.c",line 914,column 2,is_stmt,isa 2
    2834 00000c94 E59DC000          LDR       V9, [SP, #0]          ; [DPU_4_PIPE0] |914| 
    2835 00000c98 E3A00005          MOV       A1, #5                ; [DPU_4_PIPE0] |914| 
    2836 00000c9c E58C0204          STR       A1, [V9, #516]        ; [DPU_4_PIPE0] |914| 
    2837                            .dwpsn  file "../hcg/source/HL_sys_pcr.c",line 918,column 1,is_stmt,isa 2
    2838 00000ca0 E28DD008          ADD       SP, SP, #8            ; [DPU_4_PIPE0] 
    2839                            .dwcfi  cfa_offset, 0
    2840                    $C$DW$164       .dwtag  DW_TAG_TI_branch
    2841                            .dwattr $C$DW$164, DW_AT_low_pc(0x00)
    2842                            .dwattr $C$DW$164, DW_AT_TI_return
    2843                    
    2844 00000ca4 E12FFF1E          BX        LR                    ; [DPU_4_PIPE1] 
    2845                            ; BRANCH OCCURS                  ; [] 
    2846                            .dwattr $C$DW$161, DW_AT_TI_end_file("../hcg/source/HL_sys_pcr.c")
    2847                            .dwattr $C$DW$161, DW_AT_TI_end_line(0x396)
    2848                            .dwattr $C$DW$161, DW_AT_TI_end_column(0x01)
    2849                            .dwendentry
    2850                            .dwendtag $C$DW$161
    2851                    
    2852                    
    2853                    ;******************************************************************************
    2854                    ;* BUILD ATTRIBUTES                                                           *
    2855                    ;******************************************************************************
    2856                            .battr "aeabi", Tag_File, 1, Tag_ABI_PCS_wchar_t(2)
    2857                            .battr "aeabi", Tag_File, 1, Tag_ABI_FP_rounding(0)
    2858                            .battr "aeabi", Tag_File, 1, Tag_ABI_FP_denormal(0)
    2859                            .battr "aeabi", Tag_File, 1, Tag_ABI_FP_exceptions(0)
    2860                            .battr "aeabi", Tag_File, 1, Tag_ABI_FP_number_model(1)
TI ARM Assembler PC v16.9.0 Thu Feb 16 13:27:12 2017

Tools Copyright (c) 1996-2015 Texas Instruments Incorporated
C:\Users\bob\AppData\Local\Temp\1183610                              PAGE   53

    2861                            .battr "aeabi", Tag_File, 1, Tag_ABI_enum_size(1)
    2862                            .battr "aeabi", Tag_File, 1, Tag_ABI_optimization_goals(5)
    2863                            .battr "aeabi", Tag_File, 1, Tag_ABI_FP_optimization_goals(0)
    2864                            .battr "TI", Tag_File, 1, Tag_Bitfield_layout(2)
    2865                            .battr "aeabi", Tag_File, 1, Tag_ABI_VFP_args(3)
    2866                            .battr "TI", Tag_File, 1, Tag_FP_interface(1)
    2867                    
    2868                    ;******************************************************************************
    2869                    ;* TYPE INFORMATION                                                           *
    2870                    ;******************************************************************************
    2871                    
    2872                    $C$DW$T$34      .dwtag  DW_TAG_enumeration_type
    2873                            .dwattr $C$DW$T$34, DW_AT_byte_size(0x01)
    2874                    $C$DW$165       .dwtag  DW_TAG_enumerator
    2875                            .dwattr $C$DW$165, DW_AT_name("PCS0")
    2876                            .dwattr $C$DW$165, DW_AT_const_value(0x00)
    2877                            .dwattr $C$DW$165, DW_AT_decl_file("C:/Users/bob/Documents/Projects/induct_forge/RM57Lx_test/P
    2878                            .dwattr $C$DW$165, DW_AT_decl_line(0x62)
    2879                            .dwattr $C$DW$165, DW_AT_decl_column(0x02)
    2880                    
    2881                    $C$DW$166       .dwtag  DW_TAG_enumerator
    2882                            .dwattr $C$DW$166, DW_AT_name("PCS1")
    2883                            .dwattr $C$DW$166, DW_AT_const_value(0x01)
    2884                            .dwattr $C$DW$166, DW_AT_decl_file("C:/Users/bob/Documents/Projects/induct_forge/RM57Lx_test/P
    2885                            .dwattr $C$DW$166, DW_AT_decl_line(0x62)
    2886                            .dwattr $C$DW$166, DW_AT_decl_column(0x0d)
    2887                    
    2888                    $C$DW$167       .dwtag  DW_TAG_enumerator
    2889                            .dwattr $C$DW$167, DW_AT_name("PCS2")
    2890                            .dwattr $C$DW$167, DW_AT_const_value(0x02)
    2891                            .dwattr $C$DW$167, DW_AT_decl_file("C:/Users/bob/Documents/Projects/induct_forge/RM57Lx_test/P
    2892                            .dwattr $C$DW$167, DW_AT_decl_line(0x62)
    2893                            .dwattr $C$DW$167, DW_AT_decl_column(0x13)
    2894                    
    2895                    $C$DW$168       .dwtag  DW_TAG_enumerator
    2896                            .dwattr $C$DW$168, DW_AT_name("PCS3")
    2897                            .dwattr $C$DW$168, DW_AT_const_value(0x03)
    2898                            .dwattr $C$DW$168, DW_AT_decl_file("C:/Users/bob/Documents/Projects/induct_forge/RM57Lx_test/P
    2899                            .dwattr $C$DW$168, DW_AT_decl_line(0x62)
    2900                            .dwattr $C$DW$168, DW_AT_decl_column(0x19)
    2901                    
    2902                    $C$DW$169       .dwtag  DW_TAG_enumerator
    2903                            .dwattr $C$DW$169, DW_AT_name("PCS4")
    2904                            .dwattr $C$DW$169, DW_AT_const_value(0x04)
    2905                            .dwattr $C$DW$169, DW_AT_decl_file("C:/Users/bob/Documents/Projects/induct_forge/RM57Lx_test/P
    2906                            .dwattr $C$DW$169, DW_AT_decl_line(0x63)
    2907                            .dwattr $C$DW$169, DW_AT_decl_column(0x02)
    2908                    
    2909                    $C$DW$170       .dwtag  DW_TAG_enumerator
    2910                            .dwattr $C$DW$170, DW_AT_name("PCS5")
    2911                            .dwattr $C$DW$170, DW_AT_const_value(0x05)
    2912                            .dwattr $C$DW$170, DW_AT_decl_file("C:/Users/bob/Documents/Projects/induct_forge/RM57Lx_test/P
    2913                            .dwattr $C$DW$170, DW_AT_decl_line(0x63)
    2914                            .dwattr $C$DW$170, DW_AT_decl_column(0x09)
    2915                    
TI ARM Assembler PC v16.9.0 Thu Feb 16 13:27:12 2017

Tools Copyright (c) 1996-2015 Texas Instruments Incorporated
C:\Users\bob\AppData\Local\Temp\1183610                              PAGE   54

    2916                    $C$DW$171       .dwtag  DW_TAG_enumerator
    2917                            .dwattr $C$DW$171, DW_AT_name("PCS6")
    2918                            .dwattr $C$DW$171, DW_AT_const_value(0x06)
    2919                            .dwattr $C$DW$171, DW_AT_decl_file("C:/Users/bob/Documents/Projects/induct_forge/RM57Lx_test/P
    2920                            .dwattr $C$DW$171, DW_AT_decl_line(0x63)
    2921                            .dwattr $C$DW$171, DW_AT_decl_column(0x0f)
    2922                    
    2923                    $C$DW$172       .dwtag  DW_TAG_enumerator
    2924                            .dwattr $C$DW$172, DW_AT_name("PCS7")
    2925                            .dwattr $C$DW$172, DW_AT_const_value(0x07)
    2926                            .dwattr $C$DW$172, DW_AT_decl_file("C:/Users/bob/Documents/Projects/induct_forge/RM57Lx_test/P
    2927                            .dwattr $C$DW$172, DW_AT_decl_line(0x63)
    2928                            .dwattr $C$DW$172, DW_AT_decl_column(0x15)
    2929                    
    2930                    $C$DW$173       .dwtag  DW_TAG_enumerator
    2931                            .dwattr $C$DW$173, DW_AT_name("PCS8")
    2932                            .dwattr $C$DW$173, DW_AT_const_value(0x08)
    2933                            .dwattr $C$DW$173, DW_AT_decl_file("C:/Users/bob/Documents/Projects/induct_forge/RM57Lx_test/P
    2934                            .dwattr $C$DW$173, DW_AT_decl_line(0x64)
    2935                            .dwattr $C$DW$173, DW_AT_decl_column(0x02)
    2936                    
    2937                    $C$DW$174       .dwtag  DW_TAG_enumerator
    2938                            .dwattr $C$DW$174, DW_AT_name("PCS9")
    2939                            .dwattr $C$DW$174, DW_AT_const_value(0x09)
    2940                            .dwattr $C$DW$174, DW_AT_decl_file("C:/Users/bob/Documents/Projects/induct_forge/RM57Lx_test/P
    2941                            .dwattr $C$DW$174, DW_AT_decl_line(0x64)
    2942                            .dwattr $C$DW$174, DW_AT_decl_column(0x09)
    2943                    
    2944                    $C$DW$175       .dwtag  DW_TAG_enumerator
    2945                            .dwattr $C$DW$175, DW_AT_name("PCS10")
    2946                            .dwattr $C$DW$175, DW_AT_const_value(0x0a)
    2947                            .dwattr $C$DW$175, DW_AT_decl_file("C:/Users/bob/Documents/Projects/induct_forge/RM57Lx_test/P
    2948                            .dwattr $C$DW$175, DW_AT_decl_line(0x64)
    2949                            .dwattr $C$DW$175, DW_AT_decl_column(0x0f)
    2950                    
    2951                    $C$DW$176       .dwtag  DW_TAG_enumerator
    2952                            .dwattr $C$DW$176, DW_AT_name("PCS11")
    2953                            .dwattr $C$DW$176, DW_AT_const_value(0x0b)
    2954                            .dwattr $C$DW$176, DW_AT_decl_file("C:/Users/bob/Documents/Projects/induct_forge/RM57Lx_test/P
    2955                            .dwattr $C$DW$176, DW_AT_decl_line(0x64)
    2956                            .dwattr $C$DW$176, DW_AT_decl_column(0x16)
    2957                    
    2958                    $C$DW$177       .dwtag  DW_TAG_enumerator
    2959                            .dwattr $C$DW$177, DW_AT_name("PCS12")
    2960                            .dwattr $C$DW$177, DW_AT_const_value(0x0c)
    2961                            .dwattr $C$DW$177, DW_AT_decl_file("C:/Users/bob/Documents/Projects/induct_forge/RM57Lx_test/P
    2962                            .dwattr $C$DW$177, DW_AT_decl_line(0x65)
    2963                            .dwattr $C$DW$177, DW_AT_decl_column(0x02)
    2964                    
    2965                    $C$DW$178       .dwtag  DW_TAG_enumerator
    2966                            .dwattr $C$DW$178, DW_AT_name("PCS13")
    2967                            .dwattr $C$DW$178, DW_AT_const_value(0x0d)
    2968                            .dwattr $C$DW$178, DW_AT_decl_file("C:/Users/bob/Documents/Projects/induct_forge/RM57Lx_test/P
    2969                            .dwattr $C$DW$178, DW_AT_decl_line(0x65)
    2970                            .dwattr $C$DW$178, DW_AT_decl_column(0x0a)
TI ARM Assembler PC v16.9.0 Thu Feb 16 13:27:12 2017

Tools Copyright (c) 1996-2015 Texas Instruments Incorporated
C:\Users\bob\AppData\Local\Temp\1183610                              PAGE   55

    2971                    
    2972                    $C$DW$179       .dwtag  DW_TAG_enumerator
    2973                            .dwattr $C$DW$179, DW_AT_name("PCS14")
    2974                            .dwattr $C$DW$179, DW_AT_const_value(0x0e)
    2975                            .dwattr $C$DW$179, DW_AT_decl_file("C:/Users/bob/Documents/Projects/induct_forge/RM57Lx_test/P
    2976                            .dwattr $C$DW$179, DW_AT_decl_line(0x65)
    2977                            .dwattr $C$DW$179, DW_AT_decl_column(0x11)
    2978                    
    2979                    $C$DW$180       .dwtag  DW_TAG_enumerator
    2980                            .dwattr $C$DW$180, DW_AT_name("PCS15")
    2981                            .dwattr $C$DW$180, DW_AT_const_value(0x0f)
    2982                            .dwattr $C$DW$180, DW_AT_decl_file("C:/Users/bob/Documents/Projects/induct_forge/RM57Lx_test/P
    2983                            .dwattr $C$DW$180, DW_AT_decl_line(0x65)
    2984                            .dwattr $C$DW$180, DW_AT_decl_column(0x18)
    2985                    
    2986                    $C$DW$181       .dwtag  DW_TAG_enumerator
    2987                            .dwattr $C$DW$181, DW_AT_name("PCS16")
    2988                            .dwattr $C$DW$181, DW_AT_const_value(0x10)
    2989                            .dwattr $C$DW$181, DW_AT_decl_file("C:/Users/bob/Documents/Projects/induct_forge/RM57Lx_test/P
    2990                            .dwattr $C$DW$181, DW_AT_decl_line(0x66)
    2991                            .dwattr $C$DW$181, DW_AT_decl_column(0x02)
    2992                    
    2993                    $C$DW$182       .dwtag  DW_TAG_enumerator
    2994                            .dwattr $C$DW$182, DW_AT_name("PCS17")
    2995                            .dwattr $C$DW$182, DW_AT_const_value(0x11)
    2996                            .dwattr $C$DW$182, DW_AT_decl_file("C:/Users/bob/Documents/Projects/induct_forge/RM57Lx_test/P
    2997                            .dwattr $C$DW$182, DW_AT_decl_line(0x66)
    2998                            .dwattr $C$DW$182, DW_AT_decl_column(0x0a)
    2999                    
    3000                    $C$DW$183       .dwtag  DW_TAG_enumerator
    3001                            .dwattr $C$DW$183, DW_AT_name("PCS18")
    3002                            .dwattr $C$DW$183, DW_AT_const_value(0x12)
    3003                            .dwattr $C$DW$183, DW_AT_decl_file("C:/Users/bob/Documents/Projects/induct_forge/RM57Lx_test/P
    3004                            .dwattr $C$DW$183, DW_AT_decl_line(0x66)
    3005                            .dwattr $C$DW$183, DW_AT_decl_column(0x11)
    3006                    
    3007                    $C$DW$184       .dwtag  DW_TAG_enumerator
    3008                            .dwattr $C$DW$184, DW_AT_name("PCS19")
    3009                            .dwattr $C$DW$184, DW_AT_const_value(0x13)
    3010                            .dwattr $C$DW$184, DW_AT_decl_file("C:/Users/bob/Documents/Projects/induct_forge/RM57Lx_test/P
    3011                            .dwattr $C$DW$184, DW_AT_decl_line(0x66)
    3012                            .dwattr $C$DW$184, DW_AT_decl_column(0x18)
    3013                    
    3014                    $C$DW$185       .dwtag  DW_TAG_enumerator
    3015                            .dwattr $C$DW$185, DW_AT_name("PCS20")
    3016                            .dwattr $C$DW$185, DW_AT_const_value(0x14)
    3017                            .dwattr $C$DW$185, DW_AT_decl_file("C:/Users/bob/Documents/Projects/induct_forge/RM57Lx_test/P
    3018                            .dwattr $C$DW$185, DW_AT_decl_line(0x67)
    3019                            .dwattr $C$DW$185, DW_AT_decl_column(0x02)
    3020                    
    3021                    $C$DW$186       .dwtag  DW_TAG_enumerator
    3022                            .dwattr $C$DW$186, DW_AT_name("PCS21")
    3023                            .dwattr $C$DW$186, DW_AT_const_value(0x15)
    3024                            .dwattr $C$DW$186, DW_AT_decl_file("C:/Users/bob/Documents/Projects/induct_forge/RM57Lx_test/P
    3025                            .dwattr $C$DW$186, DW_AT_decl_line(0x67)
TI ARM Assembler PC v16.9.0 Thu Feb 16 13:27:12 2017

Tools Copyright (c) 1996-2015 Texas Instruments Incorporated
C:\Users\bob\AppData\Local\Temp\1183610                              PAGE   56

    3026                            .dwattr $C$DW$186, DW_AT_decl_column(0x0a)
    3027                    
    3028                    $C$DW$187       .dwtag  DW_TAG_enumerator
    3029                            .dwattr $C$DW$187, DW_AT_name("PCS22")
    3030                            .dwattr $C$DW$187, DW_AT_const_value(0x16)
    3031                            .dwattr $C$DW$187, DW_AT_decl_file("C:/Users/bob/Documents/Projects/induct_forge/RM57Lx_test/P
    3032                            .dwattr $C$DW$187, DW_AT_decl_line(0x67)
    3033                            .dwattr $C$DW$187, DW_AT_decl_column(0x11)
    3034                    
    3035                    $C$DW$188       .dwtag  DW_TAG_enumerator
    3036                            .dwattr $C$DW$188, DW_AT_name("PCS23")
    3037                            .dwattr $C$DW$188, DW_AT_const_value(0x17)
    3038                            .dwattr $C$DW$188, DW_AT_decl_file("C:/Users/bob/Documents/Projects/induct_forge/RM57Lx_test/P
    3039                            .dwattr $C$DW$188, DW_AT_decl_line(0x67)
    3040                            .dwattr $C$DW$188, DW_AT_decl_column(0x18)
    3041                    
    3042                    $C$DW$189       .dwtag  DW_TAG_enumerator
    3043                            .dwattr $C$DW$189, DW_AT_name("PCS24")
    3044                            .dwattr $C$DW$189, DW_AT_const_value(0x18)
    3045                            .dwattr $C$DW$189, DW_AT_decl_file("C:/Users/bob/Documents/Projects/induct_forge/RM57Lx_test/P
    3046                            .dwattr $C$DW$189, DW_AT_decl_line(0x68)
    3047                            .dwattr $C$DW$189, DW_AT_decl_column(0x02)
    3048                    
    3049                    $C$DW$190       .dwtag  DW_TAG_enumerator
    3050                            .dwattr $C$DW$190, DW_AT_name("PCS25")
    3051                            .dwattr $C$DW$190, DW_AT_const_value(0x19)
    3052                            .dwattr $C$DW$190, DW_AT_decl_file("C:/Users/bob/Documents/Projects/induct_forge/RM57Lx_test/P
    3053                            .dwattr $C$DW$190, DW_AT_decl_line(0x68)
    3054                            .dwattr $C$DW$190, DW_AT_decl_column(0x0a)
    3055                    
    3056                    $C$DW$191       .dwtag  DW_TAG_enumerator
    3057                            .dwattr $C$DW$191, DW_AT_name("PCS26")
    3058                            .dwattr $C$DW$191, DW_AT_const_value(0x1a)
    3059                            .dwattr $C$DW$191, DW_AT_decl_file("C:/Users/bob/Documents/Projects/induct_forge/RM57Lx_test/P
    3060                            .dwattr $C$DW$191, DW_AT_decl_line(0x68)
    3061                            .dwattr $C$DW$191, DW_AT_decl_column(0x11)
    3062                    
    3063                    $C$DW$192       .dwtag  DW_TAG_enumerator
    3064                            .dwattr $C$DW$192, DW_AT_name("PCS27")
    3065                            .dwattr $C$DW$192, DW_AT_const_value(0x1b)
    3066                            .dwattr $C$DW$192, DW_AT_decl_file("C:/Users/bob/Documents/Projects/induct_forge/RM57Lx_test/P
    3067                            .dwattr $C$DW$192, DW_AT_decl_line(0x68)
    3068                            .dwattr $C$DW$192, DW_AT_decl_column(0x18)
    3069                    
    3070                    $C$DW$193       .dwtag  DW_TAG_enumerator
    3071                            .dwattr $C$DW$193, DW_AT_name("PCS28")
    3072                            .dwattr $C$DW$193, DW_AT_const_value(0x1c)
    3073                            .dwattr $C$DW$193, DW_AT_decl_file("C:/Users/bob/Documents/Projects/induct_forge/RM57Lx_test/P
    3074                            .dwattr $C$DW$193, DW_AT_decl_line(0x69)
    3075                            .dwattr $C$DW$193, DW_AT_decl_column(0x02)
    3076                    
    3077                    $C$DW$194       .dwtag  DW_TAG_enumerator
    3078                            .dwattr $C$DW$194, DW_AT_name("PCS29")
    3079                            .dwattr $C$DW$194, DW_AT_const_value(0x1d)
    3080                            .dwattr $C$DW$194, DW_AT_decl_file("C:/Users/bob/Documents/Projects/induct_forge/RM57Lx_test/P
TI ARM Assembler PC v16.9.0 Thu Feb 16 13:27:12 2017

Tools Copyright (c) 1996-2015 Texas Instruments Incorporated
C:\Users\bob\AppData\Local\Temp\1183610                              PAGE   57

    3081                            .dwattr $C$DW$194, DW_AT_decl_line(0x69)
    3082                            .dwattr $C$DW$194, DW_AT_decl_column(0x0a)
    3083                    
    3084                    $C$DW$195       .dwtag  DW_TAG_enumerator
    3085                            .dwattr $C$DW$195, DW_AT_name("PCS30")
    3086                            .dwattr $C$DW$195, DW_AT_const_value(0x1e)
    3087                            .dwattr $C$DW$195, DW_AT_decl_file("C:/Users/bob/Documents/Projects/induct_forge/RM57Lx_test/P
    3088                            .dwattr $C$DW$195, DW_AT_decl_line(0x69)
    3089                            .dwattr $C$DW$195, DW_AT_decl_column(0x11)
    3090                    
    3091                    $C$DW$196       .dwtag  DW_TAG_enumerator
    3092                            .dwattr $C$DW$196, DW_AT_name("PCS31")
    3093                            .dwattr $C$DW$196, DW_AT_const_value(0x1f)
    3094                            .dwattr $C$DW$196, DW_AT_decl_file("C:/Users/bob/Documents/Projects/induct_forge/RM57Lx_test/P
    3095                            .dwattr $C$DW$196, DW_AT_decl_line(0x69)
    3096                            .dwattr $C$DW$196, DW_AT_decl_column(0x18)
    3097                    
    3098                    $C$DW$197       .dwtag  DW_TAG_enumerator
    3099                            .dwattr $C$DW$197, DW_AT_name("PCS32")
    3100                            .dwattr $C$DW$197, DW_AT_const_value(0x20)
    3101                            .dwattr $C$DW$197, DW_AT_decl_file("C:/Users/bob/Documents/Projects/induct_forge/RM57Lx_test/P
    3102                            .dwattr $C$DW$197, DW_AT_decl_line(0x6a)
    3103                            .dwattr $C$DW$197, DW_AT_decl_column(0x02)
    3104                    
    3105                    $C$DW$198       .dwtag  DW_TAG_enumerator
    3106                            .dwattr $C$DW$198, DW_AT_name("PCS33")
    3107                            .dwattr $C$DW$198, DW_AT_const_value(0x21)
    3108                            .dwattr $C$DW$198, DW_AT_decl_file("C:/Users/bob/Documents/Projects/induct_forge/RM57Lx_test/P
    3109                            .dwattr $C$DW$198, DW_AT_decl_line(0x6a)
    3110                            .dwattr $C$DW$198, DW_AT_decl_column(0x0a)
    3111                    
    3112                    $C$DW$199       .dwtag  DW_TAG_enumerator
    3113                            .dwattr $C$DW$199, DW_AT_name("PCS34")
    3114                            .dwattr $C$DW$199, DW_AT_const_value(0x22)
    3115                            .dwattr $C$DW$199, DW_AT_decl_file("C:/Users/bob/Documents/Projects/induct_forge/RM57Lx_test/P
    3116                            .dwattr $C$DW$199, DW_AT_decl_line(0x6a)
    3117                            .dwattr $C$DW$199, DW_AT_decl_column(0x11)
    3118                    
    3119                    $C$DW$200       .dwtag  DW_TAG_enumerator
    3120                            .dwattr $C$DW$200, DW_AT_name("PCS35")
    3121                            .dwattr $C$DW$200, DW_AT_const_value(0x23)
    3122                            .dwattr $C$DW$200, DW_AT_decl_file("C:/Users/bob/Documents/Projects/induct_forge/RM57Lx_test/P
    3123                            .dwattr $C$DW$200, DW_AT_decl_line(0x6a)
    3124                            .dwattr $C$DW$200, DW_AT_decl_column(0x18)
    3125                    
    3126                    $C$DW$201       .dwtag  DW_TAG_enumerator
    3127                            .dwattr $C$DW$201, DW_AT_name("PCS36")
    3128                            .dwattr $C$DW$201, DW_AT_const_value(0x24)
    3129                            .dwattr $C$DW$201, DW_AT_decl_file("C:/Users/bob/Documents/Projects/induct_forge/RM57Lx_test/P
    3130                            .dwattr $C$DW$201, DW_AT_decl_line(0x6b)
    3131                            .dwattr $C$DW$201, DW_AT_decl_column(0x02)
    3132                    
    3133                    $C$DW$202       .dwtag  DW_TAG_enumerator
    3134                            .dwattr $C$DW$202, DW_AT_name("PCS37")
    3135                            .dwattr $C$DW$202, DW_AT_const_value(0x25)
TI ARM Assembler PC v16.9.0 Thu Feb 16 13:27:12 2017

Tools Copyright (c) 1996-2015 Texas Instruments Incorporated
C:\Users\bob\AppData\Local\Temp\1183610                              PAGE   58

    3136                            .dwattr $C$DW$202, DW_AT_decl_file("C:/Users/bob/Documents/Projects/induct_forge/RM57Lx_test/P
    3137                            .dwattr $C$DW$202, DW_AT_decl_line(0x6b)
    3138                            .dwattr $C$DW$202, DW_AT_decl_column(0x0a)
    3139                    
    3140                    $C$DW$203       .dwtag  DW_TAG_enumerator
    3141                            .dwattr $C$DW$203, DW_AT_name("PCS38")
    3142                            .dwattr $C$DW$203, DW_AT_const_value(0x26)
    3143                            .dwattr $C$DW$203, DW_AT_decl_file("C:/Users/bob/Documents/Projects/induct_forge/RM57Lx_test/P
    3144                            .dwattr $C$DW$203, DW_AT_decl_line(0x6b)
    3145                            .dwattr $C$DW$203, DW_AT_decl_column(0x11)
    3146                    
    3147                    $C$DW$204       .dwtag  DW_TAG_enumerator
    3148                            .dwattr $C$DW$204, DW_AT_name("PCS39")
    3149                            .dwattr $C$DW$204, DW_AT_const_value(0x27)
    3150                            .dwattr $C$DW$204, DW_AT_decl_file("C:/Users/bob/Documents/Projects/induct_forge/RM57Lx_test/P
    3151                            .dwattr $C$DW$204, DW_AT_decl_line(0x6b)
    3152                            .dwattr $C$DW$204, DW_AT_decl_column(0x18)
    3153                    
    3154                    $C$DW$205       .dwtag  DW_TAG_enumerator
    3155                            .dwattr $C$DW$205, DW_AT_name("PCS40")
    3156                            .dwattr $C$DW$205, DW_AT_const_value(0x28)
    3157                            .dwattr $C$DW$205, DW_AT_decl_file("C:/Users/bob/Documents/Projects/induct_forge/RM57Lx_test/P
    3158                            .dwattr $C$DW$205, DW_AT_decl_line(0x6c)
    3159                            .dwattr $C$DW$205, DW_AT_decl_column(0x02)
    3160                    
    3161                    $C$DW$206       .dwtag  DW_TAG_enumerator
    3162                            .dwattr $C$DW$206, DW_AT_name("PCS41")
    3163                            .dwattr $C$DW$206, DW_AT_const_value(0x29)
    3164                            .dwattr $C$DW$206, DW_AT_decl_file("C:/Users/bob/Documents/Projects/induct_forge/RM57Lx_test/P
    3165                            .dwattr $C$DW$206, DW_AT_decl_line(0x6c)
    3166                            .dwattr $C$DW$206, DW_AT_decl_column(0x0a)
    3167                    
    3168                    $C$DW$207       .dwtag  DW_TAG_enumerator
    3169                            .dwattr $C$DW$207, DW_AT_name("PCS42")
    3170                            .dwattr $C$DW$207, DW_AT_const_value(0x2a)
    3171                            .dwattr $C$DW$207, DW_AT_decl_file("C:/Users/bob/Documents/Projects/induct_forge/RM57Lx_test/P
    3172                            .dwattr $C$DW$207, DW_AT_decl_line(0x6c)
    3173                            .dwattr $C$DW$207, DW_AT_decl_column(0x11)
    3174                    
    3175                    $C$DW$208       .dwtag  DW_TAG_enumerator
    3176                            .dwattr $C$DW$208, DW_AT_name("PCS43")
    3177                            .dwattr $C$DW$208, DW_AT_const_value(0x2b)
    3178                            .dwattr $C$DW$208, DW_AT_decl_file("C:/Users/bob/Documents/Projects/induct_forge/RM57Lx_test/P
    3179                            .dwattr $C$DW$208, DW_AT_decl_line(0x6c)
    3180                            .dwattr $C$DW$208, DW_AT_decl_column(0x18)
    3181                    
    3182                    $C$DW$209       .dwtag  DW_TAG_enumerator
    3183                            .dwattr $C$DW$209, DW_AT_name("PCS44")
    3184                            .dwattr $C$DW$209, DW_AT_const_value(0x2c)
    3185                            .dwattr $C$DW$209, DW_AT_decl_file("C:/Users/bob/Documents/Projects/induct_forge/RM57Lx_test/P
    3186                            .dwattr $C$DW$209, DW_AT_decl_line(0x6d)
    3187                            .dwattr $C$DW$209, DW_AT_decl_column(0x02)
    3188                    
    3189                    $C$DW$210       .dwtag  DW_TAG_enumerator
    3190                            .dwattr $C$DW$210, DW_AT_name("PCS45")
TI ARM Assembler PC v16.9.0 Thu Feb 16 13:27:12 2017

Tools Copyright (c) 1996-2015 Texas Instruments Incorporated
C:\Users\bob\AppData\Local\Temp\1183610                              PAGE   59

    3191                            .dwattr $C$DW$210, DW_AT_const_value(0x2d)
    3192                            .dwattr $C$DW$210, DW_AT_decl_file("C:/Users/bob/Documents/Projects/induct_forge/RM57Lx_test/P
    3193                            .dwattr $C$DW$210, DW_AT_decl_line(0x6d)
    3194                            .dwattr $C$DW$210, DW_AT_decl_column(0x0a)
    3195                    
    3196                    $C$DW$211       .dwtag  DW_TAG_enumerator
    3197                            .dwattr $C$DW$211, DW_AT_name("PCS46")
    3198                            .dwattr $C$DW$211, DW_AT_const_value(0x2e)
    3199                            .dwattr $C$DW$211, DW_AT_decl_file("C:/Users/bob/Documents/Projects/induct_forge/RM57Lx_test/P
    3200                            .dwattr $C$DW$211, DW_AT_decl_line(0x6d)
    3201                            .dwattr $C$DW$211, DW_AT_decl_column(0x11)
    3202                    
    3203                    $C$DW$212       .dwtag  DW_TAG_enumerator
    3204                            .dwattr $C$DW$212, DW_AT_name("PCS47")
    3205                            .dwattr $C$DW$212, DW_AT_const_value(0x2f)
    3206                            .dwattr $C$DW$212, DW_AT_decl_file("C:/Users/bob/Documents/Projects/induct_forge/RM57Lx_test/P
    3207                            .dwattr $C$DW$212, DW_AT_decl_line(0x6d)
    3208                            .dwattr $C$DW$212, DW_AT_decl_column(0x18)
    3209                    
    3210                    $C$DW$213       .dwtag  DW_TAG_enumerator
    3211                            .dwattr $C$DW$213, DW_AT_name("PCS48")
    3212                            .dwattr $C$DW$213, DW_AT_const_value(0x30)
    3213                            .dwattr $C$DW$213, DW_AT_decl_file("C:/Users/bob/Documents/Projects/induct_forge/RM57Lx_test/P
    3214                            .dwattr $C$DW$213, DW_AT_decl_line(0x6e)
    3215                            .dwattr $C$DW$213, DW_AT_decl_column(0x02)
    3216                    
    3217                    $C$DW$214       .dwtag  DW_TAG_enumerator
    3218                            .dwattr $C$DW$214, DW_AT_name("PCS49")
    3219                            .dwattr $C$DW$214, DW_AT_const_value(0x31)
    3220                            .dwattr $C$DW$214, DW_AT_decl_file("C:/Users/bob/Documents/Projects/induct_forge/RM57Lx_test/P
    3221                            .dwattr $C$DW$214, DW_AT_decl_line(0x6e)
    3222                            .dwattr $C$DW$214, DW_AT_decl_column(0x0a)
    3223                    
    3224                    $C$DW$215       .dwtag  DW_TAG_enumerator
    3225                            .dwattr $C$DW$215, DW_AT_name("PCS50")
    3226                            .dwattr $C$DW$215, DW_AT_const_value(0x32)
    3227                            .dwattr $C$DW$215, DW_AT_decl_file("C:/Users/bob/Documents/Projects/induct_forge/RM57Lx_test/P
    3228                            .dwattr $C$DW$215, DW_AT_decl_line(0x6e)
    3229                            .dwattr $C$DW$215, DW_AT_decl_column(0x11)
    3230                    
    3231                    $C$DW$216       .dwtag  DW_TAG_enumerator
    3232                            .dwattr $C$DW$216, DW_AT_name("PCS51")
    3233                            .dwattr $C$DW$216, DW_AT_const_value(0x33)
    3234                            .dwattr $C$DW$216, DW_AT_decl_file("C:/Users/bob/Documents/Projects/induct_forge/RM57Lx_test/P
    3235                            .dwattr $C$DW$216, DW_AT_decl_line(0x6e)
    3236                            .dwattr $C$DW$216, DW_AT_decl_column(0x18)
    3237                    
    3238                    $C$DW$217       .dwtag  DW_TAG_enumerator
    3239                            .dwattr $C$DW$217, DW_AT_name("PCS52")
    3240                            .dwattr $C$DW$217, DW_AT_const_value(0x34)
    3241                            .dwattr $C$DW$217, DW_AT_decl_file("C:/Users/bob/Documents/Projects/induct_forge/RM57Lx_test/P
    3242                            .dwattr $C$DW$217, DW_AT_decl_line(0x6f)
    3243                            .dwattr $C$DW$217, DW_AT_decl_column(0x02)
    3244                    
    3245                    $C$DW$218       .dwtag  DW_TAG_enumerator
TI ARM Assembler PC v16.9.0 Thu Feb 16 13:27:12 2017

Tools Copyright (c) 1996-2015 Texas Instruments Incorporated
C:\Users\bob\AppData\Local\Temp\1183610                              PAGE   60

    3246                            .dwattr $C$DW$218, DW_AT_name("PCS53")
    3247                            .dwattr $C$DW$218, DW_AT_const_value(0x35)
    3248                            .dwattr $C$DW$218, DW_AT_decl_file("C:/Users/bob/Documents/Projects/induct_forge/RM57Lx_test/P
    3249                            .dwattr $C$DW$218, DW_AT_decl_line(0x6f)
    3250                            .dwattr $C$DW$218, DW_AT_decl_column(0x0a)
    3251                    
    3252                    $C$DW$219       .dwtag  DW_TAG_enumerator
    3253                            .dwattr $C$DW$219, DW_AT_name("PCS54")
    3254                            .dwattr $C$DW$219, DW_AT_const_value(0x36)
    3255                            .dwattr $C$DW$219, DW_AT_decl_file("C:/Users/bob/Documents/Projects/induct_forge/RM57Lx_test/P
    3256                            .dwattr $C$DW$219, DW_AT_decl_line(0x6f)
    3257                            .dwattr $C$DW$219, DW_AT_decl_column(0x11)
    3258                    
    3259                    $C$DW$220       .dwtag  DW_TAG_enumerator
    3260                            .dwattr $C$DW$220, DW_AT_name("PCS55")
    3261                            .dwattr $C$DW$220, DW_AT_const_value(0x37)
    3262                            .dwattr $C$DW$220, DW_AT_decl_file("C:/Users/bob/Documents/Projects/induct_forge/RM57Lx_test/P
    3263                            .dwattr $C$DW$220, DW_AT_decl_line(0x6f)
    3264                            .dwattr $C$DW$220, DW_AT_decl_column(0x18)
    3265                    
    3266                    $C$DW$221       .dwtag  DW_TAG_enumerator
    3267                            .dwattr $C$DW$221, DW_AT_name("PCS56")
    3268                            .dwattr $C$DW$221, DW_AT_const_value(0x38)
    3269                            .dwattr $C$DW$221, DW_AT_decl_file("C:/Users/bob/Documents/Projects/induct_forge/RM57Lx_test/P
    3270                            .dwattr $C$DW$221, DW_AT_decl_line(0x70)
    3271                            .dwattr $C$DW$221, DW_AT_decl_column(0x02)
    3272                    
    3273                    $C$DW$222       .dwtag  DW_TAG_enumerator
    3274                            .dwattr $C$DW$222, DW_AT_name("PCS57")
    3275                            .dwattr $C$DW$222, DW_AT_const_value(0x39)
    3276                            .dwattr $C$DW$222, DW_AT_decl_file("C:/Users/bob/Documents/Projects/induct_forge/RM57Lx_test/P
    3277                            .dwattr $C$DW$222, DW_AT_decl_line(0x70)
    3278                            .dwattr $C$DW$222, DW_AT_decl_column(0x0a)
    3279                    
    3280                    $C$DW$223       .dwtag  DW_TAG_enumerator
    3281                            .dwattr $C$DW$223, DW_AT_name("PCS58")
    3282                            .dwattr $C$DW$223, DW_AT_const_value(0x3a)
    3283                            .dwattr $C$DW$223, DW_AT_decl_file("C:/Users/bob/Documents/Projects/induct_forge/RM57Lx_test/P
    3284                            .dwattr $C$DW$223, DW_AT_decl_line(0x70)
    3285                            .dwattr $C$DW$223, DW_AT_decl_column(0x11)
    3286                    
    3287                    $C$DW$224       .dwtag  DW_TAG_enumerator
    3288                            .dwattr $C$DW$224, DW_AT_name("PCS59")
    3289                            .dwattr $C$DW$224, DW_AT_const_value(0x3b)
    3290                            .dwattr $C$DW$224, DW_AT_decl_file("C:/Users/bob/Documents/Projects/induct_forge/RM57Lx_test/P
    3291                            .dwattr $C$DW$224, DW_AT_decl_line(0x70)
    3292                            .dwattr $C$DW$224, DW_AT_decl_column(0x18)
    3293                    
    3294                    $C$DW$225       .dwtag  DW_TAG_enumerator
    3295                            .dwattr $C$DW$225, DW_AT_name("PCS60")
    3296                            .dwattr $C$DW$225, DW_AT_const_value(0x3c)
    3297                            .dwattr $C$DW$225, DW_AT_decl_file("C:/Users/bob/Documents/Projects/induct_forge/RM57Lx_test/P
    3298                            .dwattr $C$DW$225, DW_AT_decl_line(0x71)
    3299                            .dwattr $C$DW$225, DW_AT_decl_column(0x02)
    3300                    
TI ARM Assembler PC v16.9.0 Thu Feb 16 13:27:12 2017

Tools Copyright (c) 1996-2015 Texas Instruments Incorporated
C:\Users\bob\AppData\Local\Temp\1183610                              PAGE   61

    3301                    $C$DW$226       .dwtag  DW_TAG_enumerator
    3302                            .dwattr $C$DW$226, DW_AT_name("PCS61")
    3303                            .dwattr $C$DW$226, DW_AT_const_value(0x3d)
    3304                            .dwattr $C$DW$226, DW_AT_decl_file("C:/Users/bob/Documents/Projects/induct_forge/RM57Lx_test/P
    3305                            .dwattr $C$DW$226, DW_AT_decl_line(0x71)
    3306                            .dwattr $C$DW$226, DW_AT_decl_column(0x0a)
    3307                    
    3308                    $C$DW$227       .dwtag  DW_TAG_enumerator
    3309                            .dwattr $C$DW$227, DW_AT_name("PCS62")
    3310                            .dwattr $C$DW$227, DW_AT_const_value(0x3e)
    3311                            .dwattr $C$DW$227, DW_AT_decl_file("C:/Users/bob/Documents/Projects/induct_forge/RM57Lx_test/P
    3312                            .dwattr $C$DW$227, DW_AT_decl_line(0x71)
    3313                            .dwattr $C$DW$227, DW_AT_decl_column(0x11)
    3314                    
    3315                    $C$DW$228       .dwtag  DW_TAG_enumerator
    3316                            .dwattr $C$DW$228, DW_AT_name("PCS63")
    3317                            .dwattr $C$DW$228, DW_AT_const_value(0x3f)
    3318                            .dwattr $C$DW$228, DW_AT_decl_file("C:/Users/bob/Documents/Projects/induct_forge/RM57Lx_test/P
    3319                            .dwattr $C$DW$228, DW_AT_decl_line(0x71)
    3320                            .dwattr $C$DW$228, DW_AT_decl_column(0x18)
    3321                    
    3322                            .dwattr $C$DW$T$34, DW_AT_decl_file("C:/Users/bob/Documents/Projects/induct_forge/RM57Lx_test/
    3323                            .dwattr $C$DW$T$34, DW_AT_decl_line(0x61)
    3324                            .dwattr $C$DW$T$34, DW_AT_decl_column(0x01)
    3325                            .dwendtag $C$DW$T$34
    3326                    
    3327                    $C$DW$T$35      .dwtag  DW_TAG_typedef
    3328                            .dwattr $C$DW$T$35, DW_AT_name("peripheral_Memory_t")
    3329                            .dwattr $C$DW$T$35, DW_AT_type(*$C$DW$T$34)
    3330                            .dwattr $C$DW$T$35, DW_AT_language(DW_LANG_C)
    3331                            .dwattr $C$DW$T$35, DW_AT_decl_file("C:/Users/bob/Documents/Projects/induct_forge/RM57Lx_test/
    3332                            .dwattr $C$DW$T$35, DW_AT_decl_line(0x72)
    3333                            .dwattr $C$DW$T$35, DW_AT_decl_column(0x02)
    3334                    
    3335                    
    3336                    $C$DW$T$36      .dwtag  DW_TAG_enumeration_type
    3337                            .dwattr $C$DW$T$36, DW_AT_byte_size(0x01)
    3338                    $C$DW$229       .dwtag  DW_TAG_enumerator
    3339                            .dwattr $C$DW$229, DW_AT_name("PS0")
    3340                            .dwattr $C$DW$229, DW_AT_const_value(0x00)
    3341                            .dwattr $C$DW$229, DW_AT_decl_file("C:/Users/bob/Documents/Projects/induct_forge/RM57Lx_test/P
    3342                            .dwattr $C$DW$229, DW_AT_decl_line(0x44)
    3343                            .dwattr $C$DW$229, DW_AT_decl_column(0x02)
    3344                    
    3345                    $C$DW$230       .dwtag  DW_TAG_enumerator
    3346                            .dwattr $C$DW$230, DW_AT_name("PS1")
    3347                            .dwattr $C$DW$230, DW_AT_const_value(0x01)
    3348                            .dwattr $C$DW$230, DW_AT_decl_file("C:/Users/bob/Documents/Projects/induct_forge/RM57Lx_test/P
    3349                            .dwattr $C$DW$230, DW_AT_decl_line(0x44)
    3350                            .dwattr $C$DW$230, DW_AT_decl_column(0x0c)
    3351                    
    3352                    $C$DW$231       .dwtag  DW_TAG_enumerator
    3353                            .dwattr $C$DW$231, DW_AT_name("PS2")
    3354                            .dwattr $C$DW$231, DW_AT_const_value(0x02)
    3355                            .dwattr $C$DW$231, DW_AT_decl_file("C:/Users/bob/Documents/Projects/induct_forge/RM57Lx_test/P
TI ARM Assembler PC v16.9.0 Thu Feb 16 13:27:12 2017

Tools Copyright (c) 1996-2015 Texas Instruments Incorporated
C:\Users\bob\AppData\Local\Temp\1183610                              PAGE   62

    3356                            .dwattr $C$DW$231, DW_AT_decl_line(0x44)
    3357                            .dwattr $C$DW$231, DW_AT_decl_column(0x11)
    3358                    
    3359                    $C$DW$232       .dwtag  DW_TAG_enumerator
    3360                            .dwattr $C$DW$232, DW_AT_name("PS3")
    3361                            .dwattr $C$DW$232, DW_AT_const_value(0x03)
    3362                            .dwattr $C$DW$232, DW_AT_decl_file("C:/Users/bob/Documents/Projects/induct_forge/RM57Lx_test/P
    3363                            .dwattr $C$DW$232, DW_AT_decl_line(0x44)
    3364                            .dwattr $C$DW$232, DW_AT_decl_column(0x16)
    3365                    
    3366                    $C$DW$233       .dwtag  DW_TAG_enumerator
    3367                            .dwattr $C$DW$233, DW_AT_name("PS4")
    3368                            .dwattr $C$DW$233, DW_AT_const_value(0x04)
    3369                            .dwattr $C$DW$233, DW_AT_decl_file("C:/Users/bob/Documents/Projects/induct_forge/RM57Lx_test/P
    3370                            .dwattr $C$DW$233, DW_AT_decl_line(0x45)
    3371                            .dwattr $C$DW$233, DW_AT_decl_column(0x02)
    3372                    
    3373                    $C$DW$234       .dwtag  DW_TAG_enumerator
    3374                            .dwattr $C$DW$234, DW_AT_name("PS5")
    3375                            .dwattr $C$DW$234, DW_AT_const_value(0x05)
    3376                            .dwattr $C$DW$234, DW_AT_decl_file("C:/Users/bob/Documents/Projects/induct_forge/RM57Lx_test/P
    3377                            .dwattr $C$DW$234, DW_AT_decl_line(0x45)
    3378                            .dwattr $C$DW$234, DW_AT_decl_column(0x08)
    3379                    
    3380                    $C$DW$235       .dwtag  DW_TAG_enumerator
    3381                            .dwattr $C$DW$235, DW_AT_name("PS6")
    3382                            .dwattr $C$DW$235, DW_AT_const_value(0x06)
    3383                            .dwattr $C$DW$235, DW_AT_decl_file("C:/Users/bob/Documents/Projects/induct_forge/RM57Lx_test/P
    3384                            .dwattr $C$DW$235, DW_AT_decl_line(0x45)
    3385                            .dwattr $C$DW$235, DW_AT_decl_column(0x0d)
    3386                    
    3387                    $C$DW$236       .dwtag  DW_TAG_enumerator
    3388                            .dwattr $C$DW$236, DW_AT_name("PS7")
    3389                            .dwattr $C$DW$236, DW_AT_const_value(0x07)
    3390                            .dwattr $C$DW$236, DW_AT_decl_file("C:/Users/bob/Documents/Projects/induct_forge/RM57Lx_test/P
    3391                            .dwattr $C$DW$236, DW_AT_decl_line(0x45)
    3392                            .dwattr $C$DW$236, DW_AT_decl_column(0x12)
    3393                    
    3394                    $C$DW$237       .dwtag  DW_TAG_enumerator
    3395                            .dwattr $C$DW$237, DW_AT_name("PS8")
    3396                            .dwattr $C$DW$237, DW_AT_const_value(0x08)
    3397                            .dwattr $C$DW$237, DW_AT_decl_file("C:/Users/bob/Documents/Projects/induct_forge/RM57Lx_test/P
    3398                            .dwattr $C$DW$237, DW_AT_decl_line(0x46)
    3399                            .dwattr $C$DW$237, DW_AT_decl_column(0x02)
    3400                    
    3401                    $C$DW$238       .dwtag  DW_TAG_enumerator
    3402                            .dwattr $C$DW$238, DW_AT_name("PS9")
    3403                            .dwattr $C$DW$238, DW_AT_const_value(0x09)
    3404                            .dwattr $C$DW$238, DW_AT_decl_file("C:/Users/bob/Documents/Projects/induct_forge/RM57Lx_test/P
    3405                            .dwattr $C$DW$238, DW_AT_decl_line(0x46)
    3406                            .dwattr $C$DW$238, DW_AT_decl_column(0x08)
    3407                    
    3408                    $C$DW$239       .dwtag  DW_TAG_enumerator
    3409                            .dwattr $C$DW$239, DW_AT_name("PS10")
    3410                            .dwattr $C$DW$239, DW_AT_const_value(0x0a)
TI ARM Assembler PC v16.9.0 Thu Feb 16 13:27:12 2017

Tools Copyright (c) 1996-2015 Texas Instruments Incorporated
C:\Users\bob\AppData\Local\Temp\1183610                              PAGE   63

    3411                            .dwattr $C$DW$239, DW_AT_decl_file("C:/Users/bob/Documents/Projects/induct_forge/RM57Lx_test/P
    3412                            .dwattr $C$DW$239, DW_AT_decl_line(0x46)
    3413                            .dwattr $C$DW$239, DW_AT_decl_column(0x0d)
    3414                    
    3415                    $C$DW$240       .dwtag  DW_TAG_enumerator
    3416                            .dwattr $C$DW$240, DW_AT_name("PS11")
    3417                            .dwattr $C$DW$240, DW_AT_const_value(0x0b)
    3418                            .dwattr $C$DW$240, DW_AT_decl_file("C:/Users/bob/Documents/Projects/induct_forge/RM57Lx_test/P
    3419                            .dwattr $C$DW$240, DW_AT_decl_line(0x46)
    3420                            .dwattr $C$DW$240, DW_AT_decl_column(0x13)
    3421                    
    3422                    $C$DW$241       .dwtag  DW_TAG_enumerator
    3423                            .dwattr $C$DW$241, DW_AT_name("PS12")
    3424                            .dwattr $C$DW$241, DW_AT_const_value(0x0c)
    3425                            .dwattr $C$DW$241, DW_AT_decl_file("C:/Users/bob/Documents/Projects/induct_forge/RM57Lx_test/P
    3426                            .dwattr $C$DW$241, DW_AT_decl_line(0x47)
    3427                            .dwattr $C$DW$241, DW_AT_decl_column(0x02)
    3428                    
    3429                    $C$DW$242       .dwtag  DW_TAG_enumerator
    3430                            .dwattr $C$DW$242, DW_AT_name("PS13")
    3431                            .dwattr $C$DW$242, DW_AT_const_value(0x0d)
    3432                            .dwattr $C$DW$242, DW_AT_decl_file("C:/Users/bob/Documents/Projects/induct_forge/RM57Lx_test/P
    3433                            .dwattr $C$DW$242, DW_AT_decl_line(0x47)
    3434                            .dwattr $C$DW$242, DW_AT_decl_column(0x09)
    3435                    
    3436                    $C$DW$243       .dwtag  DW_TAG_enumerator
    3437                            .dwattr $C$DW$243, DW_AT_name("PS14")
    3438                            .dwattr $C$DW$243, DW_AT_const_value(0x0e)
    3439                            .dwattr $C$DW$243, DW_AT_decl_file("C:/Users/bob/Documents/Projects/induct_forge/RM57Lx_test/P
    3440                            .dwattr $C$DW$243, DW_AT_decl_line(0x47)
    3441                            .dwattr $C$DW$243, DW_AT_decl_column(0x0f)
    3442                    
    3443                    $C$DW$244       .dwtag  DW_TAG_enumerator
    3444                            .dwattr $C$DW$244, DW_AT_name("PS15")
    3445                            .dwattr $C$DW$244, DW_AT_const_value(0x0f)
    3446                            .dwattr $C$DW$244, DW_AT_decl_file("C:/Users/bob/Documents/Projects/induct_forge/RM57Lx_test/P
    3447                            .dwattr $C$DW$244, DW_AT_decl_line(0x47)
    3448                            .dwattr $C$DW$244, DW_AT_decl_column(0x15)
    3449                    
    3450                    $C$DW$245       .dwtag  DW_TAG_enumerator
    3451                            .dwattr $C$DW$245, DW_AT_name("PS16")
    3452                            .dwattr $C$DW$245, DW_AT_const_value(0x10)
    3453                            .dwattr $C$DW$245, DW_AT_decl_file("C:/Users/bob/Documents/Projects/induct_forge/RM57Lx_test/P
    3454                            .dwattr $C$DW$245, DW_AT_decl_line(0x48)
    3455                            .dwattr $C$DW$245, DW_AT_decl_column(0x02)
    3456                    
    3457                    $C$DW$246       .dwtag  DW_TAG_enumerator
    3458                            .dwattr $C$DW$246, DW_AT_name("PS17")
    3459                            .dwattr $C$DW$246, DW_AT_const_value(0x11)
    3460                            .dwattr $C$DW$246, DW_AT_decl_file("C:/Users/bob/Documents/Projects/induct_forge/RM57Lx_test/P
    3461                            .dwattr $C$DW$246, DW_AT_decl_line(0x48)
    3462                            .dwattr $C$DW$246, DW_AT_decl_column(0x09)
    3463                    
    3464                    $C$DW$247       .dwtag  DW_TAG_enumerator
    3465                            .dwattr $C$DW$247, DW_AT_name("PS18")
TI ARM Assembler PC v16.9.0 Thu Feb 16 13:27:12 2017

Tools Copyright (c) 1996-2015 Texas Instruments Incorporated
C:\Users\bob\AppData\Local\Temp\1183610                              PAGE   64

    3466                            .dwattr $C$DW$247, DW_AT_const_value(0x12)
    3467                            .dwattr $C$DW$247, DW_AT_decl_file("C:/Users/bob/Documents/Projects/induct_forge/RM57Lx_test/P
    3468                            .dwattr $C$DW$247, DW_AT_decl_line(0x48)
    3469                            .dwattr $C$DW$247, DW_AT_decl_column(0x0f)
    3470                    
    3471                    $C$DW$248       .dwtag  DW_TAG_enumerator
    3472                            .dwattr $C$DW$248, DW_AT_name("PS19")
    3473                            .dwattr $C$DW$248, DW_AT_const_value(0x13)
    3474                            .dwattr $C$DW$248, DW_AT_decl_file("C:/Users/bob/Documents/Projects/induct_forge/RM57Lx_test/P
    3475                            .dwattr $C$DW$248, DW_AT_decl_line(0x48)
    3476                            .dwattr $C$DW$248, DW_AT_decl_column(0x15)
    3477                    
    3478                    $C$DW$249       .dwtag  DW_TAG_enumerator
    3479                            .dwattr $C$DW$249, DW_AT_name("PS20")
    3480                            .dwattr $C$DW$249, DW_AT_const_value(0x14)
    3481                            .dwattr $C$DW$249, DW_AT_decl_file("C:/Users/bob/Documents/Projects/induct_forge/RM57Lx_test/P
    3482                            .dwattr $C$DW$249, DW_AT_decl_line(0x49)
    3483                            .dwattr $C$DW$249, DW_AT_decl_column(0x02)
    3484                    
    3485                    $C$DW$250       .dwtag  DW_TAG_enumerator
    3486                            .dwattr $C$DW$250, DW_AT_name("PS21")
    3487                            .dwattr $C$DW$250, DW_AT_const_value(0x15)
    3488                            .dwattr $C$DW$250, DW_AT_decl_file("C:/Users/bob/Documents/Projects/induct_forge/RM57Lx_test/P
    3489                            .dwattr $C$DW$250, DW_AT_decl_line(0x49)
    3490                            .dwattr $C$DW$250, DW_AT_decl_column(0x09)
    3491                    
    3492                    $C$DW$251       .dwtag  DW_TAG_enumerator
    3493                            .dwattr $C$DW$251, DW_AT_name("PS22")
    3494                            .dwattr $C$DW$251, DW_AT_const_value(0x16)
    3495                            .dwattr $C$DW$251, DW_AT_decl_file("C:/Users/bob/Documents/Projects/induct_forge/RM57Lx_test/P
    3496                            .dwattr $C$DW$251, DW_AT_decl_line(0x49)
    3497                            .dwattr $C$DW$251, DW_AT_decl_column(0x0f)
    3498                    
    3499                    $C$DW$252       .dwtag  DW_TAG_enumerator
    3500                            .dwattr $C$DW$252, DW_AT_name("PS23")
    3501                            .dwattr $C$DW$252, DW_AT_const_value(0x17)
    3502                            .dwattr $C$DW$252, DW_AT_decl_file("C:/Users/bob/Documents/Projects/induct_forge/RM57Lx_test/P
    3503                            .dwattr $C$DW$252, DW_AT_decl_line(0x49)
    3504                            .dwattr $C$DW$252, DW_AT_decl_column(0x15)
    3505                    
    3506                    $C$DW$253       .dwtag  DW_TAG_enumerator
    3507                            .dwattr $C$DW$253, DW_AT_name("PS24")
    3508                            .dwattr $C$DW$253, DW_AT_const_value(0x18)
    3509                            .dwattr $C$DW$253, DW_AT_decl_file("C:/Users/bob/Documents/Projects/induct_forge/RM57Lx_test/P
    3510                            .dwattr $C$DW$253, DW_AT_decl_line(0x4a)
    3511                            .dwattr $C$DW$253, DW_AT_decl_column(0x02)
    3512                    
    3513                    $C$DW$254       .dwtag  DW_TAG_enumerator
    3514                            .dwattr $C$DW$254, DW_AT_name("PS25")
    3515                            .dwattr $C$DW$254, DW_AT_const_value(0x19)
    3516                            .dwattr $C$DW$254, DW_AT_decl_file("C:/Users/bob/Documents/Projects/induct_forge/RM57Lx_test/P
    3517                            .dwattr $C$DW$254, DW_AT_decl_line(0x4a)
    3518                            .dwattr $C$DW$254, DW_AT_decl_column(0x09)
    3519                    
    3520                    $C$DW$255       .dwtag  DW_TAG_enumerator
TI ARM Assembler PC v16.9.0 Thu Feb 16 13:27:12 2017

Tools Copyright (c) 1996-2015 Texas Instruments Incorporated
C:\Users\bob\AppData\Local\Temp\1183610                              PAGE   65

    3521                            .dwattr $C$DW$255, DW_AT_name("PS26")
    3522                            .dwattr $C$DW$255, DW_AT_const_value(0x1a)
    3523                            .dwattr $C$DW$255, DW_AT_decl_file("C:/Users/bob/Documents/Projects/induct_forge/RM57Lx_test/P
    3524                            .dwattr $C$DW$255, DW_AT_decl_line(0x4a)
    3525                            .dwattr $C$DW$255, DW_AT_decl_column(0x0f)
    3526                    
    3527                    $C$DW$256       .dwtag  DW_TAG_enumerator
    3528                            .dwattr $C$DW$256, DW_AT_name("PS27")
    3529                            .dwattr $C$DW$256, DW_AT_const_value(0x1b)
    3530                            .dwattr $C$DW$256, DW_AT_decl_file("C:/Users/bob/Documents/Projects/induct_forge/RM57Lx_test/P
    3531                            .dwattr $C$DW$256, DW_AT_decl_line(0x4a)
    3532                            .dwattr $C$DW$256, DW_AT_decl_column(0x15)
    3533                    
    3534                    $C$DW$257       .dwtag  DW_TAG_enumerator
    3535                            .dwattr $C$DW$257, DW_AT_name("PS28")
    3536                            .dwattr $C$DW$257, DW_AT_const_value(0x1c)
    3537                            .dwattr $C$DW$257, DW_AT_decl_file("C:/Users/bob/Documents/Projects/induct_forge/RM57Lx_test/P
    3538                            .dwattr $C$DW$257, DW_AT_decl_line(0x4b)
    3539                            .dwattr $C$DW$257, DW_AT_decl_column(0x02)
    3540                    
    3541                    $C$DW$258       .dwtag  DW_TAG_enumerator
    3542                            .dwattr $C$DW$258, DW_AT_name("PS29")
    3543                            .dwattr $C$DW$258, DW_AT_const_value(0x1d)
    3544                            .dwattr $C$DW$258, DW_AT_decl_file("C:/Users/bob/Documents/Projects/induct_forge/RM57Lx_test/P
    3545                            .dwattr $C$DW$258, DW_AT_decl_line(0x4b)
    3546                            .dwattr $C$DW$258, DW_AT_decl_column(0x09)
    3547                    
    3548                    $C$DW$259       .dwtag  DW_TAG_enumerator
    3549                            .dwattr $C$DW$259, DW_AT_name("PS30")
    3550                            .dwattr $C$DW$259, DW_AT_const_value(0x1e)
    3551                            .dwattr $C$DW$259, DW_AT_decl_file("C:/Users/bob/Documents/Projects/induct_forge/RM57Lx_test/P
    3552                            .dwattr $C$DW$259, DW_AT_decl_line(0x4b)
    3553                            .dwattr $C$DW$259, DW_AT_decl_column(0x0f)
    3554                    
    3555                    $C$DW$260       .dwtag  DW_TAG_enumerator
    3556                            .dwattr $C$DW$260, DW_AT_name("PS31")
    3557                            .dwattr $C$DW$260, DW_AT_const_value(0x1f)
    3558                            .dwattr $C$DW$260, DW_AT_decl_file("C:/Users/bob/Documents/Projects/induct_forge/RM57Lx_test/P
    3559                            .dwattr $C$DW$260, DW_AT_decl_line(0x4b)
    3560                            .dwattr $C$DW$260, DW_AT_decl_column(0x15)
    3561                    
    3562                            .dwattr $C$DW$T$36, DW_AT_decl_file("C:/Users/bob/Documents/Projects/induct_forge/RM57Lx_test/
    3563                            .dwattr $C$DW$T$36, DW_AT_decl_line(0x43)
    3564                            .dwattr $C$DW$T$36, DW_AT_decl_column(0x01)
    3565                            .dwendtag $C$DW$T$36
    3566                    
    3567                    $C$DW$T$37      .dwtag  DW_TAG_typedef
    3568                            .dwattr $C$DW$T$37, DW_AT_name("peripheral_Frame_t")
    3569                            .dwattr $C$DW$T$37, DW_AT_type(*$C$DW$T$36)
    3570                            .dwattr $C$DW$T$37, DW_AT_language(DW_LANG_C)
    3571                            .dwattr $C$DW$T$37, DW_AT_decl_file("C:/Users/bob/Documents/Projects/induct_forge/RM57Lx_test/
    3572                            .dwattr $C$DW$T$37, DW_AT_decl_line(0x4c)
    3573                            .dwattr $C$DW$T$37, DW_AT_decl_column(0x02)
    3574                    
    3575                    
TI ARM Assembler PC v16.9.0 Thu Feb 16 13:27:12 2017

Tools Copyright (c) 1996-2015 Texas Instruments Incorporated
C:\Users\bob\AppData\Local\Temp\1183610                              PAGE   66

    3576                    $C$DW$T$38      .dwtag  DW_TAG_enumeration_type
    3577                            .dwattr $C$DW$T$38, DW_AT_byte_size(0x01)
    3578                    $C$DW$261       .dwtag  DW_TAG_enumerator
    3579                            .dwattr $C$DW$261, DW_AT_name("Master_CPU0")
    3580                            .dwattr $C$DW$261, DW_AT_const_value(0x00)
    3581                            .dwattr $C$DW$261, DW_AT_decl_file("C:/Users/bob/Documents/Projects/induct_forge/RM57Lx_test/P
    3582                            .dwattr $C$DW$261, DW_AT_decl_line(0x7e)
    3583                            .dwattr $C$DW$261, DW_AT_decl_column(0x02)
    3584                    
    3585                    $C$DW$262       .dwtag  DW_TAG_enumerator
    3586                            .dwattr $C$DW$262, DW_AT_name("Master_CPU1")
    3587                            .dwattr $C$DW$262, DW_AT_const_value(0x01)
    3588                            .dwattr $C$DW$262, DW_AT_decl_file("C:/Users/bob/Documents/Projects/induct_forge/RM57Lx_test/P
    3589                            .dwattr $C$DW$262, DW_AT_decl_line(0x7f)
    3590                            .dwattr $C$DW$262, DW_AT_decl_column(0x02)
    3591                    
    3592                    $C$DW$263       .dwtag  DW_TAG_enumerator
    3593                            .dwattr $C$DW$263, DW_AT_name("Master_DMA")
    3594                            .dwattr $C$DW$263, DW_AT_const_value(0x02)
    3595                            .dwattr $C$DW$263, DW_AT_decl_file("C:/Users/bob/Documents/Projects/induct_forge/RM57Lx_test/P
    3596                            .dwattr $C$DW$263, DW_AT_decl_line(0x80)
    3597                            .dwattr $C$DW$263, DW_AT_decl_column(0x02)
    3598                    
    3599                    $C$DW$264       .dwtag  DW_TAG_enumerator
    3600                            .dwattr $C$DW$264, DW_AT_name("Master_HTU1")
    3601                            .dwattr $C$DW$264, DW_AT_const_value(0x03)
    3602                            .dwattr $C$DW$264, DW_AT_decl_file("C:/Users/bob/Documents/Projects/induct_forge/RM57Lx_test/P
    3603                            .dwattr $C$DW$264, DW_AT_decl_line(0x81)
    3604                            .dwattr $C$DW$264, DW_AT_decl_column(0x02)
    3605                    
    3606                    $C$DW$265       .dwtag  DW_TAG_enumerator
    3607                            .dwattr $C$DW$265, DW_AT_name("Master_HTU2")
    3608                            .dwattr $C$DW$265, DW_AT_const_value(0x04)
    3609                            .dwattr $C$DW$265, DW_AT_decl_file("C:/Users/bob/Documents/Projects/induct_forge/RM57Lx_test/P
    3610                            .dwattr $C$DW$265, DW_AT_decl_line(0x82)
    3611                            .dwattr $C$DW$265, DW_AT_decl_column(0x02)
    3612                    
    3613                    $C$DW$266       .dwtag  DW_TAG_enumerator
    3614                            .dwattr $C$DW$266, DW_AT_name("Master_FTU")
    3615                            .dwattr $C$DW$266, DW_AT_const_value(0x05)
    3616                            .dwattr $C$DW$266, DW_AT_decl_file("C:/Users/bob/Documents/Projects/induct_forge/RM57Lx_test/P
    3617                            .dwattr $C$DW$266, DW_AT_decl_line(0x83)
    3618                            .dwattr $C$DW$266, DW_AT_decl_column(0x02)
    3619                    
    3620                    $C$DW$267       .dwtag  DW_TAG_enumerator
    3621                            .dwattr $C$DW$267, DW_AT_name("Master_DMM")
    3622                            .dwattr $C$DW$267, DW_AT_const_value(0x07)
    3623                            .dwattr $C$DW$267, DW_AT_decl_file("C:/Users/bob/Documents/Projects/induct_forge/RM57Lx_test/P
    3624                            .dwattr $C$DW$267, DW_AT_decl_line(0x84)
    3625                            .dwattr $C$DW$267, DW_AT_decl_column(0x02)
    3626                    
    3627                    $C$DW$268       .dwtag  DW_TAG_enumerator
    3628                            .dwattr $C$DW$268, DW_AT_name("Master_DAP")
    3629                            .dwattr $C$DW$268, DW_AT_const_value(0x09)
    3630                            .dwattr $C$DW$268, DW_AT_decl_file("C:/Users/bob/Documents/Projects/induct_forge/RM57Lx_test/P
TI ARM Assembler PC v16.9.0 Thu Feb 16 13:27:12 2017

Tools Copyright (c) 1996-2015 Texas Instruments Incorporated
C:\Users\bob\AppData\Local\Temp\1183610                              PAGE   67

    3631                            .dwattr $C$DW$268, DW_AT_decl_line(0x85)
    3632                            .dwattr $C$DW$268, DW_AT_decl_column(0x02)
    3633                    
    3634                    $C$DW$269       .dwtag  DW_TAG_enumerator
    3635                            .dwattr $C$DW$269, DW_AT_name("Master_EMAC")
    3636                            .dwattr $C$DW$269, DW_AT_const_value(0x0a)
    3637                            .dwattr $C$DW$269, DW_AT_decl_file("C:/Users/bob/Documents/Projects/induct_forge/RM57Lx_test/P
    3638                            .dwattr $C$DW$269, DW_AT_decl_line(0x86)
    3639                            .dwattr $C$DW$269, DW_AT_decl_column(0x02)
    3640                    
    3641                            .dwattr $C$DW$T$38, DW_AT_decl_file("C:/Users/bob/Documents/Projects/induct_forge/RM57Lx_test/
    3642                            .dwattr $C$DW$T$38, DW_AT_decl_line(0x7d)
    3643                            .dwattr $C$DW$T$38, DW_AT_decl_column(0x01)
    3644                            .dwendtag $C$DW$T$38
    3645                    
    3646                    $C$DW$T$39      .dwtag  DW_TAG_typedef
    3647                            .dwattr $C$DW$T$39, DW_AT_name("master_ID_t")
    3648                            .dwattr $C$DW$T$39, DW_AT_type(*$C$DW$T$38)
    3649                            .dwattr $C$DW$T$39, DW_AT_language(DW_LANG_C)
    3650                            .dwattr $C$DW$T$39, DW_AT_decl_file("C:/Users/bob/Documents/Projects/induct_forge/RM57Lx_test/
    3651                            .dwattr $C$DW$T$39, DW_AT_decl_line(0x87)
    3652                            .dwattr $C$DW$T$39, DW_AT_decl_column(0x02)
    3653                    
    3654                    
    3655                    $C$DW$T$40      .dwtag  DW_TAG_enumeration_type
    3656                            .dwattr $C$DW$T$40, DW_AT_byte_size(0x01)
    3657                    $C$DW$270       .dwtag  DW_TAG_enumerator
    3658                            .dwattr $C$DW$270, DW_AT_name("PPS0")
    3659                            .dwattr $C$DW$270, DW_AT_const_value(0x00)
    3660                            .dwattr $C$DW$270, DW_AT_decl_file("C:/Users/bob/Documents/Projects/induct_forge/RM57Lx_test/P
    3661                            .dwattr $C$DW$270, DW_AT_decl_line(0x50)
    3662                            .dwattr $C$DW$270, DW_AT_decl_column(0x02)
    3663                    
    3664                    $C$DW$271       .dwtag  DW_TAG_enumerator
    3665                            .dwattr $C$DW$271, DW_AT_name("PPS1")
    3666                            .dwattr $C$DW$271, DW_AT_const_value(0x01)
    3667                            .dwattr $C$DW$271, DW_AT_decl_file("C:/Users/bob/Documents/Projects/induct_forge/RM57Lx_test/P
    3668                            .dwattr $C$DW$271, DW_AT_decl_line(0x50)
    3669                            .dwattr $C$DW$271, DW_AT_decl_column(0x0d)
    3670                    
    3671                    $C$DW$272       .dwtag  DW_TAG_enumerator
    3672                            .dwattr $C$DW$272, DW_AT_name("PPS2")
    3673                            .dwattr $C$DW$272, DW_AT_const_value(0x02)
    3674                            .dwattr $C$DW$272, DW_AT_decl_file("C:/Users/bob/Documents/Projects/induct_forge/RM57Lx_test/P
    3675                            .dwattr $C$DW$272, DW_AT_decl_line(0x50)
    3676                            .dwattr $C$DW$272, DW_AT_decl_column(0x13)
    3677                    
    3678                    $C$DW$273       .dwtag  DW_TAG_enumerator
    3679                            .dwattr $C$DW$273, DW_AT_name("PPS3")
    3680                            .dwattr $C$DW$273, DW_AT_const_value(0x03)
    3681                            .dwattr $C$DW$273, DW_AT_decl_file("C:/Users/bob/Documents/Projects/induct_forge/RM57Lx_test/P
    3682                            .dwattr $C$DW$273, DW_AT_decl_line(0x50)
    3683                            .dwattr $C$DW$273, DW_AT_decl_column(0x19)
    3684                    
    3685                    $C$DW$274       .dwtag  DW_TAG_enumerator
TI ARM Assembler PC v16.9.0 Thu Feb 16 13:27:12 2017

Tools Copyright (c) 1996-2015 Texas Instruments Incorporated
C:\Users\bob\AppData\Local\Temp\1183610                              PAGE   68

    3686                            .dwattr $C$DW$274, DW_AT_name("PPS4")
    3687                            .dwattr $C$DW$274, DW_AT_const_value(0x04)
    3688                            .dwattr $C$DW$274, DW_AT_decl_file("C:/Users/bob/Documents/Projects/induct_forge/RM57Lx_test/P
    3689                            .dwattr $C$DW$274, DW_AT_decl_line(0x51)
    3690                            .dwattr $C$DW$274, DW_AT_decl_column(0x02)
    3691                    
    3692                    $C$DW$275       .dwtag  DW_TAG_enumerator
    3693                            .dwattr $C$DW$275, DW_AT_name("PPS5")
    3694                            .dwattr $C$DW$275, DW_AT_const_value(0x05)
    3695                            .dwattr $C$DW$275, DW_AT_decl_file("C:/Users/bob/Documents/Projects/induct_forge/RM57Lx_test/P
    3696                            .dwattr $C$DW$275, DW_AT_decl_line(0x51)
    3697                            .dwattr $C$DW$275, DW_AT_decl_column(0x09)
    3698                    
    3699                    $C$DW$276       .dwtag  DW_TAG_enumerator
    3700                            .dwattr $C$DW$276, DW_AT_name("PPS6")
    3701                            .dwattr $C$DW$276, DW_AT_const_value(0x06)
    3702                            .dwattr $C$DW$276, DW_AT_decl_file("C:/Users/bob/Documents/Projects/induct_forge/RM57Lx_test/P
    3703                            .dwattr $C$DW$276, DW_AT_decl_line(0x51)
    3704                            .dwattr $C$DW$276, DW_AT_decl_column(0x0f)
    3705                    
    3706                    $C$DW$277       .dwtag  DW_TAG_enumerator
    3707                            .dwattr $C$DW$277, DW_AT_name("PPS7")
    3708                            .dwattr $C$DW$277, DW_AT_const_value(0x07)
    3709                            .dwattr $C$DW$277, DW_AT_decl_file("C:/Users/bob/Documents/Projects/induct_forge/RM57Lx_test/P
    3710                            .dwattr $C$DW$277, DW_AT_decl_line(0x51)
    3711                            .dwattr $C$DW$277, DW_AT_decl_column(0x15)
    3712                    
    3713                            .dwattr $C$DW$T$40, DW_AT_decl_file("C:/Users/bob/Documents/Projects/induct_forge/RM57Lx_test/
    3714                            .dwattr $C$DW$T$40, DW_AT_decl_line(0x4f)
    3715                            .dwattr $C$DW$T$40, DW_AT_decl_column(0x01)
    3716                            .dwendtag $C$DW$T$40
    3717                    
    3718                    $C$DW$T$41      .dwtag  DW_TAG_typedef
    3719                            .dwattr $C$DW$T$41, DW_AT_name("privileged_Peripheral_Frame_t")
    3720                            .dwattr $C$DW$T$41, DW_AT_type(*$C$DW$T$40)
    3721                            .dwattr $C$DW$T$41, DW_AT_language(DW_LANG_C)
    3722                            .dwattr $C$DW$T$41, DW_AT_decl_file("C:/Users/bob/Documents/Projects/induct_forge/RM57Lx_test/
    3723                            .dwattr $C$DW$T$41, DW_AT_decl_line(0x52)
    3724                            .dwattr $C$DW$T$41, DW_AT_decl_column(0x02)
    3725                    
    3726                    
    3727                    $C$DW$T$42      .dwtag  DW_TAG_enumeration_type
    3728                            .dwattr $C$DW$T$42, DW_AT_byte_size(0x01)
    3729                    $C$DW$278       .dwtag  DW_TAG_enumerator
    3730                            .dwattr $C$DW$278, DW_AT_name("PPSE0")
    3731                            .dwattr $C$DW$278, DW_AT_const_value(0x00)
    3732                            .dwattr $C$DW$278, DW_AT_decl_file("C:/Users/bob/Documents/Projects/induct_forge/RM57Lx_test/P
    3733                            .dwattr $C$DW$278, DW_AT_decl_line(0x56)
    3734                            .dwattr $C$DW$278, DW_AT_decl_column(0x02)
    3735                    
    3736                    $C$DW$279       .dwtag  DW_TAG_enumerator
    3737                            .dwattr $C$DW$279, DW_AT_name("PPSE1")
    3738                            .dwattr $C$DW$279, DW_AT_const_value(0x01)
    3739                            .dwattr $C$DW$279, DW_AT_decl_file("C:/Users/bob/Documents/Projects/induct_forge/RM57Lx_test/P
    3740                            .dwattr $C$DW$279, DW_AT_decl_line(0x56)
TI ARM Assembler PC v16.9.0 Thu Feb 16 13:27:12 2017

Tools Copyright (c) 1996-2015 Texas Instruments Incorporated
C:\Users\bob\AppData\Local\Temp\1183610                              PAGE   69

    3741                            .dwattr $C$DW$279, DW_AT_decl_column(0x0e)
    3742                    
    3743                    $C$DW$280       .dwtag  DW_TAG_enumerator
    3744                            .dwattr $C$DW$280, DW_AT_name("PPSE2")
    3745                            .dwattr $C$DW$280, DW_AT_const_value(0x02)
    3746                            .dwattr $C$DW$280, DW_AT_decl_file("C:/Users/bob/Documents/Projects/induct_forge/RM57Lx_test/P
    3747                            .dwattr $C$DW$280, DW_AT_decl_line(0x56)
    3748                            .dwattr $C$DW$280, DW_AT_decl_column(0x15)
    3749                    
    3750                    $C$DW$281       .dwtag  DW_TAG_enumerator
    3751                            .dwattr $C$DW$281, DW_AT_name("PPSE3")
    3752                            .dwattr $C$DW$281, DW_AT_const_value(0x03)
    3753                            .dwattr $C$DW$281, DW_AT_decl_file("C:/Users/bob/Documents/Projects/induct_forge/RM57Lx_test/P
    3754                            .dwattr $C$DW$281, DW_AT_decl_line(0x56)
    3755                            .dwattr $C$DW$281, DW_AT_decl_column(0x1c)
    3756                    
    3757                    $C$DW$282       .dwtag  DW_TAG_enumerator
    3758                            .dwattr $C$DW$282, DW_AT_name("PPSE4")
    3759                            .dwattr $C$DW$282, DW_AT_const_value(0x04)
    3760                            .dwattr $C$DW$282, DW_AT_decl_file("C:/Users/bob/Documents/Projects/induct_forge/RM57Lx_test/P
    3761                            .dwattr $C$DW$282, DW_AT_decl_line(0x57)
    3762                            .dwattr $C$DW$282, DW_AT_decl_column(0x02)
    3763                    
    3764                    $C$DW$283       .dwtag  DW_TAG_enumerator
    3765                            .dwattr $C$DW$283, DW_AT_name("PPSE5")
    3766                            .dwattr $C$DW$283, DW_AT_const_value(0x05)
    3767                            .dwattr $C$DW$283, DW_AT_decl_file("C:/Users/bob/Documents/Projects/induct_forge/RM57Lx_test/P
    3768                            .dwattr $C$DW$283, DW_AT_decl_line(0x57)
    3769                            .dwattr $C$DW$283, DW_AT_decl_column(0x0a)
    3770                    
    3771                    $C$DW$284       .dwtag  DW_TAG_enumerator
    3772                            .dwattr $C$DW$284, DW_AT_name("PPSE6")
    3773                            .dwattr $C$DW$284, DW_AT_const_value(0x06)
    3774                            .dwattr $C$DW$284, DW_AT_decl_file("C:/Users/bob/Documents/Projects/induct_forge/RM57Lx_test/P
    3775                            .dwattr $C$DW$284, DW_AT_decl_line(0x57)
    3776                            .dwattr $C$DW$284, DW_AT_decl_column(0x11)
    3777                    
    3778                    $C$DW$285       .dwtag  DW_TAG_enumerator
    3779                            .dwattr $C$DW$285, DW_AT_name("PPSE7")
    3780                            .dwattr $C$DW$285, DW_AT_const_value(0x07)
    3781                            .dwattr $C$DW$285, DW_AT_decl_file("C:/Users/bob/Documents/Projects/induct_forge/RM57Lx_test/P
    3782                            .dwattr $C$DW$285, DW_AT_decl_line(0x57)
    3783                            .dwattr $C$DW$285, DW_AT_decl_column(0x18)
    3784                    
    3785                    $C$DW$286       .dwtag  DW_TAG_enumerator
    3786                            .dwattr $C$DW$286, DW_AT_name("PPSE8")
    3787                            .dwattr $C$DW$286, DW_AT_const_value(0x08)
    3788                            .dwattr $C$DW$286, DW_AT_decl_file("C:/Users/bob/Documents/Projects/induct_forge/RM57Lx_test/P
    3789                            .dwattr $C$DW$286, DW_AT_decl_line(0x58)
    3790                            .dwattr $C$DW$286, DW_AT_decl_column(0x02)
    3791                    
    3792                    $C$DW$287       .dwtag  DW_TAG_enumerator
    3793                            .dwattr $C$DW$287, DW_AT_name("PPSE9")
    3794                            .dwattr $C$DW$287, DW_AT_const_value(0x09)
    3795                            .dwattr $C$DW$287, DW_AT_decl_file("C:/Users/bob/Documents/Projects/induct_forge/RM57Lx_test/P
TI ARM Assembler PC v16.9.0 Thu Feb 16 13:27:12 2017

Tools Copyright (c) 1996-2015 Texas Instruments Incorporated
C:\Users\bob\AppData\Local\Temp\1183610                              PAGE   70

    3796                            .dwattr $C$DW$287, DW_AT_decl_line(0x58)
    3797                            .dwattr $C$DW$287, DW_AT_decl_column(0x0a)
    3798                    
    3799                    $C$DW$288       .dwtag  DW_TAG_enumerator
    3800                            .dwattr $C$DW$288, DW_AT_name("PPSE10")
    3801                            .dwattr $C$DW$288, DW_AT_const_value(0x0a)
    3802                            .dwattr $C$DW$288, DW_AT_decl_file("C:/Users/bob/Documents/Projects/induct_forge/RM57Lx_test/P
    3803                            .dwattr $C$DW$288, DW_AT_decl_line(0x58)
    3804                            .dwattr $C$DW$288, DW_AT_decl_column(0x11)
    3805                    
    3806                    $C$DW$289       .dwtag  DW_TAG_enumerator
    3807                            .dwattr $C$DW$289, DW_AT_name("PPSE11")
    3808                            .dwattr $C$DW$289, DW_AT_const_value(0x0b)
    3809                            .dwattr $C$DW$289, DW_AT_decl_file("C:/Users/bob/Documents/Projects/induct_forge/RM57Lx_test/P
    3810                            .dwattr $C$DW$289, DW_AT_decl_line(0x58)
    3811                            .dwattr $C$DW$289, DW_AT_decl_column(0x19)
    3812                    
    3813                    $C$DW$290       .dwtag  DW_TAG_enumerator
    3814                            .dwattr $C$DW$290, DW_AT_name("PPSE12")
    3815                            .dwattr $C$DW$290, DW_AT_const_value(0x0c)
    3816                            .dwattr $C$DW$290, DW_AT_decl_file("C:/Users/bob/Documents/Projects/induct_forge/RM57Lx_test/P
    3817                            .dwattr $C$DW$290, DW_AT_decl_line(0x59)
    3818                            .dwattr $C$DW$290, DW_AT_decl_column(0x02)
    3819                    
    3820                    $C$DW$291       .dwtag  DW_TAG_enumerator
    3821                            .dwattr $C$DW$291, DW_AT_name("PPSE13")
    3822                            .dwattr $C$DW$291, DW_AT_const_value(0x0d)
    3823                            .dwattr $C$DW$291, DW_AT_decl_file("C:/Users/bob/Documents/Projects/induct_forge/RM57Lx_test/P
    3824                            .dwattr $C$DW$291, DW_AT_decl_line(0x59)
    3825                            .dwattr $C$DW$291, DW_AT_decl_column(0x0b)
    3826                    
    3827                    $C$DW$292       .dwtag  DW_TAG_enumerator
    3828                            .dwattr $C$DW$292, DW_AT_name("PPSE14")
    3829                            .dwattr $C$DW$292, DW_AT_const_value(0x0e)
    3830                            .dwattr $C$DW$292, DW_AT_decl_file("C:/Users/bob/Documents/Projects/induct_forge/RM57Lx_test/P
    3831                            .dwattr $C$DW$292, DW_AT_decl_line(0x59)
    3832                            .dwattr $C$DW$292, DW_AT_decl_column(0x13)
    3833                    
    3834                    $C$DW$293       .dwtag  DW_TAG_enumerator
    3835                            .dwattr $C$DW$293, DW_AT_name("PPSE15")
    3836                            .dwattr $C$DW$293, DW_AT_const_value(0x0f)
    3837                            .dwattr $C$DW$293, DW_AT_decl_file("C:/Users/bob/Documents/Projects/induct_forge/RM57Lx_test/P
    3838                            .dwattr $C$DW$293, DW_AT_decl_line(0x59)
    3839                            .dwattr $C$DW$293, DW_AT_decl_column(0x1b)
    3840                    
    3841                    $C$DW$294       .dwtag  DW_TAG_enumerator
    3842                            .dwattr $C$DW$294, DW_AT_name("PPSE16")
    3843                            .dwattr $C$DW$294, DW_AT_const_value(0x10)
    3844                            .dwattr $C$DW$294, DW_AT_decl_file("C:/Users/bob/Documents/Projects/induct_forge/RM57Lx_test/P
    3845                            .dwattr $C$DW$294, DW_AT_decl_line(0x5a)
    3846                            .dwattr $C$DW$294, DW_AT_decl_column(0x02)
    3847                    
    3848                    $C$DW$295       .dwtag  DW_TAG_enumerator
    3849                            .dwattr $C$DW$295, DW_AT_name("PPSE17")
    3850                            .dwattr $C$DW$295, DW_AT_const_value(0x11)
TI ARM Assembler PC v16.9.0 Thu Feb 16 13:27:12 2017

Tools Copyright (c) 1996-2015 Texas Instruments Incorporated
C:\Users\bob\AppData\Local\Temp\1183610                              PAGE   71

    3851                            .dwattr $C$DW$295, DW_AT_decl_file("C:/Users/bob/Documents/Projects/induct_forge/RM57Lx_test/P
    3852                            .dwattr $C$DW$295, DW_AT_decl_line(0x5a)
    3853                            .dwattr $C$DW$295, DW_AT_decl_column(0x0b)
    3854                    
    3855                    $C$DW$296       .dwtag  DW_TAG_enumerator
    3856                            .dwattr $C$DW$296, DW_AT_name("PPSE18")
    3857                            .dwattr $C$DW$296, DW_AT_const_value(0x12)
    3858                            .dwattr $C$DW$296, DW_AT_decl_file("C:/Users/bob/Documents/Projects/induct_forge/RM57Lx_test/P
    3859                            .dwattr $C$DW$296, DW_AT_decl_line(0x5a)
    3860                            .dwattr $C$DW$296, DW_AT_decl_column(0x13)
    3861                    
    3862                    $C$DW$297       .dwtag  DW_TAG_enumerator
    3863                            .dwattr $C$DW$297, DW_AT_name("PPSE19")
    3864                            .dwattr $C$DW$297, DW_AT_const_value(0x13)
    3865                            .dwattr $C$DW$297, DW_AT_decl_file("C:/Users/bob/Documents/Projects/induct_forge/RM57Lx_test/P
    3866                            .dwattr $C$DW$297, DW_AT_decl_line(0x5a)
    3867                            .dwattr $C$DW$297, DW_AT_decl_column(0x1b)
    3868                    
    3869                    $C$DW$298       .dwtag  DW_TAG_enumerator
    3870                            .dwattr $C$DW$298, DW_AT_name("PPSE20")
    3871                            .dwattr $C$DW$298, DW_AT_const_value(0x14)
    3872                            .dwattr $C$DW$298, DW_AT_decl_file("C:/Users/bob/Documents/Projects/induct_forge/RM57Lx_test/P
    3873                            .dwattr $C$DW$298, DW_AT_decl_line(0x5b)
    3874                            .dwattr $C$DW$298, DW_AT_decl_column(0x02)
    3875                    
    3876                    $C$DW$299       .dwtag  DW_TAG_enumerator
    3877                            .dwattr $C$DW$299, DW_AT_name("PPSE21")
    3878                            .dwattr $C$DW$299, DW_AT_const_value(0x15)
    3879                            .dwattr $C$DW$299, DW_AT_decl_file("C:/Users/bob/Documents/Projects/induct_forge/RM57Lx_test/P
    3880                            .dwattr $C$DW$299, DW_AT_decl_line(0x5b)
    3881                            .dwattr $C$DW$299, DW_AT_decl_column(0x0b)
    3882                    
    3883                    $C$DW$300       .dwtag  DW_TAG_enumerator
    3884                            .dwattr $C$DW$300, DW_AT_name("PPSE22")
    3885                            .dwattr $C$DW$300, DW_AT_const_value(0x16)
    3886                            .dwattr $C$DW$300, DW_AT_decl_file("C:/Users/bob/Documents/Projects/induct_forge/RM57Lx_test/P
    3887                            .dwattr $C$DW$300, DW_AT_decl_line(0x5b)
    3888                            .dwattr $C$DW$300, DW_AT_decl_column(0x13)
    3889                    
    3890                    $C$DW$301       .dwtag  DW_TAG_enumerator
    3891                            .dwattr $C$DW$301, DW_AT_name("PPSE23")
    3892                            .dwattr $C$DW$301, DW_AT_const_value(0x17)
    3893                            .dwattr $C$DW$301, DW_AT_decl_file("C:/Users/bob/Documents/Projects/induct_forge/RM57Lx_test/P
    3894                            .dwattr $C$DW$301, DW_AT_decl_line(0x5b)
    3895                            .dwattr $C$DW$301, DW_AT_decl_column(0x1b)
    3896                    
    3897                    $C$DW$302       .dwtag  DW_TAG_enumerator
    3898                            .dwattr $C$DW$302, DW_AT_name("PPSE24")
    3899                            .dwattr $C$DW$302, DW_AT_const_value(0x18)
    3900                            .dwattr $C$DW$302, DW_AT_decl_file("C:/Users/bob/Documents/Projects/induct_forge/RM57Lx_test/P
    3901                            .dwattr $C$DW$302, DW_AT_decl_line(0x5c)
    3902                            .dwattr $C$DW$302, DW_AT_decl_column(0x02)
    3903                    
    3904                    $C$DW$303       .dwtag  DW_TAG_enumerator
    3905                            .dwattr $C$DW$303, DW_AT_name("PPSE25")
TI ARM Assembler PC v16.9.0 Thu Feb 16 13:27:12 2017

Tools Copyright (c) 1996-2015 Texas Instruments Incorporated
C:\Users\bob\AppData\Local\Temp\1183610                              PAGE   72

    3906                            .dwattr $C$DW$303, DW_AT_const_value(0x19)
    3907                            .dwattr $C$DW$303, DW_AT_decl_file("C:/Users/bob/Documents/Projects/induct_forge/RM57Lx_test/P
    3908                            .dwattr $C$DW$303, DW_AT_decl_line(0x5c)
    3909                            .dwattr $C$DW$303, DW_AT_decl_column(0x0b)
    3910                    
    3911                    $C$DW$304       .dwtag  DW_TAG_enumerator
    3912                            .dwattr $C$DW$304, DW_AT_name("PPSE26")
    3913                            .dwattr $C$DW$304, DW_AT_const_value(0x1a)
    3914                            .dwattr $C$DW$304, DW_AT_decl_file("C:/Users/bob/Documents/Projects/induct_forge/RM57Lx_test/P
    3915                            .dwattr $C$DW$304, DW_AT_decl_line(0x5c)
    3916                            .dwattr $C$DW$304, DW_AT_decl_column(0x13)
    3917                    
    3918                    $C$DW$305       .dwtag  DW_TAG_enumerator
    3919                            .dwattr $C$DW$305, DW_AT_name("PPSE27")
    3920                            .dwattr $C$DW$305, DW_AT_const_value(0x1b)
    3921                            .dwattr $C$DW$305, DW_AT_decl_file("C:/Users/bob/Documents/Projects/induct_forge/RM57Lx_test/P
    3922                            .dwattr $C$DW$305, DW_AT_decl_line(0x5c)
    3923                            .dwattr $C$DW$305, DW_AT_decl_column(0x1b)
    3924                    
    3925                    $C$DW$306       .dwtag  DW_TAG_enumerator
    3926                            .dwattr $C$DW$306, DW_AT_name("PPSE28")
    3927                            .dwattr $C$DW$306, DW_AT_const_value(0x1c)
    3928                            .dwattr $C$DW$306, DW_AT_decl_file("C:/Users/bob/Documents/Projects/induct_forge/RM57Lx_test/P
    3929                            .dwattr $C$DW$306, DW_AT_decl_line(0x5d)
    3930                            .dwattr $C$DW$306, DW_AT_decl_column(0x02)
    3931                    
    3932                    $C$DW$307       .dwtag  DW_TAG_enumerator
    3933                            .dwattr $C$DW$307, DW_AT_name("PPSE29")
    3934                            .dwattr $C$DW$307, DW_AT_const_value(0x1d)
    3935                            .dwattr $C$DW$307, DW_AT_decl_file("C:/Users/bob/Documents/Projects/induct_forge/RM57Lx_test/P
    3936                            .dwattr $C$DW$307, DW_AT_decl_line(0x5d)
    3937                            .dwattr $C$DW$307, DW_AT_decl_column(0x0b)
    3938                    
    3939                    $C$DW$308       .dwtag  DW_TAG_enumerator
    3940                            .dwattr $C$DW$308, DW_AT_name("PPSE30")
    3941                            .dwattr $C$DW$308, DW_AT_const_value(0x1e)
    3942                            .dwattr $C$DW$308, DW_AT_decl_file("C:/Users/bob/Documents/Projects/induct_forge/RM57Lx_test/P
    3943                            .dwattr $C$DW$308, DW_AT_decl_line(0x5d)
    3944                            .dwattr $C$DW$308, DW_AT_decl_column(0x13)
    3945                    
    3946                    $C$DW$309       .dwtag  DW_TAG_enumerator
    3947                            .dwattr $C$DW$309, DW_AT_name("PPSE31")
    3948                            .dwattr $C$DW$309, DW_AT_const_value(0x1f)
    3949                            .dwattr $C$DW$309, DW_AT_decl_file("C:/Users/bob/Documents/Projects/induct_forge/RM57Lx_test/P
    3950                            .dwattr $C$DW$309, DW_AT_decl_line(0x5d)
    3951                            .dwattr $C$DW$309, DW_AT_decl_column(0x1b)
    3952                    
    3953                            .dwattr $C$DW$T$42, DW_AT_decl_file("C:/Users/bob/Documents/Projects/induct_forge/RM57Lx_test/
    3954                            .dwattr $C$DW$T$42, DW_AT_decl_line(0x55)
    3955                            .dwattr $C$DW$T$42, DW_AT_decl_column(0x01)
    3956                            .dwendtag $C$DW$T$42
    3957                    
    3958                    $C$DW$T$43      .dwtag  DW_TAG_typedef
    3959                            .dwattr $C$DW$T$43, DW_AT_name("privileged_Peripheral_Extended_Frame_t")
    3960                            .dwattr $C$DW$T$43, DW_AT_type(*$C$DW$T$42)
TI ARM Assembler PC v16.9.0 Thu Feb 16 13:27:12 2017

Tools Copyright (c) 1996-2015 Texas Instruments Incorporated
C:\Users\bob\AppData\Local\Temp\1183610                              PAGE   73

    3961                            .dwattr $C$DW$T$43, DW_AT_language(DW_LANG_C)
    3962                            .dwattr $C$DW$T$43, DW_AT_decl_file("C:/Users/bob/Documents/Projects/induct_forge/RM57Lx_test/
    3963                            .dwattr $C$DW$T$43, DW_AT_decl_line(0x5e)
    3964                            .dwattr $C$DW$T$43, DW_AT_decl_column(0x02)
    3965                    
    3966                    
    3967                    $C$DW$T$44      .dwtag  DW_TAG_enumeration_type
    3968                            .dwattr $C$DW$T$44, DW_AT_byte_size(0x01)
    3969                    $C$DW$310       .dwtag  DW_TAG_enumerator
    3970                            .dwattr $C$DW$310, DW_AT_name("PPCS0")
    3971                            .dwattr $C$DW$310, DW_AT_const_value(0x00)
    3972                            .dwattr $C$DW$310, DW_AT_decl_file("C:/Users/bob/Documents/Projects/induct_forge/RM57Lx_test/P
    3973                            .dwattr $C$DW$310, DW_AT_decl_line(0x76)
    3974                            .dwattr $C$DW$310, DW_AT_decl_column(0x02)
    3975                    
    3976                    $C$DW$311       .dwtag  DW_TAG_enumerator
    3977                            .dwattr $C$DW$311, DW_AT_name("PPCS1")
    3978                            .dwattr $C$DW$311, DW_AT_const_value(0x01)
    3979                            .dwattr $C$DW$311, DW_AT_decl_file("C:/Users/bob/Documents/Projects/induct_forge/RM57Lx_test/P
    3980                            .dwattr $C$DW$311, DW_AT_decl_line(0x76)
    3981                            .dwattr $C$DW$311, DW_AT_decl_column(0x0e)
    3982                    
    3983                    $C$DW$312       .dwtag  DW_TAG_enumerator
    3984                            .dwattr $C$DW$312, DW_AT_name("PPCS2")
    3985                            .dwattr $C$DW$312, DW_AT_const_value(0x02)
    3986                            .dwattr $C$DW$312, DW_AT_decl_file("C:/Users/bob/Documents/Projects/induct_forge/RM57Lx_test/P
    3987                            .dwattr $C$DW$312, DW_AT_decl_line(0x76)
    3988                            .dwattr $C$DW$312, DW_AT_decl_column(0x15)
    3989                    
    3990                    $C$DW$313       .dwtag  DW_TAG_enumerator
    3991                            .dwattr $C$DW$313, DW_AT_name("PPCS3")
    3992                            .dwattr $C$DW$313, DW_AT_const_value(0x03)
    3993                            .dwattr $C$DW$313, DW_AT_decl_file("C:/Users/bob/Documents/Projects/induct_forge/RM57Lx_test/P
    3994                            .dwattr $C$DW$313, DW_AT_decl_line(0x76)
    3995                            .dwattr $C$DW$313, DW_AT_decl_column(0x1c)
    3996                    
    3997                    $C$DW$314       .dwtag  DW_TAG_enumerator
    3998                            .dwattr $C$DW$314, DW_AT_name("PPCS4")
    3999                            .dwattr $C$DW$314, DW_AT_const_value(0x04)
    4000                            .dwattr $C$DW$314, DW_AT_decl_file("C:/Users/bob/Documents/Projects/induct_forge/RM57Lx_test/P
    4001                            .dwattr $C$DW$314, DW_AT_decl_line(0x77)
    4002                            .dwattr $C$DW$314, DW_AT_decl_column(0x02)
    4003                    
    4004                    $C$DW$315       .dwtag  DW_TAG_enumerator
    4005                            .dwattr $C$DW$315, DW_AT_name("PPCS5")
    4006                            .dwattr $C$DW$315, DW_AT_const_value(0x05)
    4007                            .dwattr $C$DW$315, DW_AT_decl_file("C:/Users/bob/Documents/Projects/induct_forge/RM57Lx_test/P
    4008                            .dwattr $C$DW$315, DW_AT_decl_line(0x77)
    4009                            .dwattr $C$DW$315, DW_AT_decl_column(0x0a)
    4010                    
    4011                    $C$DW$316       .dwtag  DW_TAG_enumerator
    4012                            .dwattr $C$DW$316, DW_AT_name("PPCS6")
    4013                            .dwattr $C$DW$316, DW_AT_const_value(0x06)
    4014                            .dwattr $C$DW$316, DW_AT_decl_file("C:/Users/bob/Documents/Projects/induct_forge/RM57Lx_test/P
    4015                            .dwattr $C$DW$316, DW_AT_decl_line(0x77)
TI ARM Assembler PC v16.9.0 Thu Feb 16 13:27:12 2017

Tools Copyright (c) 1996-2015 Texas Instruments Incorporated
C:\Users\bob\AppData\Local\Temp\1183610                              PAGE   74

    4016                            .dwattr $C$DW$316, DW_AT_decl_column(0x11)
    4017                    
    4018                    $C$DW$317       .dwtag  DW_TAG_enumerator
    4019                            .dwattr $C$DW$317, DW_AT_name("PPCS7")
    4020                            .dwattr $C$DW$317, DW_AT_const_value(0x07)
    4021                            .dwattr $C$DW$317, DW_AT_decl_file("C:/Users/bob/Documents/Projects/induct_forge/RM57Lx_test/P
    4022                            .dwattr $C$DW$317, DW_AT_decl_line(0x77)
    4023                            .dwattr $C$DW$317, DW_AT_decl_column(0x18)
    4024                    
    4025                    $C$DW$318       .dwtag  DW_TAG_enumerator
    4026                            .dwattr $C$DW$318, DW_AT_name("PPCS8")
    4027                            .dwattr $C$DW$318, DW_AT_const_value(0x08)
    4028                            .dwattr $C$DW$318, DW_AT_decl_file("C:/Users/bob/Documents/Projects/induct_forge/RM57Lx_test/P
    4029                            .dwattr $C$DW$318, DW_AT_decl_line(0x78)
    4030                            .dwattr $C$DW$318, DW_AT_decl_column(0x02)
    4031                    
    4032                    $C$DW$319       .dwtag  DW_TAG_enumerator
    4033                            .dwattr $C$DW$319, DW_AT_name("PPCS9")
    4034                            .dwattr $C$DW$319, DW_AT_const_value(0x09)
    4035                            .dwattr $C$DW$319, DW_AT_decl_file("C:/Users/bob/Documents/Projects/induct_forge/RM57Lx_test/P
    4036                            .dwattr $C$DW$319, DW_AT_decl_line(0x78)
    4037                            .dwattr $C$DW$319, DW_AT_decl_column(0x0a)
    4038                    
    4039                    $C$DW$320       .dwtag  DW_TAG_enumerator
    4040                            .dwattr $C$DW$320, DW_AT_name("PPCS10")
    4041                            .dwattr $C$DW$320, DW_AT_const_value(0x0a)
    4042                            .dwattr $C$DW$320, DW_AT_decl_file("C:/Users/bob/Documents/Projects/induct_forge/RM57Lx_test/P
    4043                            .dwattr $C$DW$320, DW_AT_decl_line(0x78)
    4044                            .dwattr $C$DW$320, DW_AT_decl_column(0x11)
    4045                    
    4046                    $C$DW$321       .dwtag  DW_TAG_enumerator
    4047                            .dwattr $C$DW$321, DW_AT_name("PPCS11")
    4048                            .dwattr $C$DW$321, DW_AT_const_value(0x0b)
    4049                            .dwattr $C$DW$321, DW_AT_decl_file("C:/Users/bob/Documents/Projects/induct_forge/RM57Lx_test/P
    4050                            .dwattr $C$DW$321, DW_AT_decl_line(0x78)
    4051                            .dwattr $C$DW$321, DW_AT_decl_column(0x19)
    4052                    
    4053                    $C$DW$322       .dwtag  DW_TAG_enumerator
    4054                            .dwattr $C$DW$322, DW_AT_name("PPCS12")
    4055                            .dwattr $C$DW$322, DW_AT_const_value(0x0c)
    4056                            .dwattr $C$DW$322, DW_AT_decl_file("C:/Users/bob/Documents/Projects/induct_forge/RM57Lx_test/P
    4057                            .dwattr $C$DW$322, DW_AT_decl_line(0x79)
    4058                            .dwattr $C$DW$322, DW_AT_decl_column(0x02)
    4059                    
    4060                    $C$DW$323       .dwtag  DW_TAG_enumerator
    4061                            .dwattr $C$DW$323, DW_AT_name("PPCS13")
    4062                            .dwattr $C$DW$323, DW_AT_const_value(0x0d)
    4063                            .dwattr $C$DW$323, DW_AT_decl_file("C:/Users/bob/Documents/Projects/induct_forge/RM57Lx_test/P
    4064                            .dwattr $C$DW$323, DW_AT_decl_line(0x79)
    4065                            .dwattr $C$DW$323, DW_AT_decl_column(0x0b)
    4066                    
    4067                    $C$DW$324       .dwtag  DW_TAG_enumerator
    4068                            .dwattr $C$DW$324, DW_AT_name("PPCS14")
    4069                            .dwattr $C$DW$324, DW_AT_const_value(0x0e)
    4070                            .dwattr $C$DW$324, DW_AT_decl_file("C:/Users/bob/Documents/Projects/induct_forge/RM57Lx_test/P
TI ARM Assembler PC v16.9.0 Thu Feb 16 13:27:12 2017

Tools Copyright (c) 1996-2015 Texas Instruments Incorporated
C:\Users\bob\AppData\Local\Temp\1183610                              PAGE   75

    4071                            .dwattr $C$DW$324, DW_AT_decl_line(0x79)
    4072                            .dwattr $C$DW$324, DW_AT_decl_column(0x13)
    4073                    
    4074                    $C$DW$325       .dwtag  DW_TAG_enumerator
    4075                            .dwattr $C$DW$325, DW_AT_name("PPCS15")
    4076                            .dwattr $C$DW$325, DW_AT_const_value(0x0f)
    4077                            .dwattr $C$DW$325, DW_AT_decl_file("C:/Users/bob/Documents/Projects/induct_forge/RM57Lx_test/P
    4078                            .dwattr $C$DW$325, DW_AT_decl_line(0x79)
    4079                            .dwattr $C$DW$325, DW_AT_decl_column(0x1b)
    4080                    
    4081                            .dwattr $C$DW$T$44, DW_AT_decl_file("C:/Users/bob/Documents/Projects/induct_forge/RM57Lx_test/
    4082                            .dwattr $C$DW$T$44, DW_AT_decl_line(0x75)
    4083                            .dwattr $C$DW$T$44, DW_AT_decl_column(0x01)
    4084                            .dwendtag $C$DW$T$44
    4085                    
    4086                    $C$DW$T$45      .dwtag  DW_TAG_typedef
    4087                            .dwattr $C$DW$T$45, DW_AT_name("privileged_Peripheral_Memory_t")
    4088                            .dwattr $C$DW$T$45, DW_AT_type(*$C$DW$T$44)
    4089                            .dwattr $C$DW$T$45, DW_AT_language(DW_LANG_C)
    4090                            .dwattr $C$DW$T$45, DW_AT_decl_file("C:/Users/bob/Documents/Projects/induct_forge/RM57Lx_test/
    4091                            .dwattr $C$DW$T$45, DW_AT_decl_line(0x7a)
    4092                            .dwattr $C$DW$T$45, DW_AT_decl_column(0x02)
    4093                    
    4094                    
    4095                    $C$DW$T$21      .dwtag  DW_TAG_structure_type
    4096                            .dwattr $C$DW$T$21, DW_AT_byte_size(0x08)
    4097                    $C$DW$326       .dwtag  DW_TAG_member
    4098                            .dwattr $C$DW$326, DW_AT_type(*$C$DW$T$20)
    4099                            .dwattr $C$DW$326, DW_AT_name("PSxMSTID_L")
    4100                            .dwattr $C$DW$326, DW_AT_TI_symbol_name("PSxMSTID_L")
    4101                            .dwattr $C$DW$326, DW_AT_data_member_location[DW_OP_plus_uconst 0x0]
    4102                            .dwattr $C$DW$326, DW_AT_accessibility(DW_ACCESS_public)
    4103                            .dwattr $C$DW$326, DW_AT_decl_file("C:\Users\bob\Documents\Projects\induct_forge\RM57Lx_test\P
    4104                            .dwattr $C$DW$326, DW_AT_decl_line(0x6e)
    4105                            .dwattr $C$DW$326, DW_AT_decl_column(0x10)
    4106                    
    4107                    $C$DW$327       .dwtag  DW_TAG_member
    4108                            .dwattr $C$DW$327, DW_AT_type(*$C$DW$T$20)
    4109                            .dwattr $C$DW$327, DW_AT_name("PSxMSTID_H")
    4110                            .dwattr $C$DW$327, DW_AT_TI_symbol_name("PSxMSTID_H")
    4111                            .dwattr $C$DW$327, DW_AT_data_member_location[DW_OP_plus_uconst 0x4]
    4112                            .dwattr $C$DW$327, DW_AT_accessibility(DW_ACCESS_public)
    4113                            .dwattr $C$DW$327, DW_AT_decl_file("C:\Users\bob\Documents\Projects\induct_forge\RM57Lx_test\P
    4114                            .dwattr $C$DW$327, DW_AT_decl_line(0x6f)
    4115                            .dwattr $C$DW$327, DW_AT_decl_column(0x10)
    4116                    
    4117                            .dwattr $C$DW$T$21, DW_AT_decl_file("C:\Users\bob\Documents\Projects\induct_forge\RM57Lx_test\
    4118                            .dwattr $C$DW$T$21, DW_AT_decl_line(0x6d)
    4119                            .dwattr $C$DW$T$21, DW_AT_decl_column(0x05)
    4120                            .dwendtag $C$DW$T$21
    4121                    
    4122                    
    4123                    $C$DW$T$28      .dwtag  DW_TAG_array_type
    4124                            .dwattr $C$DW$T$28, DW_AT_type(*$C$DW$T$21)
    4125                            .dwattr $C$DW$T$28, DW_AT_language(DW_LANG_C)
TI ARM Assembler PC v16.9.0 Thu Feb 16 13:27:12 2017

Tools Copyright (c) 1996-2015 Texas Instruments Incorporated
C:\Users\bob\AppData\Local\Temp\1183610                              PAGE   76

    4126                            .dwattr $C$DW$T$28, DW_AT_byte_size(0x100)
    4127                    $C$DW$328       .dwtag  DW_TAG_subrange_type
    4128                            .dwattr $C$DW$328, DW_AT_upper_bound(0x1f)
    4129                    
    4130                            .dwendtag $C$DW$T$28
    4131                    
    4132                    
    4133                    $C$DW$T$22      .dwtag  DW_TAG_structure_type
    4134                            .dwattr $C$DW$T$22, DW_AT_byte_size(0x08)
    4135                    $C$DW$329       .dwtag  DW_TAG_member
    4136                            .dwattr $C$DW$329, DW_AT_type(*$C$DW$T$20)
    4137                            .dwattr $C$DW$329, DW_AT_name("PPSxMSTID_L")
    4138                            .dwattr $C$DW$329, DW_AT_TI_symbol_name("PPSxMSTID_L")
    4139                            .dwattr $C$DW$329, DW_AT_data_member_location[DW_OP_plus_uconst 0x0]
    4140                            .dwattr $C$DW$329, DW_AT_accessibility(DW_ACCESS_public)
    4141                            .dwattr $C$DW$329, DW_AT_decl_file("C:\Users\bob\Documents\Projects\induct_forge\RM57Lx_test\P
    4142                            .dwattr $C$DW$329, DW_AT_decl_line(0x73)
    4143                            .dwattr $C$DW$329, DW_AT_decl_column(0x10)
    4144                    
    4145                    $C$DW$330       .dwtag  DW_TAG_member
    4146                            .dwattr $C$DW$330, DW_AT_type(*$C$DW$T$20)
    4147                            .dwattr $C$DW$330, DW_AT_name("PPSxMSTID_H")
    4148                            .dwattr $C$DW$330, DW_AT_TI_symbol_name("PPSxMSTID_H")
    4149                            .dwattr $C$DW$330, DW_AT_data_member_location[DW_OP_plus_uconst 0x4]
    4150                            .dwattr $C$DW$330, DW_AT_accessibility(DW_ACCESS_public)
    4151                            .dwattr $C$DW$330, DW_AT_decl_file("C:\Users\bob\Documents\Projects\induct_forge\RM57Lx_test\P
    4152                            .dwattr $C$DW$330, DW_AT_decl_line(0x74)
    4153                            .dwattr $C$DW$330, DW_AT_decl_column(0x10)
    4154                    
    4155                            .dwattr $C$DW$T$22, DW_AT_decl_file("C:\Users\bob\Documents\Projects\induct_forge\RM57Lx_test\
    4156                            .dwattr $C$DW$T$22, DW_AT_decl_line(0x72)
    4157                            .dwattr $C$DW$T$22, DW_AT_decl_column(0x05)
    4158                            .dwendtag $C$DW$T$22
    4159                    
    4160                    
    4161                    $C$DW$T$29      .dwtag  DW_TAG_array_type
    4162                            .dwattr $C$DW$T$29, DW_AT_type(*$C$DW$T$22)
    4163                            .dwattr $C$DW$T$29, DW_AT_language(DW_LANG_C)
    4164                            .dwattr $C$DW$T$29, DW_AT_byte_size(0x40)
    4165                    $C$DW$331       .dwtag  DW_TAG_subrange_type
    4166                            .dwattr $C$DW$331, DW_AT_upper_bound(0x07)
    4167                    
    4168                            .dwendtag $C$DW$T$29
    4169                    
    4170                    
    4171                    $C$DW$T$23      .dwtag  DW_TAG_structure_type
    4172                            .dwattr $C$DW$T$23, DW_AT_byte_size(0x08)
    4173                    $C$DW$332       .dwtag  DW_TAG_member
    4174                            .dwattr $C$DW$332, DW_AT_type(*$C$DW$T$20)
    4175                            .dwattr $C$DW$332, DW_AT_name("PPSExMSTID_L")
    4176                            .dwattr $C$DW$332, DW_AT_TI_symbol_name("PPSExMSTID_L")
    4177                            .dwattr $C$DW$332, DW_AT_data_member_location[DW_OP_plus_uconst 0x0]
    4178                            .dwattr $C$DW$332, DW_AT_accessibility(DW_ACCESS_public)
    4179                            .dwattr $C$DW$332, DW_AT_decl_file("C:\Users\bob\Documents\Projects\induct_forge\RM57Lx_test\P
    4180                            .dwattr $C$DW$332, DW_AT_decl_line(0x78)
TI ARM Assembler PC v16.9.0 Thu Feb 16 13:27:12 2017

Tools Copyright (c) 1996-2015 Texas Instruments Incorporated
C:\Users\bob\AppData\Local\Temp\1183610                              PAGE   77

    4181                            .dwattr $C$DW$332, DW_AT_decl_column(0x10)
    4182                    
    4183                    $C$DW$333       .dwtag  DW_TAG_member
    4184                            .dwattr $C$DW$333, DW_AT_type(*$C$DW$T$20)
    4185                            .dwattr $C$DW$333, DW_AT_name("PPSExMSTID_H")
    4186                            .dwattr $C$DW$333, DW_AT_TI_symbol_name("PPSExMSTID_H")
    4187                            .dwattr $C$DW$333, DW_AT_data_member_location[DW_OP_plus_uconst 0x4]
    4188                            .dwattr $C$DW$333, DW_AT_accessibility(DW_ACCESS_public)
    4189                            .dwattr $C$DW$333, DW_AT_decl_file("C:\Users\bob\Documents\Projects\induct_forge\RM57Lx_test\P
    4190                            .dwattr $C$DW$333, DW_AT_decl_line(0x79)
    4191                            .dwattr $C$DW$333, DW_AT_decl_column(0x10)
    4192                    
    4193                            .dwattr $C$DW$T$23, DW_AT_decl_file("C:\Users\bob\Documents\Projects\induct_forge\RM57Lx_test\
    4194                            .dwattr $C$DW$T$23, DW_AT_decl_line(0x77)
    4195                            .dwattr $C$DW$T$23, DW_AT_decl_column(0x05)
    4196                            .dwendtag $C$DW$T$23
    4197                    
    4198                    
    4199                    $C$DW$T$30      .dwtag  DW_TAG_array_type
    4200                            .dwattr $C$DW$T$30, DW_AT_type(*$C$DW$T$23)
    4201                            .dwattr $C$DW$T$30, DW_AT_language(DW_LANG_C)
    4202                            .dwattr $C$DW$T$30, DW_AT_byte_size(0x100)
    4203                    $C$DW$334       .dwtag  DW_TAG_subrange_type
    4204                            .dwattr $C$DW$334, DW_AT_upper_bound(0x1f)
    4205                    
    4206                            .dwendtag $C$DW$T$30
    4207                    
    4208                    $C$DW$T$2       .dwtag  DW_TAG_unspecified_type
    4209                            .dwattr $C$DW$T$2, DW_AT_name("void")
    4210                    
    4211                    $C$DW$T$4       .dwtag  DW_TAG_base_type
    4212                            .dwattr $C$DW$T$4, DW_AT_encoding(DW_ATE_boolean)
    4213                            .dwattr $C$DW$T$4, DW_AT_name("bool")
    4214                            .dwattr $C$DW$T$4, DW_AT_byte_size(0x01)
    4215                    
    4216                    $C$DW$T$5       .dwtag  DW_TAG_base_type
    4217                            .dwattr $C$DW$T$5, DW_AT_encoding(DW_ATE_signed_char)
    4218                            .dwattr $C$DW$T$5, DW_AT_name("signed char")
    4219                            .dwattr $C$DW$T$5, DW_AT_byte_size(0x01)
    4220                    
    4221                    $C$DW$T$66      .dwtag  DW_TAG_typedef
    4222                            .dwattr $C$DW$T$66, DW_AT_name("int8_t")
    4223                            .dwattr $C$DW$T$66, DW_AT_type(*$C$DW$T$5)
    4224                            .dwattr $C$DW$T$66, DW_AT_language(DW_LANG_C)
    4225                            .dwattr $C$DW$T$66, DW_AT_decl_file("C:/ti/ccsv7/tools/compiler/ti-cgt-arm_16.9.0.LTS/include/
    4226                            .dwattr $C$DW$T$66, DW_AT_decl_line(0x2a)
    4227                            .dwattr $C$DW$T$66, DW_AT_decl_column(0x1d)
    4228                    
    4229                    $C$DW$T$67      .dwtag  DW_TAG_typedef
    4230                            .dwattr $C$DW$T$67, DW_AT_name("int_least8_t")
    4231                            .dwattr $C$DW$T$67, DW_AT_type(*$C$DW$T$66)
    4232                            .dwattr $C$DW$T$67, DW_AT_language(DW_LANG_C)
    4233                            .dwattr $C$DW$T$67, DW_AT_decl_file("C:/ti/ccsv7/tools/compiler/ti-cgt-arm_16.9.0.LTS/include/
    4234                            .dwattr $C$DW$T$67, DW_AT_decl_line(0x37)
    4235                            .dwattr $C$DW$T$67, DW_AT_decl_column(0x17)
TI ARM Assembler PC v16.9.0 Thu Feb 16 13:27:12 2017

Tools Copyright (c) 1996-2015 Texas Instruments Incorporated
C:\Users\bob\AppData\Local\Temp\1183610                              PAGE   78

    4236                    
    4237                    $C$DW$T$68      .dwtag  DW_TAG_typedef
    4238                            .dwattr $C$DW$T$68, DW_AT_name("sint8")
    4239                            .dwattr $C$DW$T$68, DW_AT_type(*$C$DW$T$66)
    4240                            .dwattr $C$DW$T$68, DW_AT_language(DW_LANG_C)
    4241                            .dwattr $C$DW$T$68, DW_AT_decl_file("C:\Users\bob\Documents\Projects\induct_forge\RM57Lx_test\
    4242                            .dwattr $C$DW$T$68, DW_AT_decl_line(0x68)
    4243                            .dwattr $C$DW$T$68, DW_AT_decl_column(0x10)
    4244                    
    4245                    $C$DW$T$6       .dwtag  DW_TAG_base_type
    4246                            .dwattr $C$DW$T$6, DW_AT_encoding(DW_ATE_unsigned_char)
    4247                            .dwattr $C$DW$T$6, DW_AT_name("unsigned char")
    4248                            .dwattr $C$DW$T$6, DW_AT_byte_size(0x01)
    4249                    
    4250                    $C$DW$T$69      .dwtag  DW_TAG_typedef
    4251                            .dwattr $C$DW$T$69, DW_AT_name("uint8_t")
    4252                            .dwattr $C$DW$T$69, DW_AT_type(*$C$DW$T$6)
    4253                            .dwattr $C$DW$T$69, DW_AT_language(DW_LANG_C)
    4254                            .dwattr $C$DW$T$69, DW_AT_decl_file("C:/ti/ccsv7/tools/compiler/ti-cgt-arm_16.9.0.LTS/include/
    4255                            .dwattr $C$DW$T$69, DW_AT_decl_line(0x2b)
    4256                            .dwattr $C$DW$T$69, DW_AT_decl_column(0x1c)
    4257                    
    4258                    $C$DW$T$70      .dwtag  DW_TAG_typedef
    4259                            .dwattr $C$DW$T$70, DW_AT_name("uint8")
    4260                            .dwattr $C$DW$T$70, DW_AT_type(*$C$DW$T$69)
    4261                            .dwattr $C$DW$T$70, DW_AT_language(DW_LANG_C)
    4262                            .dwattr $C$DW$T$70, DW_AT_decl_file("C:\Users\bob\Documents\Projects\induct_forge\RM57Lx_test\
    4263                            .dwattr $C$DW$T$70, DW_AT_decl_line(0x4b)
    4264                            .dwattr $C$DW$T$70, DW_AT_decl_column(0x11)
    4265                    
    4266                    $C$DW$T$71      .dwtag  DW_TAG_typedef
    4267                            .dwattr $C$DW$T$71, DW_AT_name("uint_least8_t")
    4268                            .dwattr $C$DW$T$71, DW_AT_type(*$C$DW$T$69)
    4269                            .dwattr $C$DW$T$71, DW_AT_language(DW_LANG_C)
    4270                            .dwattr $C$DW$T$71, DW_AT_decl_file("C:/ti/ccsv7/tools/compiler/ti-cgt-arm_16.9.0.LTS/include/
    4271                            .dwattr $C$DW$T$71, DW_AT_decl_line(0x38)
    4272                            .dwattr $C$DW$T$71, DW_AT_decl_column(0x16)
    4273                    
    4274                    $C$DW$T$7       .dwtag  DW_TAG_base_type
    4275                            .dwattr $C$DW$T$7, DW_AT_encoding(DW_ATE_signed_char)
    4276                            .dwattr $C$DW$T$7, DW_AT_name("wchar_t")
    4277                            .dwattr $C$DW$T$7, DW_AT_byte_size(0x02)
    4278                    
    4279                    $C$DW$T$8       .dwtag  DW_TAG_base_type
    4280                            .dwattr $C$DW$T$8, DW_AT_encoding(DW_ATE_signed)
    4281                            .dwattr $C$DW$T$8, DW_AT_name("short")
    4282                            .dwattr $C$DW$T$8, DW_AT_byte_size(0x02)
    4283                    
    4284                    $C$DW$T$72      .dwtag  DW_TAG_typedef
    4285                            .dwattr $C$DW$T$72, DW_AT_name("int16_t")
    4286                            .dwattr $C$DW$T$72, DW_AT_type(*$C$DW$T$8)
    4287                            .dwattr $C$DW$T$72, DW_AT_language(DW_LANG_C)
    4288                            .dwattr $C$DW$T$72, DW_AT_decl_file("C:/ti/ccsv7/tools/compiler/ti-cgt-arm_16.9.0.LTS/include/
    4289                            .dwattr $C$DW$T$72, DW_AT_decl_line(0x2c)
    4290                            .dwattr $C$DW$T$72, DW_AT_decl_column(0x1d)
TI ARM Assembler PC v16.9.0 Thu Feb 16 13:27:12 2017

Tools Copyright (c) 1996-2015 Texas Instruments Incorporated
C:\Users\bob\AppData\Local\Temp\1183610                              PAGE   79

    4291                    
    4292                    $C$DW$T$73      .dwtag  DW_TAG_typedef
    4293                            .dwattr $C$DW$T$73, DW_AT_name("int_least16_t")
    4294                            .dwattr $C$DW$T$73, DW_AT_type(*$C$DW$T$72)
    4295                            .dwattr $C$DW$T$73, DW_AT_language(DW_LANG_C)
    4296                            .dwattr $C$DW$T$73, DW_AT_decl_file("C:/ti/ccsv7/tools/compiler/ti-cgt-arm_16.9.0.LTS/include/
    4297                            .dwattr $C$DW$T$73, DW_AT_decl_line(0x3a)
    4298                            .dwattr $C$DW$T$73, DW_AT_decl_column(0x17)
    4299                    
    4300                    $C$DW$T$74      .dwtag  DW_TAG_typedef
    4301                            .dwattr $C$DW$T$74, DW_AT_name("sint16")
    4302                            .dwattr $C$DW$T$74, DW_AT_type(*$C$DW$T$72)
    4303                            .dwattr $C$DW$T$74, DW_AT_language(DW_LANG_C)
    4304                            .dwattr $C$DW$T$74, DW_AT_decl_file("C:\Users\bob\Documents\Projects\induct_forge\RM57Lx_test\
    4305                            .dwattr $C$DW$T$74, DW_AT_decl_line(0x63)
    4306                            .dwattr $C$DW$T$74, DW_AT_decl_column(0x11)
    4307                    
    4308                    $C$DW$T$9       .dwtag  DW_TAG_base_type
    4309                            .dwattr $C$DW$T$9, DW_AT_encoding(DW_ATE_unsigned)
    4310                            .dwattr $C$DW$T$9, DW_AT_name("unsigned short")
    4311                            .dwattr $C$DW$T$9, DW_AT_byte_size(0x02)
    4312                    
    4313                    $C$DW$T$75      .dwtag  DW_TAG_typedef
    4314                            .dwattr $C$DW$T$75, DW_AT_name("uint16_t")
    4315                            .dwattr $C$DW$T$75, DW_AT_type(*$C$DW$T$9)
    4316                            .dwattr $C$DW$T$75, DW_AT_language(DW_LANG_C)
    4317                            .dwattr $C$DW$T$75, DW_AT_decl_file("C:/ti/ccsv7/tools/compiler/ti-cgt-arm_16.9.0.LTS/include/
    4318                            .dwattr $C$DW$T$75, DW_AT_decl_line(0x2d)
    4319                            .dwattr $C$DW$T$75, DW_AT_decl_column(0x1c)
    4320                    
    4321                    $C$DW$T$76      .dwtag  DW_TAG_typedef
    4322                            .dwattr $C$DW$T$76, DW_AT_name("uint16")
    4323                            .dwattr $C$DW$T$76, DW_AT_type(*$C$DW$T$75)
    4324                            .dwattr $C$DW$T$76, DW_AT_language(DW_LANG_C)
    4325                            .dwattr $C$DW$T$76, DW_AT_decl_file("C:\Users\bob\Documents\Projects\induct_forge\RM57Lx_test\
    4326                            .dwattr $C$DW$T$76, DW_AT_decl_line(0x46)
    4327                            .dwattr $C$DW$T$76, DW_AT_decl_column(0x12)
    4328                    
    4329                    $C$DW$T$77      .dwtag  DW_TAG_typedef
    4330                            .dwattr $C$DW$T$77, DW_AT_name("uint_least16_t")
    4331                            .dwattr $C$DW$T$77, DW_AT_type(*$C$DW$T$75)
    4332                            .dwattr $C$DW$T$77, DW_AT_language(DW_LANG_C)
    4333                            .dwattr $C$DW$T$77, DW_AT_decl_file("C:/ti/ccsv7/tools/compiler/ti-cgt-arm_16.9.0.LTS/include/
    4334                            .dwattr $C$DW$T$77, DW_AT_decl_line(0x3b)
    4335                            .dwattr $C$DW$T$77, DW_AT_decl_column(0x16)
    4336                    
    4337                    $C$DW$T$10      .dwtag  DW_TAG_base_type
    4338                            .dwattr $C$DW$T$10, DW_AT_encoding(DW_ATE_signed)
    4339                            .dwattr $C$DW$T$10, DW_AT_name("int")
    4340                            .dwattr $C$DW$T$10, DW_AT_byte_size(0x04)
    4341                    
    4342                    $C$DW$T$78      .dwtag  DW_TAG_typedef
    4343                            .dwattr $C$DW$T$78, DW_AT_name("int32_t")
    4344                            .dwattr $C$DW$T$78, DW_AT_type(*$C$DW$T$10)
    4345                            .dwattr $C$DW$T$78, DW_AT_language(DW_LANG_C)
TI ARM Assembler PC v16.9.0 Thu Feb 16 13:27:12 2017

Tools Copyright (c) 1996-2015 Texas Instruments Incorporated
C:\Users\bob\AppData\Local\Temp\1183610                              PAGE   80

    4346                            .dwattr $C$DW$T$78, DW_AT_decl_file("C:/ti/ccsv7/tools/compiler/ti-cgt-arm_16.9.0.LTS/include/
    4347                            .dwattr $C$DW$T$78, DW_AT_decl_line(0x2e)
    4348                            .dwattr $C$DW$T$78, DW_AT_decl_column(0x1d)
    4349                    
    4350                    $C$DW$T$79      .dwtag  DW_TAG_typedef
    4351                            .dwattr $C$DW$T$79, DW_AT_name("int_fast16_t")
    4352                            .dwattr $C$DW$T$79, DW_AT_type(*$C$DW$T$78)
    4353                            .dwattr $C$DW$T$79, DW_AT_language(DW_LANG_C)
    4354                            .dwattr $C$DW$T$79, DW_AT_decl_file("C:/ti/ccsv7/tools/compiler/ti-cgt-arm_16.9.0.LTS/include/
    4355                            .dwattr $C$DW$T$79, DW_AT_decl_line(0x47)
    4356                            .dwattr $C$DW$T$79, DW_AT_decl_column(0x17)
    4357                    
    4358                    $C$DW$T$80      .dwtag  DW_TAG_typedef
    4359                            .dwattr $C$DW$T$80, DW_AT_name("int_fast32_t")
    4360                            .dwattr $C$DW$T$80, DW_AT_type(*$C$DW$T$78)
    4361                            .dwattr $C$DW$T$80, DW_AT_language(DW_LANG_C)
    4362                            .dwattr $C$DW$T$80, DW_AT_decl_file("C:/ti/ccsv7/tools/compiler/ti-cgt-arm_16.9.0.LTS/include/
    4363                            .dwattr $C$DW$T$80, DW_AT_decl_line(0x4a)
    4364                            .dwattr $C$DW$T$80, DW_AT_decl_column(0x17)
    4365                    
    4366                    $C$DW$T$81      .dwtag  DW_TAG_typedef
    4367                            .dwattr $C$DW$T$81, DW_AT_name("int_fast8_t")
    4368                            .dwattr $C$DW$T$81, DW_AT_type(*$C$DW$T$78)
    4369                            .dwattr $C$DW$T$81, DW_AT_language(DW_LANG_C)
    4370                            .dwattr $C$DW$T$81, DW_AT_decl_file("C:/ti/ccsv7/tools/compiler/ti-cgt-arm_16.9.0.LTS/include/
    4371                            .dwattr $C$DW$T$81, DW_AT_decl_line(0x45)
    4372                            .dwattr $C$DW$T$81, DW_AT_decl_column(0x17)
    4373                    
    4374                    $C$DW$T$82      .dwtag  DW_TAG_typedef
    4375                            .dwattr $C$DW$T$82, DW_AT_name("int_least32_t")
    4376                            .dwattr $C$DW$T$82, DW_AT_type(*$C$DW$T$78)
    4377                            .dwattr $C$DW$T$82, DW_AT_language(DW_LANG_C)
    4378                            .dwattr $C$DW$T$82, DW_AT_decl_file("C:/ti/ccsv7/tools/compiler/ti-cgt-arm_16.9.0.LTS/include/
    4379                            .dwattr $C$DW$T$82, DW_AT_decl_line(0x3c)
    4380                            .dwattr $C$DW$T$82, DW_AT_decl_column(0x17)
    4381                    
    4382                    $C$DW$T$83      .dwtag  DW_TAG_typedef
    4383                            .dwattr $C$DW$T$83, DW_AT_name("sint32")
    4384                            .dwattr $C$DW$T$83, DW_AT_type(*$C$DW$T$78)
    4385                            .dwattr $C$DW$T$83, DW_AT_language(DW_LANG_C)
    4386                            .dwattr $C$DW$T$83, DW_AT_decl_file("C:\Users\bob\Documents\Projects\induct_forge\RM57Lx_test\
    4387                            .dwattr $C$DW$T$83, DW_AT_decl_line(0x5e)
    4388                            .dwattr $C$DW$T$83, DW_AT_decl_column(0x11)
    4389                    
    4390                    $C$DW$T$84      .dwtag  DW_TAG_typedef
    4391                            .dwattr $C$DW$T$84, DW_AT_name("intptr_t")
    4392                            .dwattr $C$DW$T$84, DW_AT_type(*$C$DW$T$10)
    4393                            .dwattr $C$DW$T$84, DW_AT_language(DW_LANG_C)
    4394                            .dwattr $C$DW$T$84, DW_AT_decl_file("C:/ti/ccsv7/tools/compiler/ti-cgt-arm_16.9.0.LTS/include/
    4395                            .dwattr $C$DW$T$84, DW_AT_decl_line(0x52)
    4396                            .dwattr $C$DW$T$84, DW_AT_decl_column(0x1a)
    4397                    
    4398                    $C$DW$T$11      .dwtag  DW_TAG_base_type
    4399                            .dwattr $C$DW$T$11, DW_AT_encoding(DW_ATE_unsigned)
    4400                            .dwattr $C$DW$T$11, DW_AT_name("unsigned int")
TI ARM Assembler PC v16.9.0 Thu Feb 16 13:27:12 2017

Tools Copyright (c) 1996-2015 Texas Instruments Incorporated
C:\Users\bob\AppData\Local\Temp\1183610                              PAGE   81

    4401                            .dwattr $C$DW$T$11, DW_AT_byte_size(0x04)
    4402                    
    4403                    $C$DW$T$19      .dwtag  DW_TAG_typedef
    4404                            .dwattr $C$DW$T$19, DW_AT_name("uint32_t")
    4405                            .dwattr $C$DW$T$19, DW_AT_type(*$C$DW$T$11)
    4406                            .dwattr $C$DW$T$19, DW_AT_language(DW_LANG_C)
    4407                            .dwattr $C$DW$T$19, DW_AT_decl_file("C:/ti/ccsv7/tools/compiler/ti-cgt-arm_16.9.0.LTS/include/
    4408                            .dwattr $C$DW$T$19, DW_AT_decl_line(0x2f)
    4409                            .dwattr $C$DW$T$19, DW_AT_decl_column(0x1c)
    4410                    
    4411                    $C$DW$T$20      .dwtag  DW_TAG_typedef
    4412                            .dwattr $C$DW$T$20, DW_AT_name("uint32")
    4413                            .dwattr $C$DW$T$20, DW_AT_type(*$C$DW$T$19)
    4414                            .dwattr $C$DW$T$20, DW_AT_language(DW_LANG_C)
    4415                            .dwattr $C$DW$T$20, DW_AT_decl_file("C:\Users\bob\Documents\Projects\induct_forge\RM57Lx_test\
    4416                            .dwattr $C$DW$T$20, DW_AT_decl_line(0x41)
    4417                            .dwattr $C$DW$T$20, DW_AT_decl_column(0x12)
    4418                    
    4419                    
    4420                    $C$DW$T$24      .dwtag  DW_TAG_array_type
    4421                            .dwattr $C$DW$T$24, DW_AT_type(*$C$DW$T$20)
    4422                            .dwattr $C$DW$T$24, DW_AT_language(DW_LANG_C)
    4423                            .dwattr $C$DW$T$24, DW_AT_byte_size(0x08)
    4424                    $C$DW$335       .dwtag  DW_TAG_subrange_type
    4425                            .dwattr $C$DW$335, DW_AT_upper_bound(0x01)
    4426                    
    4427                            .dwendtag $C$DW$T$24
    4428                    
    4429                    
    4430                    $C$DW$T$25      .dwtag  DW_TAG_array_type
    4431                            .dwattr $C$DW$T$25, DW_AT_type(*$C$DW$T$20)
    4432                            .dwattr $C$DW$T$25, DW_AT_language(DW_LANG_C)
    4433                            .dwattr $C$DW$T$25, DW_AT_byte_size(0x10)
    4434                    $C$DW$336       .dwtag  DW_TAG_subrange_type
    4435                            .dwattr $C$DW$336, DW_AT_upper_bound(0x03)
    4436                    
    4437                            .dwendtag $C$DW$T$25
    4438                    
    4439                    
    4440                    $C$DW$T$26      .dwtag  DW_TAG_array_type
    4441                            .dwattr $C$DW$T$26, DW_AT_type(*$C$DW$T$20)
    4442                            .dwattr $C$DW$T$26, DW_AT_language(DW_LANG_C)
    4443                            .dwattr $C$DW$T$26, DW_AT_byte_size(0x138)
    4444                    $C$DW$337       .dwtag  DW_TAG_subrange_type
    4445                            .dwattr $C$DW$337, DW_AT_upper_bound(0x4d)
    4446                    
    4447                            .dwendtag $C$DW$T$26
    4448                    
    4449                    
    4450                    $C$DW$T$27      .dwtag  DW_TAG_array_type
    4451                            .dwattr $C$DW$T$27, DW_AT_type(*$C$DW$T$20)
    4452                            .dwattr $C$DW$T$27, DW_AT_language(DW_LANG_C)
    4453                            .dwattr $C$DW$T$27, DW_AT_byte_size(0xf4)
    4454                    $C$DW$338       .dwtag  DW_TAG_subrange_type
    4455                            .dwattr $C$DW$338, DW_AT_upper_bound(0x3c)
TI ARM Assembler PC v16.9.0 Thu Feb 16 13:27:12 2017

Tools Copyright (c) 1996-2015 Texas Instruments Incorporated
C:\Users\bob\AppData\Local\Temp\1183610                              PAGE   82

    4456                    
    4457                            .dwendtag $C$DW$T$27
    4458                    
    4459                    
    4460                    $C$DW$T$31      .dwtag  DW_TAG_array_type
    4461                            .dwattr $C$DW$T$31, DW_AT_type(*$C$DW$T$20)
    4462                            .dwattr $C$DW$T$31, DW_AT_language(DW_LANG_C)
    4463                            .dwattr $C$DW$T$31, DW_AT_byte_size(0x80)
    4464                    $C$DW$339       .dwtag  DW_TAG_subrange_type
    4465                            .dwattr $C$DW$339, DW_AT_upper_bound(0x1f)
    4466                    
    4467                            .dwendtag $C$DW$T$31
    4468                    
    4469                    
    4470                    $C$DW$T$32      .dwtag  DW_TAG_array_type
    4471                            .dwattr $C$DW$T$32, DW_AT_type(*$C$DW$T$20)
    4472                            .dwattr $C$DW$T$32, DW_AT_language(DW_LANG_C)
    4473                            .dwattr $C$DW$T$32, DW_AT_byte_size(0x20)
    4474                    $C$DW$340       .dwtag  DW_TAG_subrange_type
    4475                            .dwattr $C$DW$340, DW_AT_upper_bound(0x07)
    4476                    
    4477                            .dwendtag $C$DW$T$32
    4478                    
    4479                    $C$DW$T$89      .dwtag  DW_TAG_typedef
    4480                            .dwattr $C$DW$T$89, DW_AT_name("uint_fast16_t")
    4481                            .dwattr $C$DW$T$89, DW_AT_type(*$C$DW$T$19)
    4482                            .dwattr $C$DW$T$89, DW_AT_language(DW_LANG_C)
    4483                            .dwattr $C$DW$T$89, DW_AT_decl_file("C:/ti/ccsv7/tools/compiler/ti-cgt-arm_16.9.0.LTS/include/
    4484                            .dwattr $C$DW$T$89, DW_AT_decl_line(0x48)
    4485                            .dwattr $C$DW$T$89, DW_AT_decl_column(0x16)
    4486                    
    4487                    $C$DW$T$90      .dwtag  DW_TAG_typedef
    4488                            .dwattr $C$DW$T$90, DW_AT_name("uint_fast32_t")
    4489                            .dwattr $C$DW$T$90, DW_AT_type(*$C$DW$T$19)
    4490                            .dwattr $C$DW$T$90, DW_AT_language(DW_LANG_C)
    4491                            .dwattr $C$DW$T$90, DW_AT_decl_file("C:/ti/ccsv7/tools/compiler/ti-cgt-arm_16.9.0.LTS/include/
    4492                            .dwattr $C$DW$T$90, DW_AT_decl_line(0x4b)
    4493                            .dwattr $C$DW$T$90, DW_AT_decl_column(0x16)
    4494                    
    4495                    $C$DW$T$91      .dwtag  DW_TAG_typedef
    4496                            .dwattr $C$DW$T$91, DW_AT_name("uint_fast8_t")
    4497                            .dwattr $C$DW$T$91, DW_AT_type(*$C$DW$T$19)
    4498                            .dwattr $C$DW$T$91, DW_AT_language(DW_LANG_C)
    4499                            .dwattr $C$DW$T$91, DW_AT_decl_file("C:/ti/ccsv7/tools/compiler/ti-cgt-arm_16.9.0.LTS/include/
    4500                            .dwattr $C$DW$T$91, DW_AT_decl_line(0x46)
    4501                            .dwattr $C$DW$T$91, DW_AT_decl_column(0x16)
    4502                    
    4503                    $C$DW$T$92      .dwtag  DW_TAG_typedef
    4504                            .dwattr $C$DW$T$92, DW_AT_name("uint_least32_t")
    4505                            .dwattr $C$DW$T$92, DW_AT_type(*$C$DW$T$19)
    4506                            .dwattr $C$DW$T$92, DW_AT_language(DW_LANG_C)
    4507                            .dwattr $C$DW$T$92, DW_AT_decl_file("C:/ti/ccsv7/tools/compiler/ti-cgt-arm_16.9.0.LTS/include/
    4508                            .dwattr $C$DW$T$92, DW_AT_decl_line(0x3d)
    4509                            .dwattr $C$DW$T$92, DW_AT_decl_column(0x16)
    4510                    
TI ARM Assembler PC v16.9.0 Thu Feb 16 13:27:12 2017

Tools Copyright (c) 1996-2015 Texas Instruments Incorporated
C:\Users\bob\AppData\Local\Temp\1183610                              PAGE   83

    4511                    $C$DW$T$93      .dwtag  DW_TAG_typedef
    4512                            .dwattr $C$DW$T$93, DW_AT_name("uintptr_t")
    4513                            .dwattr $C$DW$T$93, DW_AT_type(*$C$DW$T$11)
    4514                            .dwattr $C$DW$T$93, DW_AT_language(DW_LANG_C)
    4515                            .dwattr $C$DW$T$93, DW_AT_decl_file("C:/ti/ccsv7/tools/compiler/ti-cgt-arm_16.9.0.LTS/include/
    4516                            .dwattr $C$DW$T$93, DW_AT_decl_line(0x53)
    4517                            .dwattr $C$DW$T$93, DW_AT_decl_column(0x1a)
    4518                    
    4519                    $C$DW$T$12      .dwtag  DW_TAG_base_type
    4520                            .dwattr $C$DW$T$12, DW_AT_encoding(DW_ATE_signed)
    4521                            .dwattr $C$DW$T$12, DW_AT_name("long")
    4522                            .dwattr $C$DW$T$12, DW_AT_byte_size(0x04)
    4523                    
    4524                    $C$DW$T$13      .dwtag  DW_TAG_base_type
    4525                            .dwattr $C$DW$T$13, DW_AT_encoding(DW_ATE_unsigned)
    4526                            .dwattr $C$DW$T$13, DW_AT_name("unsigned long")
    4527                            .dwattr $C$DW$T$13, DW_AT_byte_size(0x04)
    4528                    
    4529                    $C$DW$T$14      .dwtag  DW_TAG_base_type
    4530                            .dwattr $C$DW$T$14, DW_AT_encoding(DW_ATE_signed)
    4531                            .dwattr $C$DW$T$14, DW_AT_name("long long")
    4532                            .dwattr $C$DW$T$14, DW_AT_byte_size(0x08)
    4533                    
    4534                    $C$DW$T$94      .dwtag  DW_TAG_typedef
    4535                            .dwattr $C$DW$T$94, DW_AT_name("int64_t")
    4536                            .dwattr $C$DW$T$94, DW_AT_type(*$C$DW$T$14)
    4537                            .dwattr $C$DW$T$94, DW_AT_language(DW_LANG_C)
    4538                            .dwattr $C$DW$T$94, DW_AT_decl_file("C:/ti/ccsv7/tools/compiler/ti-cgt-arm_16.9.0.LTS/include/
    4539                            .dwattr $C$DW$T$94, DW_AT_decl_line(0x32)
    4540                            .dwattr $C$DW$T$94, DW_AT_decl_column(0x21)
    4541                    
    4542                    $C$DW$T$95      .dwtag  DW_TAG_typedef
    4543                            .dwattr $C$DW$T$95, DW_AT_name("int_fast64_t")
    4544                            .dwattr $C$DW$T$95, DW_AT_type(*$C$DW$T$94)
    4545                            .dwattr $C$DW$T$95, DW_AT_language(DW_LANG_C)
    4546                            .dwattr $C$DW$T$95, DW_AT_decl_file("C:/ti/ccsv7/tools/compiler/ti-cgt-arm_16.9.0.LTS/include/
    4547                            .dwattr $C$DW$T$95, DW_AT_decl_line(0x4e)
    4548                            .dwattr $C$DW$T$95, DW_AT_decl_column(0x17)
    4549                    
    4550                    $C$DW$T$96      .dwtag  DW_TAG_typedef
    4551                            .dwattr $C$DW$T$96, DW_AT_name("int_least64_t")
    4552                            .dwattr $C$DW$T$96, DW_AT_type(*$C$DW$T$94)
    4553                            .dwattr $C$DW$T$96, DW_AT_language(DW_LANG_C)
    4554                            .dwattr $C$DW$T$96, DW_AT_decl_file("C:/ti/ccsv7/tools/compiler/ti-cgt-arm_16.9.0.LTS/include/
    4555                            .dwattr $C$DW$T$96, DW_AT_decl_line(0x40)
    4556                            .dwattr $C$DW$T$96, DW_AT_decl_column(0x17)
    4557                    
    4558                    $C$DW$T$97      .dwtag  DW_TAG_typedef
    4559                            .dwattr $C$DW$T$97, DW_AT_name("sint64")
    4560                            .dwattr $C$DW$T$97, DW_AT_type(*$C$DW$T$94)
    4561                            .dwattr $C$DW$T$97, DW_AT_language(DW_LANG_C)
    4562                            .dwattr $C$DW$T$97, DW_AT_decl_file("C:\Users\bob\Documents\Projects\induct_forge\RM57Lx_test\
    4563                            .dwattr $C$DW$T$97, DW_AT_decl_line(0x59)
    4564                            .dwattr $C$DW$T$97, DW_AT_decl_column(0x11)
    4565                    
TI ARM Assembler PC v16.9.0 Thu Feb 16 13:27:12 2017

Tools Copyright (c) 1996-2015 Texas Instruments Incorporated
C:\Users\bob\AppData\Local\Temp\1183610                              PAGE   84

    4566                    $C$DW$T$98      .dwtag  DW_TAG_typedef
    4567                            .dwattr $C$DW$T$98, DW_AT_name("intmax_t")
    4568                            .dwattr $C$DW$T$98, DW_AT_type(*$C$DW$T$14)
    4569                            .dwattr $C$DW$T$98, DW_AT_language(DW_LANG_C)
    4570                            .dwattr $C$DW$T$98, DW_AT_decl_file("C:/ti/ccsv7/tools/compiler/ti-cgt-arm_16.9.0.LTS/include/
    4571                            .dwattr $C$DW$T$98, DW_AT_decl_line(0x56)
    4572                            .dwattr $C$DW$T$98, DW_AT_decl_column(0x20)
    4573                    
    4574                    $C$DW$T$15      .dwtag  DW_TAG_base_type
    4575                            .dwattr $C$DW$T$15, DW_AT_encoding(DW_ATE_unsigned)
    4576                            .dwattr $C$DW$T$15, DW_AT_name("unsigned long long")
    4577                            .dwattr $C$DW$T$15, DW_AT_byte_size(0x08)
    4578                    
    4579                    $C$DW$T$99      .dwtag  DW_TAG_typedef
    4580                            .dwattr $C$DW$T$99, DW_AT_name("uint64_t")
    4581                            .dwattr $C$DW$T$99, DW_AT_type(*$C$DW$T$15)
    4582                            .dwattr $C$DW$T$99, DW_AT_language(DW_LANG_C)
    4583                            .dwattr $C$DW$T$99, DW_AT_decl_file("C:/ti/ccsv7/tools/compiler/ti-cgt-arm_16.9.0.LTS/include/
    4584                            .dwattr $C$DW$T$99, DW_AT_decl_line(0x33)
    4585                            .dwattr $C$DW$T$99, DW_AT_decl_column(0x20)
    4586                    
    4587                    $C$DW$T$100     .dwtag  DW_TAG_typedef
    4588                            .dwattr $C$DW$T$100, DW_AT_name("uint64")
    4589                            .dwattr $C$DW$T$100, DW_AT_type(*$C$DW$T$99)
    4590                            .dwattr $C$DW$T$100, DW_AT_language(DW_LANG_C)
    4591                            .dwattr $C$DW$T$100, DW_AT_decl_file("C:\Users\bob\Documents\Projects\induct_forge\RM57Lx_test
    4592                            .dwattr $C$DW$T$100, DW_AT_decl_line(0x3c)
    4593                            .dwattr $C$DW$T$100, DW_AT_decl_column(0x12)
    4594                    
    4595                    $C$DW$T$101     .dwtag  DW_TAG_typedef
    4596                            .dwattr $C$DW$T$101, DW_AT_name("uint_fast64_t")
    4597                            .dwattr $C$DW$T$101, DW_AT_type(*$C$DW$T$99)
    4598                            .dwattr $C$DW$T$101, DW_AT_language(DW_LANG_C)
    4599                            .dwattr $C$DW$T$101, DW_AT_decl_file("C:/ti/ccsv7/tools/compiler/ti-cgt-arm_16.9.0.LTS/include
    4600                            .dwattr $C$DW$T$101, DW_AT_decl_line(0x4f)
    4601                            .dwattr $C$DW$T$101, DW_AT_decl_column(0x16)
    4602                    
    4603                    $C$DW$T$102     .dwtag  DW_TAG_typedef
    4604                            .dwattr $C$DW$T$102, DW_AT_name("uint_least64_t")
    4605                            .dwattr $C$DW$T$102, DW_AT_type(*$C$DW$T$99)
    4606                            .dwattr $C$DW$T$102, DW_AT_language(DW_LANG_C)
    4607                            .dwattr $C$DW$T$102, DW_AT_decl_file("C:/ti/ccsv7/tools/compiler/ti-cgt-arm_16.9.0.LTS/include
    4608                            .dwattr $C$DW$T$102, DW_AT_decl_line(0x41)
    4609                            .dwattr $C$DW$T$102, DW_AT_decl_column(0x16)
    4610                    
    4611                    $C$DW$T$103     .dwtag  DW_TAG_typedef
    4612                            .dwattr $C$DW$T$103, DW_AT_name("uintmax_t")
    4613                            .dwattr $C$DW$T$103, DW_AT_type(*$C$DW$T$15)
    4614                            .dwattr $C$DW$T$103, DW_AT_language(DW_LANG_C)
    4615                            .dwattr $C$DW$T$103, DW_AT_decl_file("C:/ti/ccsv7/tools/compiler/ti-cgt-arm_16.9.0.LTS/include
    4616                            .dwattr $C$DW$T$103, DW_AT_decl_line(0x57)
    4617                            .dwattr $C$DW$T$103, DW_AT_decl_column(0x20)
    4618                    
    4619                    $C$DW$T$16      .dwtag  DW_TAG_base_type
    4620                            .dwattr $C$DW$T$16, DW_AT_encoding(DW_ATE_float)
TI ARM Assembler PC v16.9.0 Thu Feb 16 13:27:12 2017

Tools Copyright (c) 1996-2015 Texas Instruments Incorporated
C:\Users\bob\AppData\Local\Temp\1183610                              PAGE   85

    4621                            .dwattr $C$DW$T$16, DW_AT_name("float")
    4622                            .dwattr $C$DW$T$16, DW_AT_byte_size(0x04)
    4623                    
    4624                    $C$DW$T$104     .dwtag  DW_TAG_typedef
    4625                            .dwattr $C$DW$T$104, DW_AT_name("float32")
    4626                            .dwattr $C$DW$T$104, DW_AT_type(*$C$DW$T$16)
    4627                            .dwattr $C$DW$T$104, DW_AT_language(DW_LANG_C)
    4628                            .dwattr $C$DW$T$104, DW_AT_decl_file("C:\Users\bob\Documents\Projects\induct_forge\RM57Lx_test
    4629                            .dwattr $C$DW$T$104, DW_AT_decl_line(0x6d)
    4630                            .dwattr $C$DW$T$104, DW_AT_decl_column(0x0f)
    4631                    
    4632                    $C$DW$T$17      .dwtag  DW_TAG_base_type
    4633                            .dwattr $C$DW$T$17, DW_AT_encoding(DW_ATE_float)
    4634                            .dwattr $C$DW$T$17, DW_AT_name("double")
    4635                            .dwattr $C$DW$T$17, DW_AT_byte_size(0x08)
    4636                    
    4637                    $C$DW$T$105     .dwtag  DW_TAG_typedef
    4638                            .dwattr $C$DW$T$105, DW_AT_name("float64")
    4639                            .dwattr $C$DW$T$105, DW_AT_type(*$C$DW$T$17)
    4640                            .dwattr $C$DW$T$105, DW_AT_language(DW_LANG_C)
    4641                            .dwattr $C$DW$T$105, DW_AT_decl_file("C:\Users\bob\Documents\Projects\induct_forge\RM57Lx_test
    4642                            .dwattr $C$DW$T$105, DW_AT_decl_line(0x72)
    4643                            .dwattr $C$DW$T$105, DW_AT_decl_column(0x10)
    4644                    
    4645                    $C$DW$T$18      .dwtag  DW_TAG_base_type
    4646                            .dwattr $C$DW$T$18, DW_AT_encoding(DW_ATE_float)
    4647                            .dwattr $C$DW$T$18, DW_AT_name("long double")
    4648                            .dwattr $C$DW$T$18, DW_AT_byte_size(0x08)
    4649                    
    4650                    $C$DW$T$106     .dwtag  DW_TAG_base_type
    4651                            .dwattr $C$DW$T$106, DW_AT_encoding(DW_ATE_unsigned_char)
    4652                            .dwattr $C$DW$T$106, DW_AT_name("unsigned char")
    4653                            .dwattr $C$DW$T$106, DW_AT_byte_size(0x01)
    4654                    
    4655                    $C$DW$T$107     .dwtag  DW_TAG_typedef
    4656                            .dwattr $C$DW$T$107, DW_AT_name("boolean")
    4657                            .dwattr $C$DW$T$107, DW_AT_type(*$C$DW$T$106)
    4658                            .dwattr $C$DW$T$107, DW_AT_language(DW_LANG_C)
    4659                            .dwattr $C$DW$T$107, DW_AT_decl_file("C:\Users\bob\Documents\Projects\induct_forge\RM57Lx_test
    4660                            .dwattr $C$DW$T$107, DW_AT_decl_line(0x53)
    4661                            .dwattr $C$DW$T$107, DW_AT_decl_column(0x0f)
    4662                    
    4663                    $C$DW$T$108     .dwtag  DW_TAG_typedef
    4664                            .dwattr $C$DW$T$108, DW_AT_name("tBoolean")
    4665                            .dwattr $C$DW$T$108, DW_AT_type(*$C$DW$T$107)
    4666                            .dwattr $C$DW$T$108, DW_AT_language(DW_LANG_C)
    4667                            .dwattr $C$DW$T$108, DW_AT_decl_file("C:\Users\bob\Documents\Projects\induct_forge\RM57Lx_test
    4668                            .dwattr $C$DW$T$108, DW_AT_decl_line(0x40)
    4669                            .dwattr $C$DW$T$108, DW_AT_decl_column(0x11)
    4670                    
    4671                    
    4672                    $C$DW$T$109     .dwtag  DW_TAG_enumeration_type
    4673                            .dwattr $C$DW$T$109, DW_AT_name("config_value_type")
    4674                            .dwattr $C$DW$T$109, DW_AT_byte_size(0x01)
    4675                    $C$DW$341       .dwtag  DW_TAG_enumerator
TI ARM Assembler PC v16.9.0 Thu Feb 16 13:27:12 2017

Tools Copyright (c) 1996-2015 Texas Instruments Incorporated
C:\Users\bob\AppData\Local\Temp\1183610                              PAGE   86

    4676                            .dwattr $C$DW$341, DW_AT_name("InitialValue")
    4677                            .dwattr $C$DW$341, DW_AT_const_value(0x00)
    4678                            .dwattr $C$DW$341, DW_AT_decl_file("C:\Users\bob\Documents\Projects\induct_forge\RM57Lx_test\P
    4679                            .dwattr $C$DW$341, DW_AT_decl_line(0x5c)
    4680                            .dwattr $C$DW$341, DW_AT_decl_column(0x02)
    4681                    
    4682                    $C$DW$342       .dwtag  DW_TAG_enumerator
    4683                            .dwattr $C$DW$342, DW_AT_name("CurrentValue")
    4684                            .dwattr $C$DW$342, DW_AT_const_value(0x01)
    4685                            .dwattr $C$DW$342, DW_AT_decl_file("C:\Users\bob\Documents\Projects\induct_forge\RM57Lx_test\P
    4686                            .dwattr $C$DW$342, DW_AT_decl_line(0x5d)
    4687                            .dwattr $C$DW$342, DW_AT_decl_column(0x02)
    4688                    
    4689                            .dwattr $C$DW$T$109, DW_AT_decl_file("C:\Users\bob\Documents\Projects\induct_forge\RM57Lx_test
    4690                            .dwattr $C$DW$T$109, DW_AT_decl_line(0x5a)
    4691                            .dwattr $C$DW$T$109, DW_AT_decl_column(0x0e)
    4692                            .dwendtag $C$DW$T$109
    4693                    
    4694                    $C$DW$T$110     .dwtag  DW_TAG_typedef
    4695                            .dwattr $C$DW$T$110, DW_AT_name("config_value_type_t")
    4696                            .dwattr $C$DW$T$110, DW_AT_type(*$C$DW$T$109)
    4697                            .dwattr $C$DW$T$110, DW_AT_language(DW_LANG_C)
    4698                            .dwattr $C$DW$T$110, DW_AT_decl_file("C:\Users\bob\Documents\Projects\induct_forge\RM57Lx_test
    4699                            .dwattr $C$DW$T$110, DW_AT_decl_line(0x5e)
    4700                            .dwattr $C$DW$T$110, DW_AT_decl_column(0x02)
    4701                    
    4702                    
    4703                    $C$DW$T$111     .dwtag  DW_TAG_enumeration_type
    4704                            .dwattr $C$DW$T$111, DW_AT_name("loopBackType")
    4705                            .dwattr $C$DW$T$111, DW_AT_byte_size(0x01)
    4706                    $C$DW$343       .dwtag  DW_TAG_enumerator
    4707                            .dwattr $C$DW$343, DW_AT_name("Digital_Lbk")
    4708                            .dwattr $C$DW$343, DW_AT_const_value(0x00)
    4709                            .dwattr $C$DW$343, DW_AT_decl_file("C:\Users\bob\Documents\Projects\induct_forge\RM57Lx_test\P
    4710                            .dwattr $C$DW$343, DW_AT_decl_line(0x4e)
    4711                            .dwattr $C$DW$343, DW_AT_decl_column(0x05)
    4712                    
    4713                    $C$DW$344       .dwtag  DW_TAG_enumerator
    4714                            .dwattr $C$DW$344, DW_AT_name("Analog_Lbk")
    4715                            .dwattr $C$DW$344, DW_AT_const_value(0x01)
    4716                            .dwattr $C$DW$344, DW_AT_decl_file("C:\Users\bob\Documents\Projects\induct_forge\RM57Lx_test\P
    4717                            .dwattr $C$DW$344, DW_AT_decl_line(0x4f)
    4718                            .dwattr $C$DW$344, DW_AT_decl_column(0x05)
    4719                    
    4720                            .dwattr $C$DW$T$111, DW_AT_decl_file("C:\Users\bob\Documents\Projects\induct_forge\RM57Lx_test
    4721                            .dwattr $C$DW$T$111, DW_AT_decl_line(0x4c)
    4722                            .dwattr $C$DW$T$111, DW_AT_decl_column(0x0e)
    4723                            .dwendtag $C$DW$T$111
    4724                    
    4725                    $C$DW$T$112     .dwtag  DW_TAG_typedef
    4726                            .dwattr $C$DW$T$112, DW_AT_name("loopBackType_t")
    4727                            .dwattr $C$DW$T$112, DW_AT_type(*$C$DW$T$111)
    4728                            .dwattr $C$DW$T$112, DW_AT_language(DW_LANG_C)
    4729                            .dwattr $C$DW$T$112, DW_AT_decl_file("C:\Users\bob\Documents\Projects\induct_forge\RM57Lx_test
    4730                            .dwattr $C$DW$T$112, DW_AT_decl_line(0x50)
TI ARM Assembler PC v16.9.0 Thu Feb 16 13:27:12 2017

Tools Copyright (c) 1996-2015 Texas Instruments Incorporated
C:\Users\bob\AppData\Local\Temp\1183610                              PAGE   87

    4731                            .dwattr $C$DW$T$112, DW_AT_decl_column(0x02)
    4732                    
    4733                    
    4734                    $C$DW$T$33      .dwtag  DW_TAG_structure_type
    4735                            .dwattr $C$DW$T$33, DW_AT_name("pcrBase")
    4736                            .dwattr $C$DW$T$33, DW_AT_byte_size(0x5e0)
    4737                    $C$DW$345       .dwtag  DW_TAG_member
    4738                            .dwattr $C$DW$345, DW_AT_type(*$C$DW$T$20)
    4739                            .dwattr $C$DW$345, DW_AT_name("PMPROTSET0")
    4740                            .dwattr $C$DW$345, DW_AT_TI_symbol_name("PMPROTSET0")
    4741                            .dwattr $C$DW$345, DW_AT_data_member_location[DW_OP_plus_uconst 0x0]
    4742                            .dwattr $C$DW$345, DW_AT_accessibility(DW_ACCESS_public)
    4743                            .dwattr $C$DW$345, DW_AT_decl_file("C:\Users\bob\Documents\Projects\induct_forge\RM57Lx_test\P
    4744                            .dwattr $C$DW$345, DW_AT_decl_line(0x45)
    4745                            .dwattr $C$DW$345, DW_AT_decl_column(0x0c)
    4746                    
    4747                    $C$DW$346       .dwtag  DW_TAG_member
    4748                            .dwattr $C$DW$346, DW_AT_type(*$C$DW$T$20)
    4749                            .dwattr $C$DW$346, DW_AT_name("PMPROTSET1")
    4750                            .dwattr $C$DW$346, DW_AT_TI_symbol_name("PMPROTSET1")
    4751                            .dwattr $C$DW$346, DW_AT_data_member_location[DW_OP_plus_uconst 0x4]
    4752                            .dwattr $C$DW$346, DW_AT_accessibility(DW_ACCESS_public)
    4753                            .dwattr $C$DW$346, DW_AT_decl_file("C:\Users\bob\Documents\Projects\induct_forge\RM57Lx_test\P
    4754                            .dwattr $C$DW$346, DW_AT_decl_line(0x46)
    4755                            .dwattr $C$DW$346, DW_AT_decl_column(0x0c)
    4756                    
    4757                    $C$DW$347       .dwtag  DW_TAG_member
    4758                            .dwattr $C$DW$347, DW_AT_type(*$C$DW$T$24)
    4759                            .dwattr $C$DW$347, DW_AT_name("rsvd1")
    4760                            .dwattr $C$DW$347, DW_AT_TI_symbol_name("rsvd1")
    4761                            .dwattr $C$DW$347, DW_AT_data_member_location[DW_OP_plus_uconst 0x8]
    4762                            .dwattr $C$DW$347, DW_AT_accessibility(DW_ACCESS_public)
    4763                            .dwattr $C$DW$347, DW_AT_decl_file("C:\Users\bob\Documents\Projects\induct_forge\RM57Lx_test\P
    4764                            .dwattr $C$DW$347, DW_AT_decl_line(0x47)
    4765                            .dwattr $C$DW$347, DW_AT_decl_column(0x0c)
    4766                    
    4767                    $C$DW$348       .dwtag  DW_TAG_member
    4768                            .dwattr $C$DW$348, DW_AT_type(*$C$DW$T$20)
    4769                            .dwattr $C$DW$348, DW_AT_name("PMPROTCLR0")
    4770                            .dwattr $C$DW$348, DW_AT_TI_symbol_name("PMPROTCLR0")
    4771                            .dwattr $C$DW$348, DW_AT_data_member_location[DW_OP_plus_uconst 0x10]
    4772                            .dwattr $C$DW$348, DW_AT_accessibility(DW_ACCESS_public)
    4773                            .dwattr $C$DW$348, DW_AT_decl_file("C:\Users\bob\Documents\Projects\induct_forge\RM57Lx_test\P
    4774                            .dwattr $C$DW$348, DW_AT_decl_line(0x48)
    4775                            .dwattr $C$DW$348, DW_AT_decl_column(0x0c)
    4776                    
    4777                    $C$DW$349       .dwtag  DW_TAG_member
    4778                            .dwattr $C$DW$349, DW_AT_type(*$C$DW$T$20)
    4779                            .dwattr $C$DW$349, DW_AT_name("PMPROTCLR1")
    4780                            .dwattr $C$DW$349, DW_AT_TI_symbol_name("PMPROTCLR1")
    4781                            .dwattr $C$DW$349, DW_AT_data_member_location[DW_OP_plus_uconst 0x14]
    4782                            .dwattr $C$DW$349, DW_AT_accessibility(DW_ACCESS_public)
    4783                            .dwattr $C$DW$349, DW_AT_decl_file("C:\Users\bob\Documents\Projects\induct_forge\RM57Lx_test\P
    4784                            .dwattr $C$DW$349, DW_AT_decl_line(0x49)
    4785                            .dwattr $C$DW$349, DW_AT_decl_column(0x0c)
TI ARM Assembler PC v16.9.0 Thu Feb 16 13:27:12 2017

Tools Copyright (c) 1996-2015 Texas Instruments Incorporated
C:\Users\bob\AppData\Local\Temp\1183610                              PAGE   88

    4786                    
    4787                    $C$DW$350       .dwtag  DW_TAG_member
    4788                            .dwattr $C$DW$350, DW_AT_type(*$C$DW$T$24)
    4789                            .dwattr $C$DW$350, DW_AT_name("rsvd2")
    4790                            .dwattr $C$DW$350, DW_AT_TI_symbol_name("rsvd2")
    4791                            .dwattr $C$DW$350, DW_AT_data_member_location[DW_OP_plus_uconst 0x18]
    4792                            .dwattr $C$DW$350, DW_AT_accessibility(DW_ACCESS_public)
    4793                            .dwattr $C$DW$350, DW_AT_decl_file("C:\Users\bob\Documents\Projects\induct_forge\RM57Lx_test\P
    4794                            .dwattr $C$DW$350, DW_AT_decl_line(0x4a)
    4795                            .dwattr $C$DW$350, DW_AT_decl_column(0x0c)
    4796                    
    4797                    $C$DW$351       .dwtag  DW_TAG_member
    4798                            .dwattr $C$DW$351, DW_AT_type(*$C$DW$T$20)
    4799                            .dwattr $C$DW$351, DW_AT_name("PPROTSET0")
    4800                            .dwattr $C$DW$351, DW_AT_TI_symbol_name("PPROTSET0")
    4801                            .dwattr $C$DW$351, DW_AT_data_member_location[DW_OP_plus_uconst 0x20]
    4802                            .dwattr $C$DW$351, DW_AT_accessibility(DW_ACCESS_public)
    4803                            .dwattr $C$DW$351, DW_AT_decl_file("C:\Users\bob\Documents\Projects\induct_forge\RM57Lx_test\P
    4804                            .dwattr $C$DW$351, DW_AT_decl_line(0x4b)
    4805                            .dwattr $C$DW$351, DW_AT_decl_column(0x0c)
    4806                    
    4807                    $C$DW$352       .dwtag  DW_TAG_member
    4808                            .dwattr $C$DW$352, DW_AT_type(*$C$DW$T$20)
    4809                            .dwattr $C$DW$352, DW_AT_name("PPROTSET1")
    4810                            .dwattr $C$DW$352, DW_AT_TI_symbol_name("PPROTSET1")
    4811                            .dwattr $C$DW$352, DW_AT_data_member_location[DW_OP_plus_uconst 0x24]
    4812                            .dwattr $C$DW$352, DW_AT_accessibility(DW_ACCESS_public)
    4813                            .dwattr $C$DW$352, DW_AT_decl_file("C:\Users\bob\Documents\Projects\induct_forge\RM57Lx_test\P
    4814                            .dwattr $C$DW$352, DW_AT_decl_line(0x4c)
    4815                            .dwattr $C$DW$352, DW_AT_decl_column(0x0c)
    4816                    
    4817                    $C$DW$353       .dwtag  DW_TAG_member
    4818                            .dwattr $C$DW$353, DW_AT_type(*$C$DW$T$20)
    4819                            .dwattr $C$DW$353, DW_AT_name("PPROTSET2")
    4820                            .dwattr $C$DW$353, DW_AT_TI_symbol_name("PPROTSET2")
    4821                            .dwattr $C$DW$353, DW_AT_data_member_location[DW_OP_plus_uconst 0x28]
    4822                            .dwattr $C$DW$353, DW_AT_accessibility(DW_ACCESS_public)
    4823                            .dwattr $C$DW$353, DW_AT_decl_file("C:\Users\bob\Documents\Projects\induct_forge\RM57Lx_test\P
    4824                            .dwattr $C$DW$353, DW_AT_decl_line(0x4d)
    4825                            .dwattr $C$DW$353, DW_AT_decl_column(0x0c)
    4826                    
    4827                    $C$DW$354       .dwtag  DW_TAG_member
    4828                            .dwattr $C$DW$354, DW_AT_type(*$C$DW$T$20)
    4829                            .dwattr $C$DW$354, DW_AT_name("PPROTSET3")
    4830                            .dwattr $C$DW$354, DW_AT_TI_symbol_name("PPROTSET3")
    4831                            .dwattr $C$DW$354, DW_AT_data_member_location[DW_OP_plus_uconst 0x2c]
    4832                            .dwattr $C$DW$354, DW_AT_accessibility(DW_ACCESS_public)
    4833                            .dwattr $C$DW$354, DW_AT_decl_file("C:\Users\bob\Documents\Projects\induct_forge\RM57Lx_test\P
    4834                            .dwattr $C$DW$354, DW_AT_decl_line(0x4e)
    4835                            .dwattr $C$DW$354, DW_AT_decl_column(0x0c)
    4836                    
    4837                    $C$DW$355       .dwtag  DW_TAG_member
    4838                            .dwattr $C$DW$355, DW_AT_type(*$C$DW$T$25)
    4839                            .dwattr $C$DW$355, DW_AT_name("rsvd3")
    4840                            .dwattr $C$DW$355, DW_AT_TI_symbol_name("rsvd3")
TI ARM Assembler PC v16.9.0 Thu Feb 16 13:27:12 2017

Tools Copyright (c) 1996-2015 Texas Instruments Incorporated
C:\Users\bob\AppData\Local\Temp\1183610                              PAGE   89

    4841                            .dwattr $C$DW$355, DW_AT_data_member_location[DW_OP_plus_uconst 0x30]
    4842                            .dwattr $C$DW$355, DW_AT_accessibility(DW_ACCESS_public)
    4843                            .dwattr $C$DW$355, DW_AT_decl_file("C:\Users\bob\Documents\Projects\induct_forge\RM57Lx_test\P
    4844                            .dwattr $C$DW$355, DW_AT_decl_line(0x4f)
    4845                            .dwattr $C$DW$355, DW_AT_decl_column(0x0c)
    4846                    
    4847                    $C$DW$356       .dwtag  DW_TAG_member
    4848                            .dwattr $C$DW$356, DW_AT_type(*$C$DW$T$20)
    4849                            .dwattr $C$DW$356, DW_AT_name("PPROTCLR0")
    4850                            .dwattr $C$DW$356, DW_AT_TI_symbol_name("PPROTCLR0")
    4851                            .dwattr $C$DW$356, DW_AT_data_member_location[DW_OP_plus_uconst 0x40]
    4852                            .dwattr $C$DW$356, DW_AT_accessibility(DW_ACCESS_public)
    4853                            .dwattr $C$DW$356, DW_AT_decl_file("C:\Users\bob\Documents\Projects\induct_forge\RM57Lx_test\P
    4854                            .dwattr $C$DW$356, DW_AT_decl_line(0x50)
    4855                            .dwattr $C$DW$356, DW_AT_decl_column(0x0c)
    4856                    
    4857                    $C$DW$357       .dwtag  DW_TAG_member
    4858                            .dwattr $C$DW$357, DW_AT_type(*$C$DW$T$20)
    4859                            .dwattr $C$DW$357, DW_AT_name("PPROTCLR1")
    4860                            .dwattr $C$DW$357, DW_AT_TI_symbol_name("PPROTCLR1")
    4861                            .dwattr $C$DW$357, DW_AT_data_member_location[DW_OP_plus_uconst 0x44]
    4862                            .dwattr $C$DW$357, DW_AT_accessibility(DW_ACCESS_public)
    4863                            .dwattr $C$DW$357, DW_AT_decl_file("C:\Users\bob\Documents\Projects\induct_forge\RM57Lx_test\P
    4864                            .dwattr $C$DW$357, DW_AT_decl_line(0x51)
    4865                            .dwattr $C$DW$357, DW_AT_decl_column(0x0c)
    4866                    
    4867                    $C$DW$358       .dwtag  DW_TAG_member
    4868                            .dwattr $C$DW$358, DW_AT_type(*$C$DW$T$20)
    4869                            .dwattr $C$DW$358, DW_AT_name("PPROTCLR2")
    4870                            .dwattr $C$DW$358, DW_AT_TI_symbol_name("PPROTCLR2")
    4871                            .dwattr $C$DW$358, DW_AT_data_member_location[DW_OP_plus_uconst 0x48]
    4872                            .dwattr $C$DW$358, DW_AT_accessibility(DW_ACCESS_public)
    4873                            .dwattr $C$DW$358, DW_AT_decl_file("C:\Users\bob\Documents\Projects\induct_forge\RM57Lx_test\P
    4874                            .dwattr $C$DW$358, DW_AT_decl_line(0x52)
    4875                            .dwattr $C$DW$358, DW_AT_decl_column(0x0c)
    4876                    
    4877                    $C$DW$359       .dwtag  DW_TAG_member
    4878                            .dwattr $C$DW$359, DW_AT_type(*$C$DW$T$20)
    4879                            .dwattr $C$DW$359, DW_AT_name("PPROTCLR3")
    4880                            .dwattr $C$DW$359, DW_AT_TI_symbol_name("PPROTCLR3")
    4881                            .dwattr $C$DW$359, DW_AT_data_member_location[DW_OP_plus_uconst 0x4c]
    4882                            .dwattr $C$DW$359, DW_AT_accessibility(DW_ACCESS_public)
    4883                            .dwattr $C$DW$359, DW_AT_decl_file("C:\Users\bob\Documents\Projects\induct_forge\RM57Lx_test\P
    4884                            .dwattr $C$DW$359, DW_AT_decl_line(0x53)
    4885                            .dwattr $C$DW$359, DW_AT_decl_column(0x0c)
    4886                    
    4887                    $C$DW$360       .dwtag  DW_TAG_member
    4888                            .dwattr $C$DW$360, DW_AT_type(*$C$DW$T$25)
    4889                            .dwattr $C$DW$360, DW_AT_name("rsvd4")
    4890                            .dwattr $C$DW$360, DW_AT_TI_symbol_name("rsvd4")
    4891                            .dwattr $C$DW$360, DW_AT_data_member_location[DW_OP_plus_uconst 0x50]
    4892                            .dwattr $C$DW$360, DW_AT_accessibility(DW_ACCESS_public)
    4893                            .dwattr $C$DW$360, DW_AT_decl_file("C:\Users\bob\Documents\Projects\induct_forge\RM57Lx_test\P
    4894                            .dwattr $C$DW$360, DW_AT_decl_line(0x54)
    4895                            .dwattr $C$DW$360, DW_AT_decl_column(0x0c)
TI ARM Assembler PC v16.9.0 Thu Feb 16 13:27:12 2017

Tools Copyright (c) 1996-2015 Texas Instruments Incorporated
C:\Users\bob\AppData\Local\Temp\1183610                              PAGE   90

    4896                    
    4897                    $C$DW$361       .dwtag  DW_TAG_member
    4898                            .dwattr $C$DW$361, DW_AT_type(*$C$DW$T$20)
    4899                            .dwattr $C$DW$361, DW_AT_name("PCSPWRDWNSET0")
    4900                            .dwattr $C$DW$361, DW_AT_TI_symbol_name("PCSPWRDWNSET0")
    4901                            .dwattr $C$DW$361, DW_AT_data_member_location[DW_OP_plus_uconst 0x60]
    4902                            .dwattr $C$DW$361, DW_AT_accessibility(DW_ACCESS_public)
    4903                            .dwattr $C$DW$361, DW_AT_decl_file("C:\Users\bob\Documents\Projects\induct_forge\RM57Lx_test\P
    4904                            .dwattr $C$DW$361, DW_AT_decl_line(0x55)
    4905                            .dwattr $C$DW$361, DW_AT_decl_column(0x0c)
    4906                    
    4907                    $C$DW$362       .dwtag  DW_TAG_member
    4908                            .dwattr $C$DW$362, DW_AT_type(*$C$DW$T$20)
    4909                            .dwattr $C$DW$362, DW_AT_name("PCSPWRDWNSET1")
    4910                            .dwattr $C$DW$362, DW_AT_TI_symbol_name("PCSPWRDWNSET1")
    4911                            .dwattr $C$DW$362, DW_AT_data_member_location[DW_OP_plus_uconst 0x64]
    4912                            .dwattr $C$DW$362, DW_AT_accessibility(DW_ACCESS_public)
    4913                            .dwattr $C$DW$362, DW_AT_decl_file("C:\Users\bob\Documents\Projects\induct_forge\RM57Lx_test\P
    4914                            .dwattr $C$DW$362, DW_AT_decl_line(0x56)
    4915                            .dwattr $C$DW$362, DW_AT_decl_column(0x0c)
    4916                    
    4917                    $C$DW$363       .dwtag  DW_TAG_member
    4918                            .dwattr $C$DW$363, DW_AT_type(*$C$DW$T$24)
    4919                            .dwattr $C$DW$363, DW_AT_name("rsvd5")
    4920                            .dwattr $C$DW$363, DW_AT_TI_symbol_name("rsvd5")
    4921                            .dwattr $C$DW$363, DW_AT_data_member_location[DW_OP_plus_uconst 0x68]
    4922                            .dwattr $C$DW$363, DW_AT_accessibility(DW_ACCESS_public)
    4923                            .dwattr $C$DW$363, DW_AT_decl_file("C:\Users\bob\Documents\Projects\induct_forge\RM57Lx_test\P
    4924                            .dwattr $C$DW$363, DW_AT_decl_line(0x57)
    4925                            .dwattr $C$DW$363, DW_AT_decl_column(0x0c)
    4926                    
    4927                    $C$DW$364       .dwtag  DW_TAG_member
    4928                            .dwattr $C$DW$364, DW_AT_type(*$C$DW$T$20)
    4929                            .dwattr $C$DW$364, DW_AT_name("PCSPWRDWNCLR0")
    4930                            .dwattr $C$DW$364, DW_AT_TI_symbol_name("PCSPWRDWNCLR0")
    4931                            .dwattr $C$DW$364, DW_AT_data_member_location[DW_OP_plus_uconst 0x70]
    4932                            .dwattr $C$DW$364, DW_AT_accessibility(DW_ACCESS_public)
    4933                            .dwattr $C$DW$364, DW_AT_decl_file("C:\Users\bob\Documents\Projects\induct_forge\RM57Lx_test\P
    4934                            .dwattr $C$DW$364, DW_AT_decl_line(0x58)
    4935                            .dwattr $C$DW$364, DW_AT_decl_column(0x0c)
    4936                    
    4937                    $C$DW$365       .dwtag  DW_TAG_member
    4938                            .dwattr $C$DW$365, DW_AT_type(*$C$DW$T$20)
    4939                            .dwattr $C$DW$365, DW_AT_name("PCSPWRDWNCLR1")
    4940                            .dwattr $C$DW$365, DW_AT_TI_symbol_name("PCSPWRDWNCLR1")
    4941                            .dwattr $C$DW$365, DW_AT_data_member_location[DW_OP_plus_uconst 0x74]
    4942                            .dwattr $C$DW$365, DW_AT_accessibility(DW_ACCESS_public)
    4943                            .dwattr $C$DW$365, DW_AT_decl_file("C:\Users\bob\Documents\Projects\induct_forge\RM57Lx_test\P
    4944                            .dwattr $C$DW$365, DW_AT_decl_line(0x59)
    4945                            .dwattr $C$DW$365, DW_AT_decl_column(0x0c)
    4946                    
    4947                    $C$DW$366       .dwtag  DW_TAG_member
    4948                            .dwattr $C$DW$366, DW_AT_type(*$C$DW$T$24)
    4949                            .dwattr $C$DW$366, DW_AT_name("rsvd6")
    4950                            .dwattr $C$DW$366, DW_AT_TI_symbol_name("rsvd6")
TI ARM Assembler PC v16.9.0 Thu Feb 16 13:27:12 2017

Tools Copyright (c) 1996-2015 Texas Instruments Incorporated
C:\Users\bob\AppData\Local\Temp\1183610                              PAGE   91

    4951                            .dwattr $C$DW$366, DW_AT_data_member_location[DW_OP_plus_uconst 0x78]
    4952                            .dwattr $C$DW$366, DW_AT_accessibility(DW_ACCESS_public)
    4953                            .dwattr $C$DW$366, DW_AT_decl_file("C:\Users\bob\Documents\Projects\induct_forge\RM57Lx_test\P
    4954                            .dwattr $C$DW$366, DW_AT_decl_line(0x5a)
    4955                            .dwattr $C$DW$366, DW_AT_decl_column(0x0c)
    4956                    
    4957                    $C$DW$367       .dwtag  DW_TAG_member
    4958                            .dwattr $C$DW$367, DW_AT_type(*$C$DW$T$20)
    4959                            .dwattr $C$DW$367, DW_AT_name("PSPWRDWNSET0")
    4960                            .dwattr $C$DW$367, DW_AT_TI_symbol_name("PSPWRDWNSET0")
    4961                            .dwattr $C$DW$367, DW_AT_data_member_location[DW_OP_plus_uconst 0x80]
    4962                            .dwattr $C$DW$367, DW_AT_accessibility(DW_ACCESS_public)
    4963                            .dwattr $C$DW$367, DW_AT_decl_file("C:\Users\bob\Documents\Projects\induct_forge\RM57Lx_test\P
    4964                            .dwattr $C$DW$367, DW_AT_decl_line(0x5b)
    4965                            .dwattr $C$DW$367, DW_AT_decl_column(0x0c)
    4966                    
    4967                    $C$DW$368       .dwtag  DW_TAG_member
    4968                            .dwattr $C$DW$368, DW_AT_type(*$C$DW$T$20)
    4969                            .dwattr $C$DW$368, DW_AT_name("PSPWRDWNSET1")
    4970                            .dwattr $C$DW$368, DW_AT_TI_symbol_name("PSPWRDWNSET1")
    4971                            .dwattr $C$DW$368, DW_AT_data_member_location[DW_OP_plus_uconst 0x84]
    4972                            .dwattr $C$DW$368, DW_AT_accessibility(DW_ACCESS_public)
    4973                            .dwattr $C$DW$368, DW_AT_decl_file("C:\Users\bob\Documents\Projects\induct_forge\RM57Lx_test\P
    4974                            .dwattr $C$DW$368, DW_AT_decl_line(0x5c)
    4975                            .dwattr $C$DW$368, DW_AT_decl_column(0x0c)
    4976                    
    4977                    $C$DW$369       .dwtag  DW_TAG_member
    4978                            .dwattr $C$DW$369, DW_AT_type(*$C$DW$T$20)
    4979                            .dwattr $C$DW$369, DW_AT_name("PSPWRDWNSET2")
    4980                            .dwattr $C$DW$369, DW_AT_TI_symbol_name("PSPWRDWNSET2")
    4981                            .dwattr $C$DW$369, DW_AT_data_member_location[DW_OP_plus_uconst 0x88]
    4982                            .dwattr $C$DW$369, DW_AT_accessibility(DW_ACCESS_public)
    4983                            .dwattr $C$DW$369, DW_AT_decl_file("C:\Users\bob\Documents\Projects\induct_forge\RM57Lx_test\P
    4984                            .dwattr $C$DW$369, DW_AT_decl_line(0x5d)
    4985                            .dwattr $C$DW$369, DW_AT_decl_column(0x0c)
    4986                    
    4987                    $C$DW$370       .dwtag  DW_TAG_member
    4988                            .dwattr $C$DW$370, DW_AT_type(*$C$DW$T$20)
    4989                            .dwattr $C$DW$370, DW_AT_name("PSPWRDWNSET3")
    4990                            .dwattr $C$DW$370, DW_AT_TI_symbol_name("PSPWRDWNSET3")
    4991                            .dwattr $C$DW$370, DW_AT_data_member_location[DW_OP_plus_uconst 0x8c]
    4992                            .dwattr $C$DW$370, DW_AT_accessibility(DW_ACCESS_public)
    4993                            .dwattr $C$DW$370, DW_AT_decl_file("C:\Users\bob\Documents\Projects\induct_forge\RM57Lx_test\P
    4994                            .dwattr $C$DW$370, DW_AT_decl_line(0x5e)
    4995                            .dwattr $C$DW$370, DW_AT_decl_column(0x0c)
    4996                    
    4997                    $C$DW$371       .dwtag  DW_TAG_member
    4998                            .dwattr $C$DW$371, DW_AT_type(*$C$DW$T$25)
    4999                            .dwattr $C$DW$371, DW_AT_name("rsvd7")
    5000                            .dwattr $C$DW$371, DW_AT_TI_symbol_name("rsvd7")
    5001                            .dwattr $C$DW$371, DW_AT_data_member_location[DW_OP_plus_uconst 0x90]
    5002                            .dwattr $C$DW$371, DW_AT_accessibility(DW_ACCESS_public)
    5003                            .dwattr $C$DW$371, DW_AT_decl_file("C:\Users\bob\Documents\Projects\induct_forge\RM57Lx_test\P
    5004                            .dwattr $C$DW$371, DW_AT_decl_line(0x5f)
    5005                            .dwattr $C$DW$371, DW_AT_decl_column(0x0c)
TI ARM Assembler PC v16.9.0 Thu Feb 16 13:27:12 2017

Tools Copyright (c) 1996-2015 Texas Instruments Incorporated
C:\Users\bob\AppData\Local\Temp\1183610                              PAGE   92

    5006                    
    5007                    $C$DW$372       .dwtag  DW_TAG_member
    5008                            .dwattr $C$DW$372, DW_AT_type(*$C$DW$T$20)
    5009                            .dwattr $C$DW$372, DW_AT_name("PSPWRDWNCLR0")
    5010                            .dwattr $C$DW$372, DW_AT_TI_symbol_name("PSPWRDWNCLR0")
    5011                            .dwattr $C$DW$372, DW_AT_data_member_location[DW_OP_plus_uconst 0xa0]
    5012                            .dwattr $C$DW$372, DW_AT_accessibility(DW_ACCESS_public)
    5013                            .dwattr $C$DW$372, DW_AT_decl_file("C:\Users\bob\Documents\Projects\induct_forge\RM57Lx_test\P
    5014                            .dwattr $C$DW$372, DW_AT_decl_line(0x60)
    5015                            .dwattr $C$DW$372, DW_AT_decl_column(0x0c)
    5016                    
    5017                    $C$DW$373       .dwtag  DW_TAG_member
    5018                            .dwattr $C$DW$373, DW_AT_type(*$C$DW$T$20)
    5019                            .dwattr $C$DW$373, DW_AT_name("PSPWRDWNCLR1")
    5020                            .dwattr $C$DW$373, DW_AT_TI_symbol_name("PSPWRDWNCLR1")
    5021                            .dwattr $C$DW$373, DW_AT_data_member_location[DW_OP_plus_uconst 0xa4]
    5022                            .dwattr $C$DW$373, DW_AT_accessibility(DW_ACCESS_public)
    5023                            .dwattr $C$DW$373, DW_AT_decl_file("C:\Users\bob\Documents\Projects\induct_forge\RM57Lx_test\P
    5024                            .dwattr $C$DW$373, DW_AT_decl_line(0x61)
    5025                            .dwattr $C$DW$373, DW_AT_decl_column(0x0c)
    5026                    
    5027                    $C$DW$374       .dwtag  DW_TAG_member
    5028                            .dwattr $C$DW$374, DW_AT_type(*$C$DW$T$20)
    5029                            .dwattr $C$DW$374, DW_AT_name("PSPWRDWNCLR2")
    5030                            .dwattr $C$DW$374, DW_AT_TI_symbol_name("PSPWRDWNCLR2")
    5031                            .dwattr $C$DW$374, DW_AT_data_member_location[DW_OP_plus_uconst 0xa8]
    5032                            .dwattr $C$DW$374, DW_AT_accessibility(DW_ACCESS_public)
    5033                            .dwattr $C$DW$374, DW_AT_decl_file("C:\Users\bob\Documents\Projects\induct_forge\RM57Lx_test\P
    5034                            .dwattr $C$DW$374, DW_AT_decl_line(0x62)
    5035                            .dwattr $C$DW$374, DW_AT_decl_column(0x0c)
    5036                    
    5037                    $C$DW$375       .dwtag  DW_TAG_member
    5038                            .dwattr $C$DW$375, DW_AT_type(*$C$DW$T$20)
    5039                            .dwattr $C$DW$375, DW_AT_name("PSPWRDWNCLR3")
    5040                            .dwattr $C$DW$375, DW_AT_TI_symbol_name("PSPWRDWNCLR3")
    5041                            .dwattr $C$DW$375, DW_AT_data_member_location[DW_OP_plus_uconst 0xac]
    5042                            .dwattr $C$DW$375, DW_AT_accessibility(DW_ACCESS_public)
    5043                            .dwattr $C$DW$375, DW_AT_decl_file("C:\Users\bob\Documents\Projects\induct_forge\RM57Lx_test\P
    5044                            .dwattr $C$DW$375, DW_AT_decl_line(0x63)
    5045                            .dwattr $C$DW$375, DW_AT_decl_column(0x0c)
    5046                    
    5047                    $C$DW$376       .dwtag  DW_TAG_member
    5048                            .dwattr $C$DW$376, DW_AT_type(*$C$DW$T$25)
    5049                            .dwattr $C$DW$376, DW_AT_name("rsvd8")
    5050                            .dwattr $C$DW$376, DW_AT_TI_symbol_name("rsvd8")
    5051                            .dwattr $C$DW$376, DW_AT_data_member_location[DW_OP_plus_uconst 0xb0]
    5052                            .dwattr $C$DW$376, DW_AT_accessibility(DW_ACCESS_public)
    5053                            .dwattr $C$DW$376, DW_AT_decl_file("C:\Users\bob\Documents\Projects\induct_forge\RM57Lx_test\P
    5054                            .dwattr $C$DW$376, DW_AT_decl_line(0x64)
    5055                            .dwattr $C$DW$376, DW_AT_decl_column(0x0c)
    5056                    
    5057                    $C$DW$377       .dwtag  DW_TAG_member
    5058                            .dwattr $C$DW$377, DW_AT_type(*$C$DW$T$20)
    5059                            .dwattr $C$DW$377, DW_AT_name("PDPWRDWNSET")
    5060                            .dwattr $C$DW$377, DW_AT_TI_symbol_name("PDPWRDWNSET")
TI ARM Assembler PC v16.9.0 Thu Feb 16 13:27:12 2017

Tools Copyright (c) 1996-2015 Texas Instruments Incorporated
C:\Users\bob\AppData\Local\Temp\1183610                              PAGE   93

    5061                            .dwattr $C$DW$377, DW_AT_data_member_location[DW_OP_plus_uconst 0xc0]
    5062                            .dwattr $C$DW$377, DW_AT_accessibility(DW_ACCESS_public)
    5063                            .dwattr $C$DW$377, DW_AT_decl_file("C:\Users\bob\Documents\Projects\induct_forge\RM57Lx_test\P
    5064                            .dwattr $C$DW$377, DW_AT_decl_line(0x65)
    5065                            .dwattr $C$DW$377, DW_AT_decl_column(0x0c)
    5066                    
    5067                    $C$DW$378       .dwtag  DW_TAG_member
    5068                            .dwattr $C$DW$378, DW_AT_type(*$C$DW$T$20)
    5069                            .dwattr $C$DW$378, DW_AT_name("PDPWRDWNCLR")
    5070                            .dwattr $C$DW$378, DW_AT_TI_symbol_name("PDPWRDWNCLR")
    5071                            .dwattr $C$DW$378, DW_AT_data_member_location[DW_OP_plus_uconst 0xc4]
    5072                            .dwattr $C$DW$378, DW_AT_accessibility(DW_ACCESS_public)
    5073                            .dwattr $C$DW$378, DW_AT_decl_file("C:\Users\bob\Documents\Projects\induct_forge\RM57Lx_test\P
    5074                            .dwattr $C$DW$378, DW_AT_decl_line(0x66)
    5075                            .dwattr $C$DW$378, DW_AT_decl_column(0x0c)
    5076                    
    5077                    $C$DW$379       .dwtag  DW_TAG_member
    5078                            .dwattr $C$DW$379, DW_AT_type(*$C$DW$T$26)
    5079                            .dwattr $C$DW$379, DW_AT_name("rsvd9")
    5080                            .dwattr $C$DW$379, DW_AT_TI_symbol_name("rsvd9")
    5081                            .dwattr $C$DW$379, DW_AT_data_member_location[DW_OP_plus_uconst 0xc8]
    5082                            .dwattr $C$DW$379, DW_AT_accessibility(DW_ACCESS_public)
    5083                            .dwattr $C$DW$379, DW_AT_decl_file("C:\Users\bob\Documents\Projects\induct_forge\RM57Lx_test\P
    5084                            .dwattr $C$DW$379, DW_AT_decl_line(0x67)
    5085                            .dwattr $C$DW$379, DW_AT_decl_column(0x0c)
    5086                    
    5087                    $C$DW$380       .dwtag  DW_TAG_member
    5088                            .dwattr $C$DW$380, DW_AT_type(*$C$DW$T$20)
    5089                            .dwattr $C$DW$380, DW_AT_name("MSTIDWRENA")
    5090                            .dwattr $C$DW$380, DW_AT_TI_symbol_name("MSTIDWRENA")
    5091                            .dwattr $C$DW$380, DW_AT_data_member_location[DW_OP_plus_uconst 0x200]
    5092                            .dwattr $C$DW$380, DW_AT_accessibility(DW_ACCESS_public)
    5093                            .dwattr $C$DW$380, DW_AT_decl_file("C:\Users\bob\Documents\Projects\induct_forge\RM57Lx_test\P
    5094                            .dwattr $C$DW$380, DW_AT_decl_line(0x68)
    5095                            .dwattr $C$DW$380, DW_AT_decl_column(0x0c)
    5096                    
    5097                    $C$DW$381       .dwtag  DW_TAG_member
    5098                            .dwattr $C$DW$381, DW_AT_type(*$C$DW$T$20)
    5099                            .dwattr $C$DW$381, DW_AT_name("MSTIDENA")
    5100                            .dwattr $C$DW$381, DW_AT_TI_symbol_name("MSTIDENA")
    5101                            .dwattr $C$DW$381, DW_AT_data_member_location[DW_OP_plus_uconst 0x204]
    5102                            .dwattr $C$DW$381, DW_AT_accessibility(DW_ACCESS_public)
    5103                            .dwattr $C$DW$381, DW_AT_decl_file("C:\Users\bob\Documents\Projects\induct_forge\RM57Lx_test\P
    5104                            .dwattr $C$DW$381, DW_AT_decl_line(0x69)
    5105                            .dwattr $C$DW$381, DW_AT_decl_column(0x0c)
    5106                    
    5107                    $C$DW$382       .dwtag  DW_TAG_member
    5108                            .dwattr $C$DW$382, DW_AT_type(*$C$DW$T$20)
    5109                            .dwattr $C$DW$382, DW_AT_name("MSTIDDIAGCTRL")
    5110                            .dwattr $C$DW$382, DW_AT_TI_symbol_name("MSTIDDIAGCTRL")
    5111                            .dwattr $C$DW$382, DW_AT_data_member_location[DW_OP_plus_uconst 0x208]
    5112                            .dwattr $C$DW$382, DW_AT_accessibility(DW_ACCESS_public)
    5113                            .dwattr $C$DW$382, DW_AT_decl_file("C:\Users\bob\Documents\Projects\induct_forge\RM57Lx_test\P
    5114                            .dwattr $C$DW$382, DW_AT_decl_line(0x6a)
    5115                            .dwattr $C$DW$382, DW_AT_decl_column(0x0c)
TI ARM Assembler PC v16.9.0 Thu Feb 16 13:27:12 2017

Tools Copyright (c) 1996-2015 Texas Instruments Incorporated
C:\Users\bob\AppData\Local\Temp\1183610                              PAGE   94

    5116                    
    5117                    $C$DW$383       .dwtag  DW_TAG_member
    5118                            .dwattr $C$DW$383, DW_AT_type(*$C$DW$T$27)
    5119                            .dwattr $C$DW$383, DW_AT_name("rsvd10")
    5120                            .dwattr $C$DW$383, DW_AT_TI_symbol_name("rsvd10")
    5121                            .dwattr $C$DW$383, DW_AT_data_member_location[DW_OP_plus_uconst 0x20c]
    5122                            .dwattr $C$DW$383, DW_AT_accessibility(DW_ACCESS_public)
    5123                            .dwattr $C$DW$383, DW_AT_decl_file("C:\Users\bob\Documents\Projects\induct_forge\RM57Lx_test\P
    5124                            .dwattr $C$DW$383, DW_AT_decl_line(0x6b)
    5125                            .dwattr $C$DW$383, DW_AT_decl_column(0x0c)
    5126                    
    5127                    $C$DW$384       .dwtag  DW_TAG_member
    5128                            .dwattr $C$DW$384, DW_AT_type(*$C$DW$T$28)
    5129                            .dwattr $C$DW$384, DW_AT_name("PSxMSTID")
    5130                            .dwattr $C$DW$384, DW_AT_TI_symbol_name("PSxMSTID")
    5131                            .dwattr $C$DW$384, DW_AT_data_member_location[DW_OP_plus_uconst 0x300]
    5132                            .dwattr $C$DW$384, DW_AT_accessibility(DW_ACCESS_public)
    5133                            .dwattr $C$DW$384, DW_AT_decl_file("C:\Users\bob\Documents\Projects\induct_forge\RM57Lx_test\P
    5134                            .dwattr $C$DW$384, DW_AT_decl_line(0x70)
    5135                            .dwattr $C$DW$384, DW_AT_decl_column(0x06)
    5136                    
    5137                    $C$DW$385       .dwtag  DW_TAG_member
    5138                            .dwattr $C$DW$385, DW_AT_type(*$C$DW$T$29)
    5139                            .dwattr $C$DW$385, DW_AT_name("PPSxMSTID")
    5140                            .dwattr $C$DW$385, DW_AT_TI_symbol_name("PPSxMSTID")
    5141                            .dwattr $C$DW$385, DW_AT_data_member_location[DW_OP_plus_uconst 0x400]
    5142                            .dwattr $C$DW$385, DW_AT_accessibility(DW_ACCESS_public)
    5143                            .dwattr $C$DW$385, DW_AT_decl_file("C:\Users\bob\Documents\Projects\induct_forge\RM57Lx_test\P
    5144                            .dwattr $C$DW$385, DW_AT_decl_line(0x75)
    5145                            .dwattr $C$DW$385, DW_AT_decl_column(0x06)
    5146                    
    5147                    $C$DW$386       .dwtag  DW_TAG_member
    5148                            .dwattr $C$DW$386, DW_AT_type(*$C$DW$T$30)
    5149                            .dwattr $C$DW$386, DW_AT_name("PPSExMSTID")
    5150                            .dwattr $C$DW$386, DW_AT_TI_symbol_name("PPSExMSTID")
    5151                            .dwattr $C$DW$386, DW_AT_data_member_location[DW_OP_plus_uconst 0x440]
    5152                            .dwattr $C$DW$386, DW_AT_accessibility(DW_ACCESS_public)
    5153                            .dwattr $C$DW$386, DW_AT_decl_file("C:\Users\bob\Documents\Projects\induct_forge\RM57Lx_test\P
    5154                            .dwattr $C$DW$386, DW_AT_decl_line(0x7a)
    5155                            .dwattr $C$DW$386, DW_AT_decl_column(0x06)
    5156                    
    5157                    $C$DW$387       .dwtag  DW_TAG_member
    5158                            .dwattr $C$DW$387, DW_AT_type(*$C$DW$T$31)
    5159                            .dwattr $C$DW$387, DW_AT_name("PCSxMSTID")
    5160                            .dwattr $C$DW$387, DW_AT_TI_symbol_name("PCSxMSTID")
    5161                            .dwattr $C$DW$387, DW_AT_data_member_location[DW_OP_plus_uconst 0x540]
    5162                            .dwattr $C$DW$387, DW_AT_accessibility(DW_ACCESS_public)
    5163                            .dwattr $C$DW$387, DW_AT_decl_file("C:\Users\bob\Documents\Projects\induct_forge\RM57Lx_test\P
    5164                            .dwattr $C$DW$387, DW_AT_decl_line(0x7b)
    5165                            .dwattr $C$DW$387, DW_AT_decl_column(0x0c)
    5166                    
    5167                    $C$DW$388       .dwtag  DW_TAG_member
    5168                            .dwattr $C$DW$388, DW_AT_type(*$C$DW$T$32)
    5169                            .dwattr $C$DW$388, DW_AT_name("PPCSxMSTID")
    5170                            .dwattr $C$DW$388, DW_AT_TI_symbol_name("PPCSxMSTID")
TI ARM Assembler PC v16.9.0 Thu Feb 16 13:27:12 2017

Tools Copyright (c) 1996-2015 Texas Instruments Incorporated
C:\Users\bob\AppData\Local\Temp\1183610                              PAGE   95

    5171                            .dwattr $C$DW$388, DW_AT_data_member_location[DW_OP_plus_uconst 0x5c0]
    5172                            .dwattr $C$DW$388, DW_AT_accessibility(DW_ACCESS_public)
    5173                            .dwattr $C$DW$388, DW_AT_decl_file("C:\Users\bob\Documents\Projects\induct_forge\RM57Lx_test\P
    5174                            .dwattr $C$DW$388, DW_AT_decl_line(0x7c)
    5175                            .dwattr $C$DW$388, DW_AT_decl_column(0x0c)
    5176                    
    5177                            .dwattr $C$DW$T$33, DW_AT_decl_file("C:\Users\bob\Documents\Projects\induct_forge\RM57Lx_test\
    5178                            .dwattr $C$DW$T$33, DW_AT_decl_line(0x43)
    5179                            .dwattr $C$DW$T$33, DW_AT_decl_column(0x19)
    5180                            .dwendtag $C$DW$T$33
    5181                    
    5182                    $C$DW$T$55      .dwtag  DW_TAG_volatile_type
    5183                            .dwattr $C$DW$T$55, DW_AT_type(*$C$DW$T$33)
    5184                    
    5185                    $C$DW$T$56      .dwtag  DW_TAG_typedef
    5186                            .dwattr $C$DW$T$56, DW_AT_name("pcrBASE_t")
    5187                            .dwattr $C$DW$T$56, DW_AT_type(*$C$DW$T$55)
    5188                            .dwattr $C$DW$T$56, DW_AT_language(DW_LANG_C)
    5189                            .dwattr $C$DW$T$56, DW_AT_decl_file("C:\Users\bob\Documents\Projects\induct_forge\RM57Lx_test\
    5190                            .dwattr $C$DW$T$56, DW_AT_decl_line(0x7d)
    5191                            .dwattr $C$DW$T$56, DW_AT_decl_column(0x03)
    5192                    
    5193                    $C$DW$T$57      .dwtag  DW_TAG_pointer_type
    5194                            .dwattr $C$DW$T$57, DW_AT_type(*$C$DW$T$56)
    5195                            .dwattr $C$DW$T$57, DW_AT_address_class(0x20)
    5196                    
    5197                            .dwattr $C$DW$CU, DW_AT_language(DW_LANG_C)
    5198                    
    5199                    ;***************************************************************
    5200                    ;* DWARF CIE ENTRIES                                           *
    5201                    ;***************************************************************
    5202                    
    5203                    $C$DW$CIE       .dwcie 14
    5204                            .dwcfi  cfa_register, 13
    5205                            .dwcfi  cfa_offset, 0
    5206                            .dwcfi  same_value, 4
    5207                            .dwcfi  same_value, 5
    5208                            .dwcfi  same_value, 6
    5209                            .dwcfi  same_value, 7
    5210                            .dwcfi  same_value, 8
    5211                            .dwcfi  same_value, 9
    5212                            .dwcfi  same_value, 10
    5213                            .dwcfi  same_value, 11
    5214                            .dwcfi  same_value, 80
    5215                            .dwcfi  same_value, 81
    5216                            .dwcfi  same_value, 82
    5217                            .dwcfi  same_value, 83
    5218                            .dwcfi  same_value, 84
    5219                            .dwcfi  same_value, 85
    5220                            .dwcfi  same_value, 86
    5221                            .dwcfi  same_value, 87
    5222                            .dwcfi  same_value, 88
    5223                            .dwcfi  same_value, 89
    5224                            .dwcfi  same_value, 90
    5225                            .dwcfi  same_value, 91
TI ARM Assembler PC v16.9.0 Thu Feb 16 13:27:12 2017

Tools Copyright (c) 1996-2015 Texas Instruments Incorporated
C:\Users\bob\AppData\Local\Temp\1183610                              PAGE   96

    5226                            .dwcfi  same_value, 92
    5227                            .dwcfi  same_value, 93
    5228                            .dwcfi  same_value, 94
    5229                            .dwcfi  same_value, 95
    5230                            .dwendentry
    5231                            .dwendtag $C$DW$CU
    5232                    

No Assembly Errors, No Assembly Warnings
