TI ARM Assembler PC v16.9.0 Thu Feb 16 13:27:12 2017

Tools Copyright (c) 1996-2015 Texas Instruments Incorporated
C:\Users\bob\AppData\Local\Temp\0245610                              PAGE    1

       1                    ;******************************************************************************
       2                    ;* TI ARM C/C++ Codegen                                        PC v16.9.0.LTS *
       3                    ;* Date/Time created: Thu Feb 16 13:27:11 2017                                *
       4                    ;******************************************************************************
       5                            .compiler_opts --abi=eabi --arm_vmrs_si_workaround=off --code_state=32 --diag_wrap=off --embed
       6 00000000                   .state32
       7                    
       8                    $C$DW$CU        .dwtag  DW_TAG_compile_unit
       9                            .dwattr $C$DW$CU, DW_AT_name("../hcg/source/HL_sys_vim.c")
      10                            .dwattr $C$DW$CU, DW_AT_producer("TI TI ARM C/C++ Codegen PC v16.9.0.LTS Copyright (c) 1996-20
      11                            .dwattr $C$DW$CU, DW_AT_TI_version(0x01)
      12                            .dwattr $C$DW$CU, DW_AT_comp_dir("C:\Users\bob\Documents\Projects\induct_forge\RM57Lx_test\Pro
      13                    
      14                    $C$DW$1 .dwtag  DW_TAG_subprogram
      15                            .dwattr $C$DW$1, DW_AT_name("esmHighInterrupt")
      16                            .dwattr $C$DW$1, DW_AT_TI_symbol_name("esmHighInterrupt")
      17                            .dwattr $C$DW$1, DW_AT_declaration
      18                            .dwattr $C$DW$1, DW_AT_external
      19                            .dwattr $C$DW$1, DW_AT_decl_file("C:/Users/bob/Documents/Projects/induct_forge/RM57Lx_test/Pro
      20                            .dwattr $C$DW$1, DW_AT_decl_line(0x5c)
      21                            .dwattr $C$DW$1, DW_AT_decl_column(0x0d)
      22                            .dwendtag $C$DW$1
      23                    
      24                    
      25                    $C$DW$2 .dwtag  DW_TAG_subprogram
      26                            .dwattr $C$DW$2, DW_AT_name("phantomInterrupt")
      27                            .dwattr $C$DW$2, DW_AT_TI_symbol_name("phantomInterrupt")
      28                            .dwattr $C$DW$2, DW_AT_declaration
      29                            .dwattr $C$DW$2, DW_AT_external
      30                            .dwattr $C$DW$2, DW_AT_decl_file("C:/Users/bob/Documents/Projects/induct_forge/RM57Lx_test/Pro
      31                            .dwattr $C$DW$2, DW_AT_decl_line(0x5d)
      32                            .dwattr $C$DW$2, DW_AT_decl_column(0x0d)
      33                            .dwendtag $C$DW$2
      34                    
      35                    
      36                    $C$DW$3 .dwtag  DW_TAG_subprogram
      37                            .dwattr $C$DW$3, DW_AT_name("rtiCompare0Interrupt")
      38                            .dwattr $C$DW$3, DW_AT_TI_symbol_name("rtiCompare0Interrupt")
      39                            .dwattr $C$DW$3, DW_AT_declaration
      40                            .dwattr $C$DW$3, DW_AT_external
      41                            .dwattr $C$DW$3, DW_AT_decl_file("C:/Users/bob/Documents/Projects/induct_forge/RM57Lx_test/Pro
      42                            .dwattr $C$DW$3, DW_AT_decl_line(0x5e)
      43                            .dwattr $C$DW$3, DW_AT_decl_column(0x0d)
      44                            .dwendtag $C$DW$3
      45                    
      46                    
      47                    $C$DW$4 .dwtag  DW_TAG_subprogram
      48                            .dwattr $C$DW$4, DW_AT_name("rtiCompare1Interrupt")
      49                            .dwattr $C$DW$4, DW_AT_TI_symbol_name("rtiCompare1Interrupt")
      50                            .dwattr $C$DW$4, DW_AT_declaration
      51                            .dwattr $C$DW$4, DW_AT_external
      52                            .dwattr $C$DW$4, DW_AT_decl_file("C:/Users/bob/Documents/Projects/induct_forge/RM57Lx_test/Pro
      53                            .dwattr $C$DW$4, DW_AT_decl_line(0x5f)
      54                            .dwattr $C$DW$4, DW_AT_decl_column(0x0d)
      55                            .dwendtag $C$DW$4
TI ARM Assembler PC v16.9.0 Thu Feb 16 13:27:12 2017

Tools Copyright (c) 1996-2015 Texas Instruments Incorporated
C:\Users\bob\AppData\Local\Temp\0245610                              PAGE    2

      56                    
      57                    
      58                    $C$DW$5 .dwtag  DW_TAG_subprogram
      59                            .dwattr $C$DW$5, DW_AT_name("rtiCompare2Interrupt")
      60                            .dwattr $C$DW$5, DW_AT_TI_symbol_name("rtiCompare2Interrupt")
      61                            .dwattr $C$DW$5, DW_AT_declaration
      62                            .dwattr $C$DW$5, DW_AT_external
      63                            .dwattr $C$DW$5, DW_AT_decl_file("C:/Users/bob/Documents/Projects/induct_forge/RM57Lx_test/Pro
      64                            .dwattr $C$DW$5, DW_AT_decl_line(0x60)
      65                            .dwattr $C$DW$5, DW_AT_decl_column(0x0d)
      66                            .dwendtag $C$DW$5
      67                    
      68                    
      69                    $C$DW$6 .dwtag  DW_TAG_subprogram
      70                            .dwattr $C$DW$6, DW_AT_name("rtiCompare3Interrupt")
      71                            .dwattr $C$DW$6, DW_AT_TI_symbol_name("rtiCompare3Interrupt")
      72                            .dwattr $C$DW$6, DW_AT_declaration
      73                            .dwattr $C$DW$6, DW_AT_external
      74                            .dwattr $C$DW$6, DW_AT_decl_file("C:/Users/bob/Documents/Projects/induct_forge/RM57Lx_test/Pro
      75                            .dwattr $C$DW$6, DW_AT_decl_line(0x61)
      76                            .dwattr $C$DW$6, DW_AT_decl_column(0x0d)
      77                            .dwendtag $C$DW$6
      78                    
      79                    
      80                    $C$DW$7 .dwtag  DW_TAG_subprogram
      81                            .dwattr $C$DW$7, DW_AT_name("esmLowInterrupt")
      82                            .dwattr $C$DW$7, DW_AT_TI_symbol_name("esmLowInterrupt")
      83                            .dwattr $C$DW$7, DW_AT_declaration
      84                            .dwattr $C$DW$7, DW_AT_external
      85                            .dwattr $C$DW$7, DW_AT_decl_file("C:/Users/bob/Documents/Projects/induct_forge/RM57Lx_test/Pro
      86                            .dwattr $C$DW$7, DW_AT_decl_line(0x62)
      87                            .dwattr $C$DW$7, DW_AT_decl_column(0x0d)
      88                            .dwendtag $C$DW$7
      89                    
      90                    
      91                    $C$DW$8 .dwtag  DW_TAG_subprogram
      92                            .dwattr $C$DW$8, DW_AT_name("esmGroup1Notification")
      93                            .dwattr $C$DW$8, DW_AT_TI_symbol_name("esmGroup1Notification")
      94                            .dwattr $C$DW$8, DW_AT_declaration
      95                            .dwattr $C$DW$8, DW_AT_external
      96                            .dwattr $C$DW$8, DW_AT_decl_file("C:/Users/bob/Documents/Projects/induct_forge/RM57Lx_test/Pro
      97                            .dwattr $C$DW$8, DW_AT_decl_line(0x4d1)
      98                            .dwattr $C$DW$8, DW_AT_decl_column(0x06)
      99                    $C$DW$9 .dwtag  DW_TAG_formal_parameter
     100                            .dwattr $C$DW$9, DW_AT_type(*$C$DW$T$59)
     101                    
     102                    $C$DW$10        .dwtag  DW_TAG_formal_parameter
     103                            .dwattr $C$DW$10, DW_AT_type(*$C$DW$T$20)
     104                    
     105                            .dwendtag $C$DW$8
     106                    
     107                    
     108                    $C$DW$11        .dwtag  DW_TAG_subprogram
     109                            .dwattr $C$DW$11, DW_AT_name("esmGroup2Notification")
     110                            .dwattr $C$DW$11, DW_AT_TI_symbol_name("esmGroup2Notification")
TI ARM Assembler PC v16.9.0 Thu Feb 16 13:27:12 2017

Tools Copyright (c) 1996-2015 Texas Instruments Incorporated
C:\Users\bob\AppData\Local\Temp\0245610                              PAGE    3

     111                            .dwattr $C$DW$11, DW_AT_declaration
     112                            .dwattr $C$DW$11, DW_AT_external
     113                            .dwattr $C$DW$11, DW_AT_decl_file("C:/Users/bob/Documents/Projects/induct_forge/RM57Lx_test/Pr
     114                            .dwattr $C$DW$11, DW_AT_decl_line(0x4da)
     115                            .dwattr $C$DW$11, DW_AT_decl_column(0x06)
     116                    $C$DW$12        .dwtag  DW_TAG_formal_parameter
     117                            .dwattr $C$DW$12, DW_AT_type(*$C$DW$T$59)
     118                    
     119                    $C$DW$13        .dwtag  DW_TAG_formal_parameter
     120                            .dwattr $C$DW$13, DW_AT_type(*$C$DW$T$20)
     121                    
     122                            .dwendtag $C$DW$11
     123                    
     124                    
     125                    $C$DW$14        .dwtag  DW_TAG_subprogram
     126                            .dwattr $C$DW$14, DW_AT_name("buttonISR")
     127                            .dwattr $C$DW$14, DW_AT_TI_symbol_name("buttonISR")
     128                            .dwattr $C$DW$14, DW_AT_declaration
     129                            .dwattr $C$DW$14, DW_AT_external
     130                            .dwattr $C$DW$14, DW_AT_decl_file("../hcg/source/HL_sys_vim.c")
     131                            .dwattr $C$DW$14, DW_AT_decl_line(0x44)
     132                            .dwattr $C$DW$14, DW_AT_decl_column(0x0d)
     133                            .dwendtag $C$DW$14
     134                    
     135 00000000                   .sect   ".const:s_vim_init"
     136                            .clink
     137                            .align  4
     138                            .elfsym s_vim_init,SYM_SIZE(512)
     139 00000000           s_vim_init:
     140 00000000 00000000!         .bits   phantomInterrupt,32             ; s_vim_init[0] @ 0
     141 00000004 00000000!         .bits   esmHighInterrupt,32             ; s_vim_init[1] @ 32
     142 00000008 00000000!         .bits   phantomInterrupt,32             ; s_vim_init[2] @ 64
     143 0000000c 00000000!         .bits   rtiCompare0Interrupt,32         ; s_vim_init[3] @ 96
     144 00000010 00000000!         .bits   rtiCompare1Interrupt,32         ; s_vim_init[4] @ 128
     145 00000014 00000000!         .bits   rtiCompare2Interrupt,32         ; s_vim_init[5] @ 160
     146 00000018 00000000!         .bits   rtiCompare3Interrupt,32         ; s_vim_init[6] @ 192
     147 0000001c 00000000!         .bits   phantomInterrupt,32             ; s_vim_init[7] @ 224
     148 00000020 00000000!         .bits   phantomInterrupt,32             ; s_vim_init[8] @ 256
     149 00000024 00000000!         .bits   phantomInterrupt,32             ; s_vim_init[9] @ 288
     150 00000028 00000000!         .bits   buttonISR,32            ; s_vim_init[10] @ 320
     151 0000002c 00000000!         .bits   phantomInterrupt,32             ; s_vim_init[11] @ 352
     152 00000030 00000000!         .bits   phantomInterrupt,32             ; s_vim_init[12] @ 384
     153 00000034 00000000!         .bits   phantomInterrupt,32             ; s_vim_init[13] @ 416
     154 00000038 00000000!         .bits   phantomInterrupt,32             ; s_vim_init[14] @ 448
     155 0000003c 00000000!         .bits   phantomInterrupt,32             ; s_vim_init[15] @ 480
     156 00000040 00000000!         .bits   phantomInterrupt,32             ; s_vim_init[16] @ 512
     157 00000044 00000000!         .bits   phantomInterrupt,32             ; s_vim_init[17] @ 544
     158 00000048 00000000!         .bits   phantomInterrupt,32             ; s_vim_init[18] @ 576
     159 0000004c 00000000!         .bits   phantomInterrupt,32             ; s_vim_init[19] @ 608
     160 00000050 00000000!         .bits   phantomInterrupt,32             ; s_vim_init[20] @ 640
     161 00000054 00000000!         .bits   esmLowInterrupt,32              ; s_vim_init[21] @ 672
     162 00000058 00000000!         .bits   phantomInterrupt,32             ; s_vim_init[22] @ 704
     163 0000005c 00000000!         .bits   phantomInterrupt,32             ; s_vim_init[23] @ 736
     164 00000060 00000000!         .bits   phantomInterrupt,32             ; s_vim_init[24] @ 768
     165 00000064 00000000!         .bits   phantomInterrupt,32             ; s_vim_init[25] @ 800
TI ARM Assembler PC v16.9.0 Thu Feb 16 13:27:12 2017

Tools Copyright (c) 1996-2015 Texas Instruments Incorporated
C:\Users\bob\AppData\Local\Temp\0245610                              PAGE    4

     166 00000068 00000000!         .bits   phantomInterrupt,32             ; s_vim_init[26] @ 832
     167 0000006c 00000000!         .bits   phantomInterrupt,32             ; s_vim_init[27] @ 864
     168 00000070 00000000!         .bits   phantomInterrupt,32             ; s_vim_init[28] @ 896
     169 00000074 00000000!         .bits   phantomInterrupt,32             ; s_vim_init[29] @ 928
     170 00000078 00000000!         .bits   phantomInterrupt,32             ; s_vim_init[30] @ 960
     171 0000007c 00000000!         .bits   phantomInterrupt,32             ; s_vim_init[31] @ 992
     172 00000080 00000000!         .bits   phantomInterrupt,32             ; s_vim_init[32] @ 1024
     173 00000084 00000000!         .bits   phantomInterrupt,32             ; s_vim_init[33] @ 1056
     174 00000088 00000000!         .bits   phantomInterrupt,32             ; s_vim_init[34] @ 1088
     175 0000008c 00000000!         .bits   phantomInterrupt,32             ; s_vim_init[35] @ 1120
     176 00000090 00000000!         .bits   phantomInterrupt,32             ; s_vim_init[36] @ 1152
     177 00000094 00000000!         .bits   phantomInterrupt,32             ; s_vim_init[37] @ 1184
     178 00000098 00000000!         .bits   phantomInterrupt,32             ; s_vim_init[38] @ 1216
     179 0000009c 00000000!         .bits   phantomInterrupt,32             ; s_vim_init[39] @ 1248
     180 000000a0 00000000!         .bits   phantomInterrupt,32             ; s_vim_init[40] @ 1280
     181 000000a4 00000000!         .bits   phantomInterrupt,32             ; s_vim_init[41] @ 1312
     182 000000a8 00000000!         .bits   phantomInterrupt,32             ; s_vim_init[42] @ 1344
     183 000000ac 00000000!         .bits   phantomInterrupt,32             ; s_vim_init[43] @ 1376
     184 000000b0 00000000!         .bits   phantomInterrupt,32             ; s_vim_init[44] @ 1408
     185 000000b4 00000000!         .bits   phantomInterrupt,32             ; s_vim_init[45] @ 1440
     186 000000b8 00000000!         .bits   phantomInterrupt,32             ; s_vim_init[46] @ 1472
     187 000000bc 00000000!         .bits   phantomInterrupt,32             ; s_vim_init[47] @ 1504
     188 000000c0 00000000!         .bits   phantomInterrupt,32             ; s_vim_init[48] @ 1536
     189 000000c4 00000000!         .bits   phantomInterrupt,32             ; s_vim_init[49] @ 1568
     190 000000c8 00000000!         .bits   phantomInterrupt,32             ; s_vim_init[50] @ 1600
     191 000000cc 00000000!         .bits   phantomInterrupt,32             ; s_vim_init[51] @ 1632
     192 000000d0 00000000!         .bits   phantomInterrupt,32             ; s_vim_init[52] @ 1664
     193 000000d4 00000000!         .bits   phantomInterrupt,32             ; s_vim_init[53] @ 1696
     194 000000d8 00000000!         .bits   phantomInterrupt,32             ; s_vim_init[54] @ 1728
     195 000000dc 00000000!         .bits   phantomInterrupt,32             ; s_vim_init[55] @ 1760
     196 000000e0 00000000!         .bits   phantomInterrupt,32             ; s_vim_init[56] @ 1792
     197 000000e4 00000000!         .bits   phantomInterrupt,32             ; s_vim_init[57] @ 1824
     198 000000e8 00000000!         .bits   phantomInterrupt,32             ; s_vim_init[58] @ 1856
     199 000000ec 00000000!         .bits   phantomInterrupt,32             ; s_vim_init[59] @ 1888
     200 000000f0 00000000!         .bits   phantomInterrupt,32             ; s_vim_init[60] @ 1920
     201 000000f4 00000000!         .bits   phantomInterrupt,32             ; s_vim_init[61] @ 1952
     202 000000f8 00000000!         .bits   phantomInterrupt,32             ; s_vim_init[62] @ 1984
     203 000000fc 00000000!         .bits   phantomInterrupt,32             ; s_vim_init[63] @ 2016
     204 00000100 00000000!         .bits   phantomInterrupt,32             ; s_vim_init[64] @ 2048
     205 00000104 00000000!         .bits   phantomInterrupt,32             ; s_vim_init[65] @ 2080
     206 00000108 00000000!         .bits   phantomInterrupt,32             ; s_vim_init[66] @ 2112
     207 0000010c 00000000!         .bits   phantomInterrupt,32             ; s_vim_init[67] @ 2144
     208 00000110 00000000!         .bits   phantomInterrupt,32             ; s_vim_init[68] @ 2176
     209 00000114 00000000!         .bits   phantomInterrupt,32             ; s_vim_init[69] @ 2208
     210 00000118 00000000!         .bits   phantomInterrupt,32             ; s_vim_init[70] @ 2240
     211 0000011c 00000000!         .bits   phantomInterrupt,32             ; s_vim_init[71] @ 2272
     212 00000120 00000000!         .bits   phantomInterrupt,32             ; s_vim_init[72] @ 2304
     213 00000124 00000000!         .bits   phantomInterrupt,32             ; s_vim_init[73] @ 2336
     214 00000128 00000000!         .bits   phantomInterrupt,32             ; s_vim_init[74] @ 2368
     215 0000012c 00000000!         .bits   phantomInterrupt,32             ; s_vim_init[75] @ 2400
     216 00000130 00000000!         .bits   phantomInterrupt,32             ; s_vim_init[76] @ 2432
     217 00000134 00000000!         .bits   phantomInterrupt,32             ; s_vim_init[77] @ 2464
     218 00000138 00000000!         .bits   phantomInterrupt,32             ; s_vim_init[78] @ 2496
     219 0000013c 00000000!         .bits   phantomInterrupt,32             ; s_vim_init[79] @ 2528
     220 00000140 00000000!         .bits   phantomInterrupt,32             ; s_vim_init[80] @ 2560
TI ARM Assembler PC v16.9.0 Thu Feb 16 13:27:12 2017

Tools Copyright (c) 1996-2015 Texas Instruments Incorporated
C:\Users\bob\AppData\Local\Temp\0245610                              PAGE    5

     221 00000144 00000000!         .bits   phantomInterrupt,32             ; s_vim_init[81] @ 2592
     222 00000148 00000000!         .bits   phantomInterrupt,32             ; s_vim_init[82] @ 2624
     223 0000014c 00000000!         .bits   phantomInterrupt,32             ; s_vim_init[83] @ 2656
     224 00000150 00000000!         .bits   phantomInterrupt,32             ; s_vim_init[84] @ 2688
     225 00000154 00000000!         .bits   phantomInterrupt,32             ; s_vim_init[85] @ 2720
     226 00000158 00000000!         .bits   phantomInterrupt,32             ; s_vim_init[86] @ 2752
     227 0000015c 00000000!         .bits   phantomInterrupt,32             ; s_vim_init[87] @ 2784
     228 00000160 00000000!         .bits   phantomInterrupt,32             ; s_vim_init[88] @ 2816
     229 00000164 00000000!         .bits   phantomInterrupt,32             ; s_vim_init[89] @ 2848
     230 00000168 00000000!         .bits   phantomInterrupt,32             ; s_vim_init[90] @ 2880
     231 0000016c 00000000!         .bits   phantomInterrupt,32             ; s_vim_init[91] @ 2912
     232 00000170 00000000!         .bits   phantomInterrupt,32             ; s_vim_init[92] @ 2944
     233 00000174 00000000!         .bits   phantomInterrupt,32             ; s_vim_init[93] @ 2976
     234 00000178 00000000!         .bits   phantomInterrupt,32             ; s_vim_init[94] @ 3008
     235 0000017c 00000000!         .bits   phantomInterrupt,32             ; s_vim_init[95] @ 3040
     236 00000180 00000000!         .bits   phantomInterrupt,32             ; s_vim_init[96] @ 3072
     237 00000184 00000000!         .bits   phantomInterrupt,32             ; s_vim_init[97] @ 3104
     238 00000188 00000000!         .bits   phantomInterrupt,32             ; s_vim_init[98] @ 3136
     239 0000018c 00000000!         .bits   phantomInterrupt,32             ; s_vim_init[99] @ 3168
     240 00000190 00000000!         .bits   phantomInterrupt,32             ; s_vim_init[100] @ 3200
     241 00000194 00000000!         .bits   phantomInterrupt,32             ; s_vim_init[101] @ 3232
     242 00000198 00000000!         .bits   phantomInterrupt,32             ; s_vim_init[102] @ 3264
     243 0000019c 00000000!         .bits   phantomInterrupt,32             ; s_vim_init[103] @ 3296
     244 000001a0 00000000!         .bits   phantomInterrupt,32             ; s_vim_init[104] @ 3328
     245 000001a4 00000000!         .bits   phantomInterrupt,32             ; s_vim_init[105] @ 3360
     246 000001a8 00000000!         .bits   phantomInterrupt,32             ; s_vim_init[106] @ 3392
     247 000001ac 00000000!         .bits   phantomInterrupt,32             ; s_vim_init[107] @ 3424
     248 000001b0 00000000!         .bits   phantomInterrupt,32             ; s_vim_init[108] @ 3456
     249 000001b4 00000000!         .bits   phantomInterrupt,32             ; s_vim_init[109] @ 3488
     250 000001b8 00000000!         .bits   phantomInterrupt,32             ; s_vim_init[110] @ 3520
     251 000001bc 00000000!         .bits   phantomInterrupt,32             ; s_vim_init[111] @ 3552
     252 000001c0 00000000!         .bits   phantomInterrupt,32             ; s_vim_init[112] @ 3584
     253 000001c4 00000000!         .bits   phantomInterrupt,32             ; s_vim_init[113] @ 3616
     254 000001c8 00000000!         .bits   phantomInterrupt,32             ; s_vim_init[114] @ 3648
     255 000001cc 00000000!         .bits   phantomInterrupt,32             ; s_vim_init[115] @ 3680
     256 000001d0 00000000!         .bits   phantomInterrupt,32             ; s_vim_init[116] @ 3712
     257 000001d4 00000000!         .bits   phantomInterrupt,32             ; s_vim_init[117] @ 3744
     258 000001d8 00000000!         .bits   phantomInterrupt,32             ; s_vim_init[118] @ 3776
     259 000001dc 00000000!         .bits   phantomInterrupt,32             ; s_vim_init[119] @ 3808
     260 000001e0 00000000!         .bits   phantomInterrupt,32             ; s_vim_init[120] @ 3840
     261 000001e4 00000000!         .bits   phantomInterrupt,32             ; s_vim_init[121] @ 3872
     262 000001e8 00000000!         .bits   phantomInterrupt,32             ; s_vim_init[122] @ 3904
     263 000001ec 00000000!         .bits   phantomInterrupt,32             ; s_vim_init[123] @ 3936
     264 000001f0 00000000!         .bits   phantomInterrupt,32             ; s_vim_init[124] @ 3968
     265 000001f4 00000000!         .bits   phantomInterrupt,32             ; s_vim_init[125] @ 4000
     266 000001f8 00000000!         .bits   phantomInterrupt,32             ; s_vim_init[126] @ 4032
     267 000001fc 00000000!         .bits   phantomInterrupt,32             ; s_vim_init[127] @ 4064
     268                    
     269                    $C$DW$15        .dwtag  DW_TAG_variable
     270                            .dwattr $C$DW$15, DW_AT_name("s_vim_init")
     271                            .dwattr $C$DW$15, DW_AT_TI_symbol_name("s_vim_init")
     272                            .dwattr $C$DW$15, DW_AT_type(*$C$DW$T$52)
     273                            .dwattr $C$DW$15, DW_AT_location[DW_OP_addr s_vim_init]
     274                            .dwattr $C$DW$15, DW_AT_decl_file("../hcg/source/HL_sys_vim.c")
     275                            .dwattr $C$DW$15, DW_AT_decl_line(0x45)
TI ARM Assembler PC v16.9.0 Thu Feb 16 13:27:12 2017

Tools Copyright (c) 1996-2015 Texas Instruments Incorporated
C:\Users\bob\AppData\Local\Temp\0245610                              PAGE    6

     276                            .dwattr $C$DW$15, DW_AT_decl_column(0x1b)
     277                    
     278                    ;       C:\ti\ccsv7\tools\compiler\ti-cgt-arm_16.9.0.LTS\bin\armacpia.exe -@C:\\Users\\bob\\AppData\\L
     279 00000000                   .sect   ".text"
     280                            .clink
     281                            .armfunc vimInit
     282 00000000                   .state32
     283                            .global vimInit
     284                    
     285                    $C$DW$16        .dwtag  DW_TAG_subprogram
     286                            .dwattr $C$DW$16, DW_AT_name("vimInit")
     287                            .dwattr $C$DW$16, DW_AT_low_pc(vimInit)
     288                            .dwattr $C$DW$16, DW_AT_high_pc(0x00)
     289                            .dwattr $C$DW$16, DW_AT_TI_symbol_name("vimInit")
     290                            .dwattr $C$DW$16, DW_AT_external
     291                            .dwattr $C$DW$16, DW_AT_TI_begin_file("../hcg/source/HL_sys_vim.c")
     292                            .dwattr $C$DW$16, DW_AT_TI_begin_line(0xd0)
     293                            .dwattr $C$DW$16, DW_AT_TI_begin_column(0x06)
     294                            .dwattr $C$DW$16, DW_AT_decl_file("../hcg/source/HL_sys_vim.c")
     295                            .dwattr $C$DW$16, DW_AT_decl_line(0xd0)
     296                            .dwattr $C$DW$16, DW_AT_decl_column(0x06)
     297                            .dwattr $C$DW$16, DW_AT_TI_max_frame_size(0x08)
     298                            .dwpsn  file "../hcg/source/HL_sys_vim.c",line 209,column 1,is_stmt,address vimInit,isa 2
     299                    
     300                            .dwfde $C$DW$CIE, vimInit
     301                    
     302                    ;*****************************************************************************
     303                    ;* FUNCTION NAME: vimInit                                                    *
     304                    ;*                                                                           *
     305                    ;*   Regs Modified     : A1,A2,A3,V9,SP,SR                                   *
     306                    ;*   Regs Used         : A1,A2,A3,V9,SP,LR,SR                                *
     307                    ;*   Local Frame Size  : 0 Args + 4 Auto + 0 Save = 4 byte                   *
     308                    ;*****************************************************************************
     309 00000000           vimInit:
     310                    ;* --------------------------------------------------------------------------*
     311                            .dwcfi  cfa_offset, 0
     312 00000000 E24DD008          SUB       SP, SP, #8            ; [DPU_4_PIPE0] 
     313                            .dwcfi  cfa_offset, 8
     314                            .dwpsn  file "../hcg/source/HL_sys_vim.c",line 215,column 5,is_stmt,isa 2
     315 00000004 E59F0810          LDR       A1, $C$CON1           ; [DPU_4_PIPE0] |215| 
     316 00000008 E59FC810          LDR       V9, $C$CON2           ; [DPU_4_PIPE0] |215| 
     317 0000000c E580C000          STR       V9, [A1, #0]          ; [DPU_4_PIPE0] |215| 
     318                    
     319                    $C$DW$17        .dwtag  DW_TAG_lexical_block
     320                            .dwattr $C$DW$17, DW_AT_low_pc(0x00)
     321                            .dwattr $C$DW$17, DW_AT_high_pc(0x00)
     322                    $C$DW$18        .dwtag  DW_TAG_variable
     323                            .dwattr $C$DW$18, DW_AT_name("i")
     324                            .dwattr $C$DW$18, DW_AT_TI_symbol_name("i")
     325                            .dwattr $C$DW$18, DW_AT_type(*$C$DW$T$20)
     326                            .dwattr $C$DW$18, DW_AT_location[DW_OP_breg13 0]
     327                    
     328                            .dwpsn  file "../hcg/source/HL_sys_vim.c",line 221,column 14,is_stmt,isa 2
     329 00000010 E3A0C000          MOV       V9, #0                ; [DPU_4_PIPE0] |221| 
     330 00000014 E58DC000          STR       V9, [SP, #0]          ; [DPU_4_PIPE0] |221| 
TI ARM Assembler PC v16.9.0 Thu Feb 16 13:27:12 2017

Tools Copyright (c) 1996-2015 Texas Instruments Incorporated
C:\Users\bob\AppData\Local\Temp\0245610                              PAGE    7

     331                            .dwpsn  file "../hcg/source/HL_sys_vim.c",line 221,column 22,is_stmt,isa 2
     332 00000018 E59DC000          LDR       V9, [SP, #0]          ; [DPU_4_PIPE0] |221| 
     333 0000001c E35C0080          CMP       V9, #128              ; [DPU_4_PIPE0] |221| 
     334 00000020 2AFFFFFE!         BCS       ||$C$L2||             ; [DPU_4_PIPE1] |221| 
     335                            ; BRANCHCC OCCURS {||$C$L2||}    ; [] |221| 
     336                    ;* --------------------------------------------------------------------------*
     337                    ;*   BEGIN LOOP ||$C$L1||
     338                    ;*
     339                    ;*   Loop source line                : 221
     340                    ;*   Loop closing brace source line  : 224
     341                    ;*   Known Minimum Trip Count        : 1
     342                    ;*   Known Maximum Trip Count        : 4294967295
     343                    ;*   Known Max Trip Count Factor     : 1
     344                    ;* --------------------------------------------------------------------------*
     345 00000024           ||$C$L1||:    
     346                            .dwpsn  file "../hcg/source/HL_sys_vim.c",line 223,column 13,is_stmt,isa 2
     347 00000024 E59DC000          LDR       V9, [SP, #0]          ; [DPU_4_PIPE0] |223| 
     348 00000028 E59F17F8          LDR       A2, $C$CON4           ; [DPU_4_PIPE0] |223| 
     349 0000002c E59D0000          LDR       A1, [SP, #0]          ; [DPU_4_PIPE0] |223| 
     350 00000030 E59F27EC          LDR       A3, $C$CON3           ; [DPU_4_PIPE0] |223| 
     351 00000034 E791C10C          LDR       V9, [A2, +V9, LSL #2] ; [DPU_4_PIPE0] |223| 
     352 00000038 E782C100          STR       V9, [A3, +A1, LSL #2] ; [DPU_4_PIPE0] |223| 
     353                            .dwpsn  file "../hcg/source/HL_sys_vim.c",line 221,column 40,is_stmt,isa 2
     354 0000003c E59DC000          LDR       V9, [SP, #0]          ; [DPU_4_PIPE0] |221| 
     355 00000040 E28CC001          ADD       V9, V9, #1            ; [DPU_4_PIPE0] |221| 
     356 00000044 E58DC000          STR       V9, [SP, #0]          ; [DPU_4_PIPE0] |221| 
     357                            .dwpsn  file "../hcg/source/HL_sys_vim.c",line 221,column 22,is_stmt,isa 2
     358 00000048 E59DC000          LDR       V9, [SP, #0]          ; [DPU_4_PIPE0] |221| 
     359 0000004c E35C0080          CMP       V9, #128              ; [DPU_4_PIPE0] |221| 
     360 00000050 3AFFFFFE!         BCC       ||$C$L1||             ; [DPU_4_PIPE1] |221| 
     361                            ; BRANCHCC OCCURS {||$C$L1||}    ; [] |221| 
     362                    ;* --------------------------------------------------------------------------*
     363                    ||$C$L2||:    
     364                            .dwendtag $C$DW$17
     365                    
     366                            .dwpsn  file "../hcg/source/HL_sys_vim.c",line 226,column 5,is_stmt,isa 2
     367 00000054 E59F07D0          LDR       A1, $C$CON5           ; [DPU_4_PIPE0] |226| 
     368 00000058 E59FC7D0          LDR       V9, $C$CON6           ; [DPU_4_PIPE0] |226| 
     369 0000005c E580C000          STR       V9, [A1, #0]          ; [DPU_4_PIPE0] |226| 
     370                            .dwpsn  file "../hcg/source/HL_sys_vim.c",line 229,column 5,is_stmt,isa 2
     371 00000060 E59F07CC          LDR       A1, $C$CON7           ; [DPU_4_PIPE0] |229| 
     372 00000064 E59FC7CC          LDR       V9, $C$CON8           ; [DPU_4_PIPE0] |229| 
     373 00000068 E580C000          STR       V9, [A1, #0]          ; [DPU_4_PIPE0] |229| 
     374                            .dwpsn  file "../hcg/source/HL_sys_vim.c",line 262,column 5,is_stmt,isa 2
     375 0000006c E59F07C8          LDR       A1, $C$CON9           ; [DPU_4_PIPE0] |262| 
     376 00000070 E3A0C000          MOV       V9, #0                ; [DPU_4_PIPE0] |262| 
     377 00000074 E580C000          STR       V9, [A1, #0]          ; [DPU_4_PIPE0] |262| 
     378                            .dwpsn  file "../hcg/source/HL_sys_vim.c",line 296,column 5,is_stmt,isa 2
     379 00000078 E59F07C0          LDR       A1, $C$CON10          ; [DPU_4_PIPE0] |296| 
     380 0000007c E3A0C000          MOV       V9, #0                ; [DPU_4_PIPE0] |296| 
     381 00000080 E580C000          STR       V9, [A1, #0]          ; [DPU_4_PIPE0] |296| 
     382                            .dwpsn  file "../hcg/source/HL_sys_vim.c",line 329,column 5,is_stmt,isa 2
     383 00000084 E59F07B8          LDR       A1, $C$CON11          ; [DPU_4_PIPE0] |329| 
     384 00000088 E3A0C000          MOV       V9, #0                ; [DPU_4_PIPE0] |329| 
     385 0000008c E580C000          STR       V9, [A1, #0]          ; [DPU_4_PIPE0] |329| 
TI ARM Assembler PC v16.9.0 Thu Feb 16 13:27:12 2017

Tools Copyright (c) 1996-2015 Texas Instruments Incorporated
C:\Users\bob\AppData\Local\Temp\0245610                              PAGE    8

     386                            .dwpsn  file "../hcg/source/HL_sys_vim.c",line 364,column 5,is_stmt,isa 2
     387 00000090 E59F07B0          LDR       A1, $C$CON12          ; [DPU_4_PIPE0] |364| 
     388 00000094 E59FC7B0          LDR       V9, $C$CON13          ; [DPU_4_PIPE0] |364| 
     389 00000098 E580C000          STR       V9, [A1, #0]          ; [DPU_4_PIPE0] |364| 
     390                            .dwpsn  file "../hcg/source/HL_sys_vim.c",line 397,column 5,is_stmt,isa 2
     391 0000009c E59F07AC          LDR       A1, $C$CON14          ; [DPU_4_PIPE0] |397| 
     392 000000a0 E3A0C000          MOV       V9, #0                ; [DPU_4_PIPE0] |397| 
     393 000000a4 E580C000          STR       V9, [A1, #0]          ; [DPU_4_PIPE0] |397| 
     394                            .dwpsn  file "../hcg/source/HL_sys_vim.c",line 430,column 5,is_stmt,isa 2
     395 000000a8 E59F07A4          LDR       A1, $C$CON15          ; [DPU_4_PIPE0] |430| 
     396 000000ac E3A0C000          MOV       V9, #0                ; [DPU_4_PIPE0] |430| 
     397 000000b0 E580C000          STR       V9, [A1, #0]          ; [DPU_4_PIPE0] |430| 
     398                            .dwpsn  file "../hcg/source/HL_sys_vim.c",line 463,column 5,is_stmt,isa 2
     399 000000b4 E59F079C          LDR       A1, $C$CON16          ; [DPU_4_PIPE0] |463| 
     400 000000b8 E3A0C000          MOV       V9, #0                ; [DPU_4_PIPE0] |463| 
     401 000000bc E580C000          STR       V9, [A1, #0]          ; [DPU_4_PIPE0] |463| 
     402                            .dwpsn  file "../hcg/source/HL_sys_vim.c",line 497,column 5,is_stmt,isa 2
     403 000000c0 E59F0794          LDR       A1, $C$CON17          ; [DPU_4_PIPE0] |497| 
     404 000000c4 E3A0C000          MOV       V9, #0                ; [DPU_4_PIPE0] |497| 
     405 000000c8 E580C000          STR       V9, [A1, #0]          ; [DPU_4_PIPE0] |497| 
     406                            .dwpsn  file "../hcg/source/HL_sys_vim.c",line 502,column 1,is_stmt,isa 2
     407 000000cc E28DD008          ADD       SP, SP, #8            ; [DPU_4_PIPE0] 
     408                            .dwcfi  cfa_offset, 0
     409                    $C$DW$19        .dwtag  DW_TAG_TI_branch
     410                            .dwattr $C$DW$19, DW_AT_low_pc(0x00)
     411                            .dwattr $C$DW$19, DW_AT_TI_return
     412                    
     413 000000d0 E12FFF1E          BX        LR                    ; [DPU_4_PIPE1] 
     414                            ; BRANCH OCCURS                  ; [] 
     415                            .dwattr $C$DW$16, DW_AT_TI_end_file("../hcg/source/HL_sys_vim.c")
     416                            .dwattr $C$DW$16, DW_AT_TI_end_line(0x1f6)
     417                            .dwattr $C$DW$16, DW_AT_TI_end_column(0x01)
     418                            .dwendentry
     419                            .dwendtag $C$DW$16
     420                    
     421 000000d4                   .sect   ".text"
     422                            .clink
     423                            .armfunc vimChannelMap
     424 000000d4                   .state32
     425                            .global vimChannelMap
     426                    
     427                    $C$DW$20        .dwtag  DW_TAG_subprogram
     428                            .dwattr $C$DW$20, DW_AT_name("vimChannelMap")
     429                            .dwattr $C$DW$20, DW_AT_low_pc(vimChannelMap)
     430                            .dwattr $C$DW$20, DW_AT_high_pc(0x00)
     431                            .dwattr $C$DW$20, DW_AT_TI_symbol_name("vimChannelMap")
     432                            .dwattr $C$DW$20, DW_AT_external
     433                            .dwattr $C$DW$20, DW_AT_TI_begin_file("../hcg/source/HL_sys_vim.c")
     434                            .dwattr $C$DW$20, DW_AT_TI_begin_line(0x202)
     435                            .dwattr $C$DW$20, DW_AT_TI_begin_column(0x06)
     436                            .dwattr $C$DW$20, DW_AT_decl_file("../hcg/source/HL_sys_vim.c")
     437                            .dwattr $C$DW$20, DW_AT_decl_line(0x202)
     438                            .dwattr $C$DW$20, DW_AT_decl_column(0x06)
     439                            .dwattr $C$DW$20, DW_AT_TI_max_frame_size(0x18)
     440                            .dwpsn  file "../hcg/source/HL_sys_vim.c",line 515,column 1,is_stmt,address vimChannelMap,isa 
TI ARM Assembler PC v16.9.0 Thu Feb 16 13:27:12 2017

Tools Copyright (c) 1996-2015 Texas Instruments Incorporated
C:\Users\bob\AppData\Local\Temp\0245610                              PAGE    9

     441                    
     442                            .dwfde $C$DW$CIE, vimChannelMap
     443                    $C$DW$21        .dwtag  DW_TAG_formal_parameter
     444                            .dwattr $C$DW$21, DW_AT_name("request")
     445                            .dwattr $C$DW$21, DW_AT_TI_symbol_name("request")
     446                            .dwattr $C$DW$21, DW_AT_type(*$C$DW$T$20)
     447                            .dwattr $C$DW$21, DW_AT_location[DW_OP_reg0]
     448                    
     449                    $C$DW$22        .dwtag  DW_TAG_formal_parameter
     450                            .dwattr $C$DW$22, DW_AT_name("channel")
     451                            .dwattr $C$DW$22, DW_AT_TI_symbol_name("channel")
     452                            .dwattr $C$DW$22, DW_AT_type(*$C$DW$T$20)
     453                            .dwattr $C$DW$22, DW_AT_location[DW_OP_reg1]
     454                    
     455                    $C$DW$23        .dwtag  DW_TAG_formal_parameter
     456                            .dwattr $C$DW$23, DW_AT_name("handler")
     457                            .dwattr $C$DW$23, DW_AT_TI_symbol_name("handler")
     458                            .dwattr $C$DW$23, DW_AT_type(*$C$DW$T$45)
     459                            .dwattr $C$DW$23, DW_AT_location[DW_OP_reg2]
     460                    
     461                    
     462                    ;*****************************************************************************
     463                    ;* FUNCTION NAME: vimChannelMap                                              *
     464                    ;*                                                                           *
     465                    ;*   Regs Modified     : A1,A2,A3,A4,V9,SP                                   *
     466                    ;*   Regs Used         : A1,A2,A3,A4,V9,SP,LR                                *
     467                    ;*   Local Frame Size  : 0 Args + 20 Auto + 0 Save = 20 byte                 *
     468                    ;*****************************************************************************
     469 000000d4           vimChannelMap:
     470                    ;* --------------------------------------------------------------------------*
     471                            .dwcfi  cfa_offset, 0
     472 000000d4 E24DD018          SUB       SP, SP, #24           ; [DPU_4_PIPE0] 
     473                            .dwcfi  cfa_offset, 24
     474                    $C$DW$24        .dwtag  DW_TAG_variable
     475                            .dwattr $C$DW$24, DW_AT_name("request")
     476                            .dwattr $C$DW$24, DW_AT_TI_symbol_name("request")
     477                            .dwattr $C$DW$24, DW_AT_type(*$C$DW$T$20)
     478                            .dwattr $C$DW$24, DW_AT_location[DW_OP_breg13 0]
     479                    
     480                    $C$DW$25        .dwtag  DW_TAG_variable
     481                            .dwattr $C$DW$25, DW_AT_name("channel")
     482                            .dwattr $C$DW$25, DW_AT_TI_symbol_name("channel")
     483                            .dwattr $C$DW$25, DW_AT_type(*$C$DW$T$20)
     484                            .dwattr $C$DW$25, DW_AT_location[DW_OP_breg13 4]
     485                    
     486                    $C$DW$26        .dwtag  DW_TAG_variable
     487                            .dwattr $C$DW$26, DW_AT_name("handler")
     488                            .dwattr $C$DW$26, DW_AT_TI_symbol_name("handler")
     489                            .dwattr $C$DW$26, DW_AT_type(*$C$DW$T$45)
     490                            .dwattr $C$DW$26, DW_AT_location[DW_OP_breg13 8]
     491                    
     492                    $C$DW$27        .dwtag  DW_TAG_variable
     493                            .dwattr $C$DW$27, DW_AT_name("i")
     494                            .dwattr $C$DW$27, DW_AT_TI_symbol_name("i")
     495                            .dwattr $C$DW$27, DW_AT_type(*$C$DW$T$20)
TI ARM Assembler PC v16.9.0 Thu Feb 16 13:27:12 2017

Tools Copyright (c) 1996-2015 Texas Instruments Incorporated
C:\Users\bob\AppData\Local\Temp\0245610                              PAGE   10

     496                            .dwattr $C$DW$27, DW_AT_location[DW_OP_breg13 12]
     497                    
     498                    $C$DW$28        .dwtag  DW_TAG_variable
     499                            .dwattr $C$DW$28, DW_AT_name("j")
     500                            .dwattr $C$DW$28, DW_AT_TI_symbol_name("j")
     501                            .dwattr $C$DW$28, DW_AT_type(*$C$DW$T$20)
     502                            .dwattr $C$DW$28, DW_AT_location[DW_OP_breg13 16]
     503                    
     504 000000d8 E58D2008          STR       A3, [SP, #8]          ; [DPU_4_PIPE0] |515| 
     505 000000dc E58D1004          STR       A2, [SP, #4]          ; [DPU_4_PIPE0] |515| 
     506 000000e0 E58D0000          STR       A1, [SP, #0]          ; [DPU_4_PIPE0] |515| 
     507                            .dwpsn  file "../hcg/source/HL_sys_vim.c",line 521,column 5,is_stmt,isa 2
     508 000000e4 E59DC004          LDR       V9, [SP, #4]          ; [DPU_4_PIPE0] |521| 
     509 000000e8 E1A0C12C          MOV       V9, V9, LSR #2        ; [DPU_4_PIPE0] |521| 
     510 000000ec E58DC00C          STR       V9, [SP, #12]         ; [DPU_4_PIPE0] |521| 
     511                            .dwpsn  file "../hcg/source/HL_sys_vim.c",line 522,column 5,is_stmt,isa 2
     512 000000f0 E59DC00C          LDR       V9, [SP, #12]         ; [DPU_4_PIPE0] |522| 
     513 000000f4 E59D0004          LDR       A1, [SP, #4]          ; [DPU_4_PIPE0] |522| 
     514 000000f8 E040C10C          SUB       V9, A1, V9, LSL #2    ; [DPU_4_PIPE0] |522| 
     515 000000fc E58DC010          STR       V9, [SP, #16]         ; [DPU_4_PIPE0] |522| 
     516                            .dwpsn  file "../hcg/source/HL_sys_vim.c",line 523,column 5,is_stmt,isa 2
     517 00000100 E59DC010          LDR       V9, [SP, #16]         ; [DPU_4_PIPE0] |523| 
     518 00000104 E26CC003          RSB       V9, V9, #3            ; [DPU_4_PIPE0] |523| 
     519 00000108 E58DC010          STR       V9, [SP, #16]         ; [DPU_4_PIPE0] |523| 
     520                            .dwpsn  file "../hcg/source/HL_sys_vim.c",line 524,column 5,is_stmt,isa 2
     521 0000010c E59DC010          LDR       V9, [SP, #16]         ; [DPU_4_PIPE0] |524| 
     522 00000110 E1A0C18C          MOV       V9, V9, LSL #3        ; [DPU_4_PIPE0] |524| 
     523 00000114 E58DC010          STR       V9, [SP, #16]         ; [DPU_4_PIPE0] |524| 
     524                            .dwpsn  file "../hcg/source/HL_sys_vim.c",line 527,column 5,is_stmt,isa 2
     525 00000118 E59DC00C          LDR       V9, [SP, #12]         ; [DPU_4_PIPE0] |527| 
     526 0000011c E59F273C          LDR       A3, $C$CON18          ; [DPU_4_PIPE0] |527| 
     527 00000120 E1A0C10C          MOV       V9, V9, LSL #2        ; [DPU_4_PIPE0] |527| 
     528 00000124 E59D0010          LDR       A1, [SP, #16]         ; [DPU_4_PIPE0] |527| 
     529 00000128 E3A030FF          MOV       A4, #255              ; [DPU_4_PIPE0] |527| 
     530 0000012c E79C1002          LDR       A2, [V9, +A3]         ; [DPU_4_PIPE0] |527| 
     531 00000130 E1C10013          BIC       A1, A2, A4, LSL A1    ; [DPU_4_PIPE0] |527| 
     532 00000134 E78C0002          STR       A1, [V9, +A3]         ; [DPU_4_PIPE0] |527| 
     533                            .dwpsn  file "../hcg/source/HL_sys_vim.c",line 528,column 5,is_stmt,isa 2
     534 00000138 E59DC00C          LDR       V9, [SP, #12]         ; [DPU_4_PIPE0] |528| 
     535 0000013c E59F371C          LDR       A4, $C$CON18          ; [DPU_4_PIPE0] |528| 
     536 00000140 E1A0C10C          MOV       V9, V9, LSL #2        ; [DPU_4_PIPE0] |528| 
     537 00000144 E59D1000          LDR       A2, [SP, #0]          ; [DPU_4_PIPE0] |528| 
     538 00000148 E59D0010          LDR       A1, [SP, #16]         ; [DPU_4_PIPE0] |528| 
     539 0000014c E79C2003          LDR       A3, [V9, +A4]         ; [DPU_4_PIPE0] |528| 
     540 00000150 E1820011          ORR       A1, A3, A2, LSL A1    ; [DPU_4_PIPE0] |528| 
     541 00000154 E78C0003          STR       A1, [V9, +A4]         ; [DPU_4_PIPE0] |528| 
     542                            .dwpsn  file "../hcg/source/HL_sys_vim.c",line 531,column 5,is_stmt,isa 2
     543 00000158 E59DC004          LDR       V9, [SP, #4]          ; [DPU_4_PIPE0] |531| 
     544 0000015c E1A0C10C          MOV       V9, V9, LSL #2        ; [DPU_4_PIPE0] |531| 
     545 00000160 E28CC004          ADD       V9, V9, #4            ; [DPU_4_PIPE0] |531| 
     546 00000164 E24C0A7E          SUB       A1, V9, #516096       ; [DPU_4_PIPE0] |531| 
     547 00000168 E59DC008          LDR       V9, [SP, #8]          ; [DPU_4_PIPE0] |531| 
     548 0000016c E580C000          STR       V9, [A1, #0]          ; [DPU_4_PIPE0] |531| 
     549                            .dwpsn  file "../hcg/source/HL_sys_vim.c",line 535,column 1,is_stmt,isa 2
     550 00000170 E28DD018          ADD       SP, SP, #24           ; [DPU_4_PIPE0] 
TI ARM Assembler PC v16.9.0 Thu Feb 16 13:27:12 2017

Tools Copyright (c) 1996-2015 Texas Instruments Incorporated
C:\Users\bob\AppData\Local\Temp\0245610                              PAGE   11

     551                            .dwcfi  cfa_offset, 0
     552                    $C$DW$29        .dwtag  DW_TAG_TI_branch
     553                            .dwattr $C$DW$29, DW_AT_low_pc(0x00)
     554                            .dwattr $C$DW$29, DW_AT_TI_return
     555                    
     556 00000174 E12FFF1E          BX        LR                    ; [DPU_4_PIPE1] 
     557                            ; BRANCH OCCURS                  ; [] 
     558                            .dwattr $C$DW$20, DW_AT_TI_end_file("../hcg/source/HL_sys_vim.c")
     559                            .dwattr $C$DW$20, DW_AT_TI_end_line(0x217)
     560                            .dwattr $C$DW$20, DW_AT_TI_end_column(0x01)
     561                            .dwendentry
     562                            .dwendtag $C$DW$20
     563                    
     564 00000178                   .sect   ".text"
     565                            .clink
     566                            .armfunc vimEnableInterrupt
     567 00000178                   .state32
     568                            .global vimEnableInterrupt
     569                    
     570                    $C$DW$30        .dwtag  DW_TAG_subprogram
     571                            .dwattr $C$DW$30, DW_AT_name("vimEnableInterrupt")
     572                            .dwattr $C$DW$30, DW_AT_low_pc(vimEnableInterrupt)
     573                            .dwattr $C$DW$30, DW_AT_high_pc(0x00)
     574                            .dwattr $C$DW$30, DW_AT_TI_symbol_name("vimEnableInterrupt")
     575                            .dwattr $C$DW$30, DW_AT_external
     576                            .dwattr $C$DW$30, DW_AT_TI_begin_file("../hcg/source/HL_sys_vim.c")
     577                            .dwattr $C$DW$30, DW_AT_TI_begin_line(0x224)
     578                            .dwattr $C$DW$30, DW_AT_TI_begin_column(0x06)
     579                            .dwattr $C$DW$30, DW_AT_decl_file("../hcg/source/HL_sys_vim.c")
     580                            .dwattr $C$DW$30, DW_AT_decl_line(0x224)
     581                            .dwattr $C$DW$30, DW_AT_decl_column(0x06)
     582                            .dwattr $C$DW$30, DW_AT_TI_max_frame_size(0x08)
     583                            .dwpsn  file "../hcg/source/HL_sys_vim.c",line 549,column 1,is_stmt,address vimEnableInterrupt
     584                    
     585                            .dwfde $C$DW$CIE, vimEnableInterrupt
     586                    $C$DW$31        .dwtag  DW_TAG_formal_parameter
     587                            .dwattr $C$DW$31, DW_AT_name("channel")
     588                            .dwattr $C$DW$31, DW_AT_TI_symbol_name("channel")
     589                            .dwattr $C$DW$31, DW_AT_type(*$C$DW$T$20)
     590                            .dwattr $C$DW$31, DW_AT_location[DW_OP_reg0]
     591                    
     592                    $C$DW$32        .dwtag  DW_TAG_formal_parameter
     593                            .dwattr $C$DW$32, DW_AT_name("inttype")
     594                            .dwattr $C$DW$32, DW_AT_TI_symbol_name("inttype")
     595                            .dwattr $C$DW$32, DW_AT_type(*$C$DW$T$64)
     596                            .dwattr $C$DW$32, DW_AT_location[DW_OP_reg1]
     597                    
     598                    
     599                    ;*****************************************************************************
     600                    ;* FUNCTION NAME: vimEnableInterrupt                                         *
     601                    ;*                                                                           *
     602                    ;*   Regs Modified     : A1,A2,A3,V9,SP,SR                                   *
     603                    ;*   Regs Used         : A1,A2,A3,V9,SP,LR,SR                                *
     604                    ;*   Local Frame Size  : 0 Args + 8 Auto + 0 Save = 8 byte                   *
     605                    ;*****************************************************************************
TI ARM Assembler PC v16.9.0 Thu Feb 16 13:27:12 2017

Tools Copyright (c) 1996-2015 Texas Instruments Incorporated
C:\Users\bob\AppData\Local\Temp\0245610                              PAGE   12

     606 00000178           vimEnableInterrupt:
     607                    ;* --------------------------------------------------------------------------*
     608                            .dwcfi  cfa_offset, 0
     609 00000178 E24DD008          SUB       SP, SP, #8            ; [DPU_4_PIPE0] 
     610                            .dwcfi  cfa_offset, 8
     611                    $C$DW$33        .dwtag  DW_TAG_variable
     612                            .dwattr $C$DW$33, DW_AT_name("channel")
     613                            .dwattr $C$DW$33, DW_AT_TI_symbol_name("channel")
     614                            .dwattr $C$DW$33, DW_AT_type(*$C$DW$T$20)
     615                            .dwattr $C$DW$33, DW_AT_location[DW_OP_breg13 0]
     616                    
     617                    $C$DW$34        .dwtag  DW_TAG_variable
     618                            .dwattr $C$DW$34, DW_AT_name("inttype")
     619                            .dwattr $C$DW$34, DW_AT_TI_symbol_name("inttype")
     620                            .dwattr $C$DW$34, DW_AT_type(*$C$DW$T$64)
     621                            .dwattr $C$DW$34, DW_AT_location[DW_OP_breg13 4]
     622                    
     623 0000017c E5CD1004          STRB      A2, [SP, #4]          ; [DPU_4_PIPE0] |549| 
     624 00000180 E58D0000          STR       A1, [SP, #0]          ; [DPU_4_PIPE0] |549| 
     625                            .dwpsn  file "../hcg/source/HL_sys_vim.c",line 553,column 5,is_stmt,isa 2
     626 00000184 E59DC000          LDR       V9, [SP, #0]          ; [DPU_4_PIPE0] |553| 
     627 00000188 E35C0060          CMP       V9, #96               ; [DPU_4_PIPE0] |553| 
     628 0000018c 3AFFFFFE!         BCC       ||$C$L5||             ; [DPU_4_PIPE1] |553| 
     629                            ; BRANCHCC OCCURS {||$C$L5||}    ; [] |553| 
     630                    ;* --------------------------------------------------------------------------*
     631                            .dwpsn  file "../hcg/source/HL_sys_vim.c",line 555,column 9,is_stmt,isa 2
     632 00000190 E5DDC004          LDRB      V9, [SP, #4]          ; [DPU_4_PIPE0] |555| 
     633 00000194 E35C0000          CMP       V9, #0                ; [DPU_4_PIPE0] |555| 
     634 00000198 1AFFFFFE!         BNE       ||$C$L3||             ; [DPU_4_PIPE1] |555| 
     635                            ; BRANCHCC OCCURS {||$C$L3||}    ; [] |555| 
     636                    ;* --------------------------------------------------------------------------*
     637                            .dwpsn  file "../hcg/source/HL_sys_vim.c",line 557,column 13,is_stmt,isa 2
     638 0000019c E59F16A0          LDR       A2, $C$CON11          ; [DPU_4_PIPE0] |557| 
     639 000001a0 E59DC000          LDR       V9, [SP, #0]          ; [DPU_4_PIPE0] |557| 
     640 000001a4 E5910000          LDR       A1, [A2, #0]          ; [DPU_4_PIPE0] |557| 
     641 000001a8 E3A02001          MOV       A3, #1                ; [DPU_4_PIPE1] |557| 
     642 000001ac E24CC060          SUB       V9, V9, #96           ; [DPU_4_PIPE0] |557| 
     643 000001b0 E1C0CC12          BIC       V9, A1, A3, LSL V9    ; [DPU_4_PIPE0] |557| 
     644 000001b4 E581C000          STR       V9, [A2, #0]          ; [DPU_4_PIPE0] |557| 
     645                            .dwpsn  file "../hcg/source/HL_sys_vim.c",line 558,column 9,is_stmt,isa 2
     646 000001b8 EAFFFFFE!         B         ||$C$L4||             ; [DPU_4_PIPE1] |558| 
     647                            ; BRANCH OCCURS {||$C$L4||}      ; [] |558| 
     648                    ;* --------------------------------------------------------------------------*
     649 000001bc           ||$C$L3||:    
     650                            .dwpsn  file "../hcg/source/HL_sys_vim.c",line 561,column 13,is_stmt,isa 2
     651 000001bc E59F1680          LDR       A2, $C$CON11          ; [DPU_4_PIPE0] |561| 
     652 000001c0 E59DC000          LDR       V9, [SP, #0]          ; [DPU_4_PIPE0] |561| 
     653 000001c4 E5910000          LDR       A1, [A2, #0]          ; [DPU_4_PIPE0] |561| 
     654 000001c8 E3A02001          MOV       A3, #1                ; [DPU_4_PIPE1] |561| 
     655 000001cc E24CC060          SUB       V9, V9, #96           ; [DPU_4_PIPE0] |561| 
     656 000001d0 E180CC12          ORR       V9, A1, A3, LSL V9    ; [DPU_4_PIPE0] |561| 
     657 000001d4 E581C000          STR       V9, [A2, #0]          ; [DPU_4_PIPE0] |561| 
     658                    ;* --------------------------------------------------------------------------*
     659 000001d8           ||$C$L4||:    
     660                            .dwpsn  file "../hcg/source/HL_sys_vim.c",line 563,column 9,is_stmt,isa 2
TI ARM Assembler PC v16.9.0 Thu Feb 16 13:27:12 2017

Tools Copyright (c) 1996-2015 Texas Instruments Incorporated
C:\Users\bob\AppData\Local\Temp\0245610                              PAGE   13

     661 000001d8 E59DC000          LDR       V9, [SP, #0]          ; [DPU_4_PIPE0] |563| 
     662 000001dc E59F1674          LDR       A2, $C$CON16          ; [DPU_4_PIPE0] |563| 
     663 000001e0 E3A00001          MOV       A1, #1                ; [DPU_4_PIPE0] |563| 
     664 000001e4 E24CC060          SUB       V9, V9, #96           ; [DPU_4_PIPE0] |563| 
     665 000001e8 E1A0CC10          MOV       V9, A1, LSL V9        ; [DPU_4_PIPE0] |563| 
     666 000001ec E581C000          STR       V9, [A2, #0]          ; [DPU_4_PIPE0] |563| 
     667                            .dwpsn  file "../hcg/source/HL_sys_vim.c",line 564,column 5,is_stmt,isa 2
     668 000001f0 EAFFFFFE!         B         ||$C$L14||            ; [DPU_4_PIPE1] |564| 
     669                            ; BRANCH OCCURS {||$C$L14||}     ; [] |564| 
     670                    ;* --------------------------------------------------------------------------*
     671 000001f4           ||$C$L5||:    
     672                            .dwpsn  file "../hcg/source/HL_sys_vim.c",line 565,column 10,is_stmt,isa 2
     673 000001f4 E59DC000          LDR       V9, [SP, #0]          ; [DPU_4_PIPE0] |565| 
     674 000001f8 E35C0040          CMP       V9, #64               ; [DPU_4_PIPE0] |565| 
     675 000001fc 3AFFFFFE!         BCC       ||$C$L8||             ; [DPU_4_PIPE1] |565| 
     676                            ; BRANCHCC OCCURS {||$C$L8||}    ; [] |565| 
     677                    ;* --------------------------------------------------------------------------*
     678                            .dwpsn  file "../hcg/source/HL_sys_vim.c",line 567,column 9,is_stmt,isa 2
     679 00000200 E5DDC004          LDRB      V9, [SP, #4]          ; [DPU_4_PIPE0] |567| 
     680 00000204 E35C0000          CMP       V9, #0                ; [DPU_4_PIPE0] |567| 
     681 00000208 1AFFFFFE!         BNE       ||$C$L6||             ; [DPU_4_PIPE1] |567| 
     682                            ; BRANCHCC OCCURS {||$C$L6||}    ; [] |567| 
     683                    ;* --------------------------------------------------------------------------*
     684                            .dwpsn  file "../hcg/source/HL_sys_vim.c",line 569,column 13,is_stmt,isa 2
     685 0000020c E59F162C          LDR       A2, $C$CON10          ; [DPU_4_PIPE0] |569| 
     686 00000210 E59DC000          LDR       V9, [SP, #0]          ; [DPU_4_PIPE0] |569| 
     687 00000214 E5910000          LDR       A1, [A2, #0]          ; [DPU_4_PIPE0] |569| 
     688 00000218 E3A02001          MOV       A3, #1                ; [DPU_4_PIPE1] |569| 
     689 0000021c E24CC040          SUB       V9, V9, #64           ; [DPU_4_PIPE0] |569| 
     690 00000220 E1C0CC12          BIC       V9, A1, A3, LSL V9    ; [DPU_4_PIPE0] |569| 
     691 00000224 E581C000          STR       V9, [A2, #0]          ; [DPU_4_PIPE0] |569| 
     692                            .dwpsn  file "../hcg/source/HL_sys_vim.c",line 570,column 9,is_stmt,isa 2
     693 00000228 EAFFFFFE!         B         ||$C$L7||             ; [DPU_4_PIPE1] |570| 
     694                            ; BRANCH OCCURS {||$C$L7||}      ; [] |570| 
     695                    ;* --------------------------------------------------------------------------*
     696 0000022c           ||$C$L6||:    
     697                            .dwpsn  file "../hcg/source/HL_sys_vim.c",line 573,column 13,is_stmt,isa 2
     698 0000022c E59F160C          LDR       A2, $C$CON10          ; [DPU_4_PIPE0] |573| 
     699 00000230 E59DC000          LDR       V9, [SP, #0]          ; [DPU_4_PIPE0] |573| 
     700 00000234 E5910000          LDR       A1, [A2, #0]          ; [DPU_4_PIPE0] |573| 
     701 00000238 E3A02001          MOV       A3, #1                ; [DPU_4_PIPE1] |573| 
     702 0000023c E24CC040          SUB       V9, V9, #64           ; [DPU_4_PIPE0] |573| 
     703 00000240 E180CC12          ORR       V9, A1, A3, LSL V9    ; [DPU_4_PIPE0] |573| 
     704 00000244 E581C000          STR       V9, [A2, #0]          ; [DPU_4_PIPE0] |573| 
     705                    ;* --------------------------------------------------------------------------*
     706 00000248           ||$C$L7||:    
     707                            .dwpsn  file "../hcg/source/HL_sys_vim.c",line 575,column 9,is_stmt,isa 2
     708 00000248 E59DC000          LDR       V9, [SP, #0]          ; [DPU_4_PIPE0] |575| 
     709 0000024c E59F1600          LDR       A2, $C$CON15          ; [DPU_4_PIPE0] |575| 
     710 00000250 E3A00001          MOV       A1, #1                ; [DPU_4_PIPE0] |575| 
     711 00000254 E24CC040          SUB       V9, V9, #64           ; [DPU_4_PIPE0] |575| 
     712 00000258 E1A0CC10          MOV       V9, A1, LSL V9        ; [DPU_4_PIPE0] |575| 
     713 0000025c E581C000          STR       V9, [A2, #0]          ; [DPU_4_PIPE0] |575| 
     714                            .dwpsn  file "../hcg/source/HL_sys_vim.c",line 576,column 5,is_stmt,isa 2
     715 00000260 EAFFFFFE!         B         ||$C$L14||            ; [DPU_4_PIPE1] |576| 
TI ARM Assembler PC v16.9.0 Thu Feb 16 13:27:12 2017

Tools Copyright (c) 1996-2015 Texas Instruments Incorporated
C:\Users\bob\AppData\Local\Temp\0245610                              PAGE   14

     716                            ; BRANCH OCCURS {||$C$L14||}     ; [] |576| 
     717                    ;* --------------------------------------------------------------------------*
     718 00000264           ||$C$L8||:    
     719                            .dwpsn  file "../hcg/source/HL_sys_vim.c",line 577,column 10,is_stmt,isa 2
     720 00000264 E59DC000          LDR       V9, [SP, #0]          ; [DPU_4_PIPE0] |577| 
     721 00000268 E35C0020          CMP       V9, #32               ; [DPU_4_PIPE0] |577| 
     722 0000026c 3AFFFFFE!         BCC       ||$C$L11||            ; [DPU_4_PIPE1] |577| 
     723                            ; BRANCHCC OCCURS {||$C$L11||}   ; [] |577| 
     724                    ;* --------------------------------------------------------------------------*
     725                            .dwpsn  file "../hcg/source/HL_sys_vim.c",line 579,column 9,is_stmt,isa 2
     726 00000270 E5DDC004          LDRB      V9, [SP, #4]          ; [DPU_4_PIPE0] |579| 
     727 00000274 E35C0000          CMP       V9, #0                ; [DPU_4_PIPE0] |579| 
     728 00000278 1AFFFFFE!         BNE       ||$C$L9||             ; [DPU_4_PIPE1] |579| 
     729                            ; BRANCHCC OCCURS {||$C$L9||}    ; [] |579| 
     730                    ;* --------------------------------------------------------------------------*
     731                            .dwpsn  file "../hcg/source/HL_sys_vim.c",line 581,column 13,is_stmt,isa 2
     732 0000027c E59F15B8          LDR       A2, $C$CON9           ; [DPU_4_PIPE0] |581| 
     733 00000280 E59DC000          LDR       V9, [SP, #0]          ; [DPU_4_PIPE0] |581| 
     734 00000284 E5910000          LDR       A1, [A2, #0]          ; [DPU_4_PIPE0] |581| 
     735 00000288 E3A02001          MOV       A3, #1                ; [DPU_4_PIPE1] |581| 
     736 0000028c E24CC020          SUB       V9, V9, #32           ; [DPU_4_PIPE0] |581| 
     737 00000290 E1C0CC12          BIC       V9, A1, A3, LSL V9    ; [DPU_4_PIPE0] |581| 
     738 00000294 E581C000          STR       V9, [A2, #0]          ; [DPU_4_PIPE0] |581| 
     739                            .dwpsn  file "../hcg/source/HL_sys_vim.c",line 582,column 9,is_stmt,isa 2
     740 00000298 EAFFFFFE!         B         ||$C$L10||            ; [DPU_4_PIPE1] |582| 
     741                            ; BRANCH OCCURS {||$C$L10||}     ; [] |582| 
     742                    ;* --------------------------------------------------------------------------*
     743 0000029c           ||$C$L9||:    
     744                            .dwpsn  file "../hcg/source/HL_sys_vim.c",line 585,column 13,is_stmt,isa 2
     745 0000029c E59F1598          LDR       A2, $C$CON9           ; [DPU_4_PIPE0] |585| 
     746 000002a0 E59DC000          LDR       V9, [SP, #0]          ; [DPU_4_PIPE0] |585| 
     747 000002a4 E5910000          LDR       A1, [A2, #0]          ; [DPU_4_PIPE0] |585| 
     748 000002a8 E3A02001          MOV       A3, #1                ; [DPU_4_PIPE1] |585| 
     749 000002ac E24CC020          SUB       V9, V9, #32           ; [DPU_4_PIPE0] |585| 
     750 000002b0 E180CC12          ORR       V9, A1, A3, LSL V9    ; [DPU_4_PIPE0] |585| 
     751 000002b4 E581C000          STR       V9, [A2, #0]          ; [DPU_4_PIPE0] |585| 
     752                    ;* --------------------------------------------------------------------------*
     753 000002b8           ||$C$L10||:    
     754                            .dwpsn  file "../hcg/source/HL_sys_vim.c",line 587,column 9,is_stmt,isa 2
     755 000002b8 E59DC000          LDR       V9, [SP, #0]          ; [DPU_4_PIPE0] |587| 
     756 000002bc E59F158C          LDR       A2, $C$CON14          ; [DPU_4_PIPE0] |587| 
     757 000002c0 E3A00001          MOV       A1, #1                ; [DPU_4_PIPE0] |587| 
     758 000002c4 E24CC020          SUB       V9, V9, #32           ; [DPU_4_PIPE0] |587| 
     759 000002c8 E1A0CC10          MOV       V9, A1, LSL V9        ; [DPU_4_PIPE0] |587| 
     760 000002cc E581C000          STR       V9, [A2, #0]          ; [DPU_4_PIPE0] |587| 
     761                            .dwpsn  file "../hcg/source/HL_sys_vim.c",line 588,column 5,is_stmt,isa 2
     762 000002d0 EAFFFFFE!         B         ||$C$L14||            ; [DPU_4_PIPE1] |588| 
     763                            ; BRANCH OCCURS {||$C$L14||}     ; [] |588| 
     764                    ;* --------------------------------------------------------------------------*
     765 000002d4           ||$C$L11||:    
     766                            .dwpsn  file "../hcg/source/HL_sys_vim.c",line 589,column 10,is_stmt,isa 2
     767 000002d4 E59DC000          LDR       V9, [SP, #0]          ; [DPU_4_PIPE0] |589| 
     768 000002d8 E35C0002          CMP       V9, #2                ; [DPU_4_PIPE0] |589| 
     769 000002dc 3AFFFFFE!         BCC       ||$C$L14||            ; [DPU_4_PIPE1] |589| 
     770                            ; BRANCHCC OCCURS {||$C$L14||}   ; [] |589| 
TI ARM Assembler PC v16.9.0 Thu Feb 16 13:27:12 2017

Tools Copyright (c) 1996-2015 Texas Instruments Incorporated
C:\Users\bob\AppData\Local\Temp\0245610                              PAGE   15

     771                    ;* --------------------------------------------------------------------------*
     772                            .dwpsn  file "../hcg/source/HL_sys_vim.c",line 591,column 9,is_stmt,isa 2
     773 000002e0 E5DDC004          LDRB      V9, [SP, #4]          ; [DPU_4_PIPE0] |591| 
     774 000002e4 E35C0000          CMP       V9, #0                ; [DPU_4_PIPE0] |591| 
     775 000002e8 1AFFFFFE!         BNE       ||$C$L12||            ; [DPU_4_PIPE1] |591| 
     776                            ; BRANCHCC OCCURS {||$C$L12||}   ; [] |591| 
     777                    ;* --------------------------------------------------------------------------*
     778                            .dwpsn  file "../hcg/source/HL_sys_vim.c",line 593,column 13,is_stmt,isa 2
     779 000002ec E59F1540          LDR       A2, $C$CON7           ; [DPU_4_PIPE0] |593| 
     780 000002f0 E59DC000          LDR       V9, [SP, #0]          ; [DPU_4_PIPE0] |593| 
     781 000002f4 E3A02001          MOV       A3, #1                ; [DPU_4_PIPE0] |593| 
     782 000002f8 E5910000          LDR       A1, [A2, #0]          ; [DPU_4_PIPE0] |593| 
     783 000002fc E1C0CC12          BIC       V9, A1, A3, LSL V9    ; [DPU_4_PIPE0] |593| 
     784 00000300 E581C000          STR       V9, [A2, #0]          ; [DPU_4_PIPE0] |593| 
     785                            .dwpsn  file "../hcg/source/HL_sys_vim.c",line 594,column 9,is_stmt,isa 2
     786 00000304 EAFFFFFE!         B         ||$C$L13||            ; [DPU_4_PIPE1] |594| 
     787                            ; BRANCH OCCURS {||$C$L13||}     ; [] |594| 
     788                    ;* --------------------------------------------------------------------------*
     789 00000308           ||$C$L12||:    
     790                            .dwpsn  file "../hcg/source/HL_sys_vim.c",line 597,column 13,is_stmt,isa 2
     791 00000308 E59F1524          LDR       A2, $C$CON7           ; [DPU_4_PIPE0] |597| 
     792 0000030c E59DC000          LDR       V9, [SP, #0]          ; [DPU_4_PIPE0] |597| 
     793 00000310 E3A02001          MOV       A3, #1                ; [DPU_4_PIPE0] |597| 
     794 00000314 E5910000          LDR       A1, [A2, #0]          ; [DPU_4_PIPE0] |597| 
     795 00000318 E180CC12          ORR       V9, A1, A3, LSL V9    ; [DPU_4_PIPE0] |597| 
     796 0000031c E581C000          STR       V9, [A2, #0]          ; [DPU_4_PIPE0] |597| 
     797                    ;* --------------------------------------------------------------------------*
     798 00000320           ||$C$L13||:    
     799                            .dwpsn  file "../hcg/source/HL_sys_vim.c",line 599,column 9,is_stmt,isa 2
     800 00000320 E59DC000          LDR       V9, [SP, #0]          ; [DPU_4_PIPE0] |599| 
     801 00000324 E59F151C          LDR       A2, $C$CON12          ; [DPU_4_PIPE0] |599| 
     802 00000328 E3A00001          MOV       A1, #1                ; [DPU_4_PIPE0] |599| 
     803 0000032c E1A0CC10          MOV       V9, A1, LSL V9        ; [DPU_4_PIPE0] |599| 
     804 00000330 E581C000          STR       V9, [A2, #0]          ; [DPU_4_PIPE0] |599| 
     805                            .dwpsn  file "../hcg/source/HL_sys_vim.c",line 600,column 5,is_stmt,isa 2
     806 00000334 EAFFFFFE!         B         ||$C$L14||            ; [DPU_4_PIPE1] |600| 
     807                            ; BRANCH OCCURS {||$C$L14||}     ; [] |600| 
     808                    ;* --------------------------------------------------------------------------*
     809                    ;* --------------------------------------------------------------------------*
     810 00000338           ||$C$L14||:    
     811 00000338 E28DD008          ADD       SP, SP, #8            ; [DPU_4_PIPE0] 
     812                            .dwcfi  cfa_offset, 0
     813                    $C$DW$35        .dwtag  DW_TAG_TI_branch
     814                            .dwattr $C$DW$35, DW_AT_low_pc(0x00)
     815                            .dwattr $C$DW$35, DW_AT_TI_return
     816                    
     817 0000033c E12FFF1E          BX        LR                    ; [DPU_4_PIPE1] 
     818                            ; BRANCH OCCURS                  ; [] 
     819                            .dwattr $C$DW$30, DW_AT_TI_end_file("../hcg/source/HL_sys_vim.c")
     820                            .dwattr $C$DW$30, DW_AT_TI_end_line(0x25f)
     821                            .dwattr $C$DW$30, DW_AT_TI_end_column(0x01)
     822                            .dwendentry
     823                            .dwendtag $C$DW$30
     824                    
     825 00000340                   .sect   ".text"
TI ARM Assembler PC v16.9.0 Thu Feb 16 13:27:12 2017

Tools Copyright (c) 1996-2015 Texas Instruments Incorporated
C:\Users\bob\AppData\Local\Temp\0245610                              PAGE   16

     826                            .clink
     827                            .armfunc vimDisableInterrupt
     828 00000340                   .state32
     829                            .global vimDisableInterrupt
     830                    
     831                    $C$DW$36        .dwtag  DW_TAG_subprogram
     832                            .dwattr $C$DW$36, DW_AT_name("vimDisableInterrupt")
     833                            .dwattr $C$DW$36, DW_AT_low_pc(vimDisableInterrupt)
     834                            .dwattr $C$DW$36, DW_AT_high_pc(0x00)
     835                            .dwattr $C$DW$36, DW_AT_TI_symbol_name("vimDisableInterrupt")
     836                            .dwattr $C$DW$36, DW_AT_external
     837                            .dwattr $C$DW$36, DW_AT_TI_begin_file("../hcg/source/HL_sys_vim.c")
     838                            .dwattr $C$DW$36, DW_AT_TI_begin_line(0x269)
     839                            .dwattr $C$DW$36, DW_AT_TI_begin_column(0x06)
     840                            .dwattr $C$DW$36, DW_AT_decl_file("../hcg/source/HL_sys_vim.c")
     841                            .dwattr $C$DW$36, DW_AT_decl_line(0x269)
     842                            .dwattr $C$DW$36, DW_AT_decl_column(0x06)
     843                            .dwattr $C$DW$36, DW_AT_TI_max_frame_size(0x08)
     844                            .dwpsn  file "../hcg/source/HL_sys_vim.c",line 618,column 1,is_stmt,address vimDisableInterrup
     845                    
     846                            .dwfde $C$DW$CIE, vimDisableInterrupt
     847                    $C$DW$37        .dwtag  DW_TAG_formal_parameter
     848                            .dwattr $C$DW$37, DW_AT_name("channel")
     849                            .dwattr $C$DW$37, DW_AT_TI_symbol_name("channel")
     850                            .dwattr $C$DW$37, DW_AT_type(*$C$DW$T$20)
     851                            .dwattr $C$DW$37, DW_AT_location[DW_OP_reg0]
     852                    
     853                    
     854                    ;*****************************************************************************
     855                    ;* FUNCTION NAME: vimDisableInterrupt                                        *
     856                    ;*                                                                           *
     857                    ;*   Regs Modified     : A1,A2,V9,SP,SR                                      *
     858                    ;*   Regs Used         : A1,A2,V9,SP,LR,SR                                   *
     859                    ;*   Local Frame Size  : 0 Args + 4 Auto + 0 Save = 4 byte                   *
     860                    ;*****************************************************************************
     861 00000340           vimDisableInterrupt:
     862                    ;* --------------------------------------------------------------------------*
     863                            .dwcfi  cfa_offset, 0
     864 00000340 E24DD008          SUB       SP, SP, #8            ; [DPU_4_PIPE0] 
     865                            .dwcfi  cfa_offset, 8
     866                    $C$DW$38        .dwtag  DW_TAG_variable
     867                            .dwattr $C$DW$38, DW_AT_name("channel")
     868                            .dwattr $C$DW$38, DW_AT_TI_symbol_name("channel")
     869                            .dwattr $C$DW$38, DW_AT_type(*$C$DW$T$20)
     870                            .dwattr $C$DW$38, DW_AT_location[DW_OP_breg13 0]
     871                    
     872 00000344 E58D0000          STR       A1, [SP, #0]          ; [DPU_4_PIPE0] |618| 
     873                            .dwpsn  file "../hcg/source/HL_sys_vim.c",line 622,column 5,is_stmt,isa 2
     874 00000348 E59DC000          LDR       V9, [SP, #0]          ; [DPU_4_PIPE0] |622| 
     875 0000034c E35C0060          CMP       V9, #96               ; [DPU_4_PIPE0] |622| 
     876 00000350 3AFFFFFE!         BCC       ||$C$L15||            ; [DPU_4_PIPE1] |622| 
     877                            ; BRANCHCC OCCURS {||$C$L15||}   ; [] |622| 
     878                    ;* --------------------------------------------------------------------------*
     879                            .dwpsn  file "../hcg/source/HL_sys_vim.c",line 624,column 9,is_stmt,isa 2
     880 00000354 E59DC000          LDR       V9, [SP, #0]          ; [DPU_4_PIPE0] |624| 
TI ARM Assembler PC v16.9.0 Thu Feb 16 13:27:12 2017

Tools Copyright (c) 1996-2015 Texas Instruments Incorporated
C:\Users\bob\AppData\Local\Temp\0245610                              PAGE   17

     881 00000358 E59F1504          LDR       A2, $C$CON19          ; [DPU_4_PIPE0] |624| 
     882 0000035c E3A00001          MOV       A1, #1                ; [DPU_4_PIPE0] |624| 
     883 00000360 E24CC060          SUB       V9, V9, #96           ; [DPU_4_PIPE0] |624| 
     884 00000364 E1A0CC10          MOV       V9, A1, LSL V9        ; [DPU_4_PIPE0] |624| 
     885 00000368 E581C000          STR       V9, [A2, #0]          ; [DPU_4_PIPE0] |624| 
     886                            .dwpsn  file "../hcg/source/HL_sys_vim.c",line 625,column 5,is_stmt,isa 2
     887 0000036c EAFFFFFE!         B         ||$C$L18||            ; [DPU_4_PIPE1] |625| 
     888                            ; BRANCH OCCURS {||$C$L18||}     ; [] |625| 
     889                    ;* --------------------------------------------------------------------------*
     890 00000370           ||$C$L15||:    
     891                            .dwpsn  file "../hcg/source/HL_sys_vim.c",line 626,column 10,is_stmt,isa 2
     892 00000370 E59DC000          LDR       V9, [SP, #0]          ; [DPU_4_PIPE0] |626| 
     893 00000374 E35C0040          CMP       V9, #64               ; [DPU_4_PIPE0] |626| 
     894 00000378 3AFFFFFE!         BCC       ||$C$L16||            ; [DPU_4_PIPE1] |626| 
     895                            ; BRANCHCC OCCURS {||$C$L16||}   ; [] |626| 
     896                    ;* --------------------------------------------------------------------------*
     897                            .dwpsn  file "../hcg/source/HL_sys_vim.c",line 628,column 9,is_stmt,isa 2
     898 0000037c E59DC000          LDR       V9, [SP, #0]          ; [DPU_4_PIPE0] |628| 
     899 00000380 E59F14E0          LDR       A2, $C$CON20          ; [DPU_4_PIPE0] |628| 
     900 00000384 E3A00001          MOV       A1, #1                ; [DPU_4_PIPE0] |628| 
     901 00000388 E24CC040          SUB       V9, V9, #64           ; [DPU_4_PIPE0] |628| 
     902 0000038c E1A0CC10          MOV       V9, A1, LSL V9        ; [DPU_4_PIPE0] |628| 
     903 00000390 E581C000          STR       V9, [A2, #0]          ; [DPU_4_PIPE0] |628| 
     904                            .dwpsn  file "../hcg/source/HL_sys_vim.c",line 629,column 5,is_stmt,isa 2
     905 00000394 EAFFFFFE!         B         ||$C$L18||            ; [DPU_4_PIPE1] |629| 
     906                            ; BRANCH OCCURS {||$C$L18||}     ; [] |629| 
     907                    ;* --------------------------------------------------------------------------*
     908 00000398           ||$C$L16||:    
     909                            .dwpsn  file "../hcg/source/HL_sys_vim.c",line 630,column 10,is_stmt,isa 2
     910 00000398 E59DC000          LDR       V9, [SP, #0]          ; [DPU_4_PIPE0] |630| 
     911 0000039c E35C0020          CMP       V9, #32               ; [DPU_4_PIPE0] |630| 
     912 000003a0 3AFFFFFE!         BCC       ||$C$L17||            ; [DPU_4_PIPE1] |630| 
     913                            ; BRANCHCC OCCURS {||$C$L17||}   ; [] |630| 
     914                    ;* --------------------------------------------------------------------------*
     915                            .dwpsn  file "../hcg/source/HL_sys_vim.c",line 632,column 9,is_stmt,isa 2
     916 000003a4 E59DC000          LDR       V9, [SP, #0]          ; [DPU_4_PIPE0] |632| 
     917 000003a8 E59F14BC          LDR       A2, $C$CON21          ; [DPU_4_PIPE0] |632| 
     918 000003ac E3A00001          MOV       A1, #1                ; [DPU_4_PIPE0] |632| 
     919 000003b0 E24CC020          SUB       V9, V9, #32           ; [DPU_4_PIPE0] |632| 
     920 000003b4 E1A0CC10          MOV       V9, A1, LSL V9        ; [DPU_4_PIPE0] |632| 
     921 000003b8 E581C000          STR       V9, [A2, #0]          ; [DPU_4_PIPE0] |632| 
     922                            .dwpsn  file "../hcg/source/HL_sys_vim.c",line 633,column 5,is_stmt,isa 2
     923 000003bc EAFFFFFE!         B         ||$C$L18||            ; [DPU_4_PIPE1] |633| 
     924                            ; BRANCH OCCURS {||$C$L18||}     ; [] |633| 
     925                    ;* --------------------------------------------------------------------------*
     926 000003c0           ||$C$L17||:    
     927                            .dwpsn  file "../hcg/source/HL_sys_vim.c",line 634,column 10,is_stmt,isa 2
     928 000003c0 E59DC000          LDR       V9, [SP, #0]          ; [DPU_4_PIPE0] |634| 
     929 000003c4 E35C0002          CMP       V9, #2                ; [DPU_4_PIPE0] |634| 
     930 000003c8 3AFFFFFE!         BCC       ||$C$L18||            ; [DPU_4_PIPE1] |634| 
     931                            ; BRANCHCC OCCURS {||$C$L18||}   ; [] |634| 
     932                    ;* --------------------------------------------------------------------------*
     933                            .dwpsn  file "../hcg/source/HL_sys_vim.c",line 636,column 9,is_stmt,isa 2
     934 000003cc E59DC000          LDR       V9, [SP, #0]          ; [DPU_4_PIPE0] |636| 
     935 000003d0 E59F1498          LDR       A2, $C$CON22          ; [DPU_4_PIPE0] |636| 
TI ARM Assembler PC v16.9.0 Thu Feb 16 13:27:12 2017

Tools Copyright (c) 1996-2015 Texas Instruments Incorporated
C:\Users\bob\AppData\Local\Temp\0245610                              PAGE   18

     936 000003d4 E3A00001          MOV       A1, #1                ; [DPU_4_PIPE0] |636| 
     937 000003d8 E1A0CC10          MOV       V9, A1, LSL V9        ; [DPU_4_PIPE0] |636| 
     938 000003dc E581C000          STR       V9, [A2, #0]          ; [DPU_4_PIPE0] |636| 
     939                            .dwpsn  file "../hcg/source/HL_sys_vim.c",line 637,column 5,is_stmt,isa 2
     940 000003e0 EAFFFFFE!         B         ||$C$L18||            ; [DPU_4_PIPE1] |637| 
     941                            ; BRANCH OCCURS {||$C$L18||}     ; [] |637| 
     942                    ;* --------------------------------------------------------------------------*
     943                    ;* --------------------------------------------------------------------------*
     944 000003e4           ||$C$L18||:    
     945 000003e4 E28DD008          ADD       SP, SP, #8            ; [DPU_4_PIPE0] 
     946                            .dwcfi  cfa_offset, 0
     947                    $C$DW$39        .dwtag  DW_TAG_TI_branch
     948                            .dwattr $C$DW$39, DW_AT_low_pc(0x00)
     949                            .dwattr $C$DW$39, DW_AT_TI_return
     950                    
     951 000003e8 E12FFF1E          BX        LR                    ; [DPU_4_PIPE1] 
     952                            ; BRANCH OCCURS                  ; [] 
     953                            .dwattr $C$DW$36, DW_AT_TI_end_file("../hcg/source/HL_sys_vim.c")
     954                            .dwattr $C$DW$36, DW_AT_TI_end_line(0x284)
     955                            .dwattr $C$DW$36, DW_AT_TI_end_column(0x01)
     956                            .dwendentry
     957                            .dwendtag $C$DW$36
     958                    
     959 000003ec                   .sect   ".text"
     960                            .clink
     961                            .armfunc vimGetConfigValue
     962 000003ec                   .state32
     963                            .global vimGetConfigValue
     964                    
     965                    $C$DW$40        .dwtag  DW_TAG_subprogram
     966                            .dwattr $C$DW$40, DW_AT_name("vimGetConfigValue")
     967                            .dwattr $C$DW$40, DW_AT_low_pc(vimGetConfigValue)
     968                            .dwattr $C$DW$40, DW_AT_high_pc(0x00)
     969                            .dwattr $C$DW$40, DW_AT_TI_symbol_name("vimGetConfigValue")
     970                            .dwattr $C$DW$40, DW_AT_external
     971                            .dwattr $C$DW$40, DW_AT_TI_begin_file("../hcg/source/HL_sys_vim.c")
     972                            .dwattr $C$DW$40, DW_AT_TI_begin_line(0x296)
     973                            .dwattr $C$DW$40, DW_AT_TI_begin_column(0x06)
     974                            .dwattr $C$DW$40, DW_AT_decl_file("../hcg/source/HL_sys_vim.c")
     975                            .dwattr $C$DW$40, DW_AT_decl_line(0x296)
     976                            .dwattr $C$DW$40, DW_AT_decl_column(0x06)
     977                            .dwattr $C$DW$40, DW_AT_TI_max_frame_size(0x08)
     978                            .dwpsn  file "../hcg/source/HL_sys_vim.c",line 663,column 1,is_stmt,address vimGetConfigValue,
     979                    
     980                            .dwfde $C$DW$CIE, vimGetConfigValue
     981                    $C$DW$41        .dwtag  DW_TAG_formal_parameter
     982                            .dwattr $C$DW$41, DW_AT_name("config_reg")
     983                            .dwattr $C$DW$41, DW_AT_TI_symbol_name("config_reg")
     984                            .dwattr $C$DW$41, DW_AT_type(*$C$DW$T$68)
     985                            .dwattr $C$DW$41, DW_AT_location[DW_OP_reg0]
     986                    
     987                    $C$DW$42        .dwtag  DW_TAG_formal_parameter
     988                            .dwattr $C$DW$42, DW_AT_name("type")
     989                            .dwattr $C$DW$42, DW_AT_TI_symbol_name("type")
     990                            .dwattr $C$DW$42, DW_AT_type(*$C$DW$T$70)
TI ARM Assembler PC v16.9.0 Thu Feb 16 13:27:12 2017

Tools Copyright (c) 1996-2015 Texas Instruments Incorporated
C:\Users\bob\AppData\Local\Temp\0245610                              PAGE   19

     991                            .dwattr $C$DW$42, DW_AT_location[DW_OP_reg1]
     992                    
     993                    
     994                    ;*****************************************************************************
     995                    ;* FUNCTION NAME: vimGetConfigValue                                          *
     996                    ;*                                                                           *
     997                    ;*   Regs Modified     : A1,V9,SP,SR                                         *
     998                    ;*   Regs Used         : A1,A2,V9,SP,LR,SR                                   *
     999                    ;*   Local Frame Size  : 0 Args + 8 Auto + 0 Save = 8 byte                   *
    1000                    ;*****************************************************************************
    1001 000003ec           vimGetConfigValue:
    1002                    ;* --------------------------------------------------------------------------*
    1003                            .dwcfi  cfa_offset, 0
    1004 000003ec E24DD008          SUB       SP, SP, #8            ; [DPU_4_PIPE0] 
    1005                            .dwcfi  cfa_offset, 8
    1006                    $C$DW$43        .dwtag  DW_TAG_variable
    1007                            .dwattr $C$DW$43, DW_AT_name("config_reg")
    1008                            .dwattr $C$DW$43, DW_AT_TI_symbol_name("config_reg")
    1009                            .dwattr $C$DW$43, DW_AT_type(*$C$DW$T$68)
    1010                            .dwattr $C$DW$43, DW_AT_location[DW_OP_breg13 0]
    1011                    
    1012                    $C$DW$44        .dwtag  DW_TAG_variable
    1013                            .dwattr $C$DW$44, DW_AT_name("type")
    1014                            .dwattr $C$DW$44, DW_AT_TI_symbol_name("type")
    1015                            .dwattr $C$DW$44, DW_AT_type(*$C$DW$T$70)
    1016                            .dwattr $C$DW$44, DW_AT_location[DW_OP_breg13 4]
    1017                    
    1018 000003f0 E5CD1004          STRB      A2, [SP, #4]          ; [DPU_4_PIPE0] |663| 
    1019 000003f4 E58D0000          STR       A1, [SP, #0]          ; [DPU_4_PIPE0] |663| 
    1020                            .dwpsn  file "../hcg/source/HL_sys_vim.c",line 664,column 5,is_stmt,isa 2
    1021 000003f8 E5DDC004          LDRB      V9, [SP, #4]          ; [DPU_4_PIPE0] |664| 
    1022 000003fc E35C0000          CMP       V9, #0                ; [DPU_4_PIPE0] |664| 
    1023 00000400 1AFFFFFE!         BNE       ||$C$L19||            ; [DPU_4_PIPE1] |664| 
    1024                            ; BRANCHCC OCCURS {||$C$L19||}   ; [] |664| 
    1025                    ;* --------------------------------------------------------------------------*
    1026                            .dwpsn  file "../hcg/source/HL_sys_vim.c",line 666,column 9,is_stmt,isa 2
    1027 00000404 E59DC000          LDR       V9, [SP, #0]          ; [DPU_4_PIPE0] |666| 
    1028 00000408 E59F0428          LDR       A1, $C$CON8           ; [DPU_4_PIPE0] |666| 
    1029 0000040c E58C0000          STR       A1, [V9, #0]          ; [DPU_4_PIPE0] |666| 
    1030                            .dwpsn  file "../hcg/source/HL_sys_vim.c",line 667,column 9,is_stmt,isa 2
    1031 00000410 E59DC000          LDR       V9, [SP, #0]          ; [DPU_4_PIPE0] |667| 
    1032 00000414 E3A00000          MOV       A1, #0                ; [DPU_4_PIPE0] |667| 
    1033 00000418 E58C0004          STR       A1, [V9, #4]          ; [DPU_4_PIPE0] |667| 
    1034                            .dwpsn  file "../hcg/source/HL_sys_vim.c",line 668,column 9,is_stmt,isa 2
    1035 0000041c E59DC000          LDR       V9, [SP, #0]          ; [DPU_4_PIPE0] |668| 
    1036 00000420 E3A00000          MOV       A1, #0                ; [DPU_4_PIPE0] |668| 
    1037 00000424 E58C0008          STR       A1, [V9, #8]          ; [DPU_4_PIPE0] |668| 
    1038                            .dwpsn  file "../hcg/source/HL_sys_vim.c",line 669,column 9,is_stmt,isa 2
    1039 00000428 E59DC000          LDR       V9, [SP, #0]          ; [DPU_4_PIPE0] |669| 
    1040 0000042c E3A00000          MOV       A1, #0                ; [DPU_4_PIPE0] |669| 
    1041 00000430 E58C000C          STR       A1, [V9, #12]         ; [DPU_4_PIPE0] |669| 
    1042                            .dwpsn  file "../hcg/source/HL_sys_vim.c",line 670,column 9,is_stmt,isa 2
    1043 00000434 E59DC000          LDR       V9, [SP, #0]          ; [DPU_4_PIPE0] |670| 
    1044 00000438 E59F0434          LDR       A1, $C$CON23          ; [DPU_4_PIPE0] |670| 
    1045 0000043c E58C0010          STR       A1, [V9, #16]         ; [DPU_4_PIPE0] |670| 
TI ARM Assembler PC v16.9.0 Thu Feb 16 13:27:12 2017

Tools Copyright (c) 1996-2015 Texas Instruments Incorporated
C:\Users\bob\AppData\Local\Temp\0245610                              PAGE   20

    1046                            .dwpsn  file "../hcg/source/HL_sys_vim.c",line 671,column 9,is_stmt,isa 2
    1047 00000440 E59DC000          LDR       V9, [SP, #0]          ; [DPU_4_PIPE0] |671| 
    1048 00000444 E3A00000          MOV       A1, #0                ; [DPU_4_PIPE0] |671| 
    1049 00000448 E58C0014          STR       A1, [V9, #20]         ; [DPU_4_PIPE0] |671| 
    1050                            .dwpsn  file "../hcg/source/HL_sys_vim.c",line 672,column 9,is_stmt,isa 2
    1051 0000044c E59DC000          LDR       V9, [SP, #0]          ; [DPU_4_PIPE0] |672| 
    1052 00000450 E3A00000          MOV       A1, #0                ; [DPU_4_PIPE0] |672| 
    1053 00000454 E58C0018          STR       A1, [V9, #24]         ; [DPU_4_PIPE0] |672| 
    1054                            .dwpsn  file "../hcg/source/HL_sys_vim.c",line 673,column 9,is_stmt,isa 2
    1055 00000458 E59DC000          LDR       V9, [SP, #0]          ; [DPU_4_PIPE0] |673| 
    1056 0000045c E3A00000          MOV       A1, #0                ; [DPU_4_PIPE0] |673| 
    1057 00000460 E58C001C          STR       A1, [V9, #28]         ; [DPU_4_PIPE0] |673| 
    1058                            .dwpsn  file "../hcg/source/HL_sys_vim.c",line 674,column 9,is_stmt,isa 2
    1059 00000464 E59DC000          LDR       V9, [SP, #0]          ; [DPU_4_PIPE0] |674| 
    1060 00000468 E3E00000          MVN       A1, #0                ; [DPU_4_PIPE0] |674| 
    1061 0000046c E58C0020          STR       A1, [V9, #32]         ; [DPU_4_PIPE0] |674| 
    1062                            .dwpsn  file "../hcg/source/HL_sys_vim.c",line 675,column 9,is_stmt,isa 2
    1063 00000470 E59DC000          LDR       V9, [SP, #0]          ; [DPU_4_PIPE0] |675| 
    1064 00000474 E3E00000          MVN       A1, #0                ; [DPU_4_PIPE0] |675| 
    1065 00000478 E58C0024          STR       A1, [V9, #36]         ; [DPU_4_PIPE0] |675| 
    1066                            .dwpsn  file "../hcg/source/HL_sys_vim.c",line 676,column 9,is_stmt,isa 2
    1067 0000047c E59DC000          LDR       V9, [SP, #0]          ; [DPU_4_PIPE0] |676| 
    1068 00000480 E3E00000          MVN       A1, #0                ; [DPU_4_PIPE0] |676| 
    1069 00000484 E58C0028          STR       A1, [V9, #40]         ; [DPU_4_PIPE0] |676| 
    1070                            .dwpsn  file "../hcg/source/HL_sys_vim.c",line 677,column 9,is_stmt,isa 2
    1071 00000488 E59DC000          LDR       V9, [SP, #0]          ; [DPU_4_PIPE0] |677| 
    1072 0000048c E3E00000          MVN       A1, #0                ; [DPU_4_PIPE0] |677| 
    1073 00000490 E58C002C          STR       A1, [V9, #44]         ; [DPU_4_PIPE0] |677| 
    1074                            .dwpsn  file "../hcg/source/HL_sys_vim.c",line 678,column 9,is_stmt,isa 2
    1075 00000494 E59DC000          LDR       V9, [SP, #0]          ; [DPU_4_PIPE0] |678| 
    1076 00000498 E3A00000          MOV       A1, #0                ; [DPU_4_PIPE0] |678| 
    1077 0000049c E58C0030          STR       A1, [V9, #48]         ; [DPU_4_PIPE0] |678| 
    1078                            .dwpsn  file "../hcg/source/HL_sys_vim.c",line 679,column 9,is_stmt,isa 2
    1079 000004a0 E59DC000          LDR       V9, [SP, #0]          ; [DPU_4_PIPE0] |679| 
    1080 000004a4 E59F03CC          LDR       A1, $C$CON24          ; [DPU_4_PIPE0] |679| 
    1081 000004a8 E58C0034          STR       A1, [V9, #52]         ; [DPU_4_PIPE0] |679| 
    1082                            .dwpsn  file "../hcg/source/HL_sys_vim.c",line 680,column 9,is_stmt,isa 2
    1083 000004ac E59DC000          LDR       V9, [SP, #0]          ; [DPU_4_PIPE0] |680| 
    1084 000004b0 E59F03C4          LDR       A1, $C$CON25          ; [DPU_4_PIPE0] |680| 
    1085 000004b4 E58C0038          STR       A1, [V9, #56]         ; [DPU_4_PIPE0] |680| 
    1086                            .dwpsn  file "../hcg/source/HL_sys_vim.c",line 681,column 9,is_stmt,isa 2
    1087 000004b8 E59DC000          LDR       V9, [SP, #0]          ; [DPU_4_PIPE0] |681| 
    1088 000004bc E59F03BC          LDR       A1, $C$CON26          ; [DPU_4_PIPE0] |681| 
    1089 000004c0 E58C003C          STR       A1, [V9, #60]         ; [DPU_4_PIPE0] |681| 
    1090                            .dwpsn  file "../hcg/source/HL_sys_vim.c",line 682,column 9,is_stmt,isa 2
    1091 000004c4 E59DC000          LDR       V9, [SP, #0]          ; [DPU_4_PIPE0] |682| 
    1092 000004c8 E59F03B4          LDR       A1, $C$CON27          ; [DPU_4_PIPE0] |682| 
    1093 000004cc E58C0040          STR       A1, [V9, #64]         ; [DPU_4_PIPE0] |682| 
    1094                            .dwpsn  file "../hcg/source/HL_sys_vim.c",line 683,column 9,is_stmt,isa 2
    1095 000004d0 E59DC000          LDR       V9, [SP, #0]          ; [DPU_4_PIPE0] |683| 
    1096 000004d4 E59F03AC          LDR       A1, $C$CON28          ; [DPU_4_PIPE0] |683| 
    1097 000004d8 E58C0044          STR       A1, [V9, #68]         ; [DPU_4_PIPE0] |683| 
    1098                            .dwpsn  file "../hcg/source/HL_sys_vim.c",line 684,column 9,is_stmt,isa 2
    1099 000004dc E59DC000          LDR       V9, [SP, #0]          ; [DPU_4_PIPE0] |684| 
    1100 000004e0 E59F03A4          LDR       A1, $C$CON29          ; [DPU_4_PIPE0] |684| 
TI ARM Assembler PC v16.9.0 Thu Feb 16 13:27:12 2017

Tools Copyright (c) 1996-2015 Texas Instruments Incorporated
C:\Users\bob\AppData\Local\Temp\0245610                              PAGE   21

    1101 000004e4 E58C0048          STR       A1, [V9, #72]         ; [DPU_4_PIPE0] |684| 
    1102                            .dwpsn  file "../hcg/source/HL_sys_vim.c",line 685,column 9,is_stmt,isa 2
    1103 000004e8 E59DC000          LDR       V9, [SP, #0]          ; [DPU_4_PIPE0] |685| 
    1104 000004ec E59F039C          LDR       A1, $C$CON30          ; [DPU_4_PIPE0] |685| 
    1105 000004f0 E58C004C          STR       A1, [V9, #76]         ; [DPU_4_PIPE0] |685| 
    1106                            .dwpsn  file "../hcg/source/HL_sys_vim.c",line 686,column 9,is_stmt,isa 2
    1107 000004f4 E59DC000          LDR       V9, [SP, #0]          ; [DPU_4_PIPE0] |686| 
    1108 000004f8 E59F0394          LDR       A1, $C$CON31          ; [DPU_4_PIPE0] |686| 
    1109 000004fc E58C0050          STR       A1, [V9, #80]         ; [DPU_4_PIPE0] |686| 
    1110                            .dwpsn  file "../hcg/source/HL_sys_vim.c",line 687,column 9,is_stmt,isa 2
    1111 00000500 E59DC000          LDR       V9, [SP, #0]          ; [DPU_4_PIPE0] |687| 
    1112 00000504 E59F038C          LDR       A1, $C$CON32          ; [DPU_4_PIPE0] |687| 
    1113 00000508 E58C0054          STR       A1, [V9, #84]         ; [DPU_4_PIPE0] |687| 
    1114                            .dwpsn  file "../hcg/source/HL_sys_vim.c",line 688,column 9,is_stmt,isa 2
    1115 0000050c E59DC000          LDR       V9, [SP, #0]          ; [DPU_4_PIPE0] |688| 
    1116 00000510 E59F0384          LDR       A1, $C$CON33          ; [DPU_4_PIPE0] |688| 
    1117 00000514 E58C0058          STR       A1, [V9, #88]         ; [DPU_4_PIPE0] |688| 
    1118                            .dwpsn  file "../hcg/source/HL_sys_vim.c",line 689,column 9,is_stmt,isa 2
    1119 00000518 E59DC000          LDR       V9, [SP, #0]          ; [DPU_4_PIPE0] |689| 
    1120 0000051c E59F037C          LDR       A1, $C$CON34          ; [DPU_4_PIPE0] |689| 
    1121 00000520 E58C005C          STR       A1, [V9, #92]         ; [DPU_4_PIPE0] |689| 
    1122                            .dwpsn  file "../hcg/source/HL_sys_vim.c",line 690,column 9,is_stmt,isa 2
    1123 00000524 E59DC000          LDR       V9, [SP, #0]          ; [DPU_4_PIPE0] |690| 
    1124 00000528 E59F0374          LDR       A1, $C$CON35          ; [DPU_4_PIPE0] |690| 
    1125 0000052c E58C0060          STR       A1, [V9, #96]         ; [DPU_4_PIPE0] |690| 
    1126                            .dwpsn  file "../hcg/source/HL_sys_vim.c",line 691,column 9,is_stmt,isa 2
    1127 00000530 E59DC000          LDR       V9, [SP, #0]          ; [DPU_4_PIPE0] |691| 
    1128 00000534 E59F036C          LDR       A1, $C$CON36          ; [DPU_4_PIPE0] |691| 
    1129 00000538 E58C0064          STR       A1, [V9, #100]        ; [DPU_4_PIPE0] |691| 
    1130                            .dwpsn  file "../hcg/source/HL_sys_vim.c",line 692,column 9,is_stmt,isa 2
    1131 0000053c E59DC000          LDR       V9, [SP, #0]          ; [DPU_4_PIPE0] |692| 
    1132 00000540 E59F0364          LDR       A1, $C$CON37          ; [DPU_4_PIPE0] |692| 
    1133 00000544 E58C0068          STR       A1, [V9, #104]        ; [DPU_4_PIPE0] |692| 
    1134                            .dwpsn  file "../hcg/source/HL_sys_vim.c",line 693,column 9,is_stmt,isa 2
    1135 00000548 E59DC000          LDR       V9, [SP, #0]          ; [DPU_4_PIPE0] |693| 
    1136 0000054c E59F035C          LDR       A1, $C$CON38          ; [DPU_4_PIPE0] |693| 
    1137 00000550 E58C006C          STR       A1, [V9, #108]        ; [DPU_4_PIPE0] |693| 
    1138                            .dwpsn  file "../hcg/source/HL_sys_vim.c",line 694,column 9,is_stmt,isa 2
    1139 00000554 E59DC000          LDR       V9, [SP, #0]          ; [DPU_4_PIPE0] |694| 
    1140 00000558 E59F0354          LDR       A1, $C$CON39          ; [DPU_4_PIPE0] |694| 
    1141 0000055c E58C0070          STR       A1, [V9, #112]        ; [DPU_4_PIPE0] |694| 
    1142                            .dwpsn  file "../hcg/source/HL_sys_vim.c",line 695,column 9,is_stmt,isa 2
    1143 00000560 E59DC000          LDR       V9, [SP, #0]          ; [DPU_4_PIPE0] |695| 
    1144 00000564 E59F034C          LDR       A1, $C$CON40          ; [DPU_4_PIPE0] |695| 
    1145 00000568 E58C0074          STR       A1, [V9, #116]        ; [DPU_4_PIPE0] |695| 
    1146                            .dwpsn  file "../hcg/source/HL_sys_vim.c",line 696,column 9,is_stmt,isa 2
    1147 0000056c E59DC000          LDR       V9, [SP, #0]          ; [DPU_4_PIPE0] |696| 
    1148 00000570 E59F0344          LDR       A1, $C$CON41          ; [DPU_4_PIPE0] |696| 
    1149 00000574 E58C0078          STR       A1, [V9, #120]        ; [DPU_4_PIPE0] |696| 
    1150                            .dwpsn  file "../hcg/source/HL_sys_vim.c",line 697,column 9,is_stmt,isa 2
    1151 00000578 E59DC000          LDR       V9, [SP, #0]          ; [DPU_4_PIPE0] |697| 
    1152 0000057c E59F033C          LDR       A1, $C$CON42          ; [DPU_4_PIPE0] |697| 
    1153 00000580 E58C007C          STR       A1, [V9, #124]        ; [DPU_4_PIPE0] |697| 
    1154                            .dwpsn  file "../hcg/source/HL_sys_vim.c",line 698,column 9,is_stmt,isa 2
    1155 00000584 E59DC000          LDR       V9, [SP, #0]          ; [DPU_4_PIPE0] |698| 
TI ARM Assembler PC v16.9.0 Thu Feb 16 13:27:12 2017

Tools Copyright (c) 1996-2015 Texas Instruments Incorporated
C:\Users\bob\AppData\Local\Temp\0245610                              PAGE   22

    1156 00000588 E59F0334          LDR       A1, $C$CON43          ; [DPU_4_PIPE0] |698| 
    1157 0000058c E58C0080          STR       A1, [V9, #128]        ; [DPU_4_PIPE0] |698| 
    1158                            .dwpsn  file "../hcg/source/HL_sys_vim.c",line 699,column 9,is_stmt,isa 2
    1159 00000590 E59DC000          LDR       V9, [SP, #0]          ; [DPU_4_PIPE0] |699| 
    1160 00000594 E59F032C          LDR       A1, $C$CON44          ; [DPU_4_PIPE0] |699| 
    1161 00000598 E58C0084          STR       A1, [V9, #132]        ; [DPU_4_PIPE0] |699| 
    1162                            .dwpsn  file "../hcg/source/HL_sys_vim.c",line 700,column 9,is_stmt,isa 2
    1163 0000059c E59DC000          LDR       V9, [SP, #0]          ; [DPU_4_PIPE0] |700| 
    1164 000005a0 E59F0324          LDR       A1, $C$CON45          ; [DPU_4_PIPE0] |700| 
    1165 000005a4 E58C0088          STR       A1, [V9, #136]        ; [DPU_4_PIPE0] |700| 
    1166                            .dwpsn  file "../hcg/source/HL_sys_vim.c",line 701,column 9,is_stmt,isa 2
    1167 000005a8 E59DC000          LDR       V9, [SP, #0]          ; [DPU_4_PIPE0] |701| 
    1168 000005ac E59F031C          LDR       A1, $C$CON46          ; [DPU_4_PIPE0] |701| 
    1169 000005b0 E58C008C          STR       A1, [V9, #140]        ; [DPU_4_PIPE0] |701| 
    1170                            .dwpsn  file "../hcg/source/HL_sys_vim.c",line 702,column 9,is_stmt,isa 2
    1171 000005b4 E59DC000          LDR       V9, [SP, #0]          ; [DPU_4_PIPE0] |702| 
    1172 000005b8 E59F0314          LDR       A1, $C$CON47          ; [DPU_4_PIPE0] |702| 
    1173 000005bc E58C0090          STR       A1, [V9, #144]        ; [DPU_4_PIPE0] |702| 
    1174                            .dwpsn  file "../hcg/source/HL_sys_vim.c",line 703,column 5,is_stmt,isa 2
    1175 000005c0 EAFFFFFE!         B         ||$C$L20||            ; [DPU_4_PIPE1] |703| 
    1176                            ; BRANCH OCCURS {||$C$L20||}     ; [] |703| 
    1177                    ;* --------------------------------------------------------------------------*
    1178 000005c4           ||$C$L19||:    
    1179                            .dwpsn  file "../hcg/source/HL_sys_vim.c",line 707,column 9,is_stmt,isa 2
    1180 000005c4 E59FC268          LDR       V9, $C$CON7           ; [DPU_4_PIPE0] |707| 
    1181 000005c8 E59D0000          LDR       A1, [SP, #0]          ; [DPU_4_PIPE0] |707| 
    1182 000005cc E59CC000          LDR       V9, [V9, #0]          ; [DPU_4_PIPE0] |707| 
    1183 000005d0 E580C000          STR       V9, [A1, #0]          ; [DPU_4_PIPE0] |707| 
    1184                            .dwpsn  file "../hcg/source/HL_sys_vim.c",line 708,column 9,is_stmt,isa 2
    1185 000005d4 E59FC260          LDR       V9, $C$CON9           ; [DPU_4_PIPE0] |708| 
    1186 000005d8 E59D0000          LDR       A1, [SP, #0]          ; [DPU_4_PIPE0] |708| 
    1187 000005dc E59CC000          LDR       V9, [V9, #0]          ; [DPU_4_PIPE0] |708| 
    1188 000005e0 E580C004          STR       V9, [A1, #4]          ; [DPU_4_PIPE0] |708| 
    1189                            .dwpsn  file "../hcg/source/HL_sys_vim.c",line 709,column 9,is_stmt,isa 2
    1190 000005e4 E59FC254          LDR       V9, $C$CON10          ; [DPU_4_PIPE0] |709| 
    1191 000005e8 E59D0000          LDR       A1, [SP, #0]          ; [DPU_4_PIPE0] |709| 
    1192 000005ec E59CC000          LDR       V9, [V9, #0]          ; [DPU_4_PIPE0] |709| 
    1193 000005f0 E580C008          STR       V9, [A1, #8]          ; [DPU_4_PIPE0] |709| 
    1194                            .dwpsn  file "../hcg/source/HL_sys_vim.c",line 710,column 9,is_stmt,isa 2
    1195 000005f4 E59FC248          LDR       V9, $C$CON11          ; [DPU_4_PIPE0] |710| 
    1196 000005f8 E59D0000          LDR       A1, [SP, #0]          ; [DPU_4_PIPE0] |710| 
    1197 000005fc E59CC000          LDR       V9, [V9, #0]          ; [DPU_4_PIPE0] |710| 
    1198 00000600 E580C00C          STR       V9, [A1, #12]         ; [DPU_4_PIPE0] |710| 
    1199                            .dwpsn  file "../hcg/source/HL_sys_vim.c",line 711,column 9,is_stmt,isa 2
    1200 00000604 E59FC23C          LDR       V9, $C$CON12          ; [DPU_4_PIPE0] |711| 
    1201 00000608 E59D0000          LDR       A1, [SP, #0]          ; [DPU_4_PIPE0] |711| 
    1202 0000060c E59CC000          LDR       V9, [V9, #0]          ; [DPU_4_PIPE0] |711| 
    1203 00000610 E580C010          STR       V9, [A1, #16]         ; [DPU_4_PIPE0] |711| 
    1204                            .dwpsn  file "../hcg/source/HL_sys_vim.c",line 712,column 9,is_stmt,isa 2
    1205 00000614 E59FC234          LDR       V9, $C$CON14          ; [DPU_4_PIPE0] |712| 
    1206 00000618 E59D0000          LDR       A1, [SP, #0]          ; [DPU_4_PIPE0] |712| 
    1207 0000061c E59CC000          LDR       V9, [V9, #0]          ; [DPU_4_PIPE0] |712| 
    1208 00000620 E580C014          STR       V9, [A1, #20]         ; [DPU_4_PIPE0] |712| 
    1209                            .dwpsn  file "../hcg/source/HL_sys_vim.c",line 713,column 9,is_stmt,isa 2
    1210 00000624 E59FC228          LDR       V9, $C$CON15          ; [DPU_4_PIPE0] |713| 
TI ARM Assembler PC v16.9.0 Thu Feb 16 13:27:12 2017

Tools Copyright (c) 1996-2015 Texas Instruments Incorporated
C:\Users\bob\AppData\Local\Temp\0245610                              PAGE   23

    1211 00000628 E59D0000          LDR       A1, [SP, #0]          ; [DPU_4_PIPE0] |713| 
    1212 0000062c E59CC000          LDR       V9, [V9, #0]          ; [DPU_4_PIPE0] |713| 
    1213 00000630 E580C018          STR       V9, [A1, #24]         ; [DPU_4_PIPE0] |713| 
    1214                            .dwpsn  file "../hcg/source/HL_sys_vim.c",line 714,column 9,is_stmt,isa 2
    1215 00000634 E59FC21C          LDR       V9, $C$CON16          ; [DPU_4_PIPE0] |714| 
    1216 00000638 E59D0000          LDR       A1, [SP, #0]          ; [DPU_4_PIPE0] |714| 
    1217 0000063c E59CC000          LDR       V9, [V9, #0]          ; [DPU_4_PIPE0] |714| 
    1218 00000640 E580C01C          STR       V9, [A1, #28]         ; [DPU_4_PIPE0] |714| 
    1219                            .dwpsn  file "../hcg/source/HL_sys_vim.c",line 715,column 9,is_stmt,isa 2
    1220 00000644 E59FC28C          LDR       V9, $C$CON48          ; [DPU_4_PIPE0] |715| 
    1221 00000648 E59D0000          LDR       A1, [SP, #0]          ; [DPU_4_PIPE0] |715| 
    1222 0000064c E59CC000          LDR       V9, [V9, #0]          ; [DPU_4_PIPE0] |715| 
    1223 00000650 E580C020          STR       V9, [A1, #32]         ; [DPU_4_PIPE0] |715| 
    1224                            .dwpsn  file "../hcg/source/HL_sys_vim.c",line 716,column 9,is_stmt,isa 2
    1225 00000654 E59FC280          LDR       V9, $C$CON49          ; [DPU_4_PIPE0] |716| 
    1226 00000658 E59D0000          LDR       A1, [SP, #0]          ; [DPU_4_PIPE0] |716| 
    1227 0000065c E59CC000          LDR       V9, [V9, #0]          ; [DPU_4_PIPE0] |716| 
    1228 00000660 E580C024          STR       V9, [A1, #36]         ; [DPU_4_PIPE0] |716| 
    1229                            .dwpsn  file "../hcg/source/HL_sys_vim.c",line 717,column 9,is_stmt,isa 2
    1230 00000664 E59FC274          LDR       V9, $C$CON50          ; [DPU_4_PIPE0] |717| 
    1231 00000668 E59D0000          LDR       A1, [SP, #0]          ; [DPU_4_PIPE0] |717| 
    1232 0000066c E59CC000          LDR       V9, [V9, #0]          ; [DPU_4_PIPE0] |717| 
    1233 00000670 E580C028          STR       V9, [A1, #40]         ; [DPU_4_PIPE0] |717| 
    1234                            .dwpsn  file "../hcg/source/HL_sys_vim.c",line 718,column 9,is_stmt,isa 2
    1235 00000674 E59FC268          LDR       V9, $C$CON51          ; [DPU_4_PIPE0] |718| 
    1236 00000678 E59D0000          LDR       A1, [SP, #0]          ; [DPU_4_PIPE0] |718| 
    1237 0000067c E59CC000          LDR       V9, [V9, #0]          ; [DPU_4_PIPE0] |718| 
    1238 00000680 E580C02C          STR       V9, [A1, #44]         ; [DPU_4_PIPE0] |718| 
    1239                            .dwpsn  file "../hcg/source/HL_sys_vim.c",line 719,column 9,is_stmt,isa 2
    1240 00000684 E59FC1D0          LDR       V9, $C$CON17          ; [DPU_4_PIPE0] |719| 
    1241 00000688 E59D0000          LDR       A1, [SP, #0]          ; [DPU_4_PIPE0] |719| 
    1242 0000068c E59CC000          LDR       V9, [V9, #0]          ; [DPU_4_PIPE0] |719| 
    1243 00000690 E580C030          STR       V9, [A1, #48]         ; [DPU_4_PIPE0] |719| 
    1244                            .dwpsn  file "../hcg/source/HL_sys_vim.c",line 720,column 9,is_stmt,isa 2
    1245 00000694 E59FC1C4          LDR       V9, $C$CON18          ; [DPU_4_PIPE0] |720| 
    1246 00000698 E59D0000          LDR       A1, [SP, #0]          ; [DPU_4_PIPE0] |720| 
    1247 0000069c E59CC000          LDR       V9, [V9, #0]          ; [DPU_4_PIPE0] |720| 
    1248 000006a0 E580C034          STR       V9, [A1, #52]         ; [DPU_4_PIPE0] |720| 
    1249                            .dwpsn  file "../hcg/source/HL_sys_vim.c",line 721,column 9,is_stmt,isa 2
    1250 000006a4 E59FC23C          LDR       V9, $C$CON52          ; [DPU_4_PIPE0] |721| 
    1251 000006a8 E59D0000          LDR       A1, [SP, #0]          ; [DPU_4_PIPE0] |721| 
    1252 000006ac E59CC000          LDR       V9, [V9, #0]          ; [DPU_4_PIPE0] |721| 
    1253 000006b0 E580C038          STR       V9, [A1, #56]         ; [DPU_4_PIPE0] |721| 
    1254                            .dwpsn  file "../hcg/source/HL_sys_vim.c",line 722,column 9,is_stmt,isa 2
    1255 000006b4 E59FC230          LDR       V9, $C$CON53          ; [DPU_4_PIPE0] |722| 
    1256 000006b8 E59D0000          LDR       A1, [SP, #0]          ; [DPU_4_PIPE0] |722| 
    1257 000006bc E59CC000          LDR       V9, [V9, #0]          ; [DPU_4_PIPE0] |722| 
    1258 000006c0 E580C03C          STR       V9, [A1, #60]         ; [DPU_4_PIPE0] |722| 
    1259                            .dwpsn  file "../hcg/source/HL_sys_vim.c",line 723,column 9,is_stmt,isa 2
    1260 000006c4 E59FC224          LDR       V9, $C$CON54          ; [DPU_4_PIPE0] |723| 
    1261 000006c8 E59D0000          LDR       A1, [SP, #0]          ; [DPU_4_PIPE0] |723| 
    1262 000006cc E59CC000          LDR       V9, [V9, #0]          ; [DPU_4_PIPE0] |723| 
    1263 000006d0 E580C040          STR       V9, [A1, #64]         ; [DPU_4_PIPE0] |723| 
    1264                            .dwpsn  file "../hcg/source/HL_sys_vim.c",line 724,column 9,is_stmt,isa 2
    1265 000006d4 E59FC218          LDR       V9, $C$CON55          ; [DPU_4_PIPE0] |724| 
TI ARM Assembler PC v16.9.0 Thu Feb 16 13:27:12 2017

Tools Copyright (c) 1996-2015 Texas Instruments Incorporated
C:\Users\bob\AppData\Local\Temp\0245610                              PAGE   24

    1266 000006d8 E59D0000          LDR       A1, [SP, #0]          ; [DPU_4_PIPE0] |724| 
    1267 000006dc E59CC000          LDR       V9, [V9, #0]          ; [DPU_4_PIPE0] |724| 
    1268 000006e0 E580C044          STR       V9, [A1, #68]         ; [DPU_4_PIPE0] |724| 
    1269                            .dwpsn  file "../hcg/source/HL_sys_vim.c",line 725,column 9,is_stmt,isa 2
    1270 000006e4 E59FC20C          LDR       V9, $C$CON56          ; [DPU_4_PIPE0] |725| 
    1271 000006e8 E59D0000          LDR       A1, [SP, #0]          ; [DPU_4_PIPE0] |725| 
    1272 000006ec E59CC000          LDR       V9, [V9, #0]          ; [DPU_4_PIPE0] |725| 
    1273 000006f0 E580C048          STR       V9, [A1, #72]         ; [DPU_4_PIPE0] |725| 
    1274                            .dwpsn  file "../hcg/source/HL_sys_vim.c",line 726,column 9,is_stmt,isa 2
    1275 000006f4 E59FC200          LDR       V9, $C$CON57          ; [DPU_4_PIPE0] |726| 
    1276 000006f8 E59D0000          LDR       A1, [SP, #0]          ; [DPU_4_PIPE0] |726| 
    1277 000006fc E59CC000          LDR       V9, [V9, #0]          ; [DPU_4_PIPE0] |726| 
    1278 00000700 E580C04C          STR       V9, [A1, #76]         ; [DPU_4_PIPE0] |726| 
    1279                            .dwpsn  file "../hcg/source/HL_sys_vim.c",line 727,column 9,is_stmt,isa 2
    1280 00000704 E59FC1F4          LDR       V9, $C$CON58          ; [DPU_4_PIPE0] |727| 
    1281 00000708 E59D0000          LDR       A1, [SP, #0]          ; [DPU_4_PIPE0] |727| 
    1282 0000070c E59CC000          LDR       V9, [V9, #0]          ; [DPU_4_PIPE0] |727| 
    1283 00000710 E580C050          STR       V9, [A1, #80]         ; [DPU_4_PIPE0] |727| 
    1284                            .dwpsn  file "../hcg/source/HL_sys_vim.c",line 728,column 9,is_stmt,isa 2
    1285 00000714 E59FC1E8          LDR       V9, $C$CON59          ; [DPU_4_PIPE0] |728| 
    1286 00000718 E59D0000          LDR       A1, [SP, #0]          ; [DPU_4_PIPE0] |728| 
    1287 0000071c E59CC000          LDR       V9, [V9, #0]          ; [DPU_4_PIPE0] |728| 
    1288 00000720 E580C054          STR       V9, [A1, #84]         ; [DPU_4_PIPE0] |728| 
    1289                            .dwpsn  file "../hcg/source/HL_sys_vim.c",line 729,column 9,is_stmt,isa 2
    1290 00000724 E59FC1DC          LDR       V9, $C$CON60          ; [DPU_4_PIPE0] |729| 
    1291 00000728 E59D0000          LDR       A1, [SP, #0]          ; [DPU_4_PIPE0] |729| 
    1292 0000072c E59CC000          LDR       V9, [V9, #0]          ; [DPU_4_PIPE0] |729| 
    1293 00000730 E580C058          STR       V9, [A1, #88]         ; [DPU_4_PIPE0] |729| 
    1294                            .dwpsn  file "../hcg/source/HL_sys_vim.c",line 730,column 9,is_stmt,isa 2
    1295 00000734 E59FC1D0          LDR       V9, $C$CON61          ; [DPU_4_PIPE0] |730| 
    1296 00000738 E59D0000          LDR       A1, [SP, #0]          ; [DPU_4_PIPE0] |730| 
    1297 0000073c E59CC000          LDR       V9, [V9, #0]          ; [DPU_4_PIPE0] |730| 
    1298 00000740 E580C05C          STR       V9, [A1, #92]         ; [DPU_4_PIPE0] |730| 
    1299                            .dwpsn  file "../hcg/source/HL_sys_vim.c",line 731,column 9,is_stmt,isa 2
    1300 00000744 E59FC1C4          LDR       V9, $C$CON62          ; [DPU_4_PIPE0] |731| 
    1301 00000748 E59D0000          LDR       A1, [SP, #0]          ; [DPU_4_PIPE0] |731| 
    1302 0000074c E59CC000          LDR       V9, [V9, #0]          ; [DPU_4_PIPE0] |731| 
    1303 00000750 E580C060          STR       V9, [A1, #96]         ; [DPU_4_PIPE0] |731| 
    1304                            .dwpsn  file "../hcg/source/HL_sys_vim.c",line 732,column 9,is_stmt,isa 2
    1305 00000754 E59FC1B8          LDR       V9, $C$CON63          ; [DPU_4_PIPE0] |732| 
    1306 00000758 E59D0000          LDR       A1, [SP, #0]          ; [DPU_4_PIPE0] |732| 
    1307 0000075c E59CC000          LDR       V9, [V9, #0]          ; [DPU_4_PIPE0] |732| 
    1308 00000760 E580C064          STR       V9, [A1, #100]        ; [DPU_4_PIPE0] |732| 
    1309                            .dwpsn  file "../hcg/source/HL_sys_vim.c",line 733,column 9,is_stmt,isa 2
    1310 00000764 E59FC1AC          LDR       V9, $C$CON64          ; [DPU_4_PIPE0] |733| 
    1311 00000768 E59D0000          LDR       A1, [SP, #0]          ; [DPU_4_PIPE0] |733| 
    1312 0000076c E59CC000          LDR       V9, [V9, #0]          ; [DPU_4_PIPE0] |733| 
    1313 00000770 E580C068          STR       V9, [A1, #104]        ; [DPU_4_PIPE0] |733| 
    1314                            .dwpsn  file "../hcg/source/HL_sys_vim.c",line 734,column 9,is_stmt,isa 2
    1315 00000774 E59FC1A0          LDR       V9, $C$CON65          ; [DPU_4_PIPE0] |734| 
    1316 00000778 E59D0000          LDR       A1, [SP, #0]          ; [DPU_4_PIPE0] |734| 
    1317 0000077c E59CC000          LDR       V9, [V9, #0]          ; [DPU_4_PIPE0] |734| 
    1318 00000780 E580C06C          STR       V9, [A1, #108]        ; [DPU_4_PIPE0] |734| 
    1319                            .dwpsn  file "../hcg/source/HL_sys_vim.c",line 735,column 9,is_stmt,isa 2
    1320 00000784 E59FC194          LDR       V9, $C$CON66          ; [DPU_4_PIPE0] |735| 
TI ARM Assembler PC v16.9.0 Thu Feb 16 13:27:12 2017

Tools Copyright (c) 1996-2015 Texas Instruments Incorporated
C:\Users\bob\AppData\Local\Temp\0245610                              PAGE   25

    1321 00000788 E59D0000          LDR       A1, [SP, #0]          ; [DPU_4_PIPE0] |735| 
    1322 0000078c E59CC000          LDR       V9, [V9, #0]          ; [DPU_4_PIPE0] |735| 
    1323 00000790 E580C070          STR       V9, [A1, #112]        ; [DPU_4_PIPE0] |735| 
    1324                            .dwpsn  file "../hcg/source/HL_sys_vim.c",line 736,column 9,is_stmt,isa 2
    1325 00000794 E59FC188          LDR       V9, $C$CON67          ; [DPU_4_PIPE0] |736| 
    1326 00000798 E59D0000          LDR       A1, [SP, #0]          ; [DPU_4_PIPE0] |736| 
    1327 0000079c E59CC000          LDR       V9, [V9, #0]          ; [DPU_4_PIPE0] |736| 
    1328 000007a0 E580C074          STR       V9, [A1, #116]        ; [DPU_4_PIPE0] |736| 
    1329                            .dwpsn  file "../hcg/source/HL_sys_vim.c",line 737,column 9,is_stmt,isa 2
    1330 000007a4 E59FC17C          LDR       V9, $C$CON68          ; [DPU_4_PIPE0] |737| 
    1331 000007a8 E59D0000          LDR       A1, [SP, #0]          ; [DPU_4_PIPE0] |737| 
    1332 000007ac E59CC000          LDR       V9, [V9, #0]          ; [DPU_4_PIPE0] |737| 
    1333 000007b0 E580C078          STR       V9, [A1, #120]        ; [DPU_4_PIPE0] |737| 
    1334                            .dwpsn  file "../hcg/source/HL_sys_vim.c",line 738,column 9,is_stmt,isa 2
    1335 000007b4 E59FC170          LDR       V9, $C$CON69          ; [DPU_4_PIPE0] |738| 
    1336 000007b8 E59D0000          LDR       A1, [SP, #0]          ; [DPU_4_PIPE0] |738| 
    1337 000007bc E59CC000          LDR       V9, [V9, #0]          ; [DPU_4_PIPE0] |738| 
    1338 000007c0 E580C07C          STR       V9, [A1, #124]        ; [DPU_4_PIPE0] |738| 
    1339                            .dwpsn  file "../hcg/source/HL_sys_vim.c",line 739,column 9,is_stmt,isa 2
    1340 000007c4 E59FC164          LDR       V9, $C$CON70          ; [DPU_4_PIPE0] |739| 
    1341 000007c8 E59D0000          LDR       A1, [SP, #0]          ; [DPU_4_PIPE0] |739| 
    1342 000007cc E59CC000          LDR       V9, [V9, #0]          ; [DPU_4_PIPE0] |739| 
    1343 000007d0 E580C080          STR       V9, [A1, #128]        ; [DPU_4_PIPE0] |739| 
    1344                            .dwpsn  file "../hcg/source/HL_sys_vim.c",line 740,column 9,is_stmt,isa 2
    1345 000007d4 E59FC158          LDR       V9, $C$CON71          ; [DPU_4_PIPE0] |740| 
    1346 000007d8 E59D0000          LDR       A1, [SP, #0]          ; [DPU_4_PIPE0] |740| 
    1347 000007dc E59CC000          LDR       V9, [V9, #0]          ; [DPU_4_PIPE0] |740| 
    1348 000007e0 E580C084          STR       V9, [A1, #132]        ; [DPU_4_PIPE0] |740| 
    1349                            .dwpsn  file "../hcg/source/HL_sys_vim.c",line 741,column 9,is_stmt,isa 2
    1350 000007e4 E59FC14C          LDR       V9, $C$CON72          ; [DPU_4_PIPE0] |741| 
    1351 000007e8 E59D0000          LDR       A1, [SP, #0]          ; [DPU_4_PIPE0] |741| 
    1352 000007ec E59CC000          LDR       V9, [V9, #0]          ; [DPU_4_PIPE0] |741| 
    1353 000007f0 E580C088          STR       V9, [A1, #136]        ; [DPU_4_PIPE0] |741| 
    1354                            .dwpsn  file "../hcg/source/HL_sys_vim.c",line 742,column 9,is_stmt,isa 2
    1355 000007f4 E59FC140          LDR       V9, $C$CON73          ; [DPU_4_PIPE0] |742| 
    1356 000007f8 E59D0000          LDR       A1, [SP, #0]          ; [DPU_4_PIPE0] |742| 
    1357 000007fc E59CC000          LDR       V9, [V9, #0]          ; [DPU_4_PIPE0] |742| 
    1358 00000800 E580C08C          STR       V9, [A1, #140]        ; [DPU_4_PIPE0] |742| 
    1359                            .dwpsn  file "../hcg/source/HL_sys_vim.c",line 743,column 9,is_stmt,isa 2
    1360 00000804 E59FC134          LDR       V9, $C$CON74          ; [DPU_4_PIPE0] |743| 
    1361 00000808 E59D0000          LDR       A1, [SP, #0]          ; [DPU_4_PIPE0] |743| 
    1362 0000080c E59CC000          LDR       V9, [V9, #0]          ; [DPU_4_PIPE0] |743| 
    1363 00000810 E580C090          STR       V9, [A1, #144]        ; [DPU_4_PIPE0] |743| 
    1364                            .dwpsn  file "../hcg/source/HL_sys_vim.c",line 745,column 1,is_stmt,isa 2
    1365                    ;* --------------------------------------------------------------------------*
    1366 00000814           ||$C$L20||:    
    1367 00000814 E28DD008          ADD       SP, SP, #8            ; [DPU_4_PIPE0] 
    1368                            .dwcfi  cfa_offset, 0
    1369                    $C$DW$45        .dwtag  DW_TAG_TI_branch
    1370                            .dwattr $C$DW$45, DW_AT_low_pc(0x00)
    1371                            .dwattr $C$DW$45, DW_AT_TI_return
    1372                    
    1373 00000818 E12FFF1E          BX        LR                    ; [DPU_4_PIPE1] 
    1374                            ; BRANCH OCCURS                  ; [] 
    1375                            .dwattr $C$DW$40, DW_AT_TI_end_file("../hcg/source/HL_sys_vim.c")
TI ARM Assembler PC v16.9.0 Thu Feb 16 13:27:12 2017

Tools Copyright (c) 1996-2015 Texas Instruments Incorporated
C:\Users\bob\AppData\Local\Temp\0245610                              PAGE   26

    1376                            .dwattr $C$DW$40, DW_AT_TI_end_line(0x2e9)
    1377                            .dwattr $C$DW$40, DW_AT_TI_end_column(0x01)
    1378                            .dwendentry
    1379                            .dwendtag $C$DW$40
    1380                    
    1381 00000000                   .sect   ".text:retain"
    1382                            .retain
    1383                            .retainrefs
    1384                            .armfunc vimECCErrorHandler
    1385 00000000                   .state32
    1386                            .weak   vimECCErrorHandler
    1387                    
    1388                    $C$DW$46        .dwtag  DW_TAG_subprogram
    1389                            .dwattr $C$DW$46, DW_AT_name("vimECCErrorHandler")
    1390                            .dwattr $C$DW$46, DW_AT_low_pc(vimECCErrorHandler)
    1391                            .dwattr $C$DW$46, DW_AT_high_pc(0x00)
    1392                            .dwattr $C$DW$46, DW_AT_TI_symbol_name("vimECCErrorHandler")
    1393                            .dwattr $C$DW$46, DW_AT_external
    1394                            .dwattr $C$DW$46, DW_AT_TI_begin_file("../hcg/source/HL_sys_vim.c")
    1395                            .dwattr $C$DW$46, DW_AT_TI_begin_line(0x2f5)
    1396                            .dwattr $C$DW$46, DW_AT_TI_begin_column(0x06)
    1397                            .dwattr $C$DW$46, DW_AT_decl_file("../hcg/source/HL_sys_vim.c")
    1398                            .dwattr $C$DW$46, DW_AT_decl_line(0x2f5)
    1399                            .dwattr $C$DW$46, DW_AT_decl_column(0x06)
    1400                            .dwattr $C$DW$46, DW_AT_TI_interrupt
    1401                            .dwattr $C$DW$46, DW_AT_TI_max_frame_size(0x70)
    1402                            .dwpsn  file "../hcg/source/HL_sys_vim.c",line 758,column 1,is_stmt,address vimECCErrorHandler
    1403                    
    1404                            .dwfde $C$DW$CIE, vimECCErrorHandler
    1405                    
    1406                    ;*****************************************************************************
    1407                    ;* FUNCTION NAME: vimECCErrorHandler                                         *
    1408                    ;*                                                                           *
    1409                    ;*   Regs Modified     : A1,A2,A3,A4,V9,SP,LR,SR,D0,D0_hi,D1,D1_hi,D2,D2_hi, *
    1410                    ;*                           D3,D3_hi,D4,D4_hi,D5,D5_hi,D6,D6_hi,D7,D7_hi,   *
    1411                    ;*                           FPEXC,FPSCR                                     *
    1412                    ;*   Regs Used         : A1,A2,A3,A4,V9,SP,LR,SR,D0,D0_hi,D1,D1_hi,D2,D2_hi, *
    1413                    ;*                           D3,D3_hi,D4,D4_hi,D5,D5_hi,D6,D6_hi,D7,D7_hi,   *
    1414                    ;*                           FPEXC,FPSCR                                     *
    1415                    ;*   Local Frame Size  : 0 Args + 12 Auto + 96 Save = 108 byte               *
    1416                    ;*****************************************************************************
    1417 00000000           vimECCErrorHandler:
    1418                    ;* --------------------------------------------------------------------------*
    1419                            .dwcfi  cfa_offset, 0
    1420 00000000 E92D500F          STMFD     SP!, {A1, A2, A3, A4, V9, LR} ; [DPU_4_PIPE0] 
    1421                            .dwcfi  cfa_offset, 24
    1422                            .dwcfi  save_reg_to_mem, 14, -4
    1423                            .dwcfi  save_reg_to_mem, 12, -8
    1424                            .dwcfi  save_reg_to_mem, 3, -12
    1425                            .dwcfi  save_reg_to_mem, 2, -16
    1426                            .dwcfi  save_reg_to_mem, 1, -20
    1427                            .dwcfi  save_reg_to_mem, 0, -24
    1428 00000004 EEF8CA10          VMRS      V9,FPEXC              ; [DPU_4_PIPE0] 
    1429 00000008 E92D1000          STMFD     SP!, {V9}             ; [DPU_4_PIPE0] 
    1430                            .dwcfi  cfa_offset, 28
TI ARM Assembler PC v16.9.0 Thu Feb 16 13:27:12 2017

Tools Copyright (c) 1996-2015 Texas Instruments Incorporated
C:\Users\bob\AppData\Local\Temp\0245610                              PAGE   27

    1431 0000000c EEF1CA10          VMRS      V9,FPSCR              ; [DPU_4_PIPE0] 
    1432 00000010 E92D1000          STMFD     SP!, {V9}             ; [DPU_4_PIPE0] 
    1433                            .dwcfi  cfa_offset, 32
    1434 00000014 ED2D0B10          VSTMDB    SP!, {D0-D7}          ; [DPU_4_PIPE0] 
    1435                            .dwcfi  cfa_offset, 96
    1436                            .dwcfi  save_reg_to_mem, 79, -36
    1437                            .dwcfi  save_reg_to_mem, 78, -40
    1438                            .dwcfi  save_reg_to_mem, 77, -44
    1439                            .dwcfi  save_reg_to_mem, 76, -48
    1440                            .dwcfi  save_reg_to_mem, 75, -52
    1441                            .dwcfi  save_reg_to_mem, 74, -56
    1442                            .dwcfi  save_reg_to_mem, 73, -60
    1443                            .dwcfi  save_reg_to_mem, 72, -64
    1444                            .dwcfi  save_reg_to_mem, 71, -68
    1445                            .dwcfi  save_reg_to_mem, 70, -72
    1446                            .dwcfi  save_reg_to_mem, 69, -76
    1447                            .dwcfi  save_reg_to_mem, 68, -80
    1448                            .dwcfi  save_reg_to_mem, 67, -84
    1449                            .dwcfi  save_reg_to_mem, 66, -88
    1450                            .dwcfi  save_reg_to_mem, 65, -92
    1451                            .dwcfi  save_reg_to_mem, 64, -96
    1452 00000018 E24DD010          SUB       SP, SP, #16           ; [DPU_4_PIPE0] 
    1453                            .dwcfi  cfa_offset, 112
    1454                    $C$DW$47        .dwtag  DW_TAG_variable
    1455                            .dwattr $C$DW$47, DW_AT_name("vec")
    1456                            .dwattr $C$DW$47, DW_AT_TI_symbol_name("vec")
    1457                            .dwattr $C$DW$47, DW_AT_type(*$C$DW$T$20)
    1458                            .dwattr $C$DW$47, DW_AT_location[DW_OP_breg13 0]
    1459                    
    1460                    $C$DW$48        .dwtag  DW_TAG_variable
    1461                            .dwattr $C$DW$48, DW_AT_name("error_addr")
    1462                            .dwattr $C$DW$48, DW_AT_TI_symbol_name("error_addr")
    1463                            .dwattr $C$DW$48, DW_AT_type(*$C$DW$T$20)
    1464                            .dwattr $C$DW$48, DW_AT_location[DW_OP_breg13 4]
    1465                    
    1466                    $C$DW$49        .dwtag  DW_TAG_variable
    1467                            .dwattr $C$DW$49, DW_AT_name("error_channel")
    1468                            .dwattr $C$DW$49, DW_AT_TI_symbol_name("error_channel")
    1469                            .dwattr $C$DW$49, DW_AT_type(*$C$DW$T$20)
    1470                            .dwattr $C$DW$49, DW_AT_location[DW_OP_breg13 8]
    1471                    
    1472                            .dwpsn  file "../hcg/source/HL_sys_vim.c",line 765,column 23,is_stmt,isa 2
    1473 0000001c E59FC2D4          LDR       V9, $C$CON75          ; [DPU_4_PIPE0] |765| 
    1474 00000020 E59CC000          LDR       V9, [V9, #0]          ; [DPU_4_PIPE0] |765| 
    1475 00000024 E58DC004          STR       V9, [SP, #4]          ; [DPU_4_PIPE0] |765| 
    1476                            .dwpsn  file "../hcg/source/HL_sys_vim.c",line 768,column 26,is_stmt,isa 2
    1477 00000028 E59DC004          LDR       V9, [SP, #4]          ; [DPU_4_PIPE0] |768| 
    1478 0000002c E7DFC51F          BFC       V9, #10, #22          ; [DPU_4_PIPE0] |768| 
    1479 00000030 E1A0C12C          MOV       V9, V9, LSR #2        ; [DPU_4_PIPE0] |768| 
    1480 00000034 E24CC001          SUB       V9, V9, #1            ; [DPU_4_PIPE0] |768| 
    1481 00000038 E58DC008          STR       V9, [SP, #8]          ; [DPU_4_PIPE0] |768| 
    1482                            .dwpsn  file "../hcg/source/HL_sys_vim.c",line 771,column 5,is_stmt,isa 2
    1483 0000003c E59DC008          LDR       V9, [SP, #8]          ; [DPU_4_PIPE0] |771| 
    1484 00000040 E59D0008          LDR       A1, [SP, #8]          ; [DPU_4_PIPE0] |771| 
    1485 00000044 E1A0C10C          MOV       V9, V9, LSL #2        ; [DPU_4_PIPE0] |771| 
TI ARM Assembler PC v16.9.0 Thu Feb 16 13:27:12 2017

Tools Copyright (c) 1996-2015 Texas Instruments Incorporated
C:\Users\bob\AppData\Local\Temp\0245610                              PAGE   28

    1486 00000048 E59F12AC          LDR       A2, $C$CON76          ; [DPU_4_PIPE0] |771| 
    1487 0000004c E1A00100          MOV       A1, A1, LSL #2        ; [DPU_4_PIPE1] |771| 
    1488 00000050 E28CC004          ADD       V9, V9, #4            ; [DPU_4_PIPE0] |771| 
    1489 00000054 E2800004          ADD       A1, A1, #4            ; [DPU_4_PIPE0] |771| 
    1490 00000058 E2400A7E          SUB       A1, A1, #516096       ; [DPU_4_PIPE0] |771| 
    1491 0000005c E791C00C          LDR       V9, [A2, +V9]         ; [DPU_4_PIPE0] |771| 
    1492 00000060 E580C000          STR       V9, [A1, #0]          ; [DPU_4_PIPE0] |771| 
    1493                            .dwpsn  file "../hcg/source/HL_sys_vim.c",line 774,column 5,is_stmt,isa 2
    1494 00000064 E59F0294          LDR       A1, $C$CON77          ; [DPU_4_PIPE0] |774| 
    1495 00000068 E3A0C001          MOV       V9, #1                ; [DPU_4_PIPE0] |774| 
    1496 0000006c E580C000          STR       V9, [A1, #0]          ; [DPU_4_PIPE0] |774| 
    1497                            .dwpsn  file "../hcg/source/HL_sys_vim.c",line 777,column 5,is_stmt,isa 2
    1498 00000070 E59FC28C          LDR       V9, $C$CON78          ; [DPU_4_PIPE0] |777| 
    1499 00000074 E59CC000          LDR       V9, [V9, #0]          ; [DPU_4_PIPE0] |777| 
    1500 00000078 E35C0000          CMP       V9, #0                ; [DPU_4_PIPE0] |777| 
    1501 0000007c 0AFFFFFE!         BEQ       ||$C$L21||            ; [DPU_4_PIPE1] |777| 
    1502                            ; BRANCHCC OCCURS {||$C$L21||}   ; [] |777| 
    1503                    ;* --------------------------------------------------------------------------*
    1504                            .dwpsn  file "../hcg/source/HL_sys_vim.c",line 779,column 9,is_stmt,isa 2
    1505 00000080 E59FC27C          LDR       V9, $C$CON78          ; [DPU_4_PIPE0] |779| 
    1506 00000084 E59CC000          LDR       V9, [V9, #0]          ; [DPU_4_PIPE0] |779| 
    1507 00000088 E24CC001          SUB       V9, V9, #1            ; [DPU_4_PIPE0] |779| 
    1508 0000008c E58DC000          STR       V9, [SP, #0]          ; [DPU_4_PIPE0] |779| 
    1509                            .dwpsn  file "../hcg/source/HL_sys_vim.c",line 780,column 5,is_stmt,isa 2
    1510 00000090 EAFFFFFE!         B         ||$C$L22||            ; [DPU_4_PIPE1] |780| 
    1511                            ; BRANCH OCCURS {||$C$L22||}     ; [] |780| 
    1512                    ;* --------------------------------------------------------------------------*
    1513 00000094           ||$C$L21||:    
    1514                            .dwpsn  file "../hcg/source/HL_sys_vim.c",line 784,column 9,is_stmt,isa 2
    1515 00000094 E59FC26C          LDR       V9, $C$CON79          ; [DPU_4_PIPE0] |784| 
    1516 00000098 E59CC000          LDR       V9, [V9, #0]          ; [DPU_4_PIPE0] |784| 
    1517 0000009c E24CC001          SUB       V9, V9, #1            ; [DPU_4_PIPE0] |784| 
    1518 000000a0 E58DC000          STR       V9, [SP, #0]          ; [DPU_4_PIPE0] |784| 
    1519                    ;* --------------------------------------------------------------------------*
    1520 000000a4           ||$C$L22||:    
    1521                            .dwpsn  file "../hcg/source/HL_sys_vim.c",line 786,column 5,is_stmt,isa 2
    1522 000000a4 E59DC000          LDR       V9, [SP, #0]          ; [DPU_4_PIPE0] |786| 
    1523 000000a8 E35C0000          CMP       V9, #0                ; [DPU_4_PIPE0] |786| 
    1524 000000ac 1AFFFFFE!         BNE       ||$C$L27||            ; [DPU_4_PIPE1] |786| 
    1525                            ; BRANCHCC OCCURS {||$C$L27||}   ; [] |786| 
    1526                    ;* --------------------------------------------------------------------------*
    1527                            .dwpsn  file "../hcg/source/HL_sys_vim.c",line 788,column 9,is_stmt,isa 2
    1528 000000b0 E59F0254          LDR       A1, $C$CON80          ; [DPU_4_PIPE0] |788| 
    1529 000000b4 E3A0C001          MOV       V9, #1                ; [DPU_4_PIPE0] |788| 
    1530 000000b8 E580C000          STR       V9, [A1, #0]          ; [DPU_4_PIPE0] |788| 
    1531                            .dwpsn  file "../hcg/source/HL_sys_vim.c",line 789,column 9,is_stmt,isa 2
    1532 000000bc E59FC24C          LDR       V9, $C$CON81          ; [DPU_4_PIPE0] |789| 
    1533 000000c0 E59CC000          LDR       V9, [V9, #0]          ; [DPU_4_PIPE0] |789| 
    1534 000000c4 E24CC001          SUB       V9, V9, #1            ; [DPU_4_PIPE0] |789| 
    1535 000000c8 E58DC000          STR       V9, [SP, #0]          ; [DPU_4_PIPE0] |789| 
    1536                            .dwpsn  file "../hcg/source/HL_sys_vim.c",line 791,column 9,is_stmt,isa 2
    1537 000000cc E59DC000          LDR       V9, [SP, #0]          ; [DPU_4_PIPE0] |791| 
    1538 000000d0 E35C0020          CMP       V9, #32               ; [DPU_4_PIPE0] |791| 
    1539 000000d4 2AFFFFFE!         BCS       ||$C$L23||            ; [DPU_4_PIPE1] |791| 
    1540                            ; BRANCHCC OCCURS {||$C$L23||}   ; [] |791| 
TI ARM Assembler PC v16.9.0 Thu Feb 16 13:27:12 2017

Tools Copyright (c) 1996-2015 Texas Instruments Incorporated
C:\Users\bob\AppData\Local\Temp\0245610                              PAGE   29

    1541                    ;* --------------------------------------------------------------------------*
    1542                            .dwpsn  file "../hcg/source/HL_sys_vim.c",line 793,column 13,is_stmt,isa 2
    1543 000000d8 E59DC000          LDR       V9, [SP, #0]          ; [DPU_4_PIPE0] |793| 
    1544 000000dc E59F1230          LDR       A2, $C$CON82          ; [DPU_4_PIPE0] |793| 
    1545 000000e0 E3A00001          MOV       A1, #1                ; [DPU_4_PIPE0] |793| 
    1546 000000e4 E1A0CC10          MOV       V9, A1, LSL V9        ; [DPU_4_PIPE0] |793| 
    1547 000000e8 E581C000          STR       V9, [A2, #0]          ; [DPU_4_PIPE0] |793| 
    1548                            .dwpsn  file "../hcg/source/HL_sys_vim.c",line 794,column 13,is_stmt,isa 2
    1549 000000ec E59F0224          LDR       A1, $C$CON83          ; [DPU_4_PIPE0] |794| 
    1550 000000f0 E59D1000          LDR       A2, [SP, #0]          ; [DPU_4_PIPE0] |794| 
    1551                    $C$DW$50        .dwtag  DW_TAG_TI_branch
    1552                            .dwattr $C$DW$50, DW_AT_low_pc(0x00)
    1553                            .dwattr $C$DW$50, DW_AT_name("esmGroup1Notification")
    1554                            .dwattr $C$DW$50, DW_AT_TI_call
    1555                    
    1556 000000f4 EBFFFFFE!         BL        esmGroup1Notification ; [DPU_4_PIPE1] |794| 
    1557                            ; CALL OCCURS {esmGroup1Notification }  ; [] |794| 
    1558                            .dwpsn  file "../hcg/source/HL_sys_vim.c",line 795,column 9,is_stmt,isa 2
    1559 000000f8 EAFFFFFE!         B         ||$C$L31||            ; [DPU_4_PIPE1] |795| 
    1560                            ; BRANCH OCCURS {||$C$L31||}     ; [] |795| 
    1561                    ;* --------------------------------------------------------------------------*
    1562 000000fc           ||$C$L23||:    
    1563                            .dwpsn  file "../hcg/source/HL_sys_vim.c",line 796,column 14,is_stmt,isa 2
    1564 000000fc E59DC000          LDR       V9, [SP, #0]          ; [DPU_4_PIPE0] |796| 
    1565 00000100 E35C0040          CMP       V9, #64               ; [DPU_4_PIPE0] |796| 
    1566 00000104 2AFFFFFE!         BCS       ||$C$L24||            ; [DPU_4_PIPE1] |796| 
    1567                            ; BRANCHCC OCCURS {||$C$L24||}   ; [] |796| 
    1568                    ;* --------------------------------------------------------------------------*
    1569                            .dwpsn  file "../hcg/source/HL_sys_vim.c",line 798,column 13,is_stmt,isa 2
    1570 00000108 E59DC000          LDR       V9, [SP, #0]          ; [DPU_4_PIPE0] |798| 
    1571 0000010c E59F1208          LDR       A2, $C$CON84          ; [DPU_4_PIPE0] |798| 
    1572 00000110 E3A00001          MOV       A1, #1                ; [DPU_4_PIPE0] |798| 
    1573 00000114 E24CC020          SUB       V9, V9, #32           ; [DPU_4_PIPE0] |798| 
    1574 00000118 E1A0CC10          MOV       V9, A1, LSL V9        ; [DPU_4_PIPE0] |798| 
    1575 0000011c E581C000          STR       V9, [A2, #0]          ; [DPU_4_PIPE0] |798| 
    1576                            .dwpsn  file "../hcg/source/HL_sys_vim.c",line 799,column 13,is_stmt,isa 2
    1577 00000120 E59DC000          LDR       V9, [SP, #0]          ; [DPU_4_PIPE0] |799| 
    1578 00000124 E59F01EC          LDR       A1, $C$CON83          ; [DPU_4_PIPE0] |799| 
    1579 00000128 E24C1020          SUB       A2, V9, #32           ; [DPU_4_PIPE1] |799| 
    1580                    $C$DW$51        .dwtag  DW_TAG_TI_branch
    1581                            .dwattr $C$DW$51, DW_AT_low_pc(0x00)
    1582                            .dwattr $C$DW$51, DW_AT_name("esmGroup2Notification")
    1583                            .dwattr $C$DW$51, DW_AT_TI_call
    1584                    
    1585 0000012c EBFFFFFE!         BL        esmGroup2Notification ; [DPU_4_PIPE1] |799| 
    1586                            ; CALL OCCURS {esmGroup2Notification }  ; [] |799| 
    1587                            .dwpsn  file "../hcg/source/HL_sys_vim.c",line 800,column 9,is_stmt,isa 2
    1588 00000130 EAFFFFFE!         B         ||$C$L31||            ; [DPU_4_PIPE1] |800| 
    1589                            ; BRANCH OCCURS {||$C$L31||}     ; [] |800| 
    1590                    ;* --------------------------------------------------------------------------*
    1591 00000134           ||$C$L24||:    
    1592                            .dwpsn  file "../hcg/source/HL_sys_vim.c",line 801,column 14,is_stmt,isa 2
    1593 00000134 E59DC000          LDR       V9, [SP, #0]          ; [DPU_4_PIPE0] |801| 
    1594 00000138 E35C0060          CMP       V9, #96               ; [DPU_4_PIPE0] |801| 
    1595 0000013c 2AFFFFFE!         BCS       ||$C$L25||            ; [DPU_4_PIPE1] |801| 
TI ARM Assembler PC v16.9.0 Thu Feb 16 13:27:12 2017

Tools Copyright (c) 1996-2015 Texas Instruments Incorporated
C:\Users\bob\AppData\Local\Temp\0245610                              PAGE   30

    1596                            ; BRANCHCC OCCURS {||$C$L25||}   ; [] |801| 
    1597                    ;* --------------------------------------------------------------------------*
    1598                            .dwpsn  file "../hcg/source/HL_sys_vim.c",line 803,column 13,is_stmt,isa 2
    1599 00000140 E59DC000          LDR       V9, [SP, #0]          ; [DPU_4_PIPE0] |803| 
    1600 00000144 E59F11D4          LDR       A2, $C$CON85          ; [DPU_4_PIPE0] |803| 
    1601 00000148 E3A00001          MOV       A1, #1                ; [DPU_4_PIPE0] |803| 
    1602 0000014c E24CC040          SUB       V9, V9, #64           ; [DPU_4_PIPE0] |803| 
    1603 00000150 E1A0CC10          MOV       V9, A1, LSL V9        ; [DPU_4_PIPE0] |803| 
    1604 00000154 E581C000          STR       V9, [A2, #0]          ; [DPU_4_PIPE0] |803| 
    1605                            .dwpsn  file "../hcg/source/HL_sys_vim.c",line 804,column 13,is_stmt,isa 2
    1606 00000158 E59DC000          LDR       V9, [SP, #0]          ; [DPU_4_PIPE0] |804| 
    1607 0000015c E59F01B4          LDR       A1, $C$CON83          ; [DPU_4_PIPE0] |804| 
    1608 00000160 E24C1020          SUB       A2, V9, #32           ; [DPU_4_PIPE1] |804| 
    1609                    $C$DW$52        .dwtag  DW_TAG_TI_branch
    1610                            .dwattr $C$DW$52, DW_AT_low_pc(0x00)
    1611                            .dwattr $C$DW$52, DW_AT_name("esmGroup1Notification")
    1612                            .dwattr $C$DW$52, DW_AT_TI_call
    1613                    
    1614 00000164 EBFFFFFE!         BL        esmGroup1Notification ; [DPU_4_PIPE1] |804| 
    1615                            ; CALL OCCURS {esmGroup1Notification }  ; [] |804| 
    1616                            .dwpsn  file "../hcg/source/HL_sys_vim.c",line 805,column 9,is_stmt,isa 2
    1617 00000168 EAFFFFFE!         B         ||$C$L31||            ; [DPU_4_PIPE1] |805| 
    1618                            ; BRANCH OCCURS {||$C$L31||}     ; [] |805| 
    1619                    ;* --------------------------------------------------------------------------*
    1620 0000016c           ||$C$L25||:    
    1621                            .dwpsn  file "../hcg/source/HL_sys_vim.c",line 806,column 14,is_stmt,isa 2
    1622 0000016c E59DC000          LDR       V9, [SP, #0]          ; [DPU_4_PIPE0] |806| 
    1623 00000170 E35C0080          CMP       V9, #128              ; [DPU_4_PIPE0] |806| 
    1624 00000174 3AFFFFFE!         BCC       ||$C$L26||            ; [DPU_4_PIPE1] |806| 
    1625                            ; BRANCHCC OCCURS {||$C$L26||}   ; [] |806| 
    1626                    ;* --------------------------------------------------------------------------*
    1627 00000178 E59DC000          LDR       V9, [SP, #0]          ; [DPU_4_PIPE0] |806| 
    1628 0000017c E35C00A0          CMP       V9, #160              ; [DPU_4_PIPE0] |806| 
    1629 00000180 2AFFFFFE!         BCS       ||$C$L26||            ; [DPU_4_PIPE1] |806| 
    1630                            ; BRANCHCC OCCURS {||$C$L26||}   ; [] |806| 
    1631                    ;* --------------------------------------------------------------------------*
    1632                            .dwpsn  file "../hcg/source/HL_sys_vim.c",line 808,column 13,is_stmt,isa 2
    1633 00000184 E59DC000          LDR       V9, [SP, #0]          ; [DPU_4_PIPE0] |808| 
    1634 00000188 E59F1194          LDR       A2, $C$CON86          ; [DPU_4_PIPE0] |808| 
    1635 0000018c E3A00001          MOV       A1, #1                ; [DPU_4_PIPE0] |808| 
    1636 00000190 E24CC080          SUB       V9, V9, #128          ; [DPU_4_PIPE0] |808| 
    1637 00000194 E1A0CC10          MOV       V9, A1, LSL V9        ; [DPU_4_PIPE0] |808| 
    1638 00000198 E581C000          STR       V9, [A2, #0]          ; [DPU_4_PIPE0] |808| 
    1639                            .dwpsn  file "../hcg/source/HL_sys_vim.c",line 809,column 13,is_stmt,isa 2
    1640 0000019c E59DC000          LDR       V9, [SP, #0]          ; [DPU_4_PIPE0] |809| 
    1641 000001a0 E59F0170          LDR       A1, $C$CON83          ; [DPU_4_PIPE0] |809| 
    1642 000001a4 E24C1060          SUB       A2, V9, #96           ; [DPU_4_PIPE1] |809| 
    1643                    $C$DW$53        .dwtag  DW_TAG_TI_branch
    1644                            .dwattr $C$DW$53, DW_AT_low_pc(0x00)
    1645                            .dwattr $C$DW$53, DW_AT_name("esmGroup2Notification")
    1646                            .dwattr $C$DW$53, DW_AT_TI_call
    1647                    
    1648 000001a8 EBFFFFFE!         BL        esmGroup2Notification ; [DPU_4_PIPE1] |809| 
    1649                            ; CALL OCCURS {esmGroup2Notification }  ; [] |809| 
    1650                            .dwpsn  file "../hcg/source/HL_sys_vim.c",line 810,column 9,is_stmt,isa 2
TI ARM Assembler PC v16.9.0 Thu Feb 16 13:27:12 2017

Tools Copyright (c) 1996-2015 Texas Instruments Incorporated
C:\Users\bob\AppData\Local\Temp\0245610                              PAGE   31

    1651 000001ac EAFFFFFE!         B         ||$C$L31||            ; [DPU_4_PIPE1] |810| 
    1652                            ; BRANCH OCCURS {||$C$L31||}     ; [] |810| 
    1653                    ;* --------------------------------------------------------------------------*
    1654 000001b0           ||$C$L26||:    
    1655                            .dwpsn  file "../hcg/source/HL_sys_vim.c",line 813,column 13,is_stmt,isa 2
    1656 000001b0 E59F016C          LDR       A1, $C$CON86          ; [DPU_4_PIPE0] |813| 
    1657 000001b4 E3E0C000          MVN       V9, #0                ; [DPU_4_PIPE0] |813| 
    1658 000001b8 E580C000          STR       V9, [A1, #0]          ; [DPU_4_PIPE0] |813| 
    1659                            .dwpsn  file "../hcg/source/HL_sys_vim.c",line 814,column 13,is_stmt,isa 2
    1660 000001bc E59F0164          LDR       A1, $C$CON87          ; [DPU_4_PIPE0] |814| 
    1661 000001c0 E3E0C000          MVN       V9, #0                ; [DPU_4_PIPE0] |814| 
    1662 000001c4 E580C000          STR       V9, [A1, #0]          ; [DPU_4_PIPE0] |814| 
    1663                            .dwpsn  file "../hcg/source/HL_sys_vim.c",line 815,column 13,is_stmt,isa 2
    1664 000001c8 E59F0150          LDR       A1, $C$CON85          ; [DPU_4_PIPE0] |815| 
    1665 000001cc E3E0C000          MVN       V9, #0                ; [DPU_4_PIPE0] |815| 
    1666 000001d0 E580C000          STR       V9, [A1, #0]          ; [DPU_4_PIPE0] |815| 
    1667                            .dwpsn  file "../hcg/source/HL_sys_vim.c",line 816,column 13,is_stmt,isa 2
    1668 000001d4 E59F0140          LDR       A1, $C$CON84          ; [DPU_4_PIPE0] |816| 
    1669 000001d8 E3E0C000          MVN       V9, #0                ; [DPU_4_PIPE0] |816| 
    1670 000001dc E580C000          STR       V9, [A1, #0]          ; [DPU_4_PIPE0] |816| 
    1671                            .dwpsn  file "../hcg/source/HL_sys_vim.c",line 817,column 13,is_stmt,isa 2
    1672 000001e0 E59F012C          LDR       A1, $C$CON82          ; [DPU_4_PIPE0] |817| 
    1673 000001e4 E3E0C000          MVN       V9, #0                ; [DPU_4_PIPE0] |817| 
    1674 000001e8 E580C000          STR       V9, [A1, #0]          ; [DPU_4_PIPE0] |817| 
    1675                            .dwpsn  file "../hcg/source/HL_sys_vim.c",line 819,column 5,is_stmt,isa 2
    1676 000001ec EAFFFFFE!         B         ||$C$L31||            ; [DPU_4_PIPE1] |819| 
    1677                            ; BRANCH OCCURS {||$C$L31||}     ; [] |819| 
    1678                    ;* --------------------------------------------------------------------------*
    1679 000001f0           ||$C$L27||:    
    1680                            .dwpsn  file "../hcg/source/HL_sys_vim.c",line 820,column 10,is_stmt,isa 2
    1681 000001f0 E59DC000          LDR       V9, [SP, #0]          ; [DPU_4_PIPE0] |820| 
    1682 000001f4 E35C0020          CMP       V9, #32               ; [DPU_4_PIPE0] |820| 
    1683 000001f8 2AFFFFFE!         BCS       ||$C$L28||            ; [DPU_4_PIPE1] |820| 
    1684                            ; BRANCHCC OCCURS {||$C$L28||}   ; [] |820| 
    1685                    ;* --------------------------------------------------------------------------*
    1686                            .dwpsn  file "../hcg/source/HL_sys_vim.c",line 822,column 9,is_stmt,isa 2
    1687 000001fc E59DC000          LDR       V9, [SP, #0]          ; [DPU_4_PIPE0] |822| 
    1688 00000200 E59F1124          LDR       A2, $C$CON88          ; [DPU_4_PIPE0] |822| 
    1689 00000204 E3A00001          MOV       A1, #1                ; [DPU_4_PIPE0] |822| 
    1690 00000208 E1A0CC10          MOV       V9, A1, LSL V9        ; [DPU_4_PIPE0] |822| 
    1691 0000020c E581C000          STR       V9, [A2, #0]          ; [DPU_4_PIPE0] |822| 
    1692                            .dwpsn  file "../hcg/source/HL_sys_vim.c",line 823,column 9,is_stmt,isa 2
    1693 00000210 E59F1118          LDR       A2, $C$CON89          ; [DPU_4_PIPE0] |823| 
    1694 00000214 E59DC000          LDR       V9, [SP, #0]          ; [DPU_4_PIPE0] |823| 
    1695 00000218 E3A00001          MOV       A1, #1                ; [DPU_4_PIPE0] |823| 
    1696 0000021c E1A0CC10          MOV       V9, A1, LSL V9        ; [DPU_4_PIPE0] |823| 
    1697 00000220 E581C000          STR       V9, [A2, #0]          ; [DPU_4_PIPE0] |823| 
    1698                            .dwpsn  file "../hcg/source/HL_sys_vim.c",line 824,column 5,is_stmt,isa 2
    1699 00000224 EAFFFFFE!         B         ||$C$L31||            ; [DPU_4_PIPE1] |824| 
    1700                            ; BRANCH OCCURS {||$C$L31||}     ; [] |824| 
    1701                    ;* --------------------------------------------------------------------------*
    1702 00000228           ||$C$L28||:    
    1703                            .dwpsn  file "../hcg/source/HL_sys_vim.c",line 825,column 10,is_stmt,isa 2
    1704 00000228 E59DC000          LDR       V9, [SP, #0]          ; [DPU_4_PIPE0] |825| 
    1705 0000022c E35C0040          CMP       V9, #64               ; [DPU_4_PIPE0] |825| 
TI ARM Assembler PC v16.9.0 Thu Feb 16 13:27:12 2017

Tools Copyright (c) 1996-2015 Texas Instruments Incorporated
C:\Users\bob\AppData\Local\Temp\0245610                              PAGE   32

    1706 00000230 2AFFFFFE!         BCS       ||$C$L29||            ; [DPU_4_PIPE1] |825| 
    1707                            ; BRANCHCC OCCURS {||$C$L29||}   ; [] |825| 
    1708                    ;* --------------------------------------------------------------------------*
    1709                            .dwpsn  file "../hcg/source/HL_sys_vim.c",line 827,column 9,is_stmt,isa 2
    1710 00000234 E59DC000          LDR       V9, [SP, #0]          ; [DPU_4_PIPE0] |827| 
    1711 00000238 E59F10F4          LDR       A2, $C$CON90          ; [DPU_4_PIPE0] |827| 
    1712 0000023c E3A00001          MOV       A1, #1                ; [DPU_4_PIPE0] |827| 
    1713 00000240 E24CC020          SUB       V9, V9, #32           ; [DPU_4_PIPE0] |827| 
    1714 00000244 E1A0CC10          MOV       V9, A1, LSL V9        ; [DPU_4_PIPE0] |827| 
    1715 00000248 E581C000          STR       V9, [A2, #0]          ; [DPU_4_PIPE0] |827| 
    1716                            .dwpsn  file "../hcg/source/HL_sys_vim.c",line 828,column 9,is_stmt,isa 2
    1717 0000024c E59DC000          LDR       V9, [SP, #0]          ; [DPU_4_PIPE0] |828| 
    1718 00000250 E59F10E0          LDR       A2, $C$CON91          ; [DPU_4_PIPE0] |828| 
    1719 00000254 E3A00001          MOV       A1, #1                ; [DPU_4_PIPE0] |828| 
    1720 00000258 E24CC020          SUB       V9, V9, #32           ; [DPU_4_PIPE0] |828| 
    1721 0000025c E1A0CC10          MOV       V9, A1, LSL V9        ; [DPU_4_PIPE0] |828| 
    1722 00000260 E581C000          STR       V9, [A2, #0]          ; [DPU_4_PIPE0] |828| 
    1723                            .dwpsn  file "../hcg/source/HL_sys_vim.c",line 829,column 5,is_stmt,isa 2
    1724 00000264 EAFFFFFE!         B         ||$C$L31||            ; [DPU_4_PIPE1] |829| 
    1725                            ; BRANCH OCCURS {||$C$L31||}     ; [] |829| 
    1726                    ;* --------------------------------------------------------------------------*
    1727 00000268           ||$C$L29||:    
    1728                            .dwpsn  file "../hcg/source/HL_sys_vim.c",line 830,column 10,is_stmt,isa 2
    1729 00000268 E59DC000          LDR       V9, [SP, #0]          ; [DPU_4_PIPE0] |830| 
    1730 0000026c E35C0060          CMP       V9, #96               ; [DPU_4_PIPE0] |830| 
    1731 00000270 2AFFFFFE!         BCS       ||$C$L30||            ; [DPU_4_PIPE1] |830| 
    1732                            ; BRANCHCC OCCURS {||$C$L30||}   ; [] |830| 
    1733                    ;* --------------------------------------------------------------------------*
    1734                            .dwpsn  file "../hcg/source/HL_sys_vim.c",line 832,column 9,is_stmt,isa 2
    1735 00000274 E59DC000          LDR       V9, [SP, #0]          ; [DPU_4_PIPE0] |832| 
    1736 00000278 E59F10BC          LDR       A2, $C$CON92          ; [DPU_4_PIPE0] |832| 
    1737 0000027c E3A00001          MOV       A1, #1                ; [DPU_4_PIPE0] |832| 
    1738 00000280 E24CC040          SUB       V9, V9, #64           ; [DPU_4_PIPE0] |832| 
    1739 00000284 E1A0CC10          MOV       V9, A1, LSL V9        ; [DPU_4_PIPE0] |832| 
    1740 00000288 E581C000          STR       V9, [A2, #0]          ; [DPU_4_PIPE0] |832| 
    1741                            .dwpsn  file "../hcg/source/HL_sys_vim.c",line 833,column 9,is_stmt,isa 2
    1742 0000028c E59DC000          LDR       V9, [SP, #0]          ; [DPU_4_PIPE0] |833| 
    1743 00000290 E59F10A8          LDR       A2, $C$CON93          ; [DPU_4_PIPE0] |833| 
    1744 00000294 E3A00001          MOV       A1, #1                ; [DPU_4_PIPE0] |833| 
    1745 00000298 E24CC040          SUB       V9, V9, #64           ; [DPU_4_PIPE0] |833| 
    1746 0000029c E1A0CC10          MOV       V9, A1, LSL V9        ; [DPU_4_PIPE0] |833| 
    1747 000002a0 E581C000          STR       V9, [A2, #0]          ; [DPU_4_PIPE0] |833| 
    1748                            .dwpsn  file "../hcg/source/HL_sys_vim.c",line 834,column 5,is_stmt,isa 2
    1749 000002a4 EAFFFFFE!         B         ||$C$L31||            ; [DPU_4_PIPE1] |834| 
    1750                            ; BRANCH OCCURS {||$C$L31||}     ; [] |834| 
    1751                    ;* --------------------------------------------------------------------------*
    1752 000002a8           ||$C$L30||:    
    1753                            .dwpsn  file "../hcg/source/HL_sys_vim.c",line 837,column 9,is_stmt,isa 2
    1754 000002a8 E59DC000          LDR       V9, [SP, #0]          ; [DPU_4_PIPE0] |837| 
    1755 000002ac E59F1090          LDR       A2, $C$CON94          ; [DPU_4_PIPE0] |837| 
    1756 000002b0 E3A00001          MOV       A1, #1                ; [DPU_4_PIPE0] |837| 
    1757 000002b4 E24CC060          SUB       V9, V9, #96           ; [DPU_4_PIPE0] |837| 
    1758 000002b8 E1A0CC10          MOV       V9, A1, LSL V9        ; [DPU_4_PIPE0] |837| 
    1759 000002bc E581C000          STR       V9, [A2, #0]          ; [DPU_4_PIPE0] |837| 
    1760                            .dwpsn  file "../hcg/source/HL_sys_vim.c",line 838,column 9,is_stmt,isa 2
TI ARM Assembler PC v16.9.0 Thu Feb 16 13:27:12 2017

Tools Copyright (c) 1996-2015 Texas Instruments Incorporated
C:\Users\bob\AppData\Local\Temp\0245610                              PAGE   33

    1761 000002c0 E59DC000          LDR       V9, [SP, #0]          ; [DPU_4_PIPE0] |838| 
    1762 000002c4 E59F107C          LDR       A2, $C$CON95          ; [DPU_4_PIPE0] |838| 
    1763 000002c8 E3A00001          MOV       A1, #1                ; [DPU_4_PIPE0] |838| 
    1764 000002cc E24CC060          SUB       V9, V9, #96           ; [DPU_4_PIPE0] |838| 
    1765 000002d0 E1A0CC10          MOV       V9, A1, LSL V9        ; [DPU_4_PIPE0] |838| 
    1766 000002d4 E581C000          STR       V9, [A2, #0]          ; [DPU_4_PIPE0] |838| 
    1767                            .dwpsn  file "../hcg/source/HL_sys_vim.c",line 842,column 1,is_stmt,isa 2
    1768                    ;* --------------------------------------------------------------------------*
    1769 000002d8           ||$C$L31||:    
    1770 000002d8 E28DD010          ADD       SP, SP, #16           ; [DPU_4_PIPE0] 
    1771                            .dwcfi  cfa_offset, 96
    1772 000002dc ECBD0B10          VLDMIA    SP!, {D0-D7}          ; [DPU_4_PIPE0] 
    1773                            .dwcfi  cfa_offset, 32
    1774                            .dwcfi  restore_reg, 79
    1775                            .dwcfi  restore_reg, 78
    1776                            .dwcfi  restore_reg, 77
    1777                            .dwcfi  restore_reg, 76
    1778                            .dwcfi  restore_reg, 75
    1779                            .dwcfi  restore_reg, 74
    1780                            .dwcfi  restore_reg, 73
    1781                            .dwcfi  restore_reg, 72
    1782                            .dwcfi  restore_reg, 71
    1783                            .dwcfi  restore_reg, 70
    1784                            .dwcfi  restore_reg, 69
    1785                            .dwcfi  restore_reg, 68
    1786                            .dwcfi  restore_reg, 67
    1787                            .dwcfi  restore_reg, 66
    1788                            .dwcfi  restore_reg, 65
    1789                            .dwcfi  restore_reg, 64
    1790 000002e0 E8BD1000          LDMFD     SP!, {V9}             ; [DPU_4_PIPE0] 
    1791                            .dwcfi  cfa_offset, 28
    1792 000002e4 EEE1CA10          VMSR      FPSCR, V9             ; [DPU_4_PIPE0] 
    1793 000002e8 E8BD1000          LDMFD     SP!, {V9}             ; [DPU_4_PIPE0] 
    1794                            .dwcfi  cfa_offset, 24
    1795 000002ec EEE8CA10          VMSR      FPEXC, V9             ; [DPU_4_PIPE0] 
    1796 000002f0 E8BD500F          LDMFD     SP!, {A1, A2, A3, A4, V9, LR} ; [DPU_4_PIPE0] 
    1797                            .dwcfi  cfa_offset, 0
    1798                            .dwcfi  restore_reg, 14
    1799                            .dwcfi  restore_reg, 12
    1800                            .dwcfi  restore_reg, 3
    1801                            .dwcfi  restore_reg, 2
    1802                            .dwcfi  restore_reg, 1
    1803                            .dwcfi  restore_reg, 0
    1804                    $C$DW$54        .dwtag  DW_TAG_TI_branch
    1805                            .dwattr $C$DW$54, DW_AT_low_pc(0x00)
    1806                            .dwattr $C$DW$54, DW_AT_TI_return
    1807                    
    1808 000002f4 E25EF004          SUBS      PC, LR, #4            ; [DPU_4_PIPE1] 
    1809                            ; BRANCH OCCURS                  ; [] 
    1810                            .dwattr $C$DW$46, DW_AT_TI_end_file("../hcg/source/HL_sys_vim.c")
    1811                            .dwattr $C$DW$46, DW_AT_TI_end_line(0x34a)
    1812                            .dwattr $C$DW$46, DW_AT_TI_end_column(0x01)
    1813                            .dwendentry
    1814                            .dwendtag $C$DW$46
    1815                    
TI ARM Assembler PC v16.9.0 Thu Feb 16 13:27:12 2017

Tools Copyright (c) 1996-2015 Texas Instruments Incorporated
C:\Users\bob\AppData\Local\Temp\0245610                              PAGE   34

    1816                    ;******************************************************************************
    1817                    ;* CONSTANT TABLE                                                             *
    1818                    ;******************************************************************************
    1819 0000081c                   .sect   ".text"
    1820                            .align  4
    1821 0000081c FFFFFDF0  ||$C$CON1||:    .bits   -528,32
    1822                            .align  4
    1823 00000820 0005000A  ||$C$CON2||:    .bits   327690,32
    1824                            .align  4
    1825 00000824 FFF82000  ||$C$CON3||:    .bits   -516096,32
    1826                            .align  4
    1827 00000828 00000000! ||$C$CON4||:    .bits   s_vim_init,32
    1828                            .align  4
    1829 0000082c FFFFFDF8  ||$C$CON5||:    .bits   -520,32
    1830                            .align  4
    1831 00000830 00000000! ||$C$CON6||:    .bits   vimECCErrorHandler,32
    1832                            .align  4
    1833 00000834 FFFFFE10  ||$C$CON7||:    .bits   -496,32
    1834                            .align  4
    1835 00000838 00100003  ||$C$CON8||:    .bits   1048579,32
    1836                            .align  4
    1837 0000083c FFFFFE14  ||$C$CON9||:    .bits   -492,32
    1838                            .align  4
    1839 00000840 FFFFFE18  ||$C$CON10||:   .bits   -488,32
    1840                            .align  4
    1841 00000844 FFFFFE1C  ||$C$CON11||:   .bits   -484,32
    1842                            .align  4
    1843 00000848 FFFFFE30  ||$C$CON12||:   .bits   -464,32
    1844                            .align  4
    1845 0000084c 0010023F  ||$C$CON13||:   .bits   1049151,32
    1846                            .align  4
    1847 00000850 FFFFFE34  ||$C$CON14||:   .bits   -460,32
    1848                            .align  4
    1849 00000854 FFFFFE38  ||$C$CON15||:   .bits   -456,32
    1850                            .align  4
    1851 00000858 FFFFFE3C  ||$C$CON16||:   .bits   -452,32
    1852                            .align  4
    1853 0000085c FFFFFE78  ||$C$CON17||:   .bits   -392,32
    1854                            .align  4
    1855 00000860 FFFFFE80  ||$C$CON18||:   .bits   -384,32
    1856                            .align  4
    1857 00000864 FFFFFE4C  ||$C$CON19||:   .bits   -436,32
    1858                            .align  4
    1859 00000868 FFFFFE48  ||$C$CON20||:   .bits   -440,32
    1860                            .align  4
    1861 0000086c FFFFFE44  ||$C$CON21||:   .bits   -444,32
    1862                            .align  4
    1863 00000870 FFFFFE40  ||$C$CON22||:   .bits   -448,32
    1864                            .align  4
    1865 00000874 0010003F  ||$C$CON23||:   .bits   1048639,32
    1866                            .align  4
    1867 00000878 00010203  ||$C$CON24||:   .bits   66051,32
    1868                            .align  4
    1869 0000087c 04050607  ||$C$CON25||:   .bits   67438087,32
    1870                            .align  4
TI ARM Assembler PC v16.9.0 Thu Feb 16 13:27:12 2017

Tools Copyright (c) 1996-2015 Texas Instruments Incorporated
C:\Users\bob\AppData\Local\Temp\0245610                              PAGE   35

    1871 00000880 08090A0B  ||$C$CON26||:   .bits   134810123,32
    1872                            .align  4
    1873 00000884 0C0D0E0F  ||$C$CON27||:   .bits   202182159,32
    1874                            .align  4
    1875 00000888 10111213  ||$C$CON28||:   .bits   269554195,32
    1876                            .align  4
    1877 0000088c 14151617  ||$C$CON29||:   .bits   336926231,32
    1878                            .align  4
    1879 00000890 18191A1B  ||$C$CON30||:   .bits   404298267,32
    1880                            .align  4
    1881 00000894 1C1D1E1F  ||$C$CON31||:   .bits   471670303,32
    1882                            .align  4
    1883 00000898 20212223  ||$C$CON32||:   .bits   539042339,32
    1884                            .align  4
    1885 0000089c 24252627  ||$C$CON33||:   .bits   606414375,32
    1886                            .align  4
    1887 000008a0 28292A2B  ||$C$CON34||:   .bits   673786411,32
    1888                            .align  4
    1889 000008a4 2C2D2E2F  ||$C$CON35||:   .bits   741158447,32
    1890                            .align  4
    1891 000008a8 30313233  ||$C$CON36||:   .bits   808530483,32
    1892                            .align  4
    1893 000008ac 34353637  ||$C$CON37||:   .bits   875902519,32
    1894                            .align  4
    1895 000008b0 38393A3B  ||$C$CON38||:   .bits   943274555,32
    1896                            .align  4
    1897 000008b4 3C3D3E3F  ||$C$CON39||:   .bits   1010646591,32
    1898                            .align  4
    1899 000008b8 40414243  ||$C$CON40||:   .bits   1078018627,32
    1900                            .align  4
    1901 000008bc 44454647  ||$C$CON41||:   .bits   1145390663,32
    1902                            .align  4
    1903 000008c0 48494A4B  ||$C$CON42||:   .bits   1212762699,32
    1904                            .align  4
    1905 000008c4 4C4D4E4F  ||$C$CON43||:   .bits   1280134735,32
    1906                            .align  4
    1907 000008c8 50515253  ||$C$CON44||:   .bits   1347506771,32
    1908                            .align  4
    1909 000008cc 54555657  ||$C$CON45||:   .bits   1414878807,32
    1910                            .align  4
    1911 000008d0 58595A5B  ||$C$CON46||:   .bits   1482250843,32
    1912                            .align  4
    1913 000008d4 5C5D5E5F  ||$C$CON47||:   .bits   1549622879,32
    1914                            .align  4
    1915 000008d8 FFFFFE50  ||$C$CON48||:   .bits   -432,32
    1916                            .align  4
    1917 000008dc FFFFFE54  ||$C$CON49||:   .bits   -428,32
    1918                            .align  4
    1919 000008e0 FFFFFE58  ||$C$CON50||:   .bits   -424,32
    1920                            .align  4
    1921 000008e4 FFFFFE5C  ||$C$CON51||:   .bits   -420,32
    1922                            .align  4
    1923 000008e8 FFFFFE84  ||$C$CON52||:   .bits   -380,32
    1924                            .align  4
    1925 000008ec FFFFFE88  ||$C$CON53||:   .bits   -376,32
TI ARM Assembler PC v16.9.0 Thu Feb 16 13:27:12 2017

Tools Copyright (c) 1996-2015 Texas Instruments Incorporated
C:\Users\bob\AppData\Local\Temp\0245610                              PAGE   36

    1926                            .align  4
    1927 000008f0 FFFFFE8C  ||$C$CON54||:   .bits   -372,32
    1928                            .align  4
    1929 000008f4 FFFFFE90  ||$C$CON55||:   .bits   -368,32
    1930                            .align  4
    1931 000008f8 FFFFFE94  ||$C$CON56||:   .bits   -364,32
    1932                            .align  4
    1933 000008fc FFFFFE98  ||$C$CON57||:   .bits   -360,32
    1934                            .align  4
    1935 00000900 FFFFFE9C  ||$C$CON58||:   .bits   -356,32
    1936                            .align  4
    1937 00000904 FFFFFEA0  ||$C$CON59||:   .bits   -352,32
    1938                            .align  4
    1939 00000908 FFFFFEA4  ||$C$CON60||:   .bits   -348,32
    1940                            .align  4
    1941 0000090c FFFFFEA8  ||$C$CON61||:   .bits   -344,32
    1942                            .align  4
    1943 00000910 FFFFFEAC  ||$C$CON62||:   .bits   -340,32
    1944                            .align  4
    1945 00000914 FFFFFEB0  ||$C$CON63||:   .bits   -336,32
    1946                            .align  4
    1947 00000918 FFFFFEB4  ||$C$CON64||:   .bits   -332,32
    1948                            .align  4
    1949 0000091c FFFFFEB8  ||$C$CON65||:   .bits   -328,32
    1950                            .align  4
    1951 00000920 FFFFFEBC  ||$C$CON66||:   .bits   -324,32
    1952                            .align  4
    1953 00000924 FFFFFEC0  ||$C$CON67||:   .bits   -320,32
    1954                            .align  4
    1955 00000928 FFFFFEC4  ||$C$CON68||:   .bits   -316,32
    1956                            .align  4
    1957 0000092c FFFFFEC8  ||$C$CON69||:   .bits   -312,32
    1958                            .align  4
    1959 00000930 FFFFFECC  ||$C$CON70||:   .bits   -308,32
    1960                            .align  4
    1961 00000934 FFFFFED0  ||$C$CON71||:   .bits   -304,32
    1962                            .align  4
    1963 00000938 FFFFFED4  ||$C$CON72||:   .bits   -300,32
    1964                            .align  4
    1965 0000093c FFFFFED8  ||$C$CON73||:   .bits   -296,32
    1966                            .align  4
    1967 00000940 FFFFFEDC  ||$C$CON74||:   .bits   -292,32
    1968                    ;******************************************************************************
    1969                    ;* CONSTANT TABLE                                                             *
    1970                    ;******************************************************************************
    1971 000002f8                   .sect   ".text:retain"
    1972                            .align  4
    1973 000002f8 FFFFFDF4  ||$C$CON75||:   .bits   -524,32
    1974                            .align  4
    1975 000002fc 00000000! ||$C$CON76||:   .bits   s_vim_init,32
    1976                            .align  4
    1977 00000300 FFFFFDEC  ||$C$CON77||:   .bits   -532,32
    1978                            .align  4
    1979 00000304 FFFFFE04  ||$C$CON78||:   .bits   -508,32
    1980                            .align  4
TI ARM Assembler PC v16.9.0 Thu Feb 16 13:27:12 2017

Tools Copyright (c) 1996-2015 Texas Instruments Incorporated
C:\Users\bob\AppData\Local\Temp\0245610                              PAGE   37

    1981 00000308 FFFFFE00  ||$C$CON79||:   .bits   -512,32
    1982                            .align  4
    1983 0000030c FFFFFE20  ||$C$CON80||:   .bits   -480,32
    1984                            .align  4
    1985 00000310 FFFFF528  ||$C$CON81||:   .bits   -2776,32
    1986                            .align  4
    1987 00000314 FFFFF518  ||$C$CON82||:   .bits   -2792,32
    1988                            .align  4
    1989 00000318 FFFFF500  ||$C$CON83||:   .bits   -2816,32
    1990                            .align  4
    1991 0000031c FFFFF51C  ||$C$CON84||:   .bits   -2788,32
    1992                            .align  4
    1993 00000320 FFFFF558  ||$C$CON85||:   .bits   -2728,32
    1994                            .align  4
    1995 00000324 FFFFF598  ||$C$CON86||:   .bits   -2664,32
    1996                            .align  4
    1997 00000328 FFFFF55C  ||$C$CON87||:   .bits   -2724,32
    1998                            .align  4
    1999 0000032c FFFFFE40  ||$C$CON88||:   .bits   -448,32
    2000                            .align  4
    2001 00000330 FFFFFE30  ||$C$CON89||:   .bits   -464,32
    2002                            .align  4
    2003 00000334 FFFFFE44  ||$C$CON90||:   .bits   -444,32
    2004                            .align  4
    2005 00000338 FFFFFE34  ||$C$CON91||:   .bits   -460,32
    2006                            .align  4
    2007 0000033c FFFFFE48  ||$C$CON92||:   .bits   -440,32
    2008                            .align  4
    2009 00000340 FFFFFE38  ||$C$CON93||:   .bits   -456,32
    2010                            .align  4
    2011 00000344 FFFFFE4C  ||$C$CON94||:   .bits   -436,32
    2012                            .align  4
    2013 00000348 FFFFFE3C  ||$C$CON95||:   .bits   -452,32
    2014                    ;*****************************************************************************
    2015                    ;* UNDEFINED EXTERNAL REFERENCES                                             *
    2016                    ;*****************************************************************************
    2017                            .global esmHighInterrupt
    2018                            .global phantomInterrupt
    2019                            .global rtiCompare0Interrupt
    2020                            .global rtiCompare1Interrupt
    2021                            .global rtiCompare2Interrupt
    2022                            .global rtiCompare3Interrupt
    2023                            .global esmLowInterrupt
    2024                            .global esmGroup1Notification
    2025                            .global esmGroup2Notification
    2026                            .global buttonISR
    2027                    
    2028                    ;******************************************************************************
    2029                    ;* BUILD ATTRIBUTES                                                           *
    2030                    ;******************************************************************************
    2031                            .battr "aeabi", Tag_File, 1, Tag_ABI_PCS_wchar_t(2)
    2032                            .battr "aeabi", Tag_File, 1, Tag_ABI_FP_rounding(0)
    2033                            .battr "aeabi", Tag_File, 1, Tag_ABI_FP_denormal(0)
    2034                            .battr "aeabi", Tag_File, 1, Tag_ABI_FP_exceptions(0)
    2035                            .battr "aeabi", Tag_File, 1, Tag_ABI_FP_number_model(1)
TI ARM Assembler PC v16.9.0 Thu Feb 16 13:27:12 2017

Tools Copyright (c) 1996-2015 Texas Instruments Incorporated
C:\Users\bob\AppData\Local\Temp\0245610                              PAGE   38

    2036                            .battr "aeabi", Tag_File, 1, Tag_ABI_enum_size(1)
    2037                            .battr "aeabi", Tag_File, 1, Tag_ABI_optimization_goals(5)
    2038                            .battr "aeabi", Tag_File, 1, Tag_ABI_FP_optimization_goals(0)
    2039                            .battr "TI", Tag_File, 1, Tag_Bitfield_layout(2)
    2040                            .battr "aeabi", Tag_File, 1, Tag_ABI_VFP_args(3)
    2041                            .battr "TI", Tag_File, 1, Tag_FP_interface(1)
    2042                    
    2043                    ;******************************************************************************
    2044                    ;* TYPE INFORMATION                                                           *
    2045                    ;******************************************************************************
    2046                    
    2047                    $C$DW$T$49      .dwtag  DW_TAG_enumeration_type
    2048                            .dwattr $C$DW$T$49, DW_AT_byte_size(0x02)
    2049                    $C$DW$55        .dwtag  DW_TAG_enumerator
    2050                            .dwattr $C$DW$55, DW_AT_name("POWERON_RESET")
    2051                            .dwattr $C$DW$55, DW_AT_const_value(0x8000)
    2052                            .dwattr $C$DW$55, DW_AT_decl_file("C:/Users/bob/Documents/Projects/induct_forge/RM57Lx_test/Pr
    2053                            .dwattr $C$DW$55, DW_AT_decl_line(0x6c)
    2054                            .dwattr $C$DW$55, DW_AT_decl_column(0x05)
    2055                    
    2056                    $C$DW$56        .dwtag  DW_TAG_enumerator
    2057                            .dwattr $C$DW$56, DW_AT_name("OSC_FAILURE_RESET")
    2058                            .dwattr $C$DW$56, DW_AT_const_value(0x4000)
    2059                            .dwattr $C$DW$56, DW_AT_decl_file("C:/Users/bob/Documents/Projects/induct_forge/RM57Lx_test/Pr
    2060                            .dwattr $C$DW$56, DW_AT_decl_line(0x6d)
    2061                            .dwattr $C$DW$56, DW_AT_decl_column(0x05)
    2062                    
    2063                    $C$DW$57        .dwtag  DW_TAG_enumerator
    2064                            .dwattr $C$DW$57, DW_AT_name("WATCHDOG_RESET")
    2065                            .dwattr $C$DW$57, DW_AT_const_value(0x2000)
    2066                            .dwattr $C$DW$57, DW_AT_decl_file("C:/Users/bob/Documents/Projects/induct_forge/RM57Lx_test/Pr
    2067                            .dwattr $C$DW$57, DW_AT_decl_line(0x6e)
    2068                            .dwattr $C$DW$57, DW_AT_decl_column(0x05)
    2069                    
    2070                    $C$DW$58        .dwtag  DW_TAG_enumerator
    2071                            .dwattr $C$DW$58, DW_AT_name("WATCHDOG2_RESET")
    2072                            .dwattr $C$DW$58, DW_AT_const_value(0x1000)
    2073                            .dwattr $C$DW$58, DW_AT_decl_file("C:/Users/bob/Documents/Projects/induct_forge/RM57Lx_test/Pr
    2074                            .dwattr $C$DW$58, DW_AT_decl_line(0x6f)
    2075                            .dwattr $C$DW$58, DW_AT_decl_column(0x05)
    2076                    
    2077                    $C$DW$59        .dwtag  DW_TAG_enumerator
    2078                            .dwattr $C$DW$59, DW_AT_name("DEBUG_RESET")
    2079                            .dwattr $C$DW$59, DW_AT_const_value(0x800)
    2080                            .dwattr $C$DW$59, DW_AT_decl_file("C:/Users/bob/Documents/Projects/induct_forge/RM57Lx_test/Pr
    2081                            .dwattr $C$DW$59, DW_AT_decl_line(0x70)
    2082                            .dwattr $C$DW$59, DW_AT_decl_column(0x05)
    2083                    
    2084                    $C$DW$60        .dwtag  DW_TAG_enumerator
    2085                            .dwattr $C$DW$60, DW_AT_name("INTERCONNECT_RESET")
    2086                            .dwattr $C$DW$60, DW_AT_const_value(0x80)
    2087                            .dwattr $C$DW$60, DW_AT_decl_file("C:/Users/bob/Documents/Projects/induct_forge/RM57Lx_test/Pr
    2088                            .dwattr $C$DW$60, DW_AT_decl_line(0x71)
    2089                            .dwattr $C$DW$60, DW_AT_decl_column(0x05)
    2090                    
TI ARM Assembler PC v16.9.0 Thu Feb 16 13:27:12 2017

Tools Copyright (c) 1996-2015 Texas Instruments Incorporated
C:\Users\bob\AppData\Local\Temp\0245610                              PAGE   39

    2091                    $C$DW$61        .dwtag  DW_TAG_enumerator
    2092                            .dwattr $C$DW$61, DW_AT_name("CPU1_RESET")
    2093                            .dwattr $C$DW$61, DW_AT_const_value(0x40)
    2094                            .dwattr $C$DW$61, DW_AT_decl_file("C:/Users/bob/Documents/Projects/induct_forge/RM57Lx_test/Pr
    2095                            .dwattr $C$DW$61, DW_AT_decl_line(0x72)
    2096                            .dwattr $C$DW$61, DW_AT_decl_column(0x05)
    2097                    
    2098                    $C$DW$62        .dwtag  DW_TAG_enumerator
    2099                            .dwattr $C$DW$62, DW_AT_name("CPU0_RESET")
    2100                            .dwattr $C$DW$62, DW_AT_const_value(0x20)
    2101                            .dwattr $C$DW$62, DW_AT_decl_file("C:/Users/bob/Documents/Projects/induct_forge/RM57Lx_test/Pr
    2102                            .dwattr $C$DW$62, DW_AT_decl_line(0x73)
    2103                            .dwattr $C$DW$62, DW_AT_decl_column(0x05)
    2104                    
    2105                    $C$DW$63        .dwtag  DW_TAG_enumerator
    2106                            .dwattr $C$DW$63, DW_AT_name("SW_RESET")
    2107                            .dwattr $C$DW$63, DW_AT_const_value(0x10)
    2108                            .dwattr $C$DW$63, DW_AT_decl_file("C:/Users/bob/Documents/Projects/induct_forge/RM57Lx_test/Pr
    2109                            .dwattr $C$DW$63, DW_AT_decl_line(0x74)
    2110                            .dwattr $C$DW$63, DW_AT_decl_column(0x05)
    2111                    
    2112                    $C$DW$64        .dwtag  DW_TAG_enumerator
    2113                            .dwattr $C$DW$64, DW_AT_name("EXT_RESET")
    2114                            .dwattr $C$DW$64, DW_AT_const_value(0x08)
    2115                            .dwattr $C$DW$64, DW_AT_decl_file("C:/Users/bob/Documents/Projects/induct_forge/RM57Lx_test/Pr
    2116                            .dwattr $C$DW$64, DW_AT_decl_line(0x75)
    2117                            .dwattr $C$DW$64, DW_AT_decl_column(0x05)
    2118                    
    2119                    $C$DW$65        .dwtag  DW_TAG_enumerator
    2120                            .dwattr $C$DW$65, DW_AT_name("NO_RESET")
    2121                            .dwattr $C$DW$65, DW_AT_const_value(0x00)
    2122                            .dwattr $C$DW$65, DW_AT_decl_file("C:/Users/bob/Documents/Projects/induct_forge/RM57Lx_test/Pr
    2123                            .dwattr $C$DW$65, DW_AT_decl_line(0x76)
    2124                            .dwattr $C$DW$65, DW_AT_decl_column(0x05)
    2125                    
    2126                            .dwattr $C$DW$T$49, DW_AT_decl_file("C:/Users/bob/Documents/Projects/induct_forge/RM57Lx_test/
    2127                            .dwattr $C$DW$T$49, DW_AT_decl_line(0x6b)
    2128                            .dwattr $C$DW$T$49, DW_AT_decl_column(0x01)
    2129                            .dwendtag $C$DW$T$49
    2130                    
    2131                    $C$DW$T$50      .dwtag  DW_TAG_typedef
    2132                            .dwattr $C$DW$T$50, DW_AT_name("resetSource_t")
    2133                            .dwattr $C$DW$T$50, DW_AT_type(*$C$DW$T$49)
    2134                            .dwattr $C$DW$T$50, DW_AT_language(DW_LANG_C)
    2135                            .dwattr $C$DW$T$50, DW_AT_decl_file("C:/Users/bob/Documents/Projects/induct_forge/RM57Lx_test/
    2136                            .dwattr $C$DW$T$50, DW_AT_decl_line(0x77)
    2137                            .dwattr $C$DW$T$50, DW_AT_decl_column(0x02)
    2138                    
    2139                    $C$DW$T$2       .dwtag  DW_TAG_unspecified_type
    2140                            .dwattr $C$DW$T$2, DW_AT_name("void")
    2141                    
    2142                    
    2143                    $C$DW$T$43      .dwtag  DW_TAG_subroutine_type
    2144                            .dwattr $C$DW$T$43, DW_AT_language(DW_LANG_C)
    2145                            .dwendtag $C$DW$T$43
TI ARM Assembler PC v16.9.0 Thu Feb 16 13:27:12 2017

Tools Copyright (c) 1996-2015 Texas Instruments Incorporated
C:\Users\bob\AppData\Local\Temp\0245610                              PAGE   40

    2146                    
    2147                    $C$DW$T$44      .dwtag  DW_TAG_pointer_type
    2148                            .dwattr $C$DW$T$44, DW_AT_type(*$C$DW$T$43)
    2149                            .dwattr $C$DW$T$44, DW_AT_address_class(0x20)
    2150                    
    2151                    $C$DW$T$45      .dwtag  DW_TAG_typedef
    2152                            .dwattr $C$DW$T$45, DW_AT_name("t_isrFuncPTR")
    2153                            .dwattr $C$DW$T$45, DW_AT_type(*$C$DW$T$44)
    2154                            .dwattr $C$DW$T$45, DW_AT_language(DW_LANG_C)
    2155                            .dwattr $C$DW$T$45, DW_AT_decl_file("C:/Users/bob/Documents/Projects/induct_forge/RM57Lx_test/
    2156                            .dwattr $C$DW$T$45, DW_AT_decl_line(0x40)
    2157                            .dwattr $C$DW$T$45, DW_AT_decl_column(0x10)
    2158                    
    2159                    
    2160                    $C$DW$T$46      .dwtag  DW_TAG_array_type
    2161                            .dwattr $C$DW$T$46, DW_AT_type(*$C$DW$T$45)
    2162                            .dwattr $C$DW$T$46, DW_AT_language(DW_LANG_C)
    2163                            .dwattr $C$DW$T$46, DW_AT_byte_size(0x200)
    2164                    $C$DW$66        .dwtag  DW_TAG_subrange_type
    2165                            .dwattr $C$DW$66, DW_AT_upper_bound(0x7f)
    2166                    
    2167                            .dwendtag $C$DW$T$46
    2168                    
    2169                    $C$DW$T$51      .dwtag  DW_TAG_const_type
    2170                            .dwattr $C$DW$T$51, DW_AT_type(*$C$DW$T$45)
    2171                    
    2172                    
    2173                    $C$DW$T$52      .dwtag  DW_TAG_array_type
    2174                            .dwattr $C$DW$T$52, DW_AT_type(*$C$DW$T$51)
    2175                            .dwattr $C$DW$T$52, DW_AT_language(DW_LANG_C)
    2176                            .dwattr $C$DW$T$52, DW_AT_byte_size(0x200)
    2177                    $C$DW$67        .dwtag  DW_TAG_subrange_type
    2178                            .dwattr $C$DW$67, DW_AT_upper_bound(0x7f)
    2179                    
    2180                            .dwendtag $C$DW$T$52
    2181                    
    2182                    $C$DW$T$4       .dwtag  DW_TAG_base_type
    2183                            .dwattr $C$DW$T$4, DW_AT_encoding(DW_ATE_boolean)
    2184                            .dwattr $C$DW$T$4, DW_AT_name("bool")
    2185                            .dwattr $C$DW$T$4, DW_AT_byte_size(0x01)
    2186                    
    2187                    $C$DW$T$5       .dwtag  DW_TAG_base_type
    2188                            .dwattr $C$DW$T$5, DW_AT_encoding(DW_ATE_signed_char)
    2189                            .dwattr $C$DW$T$5, DW_AT_name("signed char")
    2190                            .dwattr $C$DW$T$5, DW_AT_byte_size(0x01)
    2191                    
    2192                    $C$DW$T$72      .dwtag  DW_TAG_typedef
    2193                            .dwattr $C$DW$T$72, DW_AT_name("int8_t")
    2194                            .dwattr $C$DW$T$72, DW_AT_type(*$C$DW$T$5)
    2195                            .dwattr $C$DW$T$72, DW_AT_language(DW_LANG_C)
    2196                            .dwattr $C$DW$T$72, DW_AT_decl_file("C:/ti/ccsv7/tools/compiler/ti-cgt-arm_16.9.0.LTS/include/
    2197                            .dwattr $C$DW$T$72, DW_AT_decl_line(0x2a)
    2198                            .dwattr $C$DW$T$72, DW_AT_decl_column(0x1d)
    2199                    
    2200                    $C$DW$T$73      .dwtag  DW_TAG_typedef
TI ARM Assembler PC v16.9.0 Thu Feb 16 13:27:12 2017

Tools Copyright (c) 1996-2015 Texas Instruments Incorporated
C:\Users\bob\AppData\Local\Temp\0245610                              PAGE   41

    2201                            .dwattr $C$DW$T$73, DW_AT_name("int_least8_t")
    2202                            .dwattr $C$DW$T$73, DW_AT_type(*$C$DW$T$72)
    2203                            .dwattr $C$DW$T$73, DW_AT_language(DW_LANG_C)
    2204                            .dwattr $C$DW$T$73, DW_AT_decl_file("C:/ti/ccsv7/tools/compiler/ti-cgt-arm_16.9.0.LTS/include/
    2205                            .dwattr $C$DW$T$73, DW_AT_decl_line(0x37)
    2206                            .dwattr $C$DW$T$73, DW_AT_decl_column(0x17)
    2207                    
    2208                    $C$DW$T$74      .dwtag  DW_TAG_typedef
    2209                            .dwattr $C$DW$T$74, DW_AT_name("sint8")
    2210                            .dwattr $C$DW$T$74, DW_AT_type(*$C$DW$T$72)
    2211                            .dwattr $C$DW$T$74, DW_AT_language(DW_LANG_C)
    2212                            .dwattr $C$DW$T$74, DW_AT_decl_file("C:\Users\bob\Documents\Projects\induct_forge\RM57Lx_test\
    2213                            .dwattr $C$DW$T$74, DW_AT_decl_line(0x68)
    2214                            .dwattr $C$DW$T$74, DW_AT_decl_column(0x10)
    2215                    
    2216                    $C$DW$T$6       .dwtag  DW_TAG_base_type
    2217                            .dwattr $C$DW$T$6, DW_AT_encoding(DW_ATE_unsigned_char)
    2218                            .dwattr $C$DW$T$6, DW_AT_name("unsigned char")
    2219                            .dwattr $C$DW$T$6, DW_AT_byte_size(0x01)
    2220                    
    2221                    $C$DW$T$75      .dwtag  DW_TAG_typedef
    2222                            .dwattr $C$DW$T$75, DW_AT_name("uint8_t")
    2223                            .dwattr $C$DW$T$75, DW_AT_type(*$C$DW$T$6)
    2224                            .dwattr $C$DW$T$75, DW_AT_language(DW_LANG_C)
    2225                            .dwattr $C$DW$T$75, DW_AT_decl_file("C:/ti/ccsv7/tools/compiler/ti-cgt-arm_16.9.0.LTS/include/
    2226                            .dwattr $C$DW$T$75, DW_AT_decl_line(0x2b)
    2227                            .dwattr $C$DW$T$75, DW_AT_decl_column(0x1c)
    2228                    
    2229                    $C$DW$T$76      .dwtag  DW_TAG_typedef
    2230                            .dwattr $C$DW$T$76, DW_AT_name("uint8")
    2231                            .dwattr $C$DW$T$76, DW_AT_type(*$C$DW$T$75)
    2232                            .dwattr $C$DW$T$76, DW_AT_language(DW_LANG_C)
    2233                            .dwattr $C$DW$T$76, DW_AT_decl_file("C:\Users\bob\Documents\Projects\induct_forge\RM57Lx_test\
    2234                            .dwattr $C$DW$T$76, DW_AT_decl_line(0x4b)
    2235                            .dwattr $C$DW$T$76, DW_AT_decl_column(0x11)
    2236                    
    2237                    $C$DW$T$77      .dwtag  DW_TAG_typedef
    2238                            .dwattr $C$DW$T$77, DW_AT_name("uint_least8_t")
    2239                            .dwattr $C$DW$T$77, DW_AT_type(*$C$DW$T$75)
    2240                            .dwattr $C$DW$T$77, DW_AT_language(DW_LANG_C)
    2241                            .dwattr $C$DW$T$77, DW_AT_decl_file("C:/ti/ccsv7/tools/compiler/ti-cgt-arm_16.9.0.LTS/include/
    2242                            .dwattr $C$DW$T$77, DW_AT_decl_line(0x38)
    2243                            .dwattr $C$DW$T$77, DW_AT_decl_column(0x16)
    2244                    
    2245                    $C$DW$T$7       .dwtag  DW_TAG_base_type
    2246                            .dwattr $C$DW$T$7, DW_AT_encoding(DW_ATE_signed_char)
    2247                            .dwattr $C$DW$T$7, DW_AT_name("wchar_t")
    2248                            .dwattr $C$DW$T$7, DW_AT_byte_size(0x02)
    2249                    
    2250                    $C$DW$T$8       .dwtag  DW_TAG_base_type
    2251                            .dwattr $C$DW$T$8, DW_AT_encoding(DW_ATE_signed)
    2252                            .dwattr $C$DW$T$8, DW_AT_name("short")
    2253                            .dwattr $C$DW$T$8, DW_AT_byte_size(0x02)
    2254                    
    2255                    $C$DW$T$78      .dwtag  DW_TAG_typedef
TI ARM Assembler PC v16.9.0 Thu Feb 16 13:27:12 2017

Tools Copyright (c) 1996-2015 Texas Instruments Incorporated
C:\Users\bob\AppData\Local\Temp\0245610                              PAGE   42

    2256                            .dwattr $C$DW$T$78, DW_AT_name("int16_t")
    2257                            .dwattr $C$DW$T$78, DW_AT_type(*$C$DW$T$8)
    2258                            .dwattr $C$DW$T$78, DW_AT_language(DW_LANG_C)
    2259                            .dwattr $C$DW$T$78, DW_AT_decl_file("C:/ti/ccsv7/tools/compiler/ti-cgt-arm_16.9.0.LTS/include/
    2260                            .dwattr $C$DW$T$78, DW_AT_decl_line(0x2c)
    2261                            .dwattr $C$DW$T$78, DW_AT_decl_column(0x1d)
    2262                    
    2263                    $C$DW$T$79      .dwtag  DW_TAG_typedef
    2264                            .dwattr $C$DW$T$79, DW_AT_name("int_least16_t")
    2265                            .dwattr $C$DW$T$79, DW_AT_type(*$C$DW$T$78)
    2266                            .dwattr $C$DW$T$79, DW_AT_language(DW_LANG_C)
    2267                            .dwattr $C$DW$T$79, DW_AT_decl_file("C:/ti/ccsv7/tools/compiler/ti-cgt-arm_16.9.0.LTS/include/
    2268                            .dwattr $C$DW$T$79, DW_AT_decl_line(0x3a)
    2269                            .dwattr $C$DW$T$79, DW_AT_decl_column(0x17)
    2270                    
    2271                    $C$DW$T$80      .dwtag  DW_TAG_typedef
    2272                            .dwattr $C$DW$T$80, DW_AT_name("sint16")
    2273                            .dwattr $C$DW$T$80, DW_AT_type(*$C$DW$T$78)
    2274                            .dwattr $C$DW$T$80, DW_AT_language(DW_LANG_C)
    2275                            .dwattr $C$DW$T$80, DW_AT_decl_file("C:\Users\bob\Documents\Projects\induct_forge\RM57Lx_test\
    2276                            .dwattr $C$DW$T$80, DW_AT_decl_line(0x63)
    2277                            .dwattr $C$DW$T$80, DW_AT_decl_column(0x11)
    2278                    
    2279                    $C$DW$T$9       .dwtag  DW_TAG_base_type
    2280                            .dwattr $C$DW$T$9, DW_AT_encoding(DW_ATE_unsigned)
    2281                            .dwattr $C$DW$T$9, DW_AT_name("unsigned short")
    2282                            .dwattr $C$DW$T$9, DW_AT_byte_size(0x02)
    2283                    
    2284                    $C$DW$T$81      .dwtag  DW_TAG_typedef
    2285                            .dwattr $C$DW$T$81, DW_AT_name("uint16_t")
    2286                            .dwattr $C$DW$T$81, DW_AT_type(*$C$DW$T$9)
    2287                            .dwattr $C$DW$T$81, DW_AT_language(DW_LANG_C)
    2288                            .dwattr $C$DW$T$81, DW_AT_decl_file("C:/ti/ccsv7/tools/compiler/ti-cgt-arm_16.9.0.LTS/include/
    2289                            .dwattr $C$DW$T$81, DW_AT_decl_line(0x2d)
    2290                            .dwattr $C$DW$T$81, DW_AT_decl_column(0x1c)
    2291                    
    2292                    $C$DW$T$82      .dwtag  DW_TAG_typedef
    2293                            .dwattr $C$DW$T$82, DW_AT_name("uint16")
    2294                            .dwattr $C$DW$T$82, DW_AT_type(*$C$DW$T$81)
    2295                            .dwattr $C$DW$T$82, DW_AT_language(DW_LANG_C)
    2296                            .dwattr $C$DW$T$82, DW_AT_decl_file("C:\Users\bob\Documents\Projects\induct_forge\RM57Lx_test\
    2297                            .dwattr $C$DW$T$82, DW_AT_decl_line(0x46)
    2298                            .dwattr $C$DW$T$82, DW_AT_decl_column(0x12)
    2299                    
    2300                    $C$DW$T$83      .dwtag  DW_TAG_typedef
    2301                            .dwattr $C$DW$T$83, DW_AT_name("uint_least16_t")
    2302                            .dwattr $C$DW$T$83, DW_AT_type(*$C$DW$T$81)
    2303                            .dwattr $C$DW$T$83, DW_AT_language(DW_LANG_C)
    2304                            .dwattr $C$DW$T$83, DW_AT_decl_file("C:/ti/ccsv7/tools/compiler/ti-cgt-arm_16.9.0.LTS/include/
    2305                            .dwattr $C$DW$T$83, DW_AT_decl_line(0x3b)
    2306                            .dwattr $C$DW$T$83, DW_AT_decl_column(0x16)
    2307                    
    2308                    $C$DW$T$10      .dwtag  DW_TAG_base_type
    2309                            .dwattr $C$DW$T$10, DW_AT_encoding(DW_ATE_signed)
    2310                            .dwattr $C$DW$T$10, DW_AT_name("int")
TI ARM Assembler PC v16.9.0 Thu Feb 16 13:27:12 2017

Tools Copyright (c) 1996-2015 Texas Instruments Incorporated
C:\Users\bob\AppData\Local\Temp\0245610                              PAGE   43

    2311                            .dwattr $C$DW$T$10, DW_AT_byte_size(0x04)
    2312                    
    2313                    $C$DW$T$84      .dwtag  DW_TAG_typedef
    2314                            .dwattr $C$DW$T$84, DW_AT_name("int32_t")
    2315                            .dwattr $C$DW$T$84, DW_AT_type(*$C$DW$T$10)
    2316                            .dwattr $C$DW$T$84, DW_AT_language(DW_LANG_C)
    2317                            .dwattr $C$DW$T$84, DW_AT_decl_file("C:/ti/ccsv7/tools/compiler/ti-cgt-arm_16.9.0.LTS/include/
    2318                            .dwattr $C$DW$T$84, DW_AT_decl_line(0x2e)
    2319                            .dwattr $C$DW$T$84, DW_AT_decl_column(0x1d)
    2320                    
    2321                    $C$DW$T$85      .dwtag  DW_TAG_typedef
    2322                            .dwattr $C$DW$T$85, DW_AT_name("int_fast16_t")
    2323                            .dwattr $C$DW$T$85, DW_AT_type(*$C$DW$T$84)
    2324                            .dwattr $C$DW$T$85, DW_AT_language(DW_LANG_C)
    2325                            .dwattr $C$DW$T$85, DW_AT_decl_file("C:/ti/ccsv7/tools/compiler/ti-cgt-arm_16.9.0.LTS/include/
    2326                            .dwattr $C$DW$T$85, DW_AT_decl_line(0x47)
    2327                            .dwattr $C$DW$T$85, DW_AT_decl_column(0x17)
    2328                    
    2329                    $C$DW$T$86      .dwtag  DW_TAG_typedef
    2330                            .dwattr $C$DW$T$86, DW_AT_name("int_fast32_t")
    2331                            .dwattr $C$DW$T$86, DW_AT_type(*$C$DW$T$84)
    2332                            .dwattr $C$DW$T$86, DW_AT_language(DW_LANG_C)
    2333                            .dwattr $C$DW$T$86, DW_AT_decl_file("C:/ti/ccsv7/tools/compiler/ti-cgt-arm_16.9.0.LTS/include/
    2334                            .dwattr $C$DW$T$86, DW_AT_decl_line(0x4a)
    2335                            .dwattr $C$DW$T$86, DW_AT_decl_column(0x17)
    2336                    
    2337                    $C$DW$T$87      .dwtag  DW_TAG_typedef
    2338                            .dwattr $C$DW$T$87, DW_AT_name("int_fast8_t")
    2339                            .dwattr $C$DW$T$87, DW_AT_type(*$C$DW$T$84)
    2340                            .dwattr $C$DW$T$87, DW_AT_language(DW_LANG_C)
    2341                            .dwattr $C$DW$T$87, DW_AT_decl_file("C:/ti/ccsv7/tools/compiler/ti-cgt-arm_16.9.0.LTS/include/
    2342                            .dwattr $C$DW$T$87, DW_AT_decl_line(0x45)
    2343                            .dwattr $C$DW$T$87, DW_AT_decl_column(0x17)
    2344                    
    2345                    $C$DW$T$88      .dwtag  DW_TAG_typedef
    2346                            .dwattr $C$DW$T$88, DW_AT_name("int_least32_t")
    2347                            .dwattr $C$DW$T$88, DW_AT_type(*$C$DW$T$84)
    2348                            .dwattr $C$DW$T$88, DW_AT_language(DW_LANG_C)
    2349                            .dwattr $C$DW$T$88, DW_AT_decl_file("C:/ti/ccsv7/tools/compiler/ti-cgt-arm_16.9.0.LTS/include/
    2350                            .dwattr $C$DW$T$88, DW_AT_decl_line(0x3c)
    2351                            .dwattr $C$DW$T$88, DW_AT_decl_column(0x17)
    2352                    
    2353                    $C$DW$T$89      .dwtag  DW_TAG_typedef
    2354                            .dwattr $C$DW$T$89, DW_AT_name("sint32")
    2355                            .dwattr $C$DW$T$89, DW_AT_type(*$C$DW$T$84)
    2356                            .dwattr $C$DW$T$89, DW_AT_language(DW_LANG_C)
    2357                            .dwattr $C$DW$T$89, DW_AT_decl_file("C:\Users\bob\Documents\Projects\induct_forge\RM57Lx_test\
    2358                            .dwattr $C$DW$T$89, DW_AT_decl_line(0x5e)
    2359                            .dwattr $C$DW$T$89, DW_AT_decl_column(0x11)
    2360                    
    2361                    $C$DW$T$90      .dwtag  DW_TAG_typedef
    2362                            .dwattr $C$DW$T$90, DW_AT_name("intptr_t")
    2363                            .dwattr $C$DW$T$90, DW_AT_type(*$C$DW$T$10)
    2364                            .dwattr $C$DW$T$90, DW_AT_language(DW_LANG_C)
    2365                            .dwattr $C$DW$T$90, DW_AT_decl_file("C:/ti/ccsv7/tools/compiler/ti-cgt-arm_16.9.0.LTS/include/
TI ARM Assembler PC v16.9.0 Thu Feb 16 13:27:12 2017

Tools Copyright (c) 1996-2015 Texas Instruments Incorporated
C:\Users\bob\AppData\Local\Temp\0245610                              PAGE   44

    2366                            .dwattr $C$DW$T$90, DW_AT_decl_line(0x52)
    2367                            .dwattr $C$DW$T$90, DW_AT_decl_column(0x1a)
    2368                    
    2369                    $C$DW$T$11      .dwtag  DW_TAG_base_type
    2370                            .dwattr $C$DW$T$11, DW_AT_encoding(DW_ATE_unsigned)
    2371                            .dwattr $C$DW$T$11, DW_AT_name("unsigned int")
    2372                            .dwattr $C$DW$T$11, DW_AT_byte_size(0x04)
    2373                    
    2374                    $C$DW$T$19      .dwtag  DW_TAG_typedef
    2375                            .dwattr $C$DW$T$19, DW_AT_name("uint32_t")
    2376                            .dwattr $C$DW$T$19, DW_AT_type(*$C$DW$T$11)
    2377                            .dwattr $C$DW$T$19, DW_AT_language(DW_LANG_C)
    2378                            .dwattr $C$DW$T$19, DW_AT_decl_file("C:/ti/ccsv7/tools/compiler/ti-cgt-arm_16.9.0.LTS/include/
    2379                            .dwattr $C$DW$T$19, DW_AT_decl_line(0x2f)
    2380                            .dwattr $C$DW$T$19, DW_AT_decl_column(0x1c)
    2381                    
    2382                    $C$DW$T$20      .dwtag  DW_TAG_typedef
    2383                            .dwattr $C$DW$T$20, DW_AT_name("uint32")
    2384                            .dwattr $C$DW$T$20, DW_AT_type(*$C$DW$T$19)
    2385                            .dwattr $C$DW$T$20, DW_AT_language(DW_LANG_C)
    2386                            .dwattr $C$DW$T$20, DW_AT_decl_file("C:\Users\bob\Documents\Projects\induct_forge\RM57Lx_test\
    2387                            .dwattr $C$DW$T$20, DW_AT_decl_line(0x41)
    2388                            .dwattr $C$DW$T$20, DW_AT_decl_column(0x12)
    2389                    
    2390                    
    2391                    $C$DW$T$22      .dwtag  DW_TAG_array_type
    2392                            .dwattr $C$DW$T$22, DW_AT_type(*$C$DW$T$20)
    2393                            .dwattr $C$DW$T$22, DW_AT_language(DW_LANG_C)
    2394                            .dwattr $C$DW$T$22, DW_AT_byte_size(0x0c)
    2395                    $C$DW$68        .dwtag  DW_TAG_subrange_type
    2396                            .dwattr $C$DW$68, DW_AT_upper_bound(0x02)
    2397                    
    2398                            .dwendtag $C$DW$T$22
    2399                    
    2400                    
    2401                    $C$DW$T$23      .dwtag  DW_TAG_array_type
    2402                            .dwattr $C$DW$T$23, DW_AT_type(*$C$DW$T$20)
    2403                            .dwattr $C$DW$T$23, DW_AT_language(DW_LANG_C)
    2404                            .dwattr $C$DW$T$23, DW_AT_byte_size(0x1c)
    2405                    $C$DW$69        .dwtag  DW_TAG_subrange_type
    2406                            .dwattr $C$DW$69, DW_AT_upper_bound(0x06)
    2407                    
    2408                            .dwendtag $C$DW$T$23
    2409                    
    2410                    
    2411                    $C$DW$T$26      .dwtag  DW_TAG_array_type
    2412                            .dwattr $C$DW$T$26, DW_AT_type(*$C$DW$T$20)
    2413                            .dwattr $C$DW$T$26, DW_AT_language(DW_LANG_C)
    2414                            .dwattr $C$DW$T$26, DW_AT_byte_size(0x34)
    2415                    $C$DW$70        .dwtag  DW_TAG_subrange_type
    2416                            .dwattr $C$DW$70, DW_AT_upper_bound(0x0c)
    2417                    
    2418                            .dwendtag $C$DW$T$26
    2419                    
    2420                    
TI ARM Assembler PC v16.9.0 Thu Feb 16 13:27:12 2017

Tools Copyright (c) 1996-2015 Texas Instruments Incorporated
C:\Users\bob\AppData\Local\Temp\0245610                              PAGE   45

    2421                    $C$DW$T$27      .dwtag  DW_TAG_array_type
    2422                            .dwattr $C$DW$T$27, DW_AT_type(*$C$DW$T$20)
    2423                            .dwattr $C$DW$T$27, DW_AT_language(DW_LANG_C)
    2424                            .dwattr $C$DW$T$27, DW_AT_byte_size(0x1b4)
    2425                    $C$DW$71        .dwtag  DW_TAG_subrange_type
    2426                            .dwattr $C$DW$71, DW_AT_upper_bound(0x6c)
    2427                    
    2428                            .dwendtag $C$DW$T$27
    2429                    
    2430                    
    2431                    $C$DW$T$28      .dwtag  DW_TAG_array_type
    2432                            .dwattr $C$DW$T$28, DW_AT_type(*$C$DW$T$20)
    2433                            .dwattr $C$DW$T$28, DW_AT_language(DW_LANG_C)
    2434                            .dwattr $C$DW$T$28, DW_AT_byte_size(0x30)
    2435                    $C$DW$72        .dwtag  DW_TAG_subrange_type
    2436                            .dwattr $C$DW$72, DW_AT_upper_bound(0x0b)
    2437                    
    2438                            .dwendtag $C$DW$T$28
    2439                    
    2440                    
    2441                    $C$DW$T$29      .dwtag  DW_TAG_array_type
    2442                            .dwattr $C$DW$T$29, DW_AT_type(*$C$DW$T$20)
    2443                            .dwattr $C$DW$T$29, DW_AT_language(DW_LANG_C)
    2444                            .dwattr $C$DW$T$29, DW_AT_byte_size(0x13c)
    2445                    $C$DW$73        .dwtag  DW_TAG_subrange_type
    2446                            .dwattr $C$DW$73, DW_AT_upper_bound(0x4e)
    2447                    
    2448                            .dwendtag $C$DW$T$29
    2449                    
    2450                    
    2451                    $C$DW$T$33      .dwtag  DW_TAG_array_type
    2452                            .dwattr $C$DW$T$33, DW_AT_type(*$C$DW$T$20)
    2453                            .dwattr $C$DW$T$33, DW_AT_language(DW_LANG_C)
    2454                            .dwattr $C$DW$T$33, DW_AT_byte_size(0x10)
    2455                    $C$DW$74        .dwtag  DW_TAG_subrange_type
    2456                            .dwattr $C$DW$74, DW_AT_upper_bound(0x03)
    2457                    
    2458                            .dwendtag $C$DW$T$33
    2459                    
    2460                    
    2461                    $C$DW$T$36      .dwtag  DW_TAG_array_type
    2462                            .dwattr $C$DW$T$36, DW_AT_type(*$C$DW$T$20)
    2463                            .dwattr $C$DW$T$36, DW_AT_language(DW_LANG_C)
    2464                            .dwattr $C$DW$T$36, DW_AT_byte_size(0x18)
    2465                    $C$DW$75        .dwtag  DW_TAG_subrange_type
    2466                            .dwattr $C$DW$75, DW_AT_upper_bound(0x05)
    2467                    
    2468                            .dwendtag $C$DW$T$36
    2469                    
    2470                    
    2471                    $C$DW$T$37      .dwtag  DW_TAG_array_type
    2472                            .dwattr $C$DW$T$37, DW_AT_type(*$C$DW$T$20)
    2473                            .dwattr $C$DW$T$37, DW_AT_language(DW_LANG_C)
    2474                            .dwattr $C$DW$T$37, DW_AT_byte_size(0x70)
    2475                    $C$DW$76        .dwtag  DW_TAG_subrange_type
TI ARM Assembler PC v16.9.0 Thu Feb 16 13:27:12 2017

Tools Copyright (c) 1996-2015 Texas Instruments Incorporated
C:\Users\bob\AppData\Local\Temp\0245610                              PAGE   46

    2476                            .dwattr $C$DW$76, DW_AT_upper_bound(0x1b)
    2477                    
    2478                            .dwendtag $C$DW$T$37
    2479                    
    2480                    
    2481                    $C$DW$T$40      .dwtag  DW_TAG_array_type
    2482                            .dwattr $C$DW$T$40, DW_AT_type(*$C$DW$T$20)
    2483                            .dwattr $C$DW$T$40, DW_AT_language(DW_LANG_C)
    2484                            .dwattr $C$DW$T$40, DW_AT_byte_size(0xec)
    2485                    $C$DW$77        .dwtag  DW_TAG_subrange_type
    2486                            .dwattr $C$DW$77, DW_AT_upper_bound(0x3a)
    2487                    
    2488                            .dwendtag $C$DW$T$40
    2489                    
    2490                    
    2491                    $C$DW$T$41      .dwtag  DW_TAG_array_type
    2492                            .dwattr $C$DW$T$41, DW_AT_type(*$C$DW$T$20)
    2493                            .dwattr $C$DW$T$41, DW_AT_language(DW_LANG_C)
    2494                            .dwattr $C$DW$T$41, DW_AT_byte_size(0x60)
    2495                    $C$DW$78        .dwtag  DW_TAG_subrange_type
    2496                            .dwattr $C$DW$78, DW_AT_upper_bound(0x17)
    2497                    
    2498                            .dwendtag $C$DW$T$41
    2499                    
    2500                    $C$DW$T$96      .dwtag  DW_TAG_typedef
    2501                            .dwattr $C$DW$T$96, DW_AT_name("uint_fast16_t")
    2502                            .dwattr $C$DW$T$96, DW_AT_type(*$C$DW$T$19)
    2503                            .dwattr $C$DW$T$96, DW_AT_language(DW_LANG_C)
    2504                            .dwattr $C$DW$T$96, DW_AT_decl_file("C:/ti/ccsv7/tools/compiler/ti-cgt-arm_16.9.0.LTS/include/
    2505                            .dwattr $C$DW$T$96, DW_AT_decl_line(0x48)
    2506                            .dwattr $C$DW$T$96, DW_AT_decl_column(0x16)
    2507                    
    2508                    $C$DW$T$97      .dwtag  DW_TAG_typedef
    2509                            .dwattr $C$DW$T$97, DW_AT_name("uint_fast32_t")
    2510                            .dwattr $C$DW$T$97, DW_AT_type(*$C$DW$T$19)
    2511                            .dwattr $C$DW$T$97, DW_AT_language(DW_LANG_C)
    2512                            .dwattr $C$DW$T$97, DW_AT_decl_file("C:/ti/ccsv7/tools/compiler/ti-cgt-arm_16.9.0.LTS/include/
    2513                            .dwattr $C$DW$T$97, DW_AT_decl_line(0x4b)
    2514                            .dwattr $C$DW$T$97, DW_AT_decl_column(0x16)
    2515                    
    2516                    $C$DW$T$98      .dwtag  DW_TAG_typedef
    2517                            .dwattr $C$DW$T$98, DW_AT_name("uint_fast8_t")
    2518                            .dwattr $C$DW$T$98, DW_AT_type(*$C$DW$T$19)
    2519                            .dwattr $C$DW$T$98, DW_AT_language(DW_LANG_C)
    2520                            .dwattr $C$DW$T$98, DW_AT_decl_file("C:/ti/ccsv7/tools/compiler/ti-cgt-arm_16.9.0.LTS/include/
    2521                            .dwattr $C$DW$T$98, DW_AT_decl_line(0x46)
    2522                            .dwattr $C$DW$T$98, DW_AT_decl_column(0x16)
    2523                    
    2524                    $C$DW$T$99      .dwtag  DW_TAG_typedef
    2525                            .dwattr $C$DW$T$99, DW_AT_name("uint_least32_t")
    2526                            .dwattr $C$DW$T$99, DW_AT_type(*$C$DW$T$19)
    2527                            .dwattr $C$DW$T$99, DW_AT_language(DW_LANG_C)
    2528                            .dwattr $C$DW$T$99, DW_AT_decl_file("C:/ti/ccsv7/tools/compiler/ti-cgt-arm_16.9.0.LTS/include/
    2529                            .dwattr $C$DW$T$99, DW_AT_decl_line(0x3d)
    2530                            .dwattr $C$DW$T$99, DW_AT_decl_column(0x16)
TI ARM Assembler PC v16.9.0 Thu Feb 16 13:27:12 2017

Tools Copyright (c) 1996-2015 Texas Instruments Incorporated
C:\Users\bob\AppData\Local\Temp\0245610                              PAGE   47

    2531                    
    2532                    $C$DW$T$100     .dwtag  DW_TAG_typedef
    2533                            .dwattr $C$DW$T$100, DW_AT_name("uintptr_t")
    2534                            .dwattr $C$DW$T$100, DW_AT_type(*$C$DW$T$11)
    2535                            .dwattr $C$DW$T$100, DW_AT_language(DW_LANG_C)
    2536                            .dwattr $C$DW$T$100, DW_AT_decl_file("C:/ti/ccsv7/tools/compiler/ti-cgt-arm_16.9.0.LTS/include
    2537                            .dwattr $C$DW$T$100, DW_AT_decl_line(0x53)
    2538                            .dwattr $C$DW$T$100, DW_AT_decl_column(0x1a)
    2539                    
    2540                    $C$DW$T$12      .dwtag  DW_TAG_base_type
    2541                            .dwattr $C$DW$T$12, DW_AT_encoding(DW_ATE_signed)
    2542                            .dwattr $C$DW$T$12, DW_AT_name("long")
    2543                            .dwattr $C$DW$T$12, DW_AT_byte_size(0x04)
    2544                    
    2545                    $C$DW$T$13      .dwtag  DW_TAG_base_type
    2546                            .dwattr $C$DW$T$13, DW_AT_encoding(DW_ATE_unsigned)
    2547                            .dwattr $C$DW$T$13, DW_AT_name("unsigned long")
    2548                            .dwattr $C$DW$T$13, DW_AT_byte_size(0x04)
    2549                    
    2550                    $C$DW$T$14      .dwtag  DW_TAG_base_type
    2551                            .dwattr $C$DW$T$14, DW_AT_encoding(DW_ATE_signed)
    2552                            .dwattr $C$DW$T$14, DW_AT_name("long long")
    2553                            .dwattr $C$DW$T$14, DW_AT_byte_size(0x08)
    2554                    
    2555                    $C$DW$T$101     .dwtag  DW_TAG_typedef
    2556                            .dwattr $C$DW$T$101, DW_AT_name("int64_t")
    2557                            .dwattr $C$DW$T$101, DW_AT_type(*$C$DW$T$14)
    2558                            .dwattr $C$DW$T$101, DW_AT_language(DW_LANG_C)
    2559                            .dwattr $C$DW$T$101, DW_AT_decl_file("C:/ti/ccsv7/tools/compiler/ti-cgt-arm_16.9.0.LTS/include
    2560                            .dwattr $C$DW$T$101, DW_AT_decl_line(0x32)
    2561                            .dwattr $C$DW$T$101, DW_AT_decl_column(0x21)
    2562                    
    2563                    $C$DW$T$102     .dwtag  DW_TAG_typedef
    2564                            .dwattr $C$DW$T$102, DW_AT_name("int_fast64_t")
    2565                            .dwattr $C$DW$T$102, DW_AT_type(*$C$DW$T$101)
    2566                            .dwattr $C$DW$T$102, DW_AT_language(DW_LANG_C)
    2567                            .dwattr $C$DW$T$102, DW_AT_decl_file("C:/ti/ccsv7/tools/compiler/ti-cgt-arm_16.9.0.LTS/include
    2568                            .dwattr $C$DW$T$102, DW_AT_decl_line(0x4e)
    2569                            .dwattr $C$DW$T$102, DW_AT_decl_column(0x17)
    2570                    
    2571                    $C$DW$T$103     .dwtag  DW_TAG_typedef
    2572                            .dwattr $C$DW$T$103, DW_AT_name("int_least64_t")
    2573                            .dwattr $C$DW$T$103, DW_AT_type(*$C$DW$T$101)
    2574                            .dwattr $C$DW$T$103, DW_AT_language(DW_LANG_C)
    2575                            .dwattr $C$DW$T$103, DW_AT_decl_file("C:/ti/ccsv7/tools/compiler/ti-cgt-arm_16.9.0.LTS/include
    2576                            .dwattr $C$DW$T$103, DW_AT_decl_line(0x40)
    2577                            .dwattr $C$DW$T$103, DW_AT_decl_column(0x17)
    2578                    
    2579                    $C$DW$T$104     .dwtag  DW_TAG_typedef
    2580                            .dwattr $C$DW$T$104, DW_AT_name("sint64")
    2581                            .dwattr $C$DW$T$104, DW_AT_type(*$C$DW$T$101)
    2582                            .dwattr $C$DW$T$104, DW_AT_language(DW_LANG_C)
    2583                            .dwattr $C$DW$T$104, DW_AT_decl_file("C:\Users\bob\Documents\Projects\induct_forge\RM57Lx_test
    2584                            .dwattr $C$DW$T$104, DW_AT_decl_line(0x59)
    2585                            .dwattr $C$DW$T$104, DW_AT_decl_column(0x11)
TI ARM Assembler PC v16.9.0 Thu Feb 16 13:27:12 2017

Tools Copyright (c) 1996-2015 Texas Instruments Incorporated
C:\Users\bob\AppData\Local\Temp\0245610                              PAGE   48

    2586                    
    2587                    $C$DW$T$105     .dwtag  DW_TAG_typedef
    2588                            .dwattr $C$DW$T$105, DW_AT_name("intmax_t")
    2589                            .dwattr $C$DW$T$105, DW_AT_type(*$C$DW$T$14)
    2590                            .dwattr $C$DW$T$105, DW_AT_language(DW_LANG_C)
    2591                            .dwattr $C$DW$T$105, DW_AT_decl_file("C:/ti/ccsv7/tools/compiler/ti-cgt-arm_16.9.0.LTS/include
    2592                            .dwattr $C$DW$T$105, DW_AT_decl_line(0x56)
    2593                            .dwattr $C$DW$T$105, DW_AT_decl_column(0x20)
    2594                    
    2595                    $C$DW$T$15      .dwtag  DW_TAG_base_type
    2596                            .dwattr $C$DW$T$15, DW_AT_encoding(DW_ATE_unsigned)
    2597                            .dwattr $C$DW$T$15, DW_AT_name("unsigned long long")
    2598                            .dwattr $C$DW$T$15, DW_AT_byte_size(0x08)
    2599                    
    2600                    $C$DW$T$106     .dwtag  DW_TAG_typedef
    2601                            .dwattr $C$DW$T$106, DW_AT_name("uint64_t")
    2602                            .dwattr $C$DW$T$106, DW_AT_type(*$C$DW$T$15)
    2603                            .dwattr $C$DW$T$106, DW_AT_language(DW_LANG_C)
    2604                            .dwattr $C$DW$T$106, DW_AT_decl_file("C:/ti/ccsv7/tools/compiler/ti-cgt-arm_16.9.0.LTS/include
    2605                            .dwattr $C$DW$T$106, DW_AT_decl_line(0x33)
    2606                            .dwattr $C$DW$T$106, DW_AT_decl_column(0x20)
    2607                    
    2608                    $C$DW$T$107     .dwtag  DW_TAG_typedef
    2609                            .dwattr $C$DW$T$107, DW_AT_name("uint64")
    2610                            .dwattr $C$DW$T$107, DW_AT_type(*$C$DW$T$106)
    2611                            .dwattr $C$DW$T$107, DW_AT_language(DW_LANG_C)
    2612                            .dwattr $C$DW$T$107, DW_AT_decl_file("C:\Users\bob\Documents\Projects\induct_forge\RM57Lx_test
    2613                            .dwattr $C$DW$T$107, DW_AT_decl_line(0x3c)
    2614                            .dwattr $C$DW$T$107, DW_AT_decl_column(0x12)
    2615                    
    2616                    $C$DW$T$108     .dwtag  DW_TAG_typedef
    2617                            .dwattr $C$DW$T$108, DW_AT_name("uint_fast64_t")
    2618                            .dwattr $C$DW$T$108, DW_AT_type(*$C$DW$T$106)
    2619                            .dwattr $C$DW$T$108, DW_AT_language(DW_LANG_C)
    2620                            .dwattr $C$DW$T$108, DW_AT_decl_file("C:/ti/ccsv7/tools/compiler/ti-cgt-arm_16.9.0.LTS/include
    2621                            .dwattr $C$DW$T$108, DW_AT_decl_line(0x4f)
    2622                            .dwattr $C$DW$T$108, DW_AT_decl_column(0x16)
    2623                    
    2624                    $C$DW$T$109     .dwtag  DW_TAG_typedef
    2625                            .dwattr $C$DW$T$109, DW_AT_name("uint_least64_t")
    2626                            .dwattr $C$DW$T$109, DW_AT_type(*$C$DW$T$106)
    2627                            .dwattr $C$DW$T$109, DW_AT_language(DW_LANG_C)
    2628                            .dwattr $C$DW$T$109, DW_AT_decl_file("C:/ti/ccsv7/tools/compiler/ti-cgt-arm_16.9.0.LTS/include
    2629                            .dwattr $C$DW$T$109, DW_AT_decl_line(0x41)
    2630                            .dwattr $C$DW$T$109, DW_AT_decl_column(0x16)
    2631                    
    2632                    $C$DW$T$110     .dwtag  DW_TAG_typedef
    2633                            .dwattr $C$DW$T$110, DW_AT_name("uintmax_t")
    2634                            .dwattr $C$DW$T$110, DW_AT_type(*$C$DW$T$15)
    2635                            .dwattr $C$DW$T$110, DW_AT_language(DW_LANG_C)
    2636                            .dwattr $C$DW$T$110, DW_AT_decl_file("C:/ti/ccsv7/tools/compiler/ti-cgt-arm_16.9.0.LTS/include
    2637                            .dwattr $C$DW$T$110, DW_AT_decl_line(0x57)
    2638                            .dwattr $C$DW$T$110, DW_AT_decl_column(0x20)
    2639                    
    2640                    $C$DW$T$16      .dwtag  DW_TAG_base_type
TI ARM Assembler PC v16.9.0 Thu Feb 16 13:27:12 2017

Tools Copyright (c) 1996-2015 Texas Instruments Incorporated
C:\Users\bob\AppData\Local\Temp\0245610                              PAGE   49

    2641                            .dwattr $C$DW$T$16, DW_AT_encoding(DW_ATE_float)
    2642                            .dwattr $C$DW$T$16, DW_AT_name("float")
    2643                            .dwattr $C$DW$T$16, DW_AT_byte_size(0x04)
    2644                    
    2645                    $C$DW$T$111     .dwtag  DW_TAG_typedef
    2646                            .dwattr $C$DW$T$111, DW_AT_name("float32")
    2647                            .dwattr $C$DW$T$111, DW_AT_type(*$C$DW$T$16)
    2648                            .dwattr $C$DW$T$111, DW_AT_language(DW_LANG_C)
    2649                            .dwattr $C$DW$T$111, DW_AT_decl_file("C:\Users\bob\Documents\Projects\induct_forge\RM57Lx_test
    2650                            .dwattr $C$DW$T$111, DW_AT_decl_line(0x6d)
    2651                            .dwattr $C$DW$T$111, DW_AT_decl_column(0x0f)
    2652                    
    2653                    $C$DW$T$17      .dwtag  DW_TAG_base_type
    2654                            .dwattr $C$DW$T$17, DW_AT_encoding(DW_ATE_float)
    2655                            .dwattr $C$DW$T$17, DW_AT_name("double")
    2656                            .dwattr $C$DW$T$17, DW_AT_byte_size(0x08)
    2657                    
    2658                    $C$DW$T$112     .dwtag  DW_TAG_typedef
    2659                            .dwattr $C$DW$T$112, DW_AT_name("float64")
    2660                            .dwattr $C$DW$T$112, DW_AT_type(*$C$DW$T$17)
    2661                            .dwattr $C$DW$T$112, DW_AT_language(DW_LANG_C)
    2662                            .dwattr $C$DW$T$112, DW_AT_decl_file("C:\Users\bob\Documents\Projects\induct_forge\RM57Lx_test
    2663                            .dwattr $C$DW$T$112, DW_AT_decl_line(0x72)
    2664                            .dwattr $C$DW$T$112, DW_AT_decl_column(0x10)
    2665                    
    2666                    $C$DW$T$18      .dwtag  DW_TAG_base_type
    2667                            .dwattr $C$DW$T$18, DW_AT_encoding(DW_ATE_float)
    2668                            .dwattr $C$DW$T$18, DW_AT_name("long double")
    2669                            .dwattr $C$DW$T$18, DW_AT_byte_size(0x08)
    2670                    
    2671                    $C$DW$T$113     .dwtag  DW_TAG_base_type
    2672                            .dwattr $C$DW$T$113, DW_AT_encoding(DW_ATE_unsigned_char)
    2673                            .dwattr $C$DW$T$113, DW_AT_name("unsigned char")
    2674                            .dwattr $C$DW$T$113, DW_AT_byte_size(0x01)
    2675                    
    2676                    $C$DW$T$114     .dwtag  DW_TAG_typedef
    2677                            .dwattr $C$DW$T$114, DW_AT_name("boolean")
    2678                            .dwattr $C$DW$T$114, DW_AT_type(*$C$DW$T$113)
    2679                            .dwattr $C$DW$T$114, DW_AT_language(DW_LANG_C)
    2680                            .dwattr $C$DW$T$114, DW_AT_decl_file("C:\Users\bob\Documents\Projects\induct_forge\RM57Lx_test
    2681                            .dwattr $C$DW$T$114, DW_AT_decl_line(0x53)
    2682                            .dwattr $C$DW$T$114, DW_AT_decl_column(0x0f)
    2683                    
    2684                    $C$DW$T$115     .dwtag  DW_TAG_typedef
    2685                            .dwattr $C$DW$T$115, DW_AT_name("tBoolean")
    2686                            .dwattr $C$DW$T$115, DW_AT_type(*$C$DW$T$114)
    2687                            .dwattr $C$DW$T$115, DW_AT_language(DW_LANG_C)
    2688                            .dwattr $C$DW$T$115, DW_AT_decl_file("C:\Users\bob\Documents\Projects\induct_forge\RM57Lx_test
    2689                            .dwattr $C$DW$T$115, DW_AT_decl_line(0x40)
    2690                            .dwattr $C$DW$T$115, DW_AT_decl_column(0x11)
    2691                    
    2692                    
    2693                    $C$DW$T$21      .dwtag  DW_TAG_structure_type
    2694                            .dwattr $C$DW$T$21, DW_AT_name("ccmr5Base")
    2695                            .dwattr $C$DW$T$21, DW_AT_byte_size(0x28)
TI ARM Assembler PC v16.9.0 Thu Feb 16 13:27:12 2017

Tools Copyright (c) 1996-2015 Texas Instruments Incorporated
C:\Users\bob\AppData\Local\Temp\0245610                              PAGE   50

    2696                    $C$DW$79        .dwtag  DW_TAG_member
    2697                            .dwattr $C$DW$79, DW_AT_type(*$C$DW$T$20)
    2698                            .dwattr $C$DW$79, DW_AT_name("CCMSR1")
    2699                            .dwattr $C$DW$79, DW_AT_TI_symbol_name("CCMSR1")
    2700                            .dwattr $C$DW$79, DW_AT_data_member_location[DW_OP_plus_uconst 0x0]
    2701                            .dwattr $C$DW$79, DW_AT_accessibility(DW_ACCESS_public)
    2702                            .dwattr $C$DW$79, DW_AT_decl_file("C:\Users\bob\Documents\Projects\induct_forge\RM57Lx_test\Pr
    2703                            .dwattr $C$DW$79, DW_AT_decl_line(0x45)
    2704                            .dwattr $C$DW$79, DW_AT_decl_column(0x0c)
    2705                    
    2706                    $C$DW$80        .dwtag  DW_TAG_member
    2707                            .dwattr $C$DW$80, DW_AT_type(*$C$DW$T$20)
    2708                            .dwattr $C$DW$80, DW_AT_name("CCMKEYR1")
    2709                            .dwattr $C$DW$80, DW_AT_TI_symbol_name("CCMKEYR1")
    2710                            .dwattr $C$DW$80, DW_AT_data_member_location[DW_OP_plus_uconst 0x4]
    2711                            .dwattr $C$DW$80, DW_AT_accessibility(DW_ACCESS_public)
    2712                            .dwattr $C$DW$80, DW_AT_decl_file("C:\Users\bob\Documents\Projects\induct_forge\RM57Lx_test\Pr
    2713                            .dwattr $C$DW$80, DW_AT_decl_line(0x46)
    2714                            .dwattr $C$DW$80, DW_AT_decl_column(0x0c)
    2715                    
    2716                    $C$DW$81        .dwtag  DW_TAG_member
    2717                            .dwattr $C$DW$81, DW_AT_type(*$C$DW$T$20)
    2718                            .dwattr $C$DW$81, DW_AT_name("CCMSR2")
    2719                            .dwattr $C$DW$81, DW_AT_TI_symbol_name("CCMSR2")
    2720                            .dwattr $C$DW$81, DW_AT_data_member_location[DW_OP_plus_uconst 0x8]
    2721                            .dwattr $C$DW$81, DW_AT_accessibility(DW_ACCESS_public)
    2722                            .dwattr $C$DW$81, DW_AT_decl_file("C:\Users\bob\Documents\Projects\induct_forge\RM57Lx_test\Pr
    2723                            .dwattr $C$DW$81, DW_AT_decl_line(0x47)
    2724                            .dwattr $C$DW$81, DW_AT_decl_column(0x0c)
    2725                    
    2726                    $C$DW$82        .dwtag  DW_TAG_member
    2727                            .dwattr $C$DW$82, DW_AT_type(*$C$DW$T$20)
    2728                            .dwattr $C$DW$82, DW_AT_name("CCMKEYR2")
    2729                            .dwattr $C$DW$82, DW_AT_TI_symbol_name("CCMKEYR2")
    2730                            .dwattr $C$DW$82, DW_AT_data_member_location[DW_OP_plus_uconst 0xc]
    2731                            .dwattr $C$DW$82, DW_AT_accessibility(DW_ACCESS_public)
    2732                            .dwattr $C$DW$82, DW_AT_decl_file("C:\Users\bob\Documents\Projects\induct_forge\RM57Lx_test\Pr
    2733                            .dwattr $C$DW$82, DW_AT_decl_line(0x48)
    2734                            .dwattr $C$DW$82, DW_AT_decl_column(0x0c)
    2735                    
    2736                    $C$DW$83        .dwtag  DW_TAG_member
    2737                            .dwattr $C$DW$83, DW_AT_type(*$C$DW$T$20)
    2738                            .dwattr $C$DW$83, DW_AT_name("CCMSR3")
    2739                            .dwattr $C$DW$83, DW_AT_TI_symbol_name("CCMSR3")
    2740                            .dwattr $C$DW$83, DW_AT_data_member_location[DW_OP_plus_uconst 0x10]
    2741                            .dwattr $C$DW$83, DW_AT_accessibility(DW_ACCESS_public)
    2742                            .dwattr $C$DW$83, DW_AT_decl_file("C:\Users\bob\Documents\Projects\induct_forge\RM57Lx_test\Pr
    2743                            .dwattr $C$DW$83, DW_AT_decl_line(0x49)
    2744                            .dwattr $C$DW$83, DW_AT_decl_column(0x0c)
    2745                    
    2746                    $C$DW$84        .dwtag  DW_TAG_member
    2747                            .dwattr $C$DW$84, DW_AT_type(*$C$DW$T$20)
    2748                            .dwattr $C$DW$84, DW_AT_name("CCMKEYR3")
    2749                            .dwattr $C$DW$84, DW_AT_TI_symbol_name("CCMKEYR3")
    2750                            .dwattr $C$DW$84, DW_AT_data_member_location[DW_OP_plus_uconst 0x14]
TI ARM Assembler PC v16.9.0 Thu Feb 16 13:27:12 2017

Tools Copyright (c) 1996-2015 Texas Instruments Incorporated
C:\Users\bob\AppData\Local\Temp\0245610                              PAGE   51

    2751                            .dwattr $C$DW$84, DW_AT_accessibility(DW_ACCESS_public)
    2752                            .dwattr $C$DW$84, DW_AT_decl_file("C:\Users\bob\Documents\Projects\induct_forge\RM57Lx_test\Pr
    2753                            .dwattr $C$DW$84, DW_AT_decl_line(0x4a)
    2754                            .dwattr $C$DW$84, DW_AT_decl_column(0x0c)
    2755                    
    2756                    $C$DW$85        .dwtag  DW_TAG_member
    2757                            .dwattr $C$DW$85, DW_AT_type(*$C$DW$T$20)
    2758                            .dwattr $C$DW$85, DW_AT_name("CCMPOLCNTRL")
    2759                            .dwattr $C$DW$85, DW_AT_TI_symbol_name("CCMPOLCNTRL")
    2760                            .dwattr $C$DW$85, DW_AT_data_member_location[DW_OP_plus_uconst 0x18]
    2761                            .dwattr $C$DW$85, DW_AT_accessibility(DW_ACCESS_public)
    2762                            .dwattr $C$DW$85, DW_AT_decl_file("C:\Users\bob\Documents\Projects\induct_forge\RM57Lx_test\Pr
    2763                            .dwattr $C$DW$85, DW_AT_decl_line(0x4b)
    2764                            .dwattr $C$DW$85, DW_AT_decl_column(0x0c)
    2765                    
    2766                    $C$DW$86        .dwtag  DW_TAG_member
    2767                            .dwattr $C$DW$86, DW_AT_type(*$C$DW$T$20)
    2768                            .dwattr $C$DW$86, DW_AT_name("CCMSR4")
    2769                            .dwattr $C$DW$86, DW_AT_TI_symbol_name("CCMSR4")
    2770                            .dwattr $C$DW$86, DW_AT_data_member_location[DW_OP_plus_uconst 0x1c]
    2771                            .dwattr $C$DW$86, DW_AT_accessibility(DW_ACCESS_public)
    2772                            .dwattr $C$DW$86, DW_AT_decl_file("C:\Users\bob\Documents\Projects\induct_forge\RM57Lx_test\Pr
    2773                            .dwattr $C$DW$86, DW_AT_decl_line(0x4c)
    2774                            .dwattr $C$DW$86, DW_AT_decl_column(0x0c)
    2775                    
    2776                    $C$DW$87        .dwtag  DW_TAG_member
    2777                            .dwattr $C$DW$87, DW_AT_type(*$C$DW$T$20)
    2778                            .dwattr $C$DW$87, DW_AT_name("CCMKEYR4")
    2779                            .dwattr $C$DW$87, DW_AT_TI_symbol_name("CCMKEYR4")
    2780                            .dwattr $C$DW$87, DW_AT_data_member_location[DW_OP_plus_uconst 0x20]
    2781                            .dwattr $C$DW$87, DW_AT_accessibility(DW_ACCESS_public)
    2782                            .dwattr $C$DW$87, DW_AT_decl_file("C:\Users\bob\Documents\Projects\induct_forge\RM57Lx_test\Pr
    2783                            .dwattr $C$DW$87, DW_AT_decl_line(0x4d)
    2784                            .dwattr $C$DW$87, DW_AT_decl_column(0x0c)
    2785                    
    2786                    $C$DW$88        .dwtag  DW_TAG_member
    2787                            .dwattr $C$DW$88, DW_AT_type(*$C$DW$T$20)
    2788                            .dwattr $C$DW$88, DW_AT_name("CCMPDSTAT0")
    2789                            .dwattr $C$DW$88, DW_AT_TI_symbol_name("CCMPDSTAT0")
    2790                            .dwattr $C$DW$88, DW_AT_data_member_location[DW_OP_plus_uconst 0x24]
    2791                            .dwattr $C$DW$88, DW_AT_accessibility(DW_ACCESS_public)
    2792                            .dwattr $C$DW$88, DW_AT_decl_file("C:\Users\bob\Documents\Projects\induct_forge\RM57Lx_test\Pr
    2793                            .dwattr $C$DW$88, DW_AT_decl_line(0x4e)
    2794                            .dwattr $C$DW$88, DW_AT_decl_column(0x0c)
    2795                    
    2796                            .dwattr $C$DW$T$21, DW_AT_decl_file("C:\Users\bob\Documents\Projects\induct_forge\RM57Lx_test\
    2797                            .dwattr $C$DW$T$21, DW_AT_decl_line(0x43)
    2798                            .dwattr $C$DW$T$21, DW_AT_decl_column(0x19)
    2799                            .dwendtag $C$DW$T$21
    2800                    
    2801                    $C$DW$T$116     .dwtag  DW_TAG_volatile_type
    2802                            .dwattr $C$DW$T$116, DW_AT_type(*$C$DW$T$21)
    2803                    
    2804                    $C$DW$T$117     .dwtag  DW_TAG_typedef
    2805                            .dwattr $C$DW$T$117, DW_AT_name("ccmr5BASE_t")
TI ARM Assembler PC v16.9.0 Thu Feb 16 13:27:12 2017

Tools Copyright (c) 1996-2015 Texas Instruments Incorporated
C:\Users\bob\AppData\Local\Temp\0245610                              PAGE   52

    2806                            .dwattr $C$DW$T$117, DW_AT_type(*$C$DW$T$116)
    2807                            .dwattr $C$DW$T$117, DW_AT_language(DW_LANG_C)
    2808                            .dwattr $C$DW$T$117, DW_AT_decl_file("C:\Users\bob\Documents\Projects\induct_forge\RM57Lx_test
    2809                            .dwattr $C$DW$T$117, DW_AT_decl_line(0x4f)
    2810                            .dwattr $C$DW$T$117, DW_AT_decl_column(0x03)
    2811                    
    2812                    
    2813                    $C$DW$T$69      .dwtag  DW_TAG_enumeration_type
    2814                            .dwattr $C$DW$T$69, DW_AT_name("config_value_type")
    2815                            .dwattr $C$DW$T$69, DW_AT_byte_size(0x01)
    2816                    $C$DW$89        .dwtag  DW_TAG_enumerator
    2817                            .dwattr $C$DW$89, DW_AT_name("InitialValue")
    2818                            .dwattr $C$DW$89, DW_AT_const_value(0x00)
    2819                            .dwattr $C$DW$89, DW_AT_decl_file("C:\Users\bob\Documents\Projects\induct_forge\RM57Lx_test\Pr
    2820                            .dwattr $C$DW$89, DW_AT_decl_line(0x5c)
    2821                            .dwattr $C$DW$89, DW_AT_decl_column(0x02)
    2822                    
    2823                    $C$DW$90        .dwtag  DW_TAG_enumerator
    2824                            .dwattr $C$DW$90, DW_AT_name("CurrentValue")
    2825                            .dwattr $C$DW$90, DW_AT_const_value(0x01)
    2826                            .dwattr $C$DW$90, DW_AT_decl_file("C:\Users\bob\Documents\Projects\induct_forge\RM57Lx_test\Pr
    2827                            .dwattr $C$DW$90, DW_AT_decl_line(0x5d)
    2828                            .dwattr $C$DW$90, DW_AT_decl_column(0x02)
    2829                    
    2830                            .dwattr $C$DW$T$69, DW_AT_decl_file("C:\Users\bob\Documents\Projects\induct_forge\RM57Lx_test\
    2831                            .dwattr $C$DW$T$69, DW_AT_decl_line(0x5a)
    2832                            .dwattr $C$DW$T$69, DW_AT_decl_column(0x0e)
    2833                            .dwendtag $C$DW$T$69
    2834                    
    2835                    $C$DW$T$70      .dwtag  DW_TAG_typedef
    2836                            .dwattr $C$DW$T$70, DW_AT_name("config_value_type_t")
    2837                            .dwattr $C$DW$T$70, DW_AT_type(*$C$DW$T$69)
    2838                            .dwattr $C$DW$T$70, DW_AT_language(DW_LANG_C)
    2839                            .dwattr $C$DW$T$70, DW_AT_decl_file("C:\Users\bob\Documents\Projects\induct_forge\RM57Lx_test\
    2840                            .dwattr $C$DW$T$70, DW_AT_decl_line(0x5e)
    2841                            .dwattr $C$DW$T$70, DW_AT_decl_column(0x02)
    2842                    
    2843                    
    2844                    $C$DW$T$24      .dwtag  DW_TAG_structure_type
    2845                            .dwattr $C$DW$T$24, DW_AT_name("esmBase")
    2846                            .dwattr $C$DW$T$24, DW_AT_byte_size(0xa4)
    2847                    $C$DW$91        .dwtag  DW_TAG_member
    2848                            .dwattr $C$DW$91, DW_AT_type(*$C$DW$T$20)
    2849                            .dwattr $C$DW$91, DW_AT_name("EEPAPR1")
    2850                            .dwattr $C$DW$91, DW_AT_TI_symbol_name("EEPAPR1")
    2851                            .dwattr $C$DW$91, DW_AT_data_member_location[DW_OP_plus_uconst 0x0]
    2852                            .dwattr $C$DW$91, DW_AT_accessibility(DW_ACCESS_public)
    2853                            .dwattr $C$DW$91, DW_AT_decl_file("C:\Users\bob\Documents\Projects\induct_forge\RM57Lx_test\Pr
    2854                            .dwattr $C$DW$91, DW_AT_decl_line(0x48)
    2855                            .dwattr $C$DW$91, DW_AT_decl_column(0x0c)
    2856                    
    2857                    $C$DW$92        .dwtag  DW_TAG_member
    2858                            .dwattr $C$DW$92, DW_AT_type(*$C$DW$T$20)
    2859                            .dwattr $C$DW$92, DW_AT_name("DEPAPR1")
    2860                            .dwattr $C$DW$92, DW_AT_TI_symbol_name("DEPAPR1")
TI ARM Assembler PC v16.9.0 Thu Feb 16 13:27:12 2017

Tools Copyright (c) 1996-2015 Texas Instruments Incorporated
C:\Users\bob\AppData\Local\Temp\0245610                              PAGE   53

    2861                            .dwattr $C$DW$92, DW_AT_data_member_location[DW_OP_plus_uconst 0x4]
    2862                            .dwattr $C$DW$92, DW_AT_accessibility(DW_ACCESS_public)
    2863                            .dwattr $C$DW$92, DW_AT_decl_file("C:\Users\bob\Documents\Projects\induct_forge\RM57Lx_test\Pr
    2864                            .dwattr $C$DW$92, DW_AT_decl_line(0x49)
    2865                            .dwattr $C$DW$92, DW_AT_decl_column(0x0c)
    2866                    
    2867                    $C$DW$93        .dwtag  DW_TAG_member
    2868                            .dwattr $C$DW$93, DW_AT_type(*$C$DW$T$20)
    2869                            .dwattr $C$DW$93, DW_AT_name("IESR1")
    2870                            .dwattr $C$DW$93, DW_AT_TI_symbol_name("IESR1")
    2871                            .dwattr $C$DW$93, DW_AT_data_member_location[DW_OP_plus_uconst 0x8]
    2872                            .dwattr $C$DW$93, DW_AT_accessibility(DW_ACCESS_public)
    2873                            .dwattr $C$DW$93, DW_AT_decl_file("C:\Users\bob\Documents\Projects\induct_forge\RM57Lx_test\Pr
    2874                            .dwattr $C$DW$93, DW_AT_decl_line(0x4a)
    2875                            .dwattr $C$DW$93, DW_AT_decl_column(0x0c)
    2876                    
    2877                    $C$DW$94        .dwtag  DW_TAG_member
    2878                            .dwattr $C$DW$94, DW_AT_type(*$C$DW$T$20)
    2879                            .dwattr $C$DW$94, DW_AT_name("IECR1")
    2880                            .dwattr $C$DW$94, DW_AT_TI_symbol_name("IECR1")
    2881                            .dwattr $C$DW$94, DW_AT_data_member_location[DW_OP_plus_uconst 0xc]
    2882                            .dwattr $C$DW$94, DW_AT_accessibility(DW_ACCESS_public)
    2883                            .dwattr $C$DW$94, DW_AT_decl_file("C:\Users\bob\Documents\Projects\induct_forge\RM57Lx_test\Pr
    2884                            .dwattr $C$DW$94, DW_AT_decl_line(0x4b)
    2885                            .dwattr $C$DW$94, DW_AT_decl_column(0x0c)
    2886                    
    2887                    $C$DW$95        .dwtag  DW_TAG_member
    2888                            .dwattr $C$DW$95, DW_AT_type(*$C$DW$T$20)
    2889                            .dwattr $C$DW$95, DW_AT_name("ILSR1")
    2890                            .dwattr $C$DW$95, DW_AT_TI_symbol_name("ILSR1")
    2891                            .dwattr $C$DW$95, DW_AT_data_member_location[DW_OP_plus_uconst 0x10]
    2892                            .dwattr $C$DW$95, DW_AT_accessibility(DW_ACCESS_public)
    2893                            .dwattr $C$DW$95, DW_AT_decl_file("C:\Users\bob\Documents\Projects\induct_forge\RM57Lx_test\Pr
    2894                            .dwattr $C$DW$95, DW_AT_decl_line(0x4c)
    2895                            .dwattr $C$DW$95, DW_AT_decl_column(0x0c)
    2896                    
    2897                    $C$DW$96        .dwtag  DW_TAG_member
    2898                            .dwattr $C$DW$96, DW_AT_type(*$C$DW$T$20)
    2899                            .dwattr $C$DW$96, DW_AT_name("ILCR1")
    2900                            .dwattr $C$DW$96, DW_AT_TI_symbol_name("ILCR1")
    2901                            .dwattr $C$DW$96, DW_AT_data_member_location[DW_OP_plus_uconst 0x14]
    2902                            .dwattr $C$DW$96, DW_AT_accessibility(DW_ACCESS_public)
    2903                            .dwattr $C$DW$96, DW_AT_decl_file("C:\Users\bob\Documents\Projects\induct_forge\RM57Lx_test\Pr
    2904                            .dwattr $C$DW$96, DW_AT_decl_line(0x4d)
    2905                            .dwattr $C$DW$96, DW_AT_decl_column(0x0c)
    2906                    
    2907                    $C$DW$97        .dwtag  DW_TAG_member
    2908                            .dwattr $C$DW$97, DW_AT_type(*$C$DW$T$22)
    2909                            .dwattr $C$DW$97, DW_AT_name("SR1")
    2910                            .dwattr $C$DW$97, DW_AT_TI_symbol_name("SR1")
    2911                            .dwattr $C$DW$97, DW_AT_data_member_location[DW_OP_plus_uconst 0x18]
    2912                            .dwattr $C$DW$97, DW_AT_accessibility(DW_ACCESS_public)
    2913                            .dwattr $C$DW$97, DW_AT_decl_file("C:\Users\bob\Documents\Projects\induct_forge\RM57Lx_test\Pr
    2914                            .dwattr $C$DW$97, DW_AT_decl_line(0x4e)
    2915                            .dwattr $C$DW$97, DW_AT_decl_column(0x0c)
TI ARM Assembler PC v16.9.0 Thu Feb 16 13:27:12 2017

Tools Copyright (c) 1996-2015 Texas Instruments Incorporated
C:\Users\bob\AppData\Local\Temp\0245610                              PAGE   54

    2916                    
    2917                    $C$DW$98        .dwtag  DW_TAG_member
    2918                            .dwattr $C$DW$98, DW_AT_type(*$C$DW$T$20)
    2919                            .dwattr $C$DW$98, DW_AT_name("EPSR")
    2920                            .dwattr $C$DW$98, DW_AT_TI_symbol_name("EPSR")
    2921                            .dwattr $C$DW$98, DW_AT_data_member_location[DW_OP_plus_uconst 0x24]
    2922                            .dwattr $C$DW$98, DW_AT_accessibility(DW_ACCESS_public)
    2923                            .dwattr $C$DW$98, DW_AT_decl_file("C:\Users\bob\Documents\Projects\induct_forge\RM57Lx_test\Pr
    2924                            .dwattr $C$DW$98, DW_AT_decl_line(0x4f)
    2925                            .dwattr $C$DW$98, DW_AT_decl_column(0x0c)
    2926                    
    2927                    $C$DW$99        .dwtag  DW_TAG_member
    2928                            .dwattr $C$DW$99, DW_AT_type(*$C$DW$T$20)
    2929                            .dwattr $C$DW$99, DW_AT_name("IOFFHR")
    2930                            .dwattr $C$DW$99, DW_AT_TI_symbol_name("IOFFHR")
    2931                            .dwattr $C$DW$99, DW_AT_data_member_location[DW_OP_plus_uconst 0x28]
    2932                            .dwattr $C$DW$99, DW_AT_accessibility(DW_ACCESS_public)
    2933                            .dwattr $C$DW$99, DW_AT_decl_file("C:\Users\bob\Documents\Projects\induct_forge\RM57Lx_test\Pr
    2934                            .dwattr $C$DW$99, DW_AT_decl_line(0x50)
    2935                            .dwattr $C$DW$99, DW_AT_decl_column(0x0c)
    2936                    
    2937                    $C$DW$100       .dwtag  DW_TAG_member
    2938                            .dwattr $C$DW$100, DW_AT_type(*$C$DW$T$20)
    2939                            .dwattr $C$DW$100, DW_AT_name("IOFFLR")
    2940                            .dwattr $C$DW$100, DW_AT_TI_symbol_name("IOFFLR")
    2941                            .dwattr $C$DW$100, DW_AT_data_member_location[DW_OP_plus_uconst 0x2c]
    2942                            .dwattr $C$DW$100, DW_AT_accessibility(DW_ACCESS_public)
    2943                            .dwattr $C$DW$100, DW_AT_decl_file("C:\Users\bob\Documents\Projects\induct_forge\RM57Lx_test\P
    2944                            .dwattr $C$DW$100, DW_AT_decl_line(0x51)
    2945                            .dwattr $C$DW$100, DW_AT_decl_column(0x0c)
    2946                    
    2947                    $C$DW$101       .dwtag  DW_TAG_member
    2948                            .dwattr $C$DW$101, DW_AT_type(*$C$DW$T$20)
    2949                            .dwattr $C$DW$101, DW_AT_name("LTCR")
    2950                            .dwattr $C$DW$101, DW_AT_TI_symbol_name("LTCR")
    2951                            .dwattr $C$DW$101, DW_AT_data_member_location[DW_OP_plus_uconst 0x30]
    2952                            .dwattr $C$DW$101, DW_AT_accessibility(DW_ACCESS_public)
    2953                            .dwattr $C$DW$101, DW_AT_decl_file("C:\Users\bob\Documents\Projects\induct_forge\RM57Lx_test\P
    2954                            .dwattr $C$DW$101, DW_AT_decl_line(0x52)
    2955                            .dwattr $C$DW$101, DW_AT_decl_column(0x0c)
    2956                    
    2957                    $C$DW$102       .dwtag  DW_TAG_member
    2958                            .dwattr $C$DW$102, DW_AT_type(*$C$DW$T$20)
    2959                            .dwattr $C$DW$102, DW_AT_name("LTCPR")
    2960                            .dwattr $C$DW$102, DW_AT_TI_symbol_name("LTCPR")
    2961                            .dwattr $C$DW$102, DW_AT_data_member_location[DW_OP_plus_uconst 0x34]
    2962                            .dwattr $C$DW$102, DW_AT_accessibility(DW_ACCESS_public)
    2963                            .dwattr $C$DW$102, DW_AT_decl_file("C:\Users\bob\Documents\Projects\induct_forge\RM57Lx_test\P
    2964                            .dwattr $C$DW$102, DW_AT_decl_line(0x53)
    2965                            .dwattr $C$DW$102, DW_AT_decl_column(0x0c)
    2966                    
    2967                    $C$DW$103       .dwtag  DW_TAG_member
    2968                            .dwattr $C$DW$103, DW_AT_type(*$C$DW$T$20)
    2969                            .dwattr $C$DW$103, DW_AT_name("EKR")
    2970                            .dwattr $C$DW$103, DW_AT_TI_symbol_name("EKR")
